(lp1
(dp2
S'classNames'
p3
(lp4
S'ResultPath'
p5
aS'Task'
p6
aS'object'
p7
asS'name'
p8
g5
sa(dp9
S'host'
p10
S'192.168.123.30'
p11
sg3
(lp12
S'Host'
p13
ag6
aS'SourceFileProvider'
p14
aS'object'
p15
asg8
S'Host.host-192.168.123.30'
p16
sa(dp17
S'CONFIG_USB_OHCI_HCD_PLATFORM'
p18
S'y'
sS'CONFIG_DEFAULT_IO_DELAY_TYPE'
p19
I1
sS'CONFIG_DNS_RESOLVER'
p20
S'y'
sS'net.ipv6.conf.lo.suppress_frag_ndisc'
p21
I1
sS'CONFIG_SGI_PARTITION'
p22
S'y'
sS'CONFIG_GENERIC_STRNCPY_FROM_USER'
p23
S'y'
sS'net.netfilter.nf_log_all_netns'
p24
I0
sS'kernel.sched_domain.cpu1.domain1.forkexec_idx'
p25
I0
sS'CONFIG_KVM_SCHEDACT'
p26
S'y'
sS'CONFIG_WLAN_VENDOR_RALINK'
p27
S'y'
sS'CONFIG_HAVE_DYNAMIC_FTRACE_WITH_REGS'
p28
S'y'
sS'kernel.sched_domain.cpu5.domain0.newidle_idx'
p29
I0
sS'net.ipv4.conf.all.tag'
p30
I0
sS'CONFIG_TOUCHSCREEN_ELAN'
p31
S'y'
sS'CONFIG_EVENT_TRACING'
p32
S'y'
sS'CONFIG_LIVEPATCH'
p33
S'y'
sS'CONFIG_LEDS_TRIGGER_CPU'
p34
S'y'
sS'CONFIG_PCIEPORTBUS'
p35
S'y'
sS'CONFIG_INIT_ENV_ARG_LIMIT'
p36
I32
sS'net.ipv6.conf.default.accept_ra_min_hop_limit'
p37
I1
sS'CONFIG_LEDS_CLASS'
p38
S'y'
sS'kernel.sched_domain.cpu2.domain0.newidle_idx'
p39
I0
sS'net.ipv4.neigh.default.proxy_qlen'
p40
I64
sS'CONFIG_PMC_ATOM'
p41
S'y'
sS'CONFIG_MANDATORY_FILE_LOCKING'
p42
S'y'
sS'fs.quota.free_dquots'
p43
I0
sS'CONFIG_PRINTK_NMI'
p44
S'y'
sS'CONFIG_NETDEVICES'
p45
S'y'
sS'CONFIG_HAVE_DYNAMIC_FTRACE'
p46
S'y'
sS'CONFIG_PINCTRL_SX150X'
p47
S'y'
sS'CONFIG_NET_SCHED'
p48
S'y'
sS'CONFIG_UNIXWARE_DISKLABEL'
p49
S'y'
sS'CONFIG_INLINE_WRITE_UNLOCK'
p50
S'y'
sS'CONFIG_ACPI_REV_OVERRIDE_POSSIBLE'
p51
S'y'
sS'CONFIG_HAVE_ARCH_AUDITSYSCALL'
p52
S'y'
sS'kernel.sched_domain.cpu11.domain0.flags'
p53
I4143
sS'CONFIG_NET_VENDOR_RENESAS'
p54
S'y'
sS'CONFIG_FIRMWARE_EDID'
p55
S'y'
sS'CONFIG_CGROUPS'
p56
S'y'
sS'net.ipv6.conf.ens3.regen_max_retry'
p57
I3
sS'net.ipv4.conf.lo.medium_id'
p58
I0
sS'CONFIG_DEFAULT_MMAP_MIN_ADDR'
p59
I65536
sS'CONFIG_AIO'
p60
S'y'
sS'CONFIG_X86_DEBUGCTLMSR'
p61
S'y'
sS'CONFIG_ARCH_HIBERNATION_HEADER'
p62
S'y'
sS'net.ipv4.tcp_synack_retries'
p63
I5
sS'CONFIG_SECURITY_YAMA'
p64
S'y'
sS'kernel.sched_domain.cpu18.domain0.idle_idx'
p65
I1
sS'CONFIG_CRYPTO_ECB'
p66
S'y'
sS'CONFIG_ACPI_HOTPLUG_MEMORY'
p67
S'y'
sS'CONFIG_SELECT_MEMORY_MODEL'
p68
S'y'
sS'net.ipv4.tcp_notsent_lowat'
p69
I4294967295
sS'kernel.sched_domain.cpu17.domain0.name'
p70
S'DIE'
p71
sS'CONFIG_FS_DAX_PMD'
p72
S'y'
sS'CONFIG_X86_LOCAL_APIC'
p73
S'y'
sS'CONFIG_GENERIC_SMP_IDLE_THREAD'
p74
S'y'
sS'kernel.sched_domain.cpu18.domain0.imbalance_pct'
p75
I125
sS'CONFIG_GENERIC_CLOCKEVENTS_MIN_ADJUST'
p76
S'y'
sS'net.ipv6.conf.all.disable_policy'
p77
I0
sS'kernel.sched_domain.cpu27.domain1.forkexec_idx'
p78
I0
sS'kernel.sched_domain.cpu29.domain1.busy_idx'
p79
I3
sS'CONFIG_TASK_XACCT'
p80
S'y'
sS'CONFIG_KEXEC_BZIMAGE_VERIFY_SIG'
p81
S'y'
sS'CONFIG_EVENTFD'
p82
S'y'
sS'CONFIG_FTRACE_MCOUNT_RECORD'
p83
S'y'
sS'CONFIG_HAVE_PERF_EVENTS'
p84
S'y'
sS'CONFIG_SND_HDA_CORE'
p85
S'm'
sS'CONFIG_CHECKPOINT_RESTORE'
p86
S'y'
sS'CONFIG_PACKET'
p87
S'y'
sS'kernel.sched_domain.cpu28.domain0.min_interval'
p88
I10
sS'net.ipv6.conf.ens3.use_oif_addrs_only'
p89
I0
sS'kernel.sched_domain.cpu10.domain0.name'
p90
S'DIE'
p91
sS'net.ipv6.conf.all.router_solicitation_max_interval'
p92
I3600
sS'net.ipv4.neigh.lo.proxy_delay'
p93
I80
sS'CONFIG_PARPORT_PC'
p94
S'm'
sS'CONFIG_NLATTR'
p95
S'y'
sS'CONFIG_AGP'
p96
S'y'
sS'CONFIG_ARCH_HAS_GCOV_PROFILE_ALL'
p97
S'y'
sS'net.ipv6.conf.default.addr_gen_mode'
p98
I0
sS'kernel.hung_task_check_count'
p99
I4194304
sS'CONFIG_INFINIBAND_ADDR_TRANS'
p100
S'y'
sS'CONFIG_CRYPTO_SHA512'
p101
S'y'
sS'CONFIG_WLAN_VENDOR_INTERSIL'
p102
S'y'
sS'net.ipv6.conf.all.accept_ra_mtu'
p103
I1
sS'CONFIG_CRYPTO_NULL'
p104
S'y'
sS'net.ipv6.conf.ens3.force_mld_version'
p105
I0
sS'CONFIG_INTEGRITY_ASYMMETRIC_KEYS'
p106
S'y'
sS'CONFIG_BLK_MQ_RDMA'
p107
S'y'
sS'CONFIG_FRAME_POINTER_UNWINDER'
p108
S'y'
sS'CONFIG_HAVE_IRQ_EXIT_ON_IRQ_STACK'
p109
S'y'
sS'CONFIG_CRYPTO_AES_NI_INTEL'
p110
S'm'
sS'CONFIG_MOUSE_PS2'
p111
S'm'
sS'CONFIG_EFI_PARTITION'
p112
S'y'
sS'kernel.sched_domain.cpu13.domain1.busy_factor'
p113
I32
sS'CONFIG_NODES_SPAN_OTHER_NODES'
p114
S'y'
sS'CONFIG_FUNCTION_GRAPH_TRACER'
p115
S'y'
sS'net.ipv6.conf.all.seg6_enabled'
p116
I0
sS'CONFIG_IPV6_MROUTE'
p117
S'y'
sS'kernel.sched_domain.cpu2.domain0.busy_idx'
p118
I2
sS'net.ipv4.conf.default.disable_policy'
p119
I0
sS'CONFIG_FHANDLE'
p120
S'y'
sS'CONFIG_HAVE_FUNCTION_GRAPH_TRACER'
p121
S'y'
sS'CONFIG_FS_IOMAP'
p122
S'y'
sS'kernel.sched_domain.cpu17.domain0.flags'
p123
I4143
sS'CONFIG_CRYPTO_ACOMP2'
p124
S'y'
sS'CONFIG_HAVE_KERNEL_LZMA'
p125
S'y'
sS'CONFIG_ARCH_HAS_DEBUG_VIRTUAL'
p126
S'y'
sS'net.ipv6.neigh.default.unres_qlen_bytes'
p127
I212992
sS'net.ipv6.conf.default.disable_policy'
p128
I0
sS'kernel.sem_next_id'
p129
S'-1'
p130
sS'kernel.random.write_wakeup_threshold'
p131
I896
sS'net.ipv6.conf.lo.use_oif_addrs_only'
p132
I0
sS'net.ipv6.conf.ens3.accept_ra_defrtr'
p133
I1
sS'kernel.sched_domain.cpu3.domain0.max_newidle_lb_cost'
p134
I100014
sS'net.ipv6.neigh.lo.proxy_qlen'
p135
I64
sS'net.ipv4.tcp_fastopen'
p136
I1
sS'kernel.sched_domain.cpu24.domain0.idle_idx'
p137
I1
sS'CONFIG_DEFAULT_IOSCHED'
p138
S'"deadline"'
p139
sS'kernel.sched_domain.cpu22.domain0.flags'
p140
I4143
sS'CONFIG_FUSION_LOGGING'
p141
S'y'
sS'kernel.sched_domain.cpu13.domain1.wake_idx'
p142
I0
sS'CONFIG_NET_PACKET_ENGINE'
p143
S'y'
sS'CONFIG_DQL'
p144
S'y'
sS'net.ipv6.conf.lo.force_tllao'
p145
I0
sS'kernel.sched_domain.cpu7.domain1.busy_idx'
p146
I3
sS'CONFIG_IP_ADVANCED_ROUTER'
p147
S'y'
sS'CONFIG_SERIAL_SCCNXP_CONSOLE'
p148
S'y'
sS'kernel.modprobe'
p149
S'/sbin/modprobe'
p150
sS'CONFIG_NOP_USB_XCEIV'
p151
S'y'
sS'kernel.sched_domain.cpu16.domain1.max_interval'
p152
I60
sS'kernel.print-fatal-signals'
p153
I0
sS'CONFIG_INET'
p154
S'y'
sS'net.ipv4.tcp_probe_interval'
p155
I600
sS'kernel.sched_domain.cpu10.domain0.max_newidle_lb_cost'
p156
I57775
sS'CONFIG_EXTRA_FIRMWARE'
p157
S'""'
p158
sS'CONFIG_I2C_DESIGNWARE_CORE'
p159
S'y'
sS'net.ipv4.conf.lo.arp_accept'
p160
I0
sS'CONFIG_REGMAP_MMIO'
p161
S'y'
sS'kernel.sched_domain.cpu3.domain1.flags'
p162
I25647
sS'CONFIG_SND_HDA_POWER_SAVE_DEFAULT'
p163
I0
sS'kernel.sched_domain.cpu19.domain1.wake_idx'
p164
I0
sS'kernel.sched_domain.cpu0.domain0.cache_nice_tries'
p165
I1
sS'net.ipv6.conf.lo.forwarding'
p166
I0
sS'CONFIG_NET_VENDOR_SOLARFLARE'
p167
S'y'
sS'CONFIG_FIXED_PHY'
p168
S'y'
sS'net.ipv4.conf.default.shared_media'
p169
I1
sS'CONFIG_NET_VENDOR_TEHUTI'
p170
S'y'
sS'net.ipv6.conf.default.router_solicitations'
p171
S'-1'
p172
sS'CONFIG_MFD_DA9063'
p173
S'y'
sS'CONFIG_CRYPTO'
p174
S'y'
sS'CONFIG_WLAN_VENDOR_ZYDAS'
p175
S'y'
sS'CONFIG_STRICT_KERNEL_RWX'
p176
S'y'
sS'net.ipv6.mld_qrv'
p177
I2
sS'CONFIG_SND_HDA_PATCH_LOADER'
p178
S'y'
sS'net.ipv4.conf.all.disable_policy'
p179
I0
sS'kernel.sched_domain.cpu3.domain1.cache_nice_tries'
p180
I2
sS'CONFIG_PPP_FILTER'
p181
S'y'
sS'CONFIG_CPU_FREQ'
p182
S'y'
sS'net.core.netdev_tstamp_prequeue'
p183
I1
sS'kernel.sched_domain.cpu18.domain0.forkexec_idx'
p184
I0
sS'net.ipv6.conf.all.accept_dad'
p185
I1
sS'kernel.sched_domain.cpu15.domain1.busy_idx'
p186
I3
sS'CONFIG_DCB'
p187
S'y'
sS'kernel.sched_domain.cpu4.domain1.max_newidle_lb_cost'
p188
I17112
sS'kernel.panic_on_oops'
p189
I0
sS'kernel.sched_domain.cpu10.domain0.imbalance_pct'
p190
I125
sS'kernel.sched_domain.cpu21.domain0.max_interval'
p191
I20
sS'CONFIG_MEMORY_HOTPLUG'
p192
S'y'
sS'dev.cdrom.debug'
p193
I0
sS'CONFIG_SUSPEND'
p194
S'y'
sS'kernel.sched_domain.cpu15.domain0.forkexec_idx'
p195
I0
sS'kernel.sched_domain.cpu18.domain1.wake_idx'
p196
I0
sS'kernel.sched_domain.cpu29.domain0.busy_idx'
p197
I2
sS'CONFIG_UNIX98_PTYS'
p198
S'y'
sS'CONFIG_MOUSE_PS2_SYNAPTICS'
p199
S'y'
sS'kernel.sched_domain.cpu23.domain0.wake_idx'
p200
I0
sS'CONFIG_SECURITY_SELINUX'
p201
S'y'
sS'kernel.sched_domain.cpu22.domain1.flags'
p202
I25647
sS'CONFIG_PCI_PASID'
p203
S'y'
sS'CONFIG_SCSI_LOWLEVEL'
p204
S'y'
sS'CONFIG_GENERIC_MSI_IRQ'
p205
S'y'
sS'kernel.ngroups_max'
p206
I65536
sS'CONFIG_MTRR_SANITIZER'
p207
S'y'
sS'CONFIG_EXTCON'
p208
S'y'
sS'CONFIG_PM_DEVFREQ_EVENT'
p209
S'y'
sS'CONFIG_POWER_RESET_RESTART'
p210
S'y'
sS'kernel.sched_domain.cpu28.domain1.name'
p211
S'NUMA'
p212
sS'kernel.max_lock_depth'
p213
I1024
sS'kernel.sched_domain.cpu5.domain1.flags'
p214
I25647
sS'CONFIG_ZPOOL'
p215
S'y'
sS'CONFIG_PATA_SIS'
p216
S'y'
sS'CONFIG_GENERIC_ALLOCATOR'
p217
S'y'
sS'kernel.sched_domain.cpu18.domain1.forkexec_idx'
p218
I0
sS'kernel.sched_domain.cpu0.domain1.max_interval'
p219
I60
sS'CONFIG_MESSAGE_LOGLEVEL_DEFAULT'
p220
I4
sS'CONFIG_ARCH_HAS_UACCESS_FLUSHCACHE'
p221
S'y'
sS'CONFIG_SYN_COOKIES'
p222
S'y'
sS'net.ipv6.conf.default.max_addresses'
p223
I16
sS'net.ipv4.inet_peer_maxttl'
p224
I600
sS'CONFIG_CGROUP_WRITEBACK'
p225
S'y'
sS'CONFIG_X86_ACPI_CPUFREQ'
p226
S'y'
sS'CONFIG_DUMMY_CONSOLE'
p227
S'y'
sS'kernel.sched_domain.cpu7.domain1.max_newidle_lb_cost'
p228
I10469
sS'kernel.sched_domain.cpu23.domain0.name'
p229
S'DIE'
p230
sS'CONFIG_RWSEM_SPIN_ON_OWNER'
p231
S'y'
sS'CONFIG_SECURITY_APPARMOR_BOOTPARAM_VALUE'
p232
I1
sS'vm.dirtytime_expire_seconds'
p233
I43200
sS'net.ipv4.tcp_challenge_ack_limit'
p234
I1000
sS'CONFIG_HOTPLUG_PCI_ACPI'
p235
S'y'
sS'CONFIG_KARMA_PARTITION'
p236
S'y'
sS'CONFIG_INFINIBAND_ISER'
p237
S'm'
sS'vm.min_slab_ratio'
p238
I5
sS'CONFIG_CLZ_TAB'
p239
S'y'
sS'kernel.sched_domain.cpu21.domain1.min_interval'
p240
I30
sS'CONFIG_X86_THERMAL_VECTOR'
p241
S'y'
sS'CONFIG_RCU_CPU_STALL_TIMEOUT'
p242
I60
sS'kernel.sched_domain.cpu23.domain1.min_interval'
p243
I30
sS'CONFIG_BOOTPARAM_SOFTLOCKUP_PANIC_VALUE'
p244
I0
sS'CONFIG_PM_WAKELOCKS'
p245
S'y'
sS'CONFIG_GPIOLIB_IRQCHIP'
p246
S'y'
sS'kernel.sched_domain.cpu1.domain0.idle_idx'
p247
I1
sS'CONFIG_MTRR_SANITIZER_ENABLE_DEFAULT'
p248
I1
sS'CONFIG_BLK_DEV_INTEGRITY'
p249
S'y'
sS'kernel.sched_domain.cpu11.domain0.busy_idx'
p250
I2
sS'CONFIG_ARCH_HAS_HMM'
p251
S'y'
sS'CONFIG_SQUASHFS_FILE_DIRECT'
p252
S'y'
sS'CONFIG_MODULE_SIG_KEY'
p253
S'"certs/signing_key.pem"'
p254
sS'CONFIG_NETWORK_FILESYSTEMS'
p255
S'y'
sS'CONFIG_SERIAL_8250_RSA'
p256
S'y'
sS'net.ipv4.tcp_min_tso_segs'
p257
I2
sS'CONFIG_SCHED_STACK_END_CHECK'
p258
S'y'
sS'CONFIG_LEGACY_VSYSCALL_EMULATE'
p259
S'y'
sS'CONFIG_POWERCAP'
p260
S'y'
sS'CONFIG_UNUSED_SYMBOLS'
p261
S'y'
sS'CONFIG_PM_WAKELOCKS_LIMIT'
p262
I100
sS'kernel.sched_domain.cpu15.domain1.max_newidle_lb_cost'
p263
I10028
sS'CONFIG_INTEGRITY'
p264
S'y'
sS'kernel.sched_domain.cpu6.domain1.cache_nice_tries'
p265
I2
sS'kernel.sched_domain.cpu24.domain0.name'
p266
S'DIE'
p267
sS'kernel.sched_domain.cpu23.domain0.max_newidle_lb_cost'
p268
I146345
sS'fs.mqueue.msg_default'
p269
I10
sS'CONFIG_MD_LINEAR'
p270
S'm'
sS'net.ipv4.tcp_max_orphans'
p271
I262144
sS'kernel.sched_domain.cpu6.domain1.flags'
p272
I25647
sS'kernel.sched_domain.cpu15.domain1.cache_nice_tries'
p273
I2
sS'CONFIG_MFD_MAX77843'
p274
S'y'
sS'CONFIG_CONSOLE_TRANSLATIONS'
p275
S'y'
sS'CONFIG_SLABINFO'
p276
S'y'
sS'kernel.perf_event_max_stack'
p277
I127
sS'CONFIG_PCI'
p278
S'y'
sS'CONFIG_GENERIC_MSI_IRQ_DOMAIN'
p279
S'y'
sS'kernel.sched_domain.cpu4.domain0.name'
p280
S'DIE'
p281
sS'CONFIG_SYSTEM_BLACKLIST_KEYRING'
p282
S'y'
sS'kernel.sched_domain.cpu6.domain0.wake_idx'
p283
I0
sS'CONFIG_IP_ROUTE_MULTIPATH'
p284
S'y'
sS'CONFIG_SCHED_SMT'
p285
S'y'
sS'kernel.sched_domain.cpu29.domain0.max_interval'
p286
I20
sS'net.ipv4.tcp_adv_win_scale'
p287
I1
sS'CONFIG_INTEL_IDLE'
p288
S'y'
sS'CONFIG_ASYNC_CORE'
p289
S'm'
sS'net.ipv4.udp_rmem_min'
p290
I4096
sS'CONFIG_FIRMWARE_IN_KERNEL'
p291
S'y'
sS'CONFIG_IP6_NF_FILTER'
p292
S'm'
sS'CONFIG_GPIO_TPS65910'
p293
S'y'
sS'CONFIG_CRC_CCITT'
p294
S'y'
sS'CONFIG_PERSISTENT_KEYRINGS'
p295
S'y'
sS'CONFIG_MOUSE_PS2_LIFEBOOK'
p296
S'y'
sS'CONFIG_ARCH_WANT_COMPAT_IPC_PARSE_VERSION'
p297
S'y'
sS'kernel.sched_domain.cpu29.domain0.name'
p298
S'DIE'
p299
sS'kernel.sched_domain.cpu11.domain1.imbalance_pct'
p300
I125
sS'kernel.sched_domain.cpu0.domain1.busy_factor'
p301
I32
sS'net.ipv6.conf.default.accept_ra_rt_info_max_plen'
p302
I0
sS'CONFIG_ACPI_CPPC_LIB'
p303
S'y'
sS'CONFIG_ASYNC_RAID6_RECOV'
p304
S'm'
sS'net.ipv6.conf.default.ignore_routes_with_linkdown'
p305
I0
sS'kernel.sched_domain.cpu8.domain1.imbalance_pct'
p306
I125
sS'CONFIG_BLK_DEV_SR'
p307
S'y'
sS'kernel.sched_domain.cpu10.domain1.imbalance_pct'
p308
I125
sS'net.ipv6.conf.lo.accept_ra_from_local'
p309
I0
sS'CONFIG_EXPORTFS'
p310
S'y'
sS'CONFIG_CRYPTO_CRC32_PCLMUL'
p311
S'm'
sS'CONFIG_INPUT'
p312
S'y'
sS'CONFIG_THERMAL_DEFAULT_GOV_STEP_WISE'
p313
S'y'
sS'fs.suid_dumpable'
p314
I2
sS'kernel.sched_domain.cpu10.domain1.flags'
p315
I25647
sS'CONFIG_SERIAL_8250_DMA'
p316
S'y'
sS'kernel.sched_domain.cpu8.domain0.busy_factor'
p317
I32
sS'CONFIG_SCHED_AUTOGROUP'
p318
S'y'
sS'kernel.sched_domain.cpu6.domain1.max_interval'
p319
I60
sS'net.core.optmem_max'
p320
I20480
sS'user.max_inotify_watches'
p321
I8192
sS'vm.nr_overcommit_hugepages'
p322
I0
sS'net.ipv6.conf.default.accept_ra_defrtr'
p323
I1
sS'net.ipv6.conf.default.accept_ra_rt_info_min_plen'
p324
I0
sS'kernel.sched_domain.cpu7.domain0.flags'
p325
I4143
sS'kernel.sched_domain.cpu29.domain1.max_newidle_lb_cost'
p326
I9195
sS'CONFIG_NET_EMATCH'
p327
S'y'
sS'kernel.sched_domain.cpu16.domain1.cache_nice_tries'
p328
I2
sS'CONFIG_CPU_SUP_CENTAUR'
p329
S'y'
sS'kernel.sched_domain.cpu3.domain0.cache_nice_tries'
p330
I1
sS'kernel.sched_domain.cpu20.domain1.imbalance_pct'
p331
I125
sS'net.core.message_burst'
p332
I10
sS'CONFIG_SERIAL_NONSTANDARD'
p333
S'y'
sS'kernel.sched_domain.cpu14.domain0.idle_idx'
p334
I1
sS'user.max_uts_namespaces'
p335
I257592
sS'net.ipv6.route.gc_interval'
p336
I30
sS'CONFIG_TRACER_MAX_TRACE'
p337
S'y'
sS'CONFIG_VIRT_DRIVERS'
p338
S'y'
sS'net.ipv6.bindv6only'
p339
I0
sS'kernel.sched_domain.cpu23.domain0.idle_idx'
p340
I1
sS'CONFIG_PARPORT'
p341
S'm'
sS'net.ipv6.conf.ens3.accept_ra_rtr_pref'
p342
I1
sS'CONFIG_SUN_PARTITION'
p343
S'y'
sS'net.ipv4.conf.all.drop_gratuitous_arp'
p344
I0
sS'CONFIG_PINCTRL'
p345
S'y'
sS'CONFIG_THERMAL_GOV_FAIR_SHARE'
p346
S'y'
sS'kernel.sched_domain.cpu21.domain1.newidle_idx'
p347
I0
sS'kernel.sched_domain.cpu5.domain1.forkexec_idx'
p348
I0
sS'CONFIG_MOUSE_PS2_LOGIPS2PP'
p349
S'y'
sS'net.ipv6.route.gc_min_interval_ms'
p350
I500
sS'CONFIG_IRQ_FORCED_THREADING'
p351
S'y'
sS'CONFIG_MTRR_SANITIZER_SPARE_REG_NR_DEFAULT'
p352
I1
sS'CONFIG_BLK_MQ_PCI'
p353
S'y'
sS'CONFIG_DEBUG_BUGVERBOSE'
p354
S'y'
sS'CONFIG_LSM_MMAP_MIN_ADDR'
p355
I0
sS'CONFIG_FS_MBCACHE'
p356
S'y'
sS'CONFIG_KVM_INTEL'
p357
S'm'
sS'net.ipv6.neigh.ens3.proxy_qlen'
p358
I64
sS'kernel.sched_domain.cpu17.domain1.idle_idx'
p359
I2
sS'kernel.sched_domain.cpu25.domain1.forkexec_idx'
p360
I0
sS'CONFIG_USB'
p361
S'y'
sS'kernel.sched_domain.cpu8.domain1.busy_idx'
p362
I3
sS'CONFIG_SND_DYNAMIC_MINORS'
p363
S'y'
sS'CONFIG_MD_RAID1'
p364
S'm'
sS'CONFIG_HAVE_SETUP_PER_CPU_AREA'
p365
S'y'
sS'user.max_net_namespaces'
p366
I257592
sS'kernel.sched_domain.cpu12.domain0.max_interval'
p367
I20
sS'vm.laptop_mode'
p368
I0
sS'CONFIG_SIGNED_PE_FILE_VERIFICATION'
p369
S'y'
sS'CONFIG_NET_VENDOR_CAVIUM'
p370
S'y'
sS'CONFIG_IMA_NG_TEMPLATE'
p371
S'y'
sS'kernel.sched_domain.cpu5.domain1.wake_idx'
p372
I0
sS'CONFIG_KEXEC'
p373
S'y'
sS'CONFIG_CRYPTO_DEV_PADLOCK'
p374
S'y'
sS'CONFIG_HAVE_ARCH_WITHIN_STACK_FRAMES'
p375
S'y'
sS'kernel.sched_domain.cpu2.domain0.wake_idx'
p376
I0
sS'net.ipv4.conf.all.secure_redirects'
p377
I1
sS'kernel.sched_domain.cpu5.domain0.cache_nice_tries'
p378
I1
sS'CONFIG_HAVE_REGS_AND_STACK_ACCESS_API'
p379
S'y'
sS'kernel.sched_domain.cpu21.domain0.wake_idx'
p380
I0
sS'CONFIG_DEVFREQ_GOV_SIMPLE_ONDEMAND'
p381
S'y'
sS'net.ipv4.conf.lo.igmpv2_unsolicited_report_interval'
p382
I10000
sS'kernel.sched_domain.cpu4.domain0.idle_idx'
p383
I1
sS'kernel.sched_domain.cpu29.domain0.wake_idx'
p384
I0
sS'CONFIG_INPUT_JOYDEV'
p385
S'm'
sS'net.ipv6.conf.ens3.accept_ra_mtu'
p386
I1
sS'kernel.sched_domain.cpu21.domain0.forkexec_idx'
p387
I0
sS'CONFIG_INPUT_MISC'
p388
S'y'
sS'CONFIG_PARPORT_1284'
p389
S'y'
sS'net.ipv4.conf.all.force_igmp_version'
p390
I0
sS'CONFIG_UTS_NS'
p391
S'y'
sS'kernel.sched_domain.cpu21.domain0.name'
p392
S'DIE'
p393
sS'kernel.sched_domain.cpu11.domain1.name'
p394
S'NUMA'
p395
sS'CONFIG_MFD_MAX14577'
p396
S'y'
sS'CONFIG_CPU_FREQ_GOV_PERFORMANCE'
p397
S'y'
sS'net.ipv6.neigh.lo.mcast_resolicit'
p398
I0
sS'CONFIG_PREEMPT_NOTIFIERS'
p399
S'y'
sS'CONFIG_IO_DELAY_0XED'
p400
S'y'
sS'CONFIG_AGP_AMD64'
p401
S'y'
sS'kernel.sched_domain.cpu19.domain0.flags'
p402
I4143
sS'CONFIG_MTRR'
p403
S'y'
sS'kernel.sched_domain.cpu28.domain1.idle_idx'
p404
I2
sS'kernel.overflowgid'
p405
I65534
sS'CONFIG_CRYPTO_RNG_DEFAULT'
p406
S'y'
sS'kernel.sched_domain.cpu7.domain0.busy_idx'
p407
I2
sS'CONFIG_X86_MCE'
p408
S'y'
sS'CONFIG_KALLSYMS_BASE_RELATIVE'
p409
S'y'
sS'CONFIG_ISA_DMA_API'
p410
S'y'
sS'CONFIG_ASYMMETRIC_PUBLIC_KEY_SUBTYPE'
p411
S'y'
sS'kernel.sched_domain.cpu15.domain1.name'
p412
S'NUMA'
p413
sS'CONFIG_ELF_CORE'
p414
S'y'
sS'net.ipv6.conf.lo.router_solicitations'
p415
S'-1'
p416
sS'kernel.ftrace_dump_on_oops'
p417
I0
sS'net.ipv4.conf.default.arp_filter'
p418
I0
sS'kernel.sched_domain.cpu14.domain1.busy_idx'
p419
I3
sS'kernel.sched_autogroup_enabled'
p420
I1
sS'net.ipv6.neigh.default.unres_qlen'
p421
I101
sS'kernel.sched_domain.cpu14.domain0.cache_nice_tries'
p422
I1
sS'net.ipv6.neigh.lo.anycast_delay'
p423
I100
sS'CONFIG_USB_DYNAMIC_MINORS'
p424
S'y'
sS'CONFIG_ARCH_HAS_FORTIFY_SOURCE'
p425
S'y'
sS'kernel.sched_domain.cpu12.domain1.busy_factor'
p426
I32
sS'net.ipv4.icmp_ratemask'
p427
I6168
sS'CONFIG_SERIAL_8250_EXAR'
p428
S'y'
sS'kernel.hung_task_warnings'
p429
I10
sS'CONFIG_SYSTEM_BLACKLIST_HASH_LIST'
p430
S'""'
p431
sS'CONFIG_ARCH_MMAP_RND_BITS_MIN'
p432
I28
sS'CONFIG_EXPERT'
p433
S'y'
sS'net.ipv4.tcp_abort_on_overflow'
p434
I0
sS'CONFIG_WLAN_VENDOR_ATMEL'
p435
S'y'
sS'CONFIG_HAVE_MIXED_BREAKPOINTS_REGS'
p436
S'y'
sS'CONFIG_ARCH_ENABLE_THP_MIGRATION'
p437
S'y'
sS'CONFIG_SWIOTLB'
p438
S'y'
sS'kernel.sched_domain.cpu9.domain0.busy_factor'
p439
I32
sS'net.ipv4.conf.lo.bootp_relay'
p440
I0
sS'kernel.sched_domain.cpu28.domain0.name'
p441
S'DIE'
p442
sS'kernel.sched_domain.cpu18.domain0.busy_idx'
p443
I2
sS'CONFIG_SCSI_PROC_FS'
p444
S'y'
sS'CONFIG_RD_BZIP2'
p445
S'y'
sS'CONFIG_CGROUP_HUGETLB'
p446
S'y'
sS'net.ipv6.conf.ens3.accept_ra_rt_info_min_plen'
p447
I0
sS'CONFIG_FDDI'
p448
S'y'
sS'net.ipv6.neigh.lo.proxy_delay'
p449
I80
sS'CONFIG_MMC'
p450
S'y'
sS'kernel.sched_domain.cpu20.domain0.min_interval'
p451
I10
sS'net.ipv4.tcp_keepalive_time'
p452
I7200
sS'vm.nr_hugepages_mempolicy'
p453
I0
sS'net.ipv4.conf.all.ignore_routes_with_linkdown'
p454
I0
sS'kernel.sched_domain.cpu29.domain0.min_interval'
p455
I10
sS'CONFIG_HPET_EMULATE_RTC'
p456
S'y'
sS'CONFIG_XOR_BLOCKS'
p457
S'm'
sS'kernel.sched_domain.cpu1.domain0.name'
p458
S'DIE'
p459
sS'CONFIG_REGULATOR'
p460
S'y'
sS'CONFIG_MAILBOX'
p461
S'y'
sS'kernel.sched_domain.cpu5.domain1.min_interval'
p462
I30
sS'kernel.sched_domain.cpu26.domain0.min_interval'
p463
I10
sS'kernel.sched_domain.cpu5.domain0.wake_idx'
p464
I0
sS'kernel.sched_domain.cpu10.domain0.idle_idx'
p465
I1
sS'kernel.sched_domain.cpu23.domain0.min_interval'
p466
I10
sS'net.ipv6.conf.lo.regen_max_retry'
p467
I3
sS'net.ipv6.conf.default.proxy_ndp'
p468
I0
sS'CONFIG_MEMTEST'
p469
S'y'
sS'net.ipv4.ip_unprivileged_port_start'
p470
I1024
sS'net.ipv6.neigh.lo.app_solicit'
p471
I0
sS'CONFIG_PCI_BUS_ADDR_T_64BIT'
p472
S'y'
sS'kernel.sched_domain.cpu25.domain0.cache_nice_tries'
p473
I1
sS'kernel.sched_domain.cpu27.domain1.min_interval'
p474
I30
sS'CONFIG_VGA_SWITCHEROO'
p475
S'y'
sS'CONFIG_XZ_DEC_IA64'
p476
S'y'
sS'kernel.sched_domain.cpu18.domain1.min_interval'
p477
I30
sS'CONFIG_CRYPTO_CRCT10DIF_PCLMUL'
p478
S'm'
sS'CONFIG_ARCH_USE_QUEUED_SPINLOCKS'
p479
S'y'
sS'kernel.sched_domain.cpu3.domain1.wake_idx'
p480
I0
sS'CONFIG_NET_EMATCH_STACK'
p481
I32
sS'kernel.sched_domain.cpu1.domain1.min_interval'
p482
I30
sS'kernel.panic_on_warn'
p483
I0
sS'net.ipv6.conf.lo.enhanced_dad'
p484
I1
sS'CONFIG_GPIOLIB'
p485
S'y'
sS'kernel.keys.maxkeys'
p486
I200
sS'kernel.sched_domain.cpu16.domain0.name'
p487
S'DIE'
p488
sS'kernel.sched_domain.cpu20.domain0.newidle_idx'
p489
I0
sS'vm.panic_on_oom'
p490
I0
sS'CONFIG_NET_VENDOR_AMD'
p491
S'y'
sS'kernel.sched_domain.cpu16.domain1.newidle_idx'
p492
I0
sS'net.ipv4.neigh.ens3.app_solicit'
p493
I0
sS'CONFIG_HAVE_KVM_IRQ_BYPASS'
p494
S'y'
sS'kernel.sched_domain.cpu29.domain1.idle_idx'
p495
I2
sS'net.ipv6.conf.default.suppress_frag_ndisc'
p496
I1
sS'fs.inotify.max_user_instances'
p497
I1024
sS'CONFIG_SYSCTL'
p498
S'y'
sS'CONFIG_MD_RAID0'
p499
S'm'
sS'net.ipv4.icmp_ignore_bogus_error_responses'
p500
I1
sS'CONFIG_HAVE_FENTRY'
p501
S'y'
sS'kernel.sched_domain.cpu20.domain0.max_interval'
p502
I20
sS'CONFIG_KRETPROBES'
p503
S'y'
sS'fs.quota.syncs'
p504
I0
sS'CONFIG_SECURITY_SMACK_NETFILTER'
p505
S'y'
sS'kernel.sched_domain.cpu2.domain1.busy_idx'
p506
I3
sS'net.ipv6.neigh.ens3.delay_first_probe_time'
p507
I5
sS'kernel.stack_tracer_enabled'
p508
I0
sS'CONFIG_FB_CMDLINE'
p509
S'y'
sS'kernel.sched_domain.cpu0.domain0.flags'
p510
I4143
sS'CONFIG_CRYPTO_DRBG_HMAC'
p511
S'y'
sS'CONFIG_MAC_PARTITION'
p512
S'y'
sS'CONFIG_MISC_FILESYSTEMS'
p513
S'y'
sS'abi.vsyscall32'
p514
I1
sS'net.ipv4.route.error_cost'
p515
I250
sS'CONFIG_CGROUP_NET_CLASSID'
p516
S'y'
sS'CONFIG_CRYPTO_SKEIN'
p517
S'y'
sS'net.ipv6.conf.all.suppress_frag_ndisc'
p518
I1
sS'CONFIG_GENERIC_PCI_IOMAP'
p519
S'y'
sS'CONFIG_SND_HDA_INPUT_BEEP_MODE'
p520
I0
sS'CONFIG_DEBUG_KERNEL'
p521
S'y'
sS'net.ipv4.igmp_qrv'
p522
I2
sS'CONFIG_RANDOMIZE_BASE'
p523
S'y'
sS'CONFIG_MODULE_SIG_SHA512'
p524
S'y'
sS'CONFIG_CHELSIO_T3'
p525
S'm'
sS'kernel.sched_domain.cpu23.domain0.flags'
p526
I4143
sS'user.max_mnt_namespaces'
p527
I257592
sS'net.core.wmem_max'
p528
I212992
sS'vm.swappiness'
p529
I60
sS'kernel.sched_domain.cpu9.domain1.forkexec_idx'
p530
I0
sS'kernel.sched_domain.cpu5.domain1.busy_factor'
p531
I32
sS'net.ipv4.tcp_l3mdev_accept'
p532
I0
sS'CONFIG_SBITMAP'
p533
S'y'
sS'net.ipv4.cipso_cache_bucket_size'
p534
I10
sS'net.ipv4.ipfrag_low_thresh'
p535
I3145728
sS'kernel.sched_domain.cpu15.domain1.flags'
p536
I25647
sS'net.ipv4.route.mtu_expires'
p537
I600
sS'CONFIG_KPROBE_EVENTS'
p538
S'y'
sS'net.ipv6.conf.default.drop_unicast_in_l2_multicast'
p539
I0
sS'CONFIG_USB_EHCI_TT_NEWSCHED'
p540
S'y'
sS'CONFIG_X86_16BIT'
p541
S'y'
sS'CONFIG_VIRTIO_BALLOON'
p542
S'y'
sS'kernel.sched_domain.cpu14.domain1.newidle_idx'
p543
I0
sS'CONFIG_CRYPTO_CTR'
p544
S'y'
sS'vm.min_unmapped_ratio'
p545
I1
sS'net.ipv4.tcp_reordering'
p546
I3
sS'CONFIG_NET'
p547
S'y'
sS'CONFIG_TWL4030_CORE'
p548
S'y'
sS'kernel.sched_domain.cpu18.domain1.name'
p549
S'NUMA'
p550
sS'CONFIG_HAS_DMA'
p551
S'y'
sS'kernel.random.uuid'
p552
S'a047c213-400d-4c16-a49c-10e43574d8fe'
p553
sS'net.ipv6.conf.ens3.mc_forwarding'
p554
I0
sS'net.ipv4.conf.lo.secure_redirects'
p555
I1
sS'kernel.sched_domain.cpu10.domain0.forkexec_idx'
p556
I0
sS'fs.overflowgid'
p557
I65534
sS'net.ipv4.tcp_dsack'
p558
I1
sS'CONFIG_CPU_SUP_INTEL'
p559
S'y'
sS'CONFIG_TRANSPARENT_HUGEPAGE'
p560
S'y'
sS'CONFIG_SCSI_ISCSI_ATTRS'
p561
S'm'
sS'CONFIG_MQ_IOSCHED_DEADLINE'
p562
S'y'
sS'CONFIG_CRYPTO_HMAC'
p563
S'y'
sS'kernel.sched_domain.cpu12.domain0.imbalance_pct'
p564
I125
sS'CONFIG_VT_CONSOLE'
p565
S'y'
sS'kernel.acpi_video_flags'
p566
I0
sS'CONFIG_WAN'
p567
S'y'
sS'kernel.sched_domain.cpu9.domain1.imbalance_pct'
p568
I125
sS'CONFIG_VGA_ARB_MAX_GPUS'
p569
I16
sS'CONFIG_BUILDTIME_EXTABLE_SORT'
p570
S'y'
sS'kernel.sched_domain.cpu17.domain1.newidle_idx'
p571
I0
sS'CONFIG_KEXEC_JUMP'
p572
S'y'
sS'net.ipv4.tcp_autocorking'
p573
I1
sS'kernel.sched_domain.cpu7.domain0.imbalance_pct'
p574
I125
sS'net.ipv4.conf.lo.forwarding'
p575
I0
sS'kernel.sched_domain.cpu17.domain0.forkexec_idx'
p576
I0
sS'kernel.sched_domain.cpu10.domain0.wake_idx'
p577
I0
sS'dev.cdrom.lock'
p578
I1
sS'CONFIG_HAVE_HW_BREAKPOINT'
p579
S'y'
sS'CONFIG_MACINTOSH_DRIVERS'
p580
S'y'
sS'CONFIG_HAVE_DEBUG_KMEMLEAK'
p581
S'y'
sS'CONFIG_ISDN'
p582
S'y'
sS'CONFIG_MFD_CORE'
p583
S'y'
sS'CONFIG_ACPI_FAN'
p584
S'y'
sS'kernel.sched_domain.cpu11.domain0.max_newidle_lb_cost'
p585
I13177
sS'net.ipv4.conf.lo.src_valid_mark'
p586
I0
sS'CONFIG_AIX_PARTITION'
p587
S'y'
sS'kernel.sched_domain.cpu16.domain0.cache_nice_tries'
p588
I1
sS'kernel.sched_domain.cpu1.domain0.cache_nice_tries'
p589
I1
sS'CONFIG_MD_RAID456'
p590
S'm'
sS'net.ipv4.conf.ens3.arp_ignore'
p591
I0
sS'CONFIG_TICK_CPU_ACCOUNTING'
p592
S'y'
sS'CONFIG_MFD_TPS65090'
p593
S'y'
sS'CONFIG_SFI'
p594
S'y'
sS'fs.inode-nr'
p595
S'87042\t516'
p596
sS'CONFIG_NET_SCH_FIFO'
p597
S'y'
sS'net.core.netdev_rss_key'
p598
S'00:00:00:00:00:00:00:00:00:00:00:00:00:00:00:00:00:00:00:00:00:00:00:00:00:00:00:00:00:00:00:00:00:00:00:00:00:00:00:00:00:00:00:00:00:00:00:00:00:00:00:00'
p599
sS'kernel.sched_domain.cpu18.domain1.max_newidle_lb_cost'
p600
I14140
sS'net.ipv4.conf.default.igmpv2_unsolicited_report_interval'
p601
I10000
sS'CONFIG_X86_64_ACPI_NUMA'
p602
S'y'
sS'CONFIG_SYSFS_SYSCALL'
p603
S'y'
sS'kernel.sched_domain.cpu12.domain0.busy_factor'
p604
I32
sS'CONFIG_ARCH_WANT_GENERAL_HUGETLB'
p605
S'y'
sS'CONFIG_GENERIC_CMOS_UPDATE'
p606
S'y'
sS'net.ipv4.tcp_max_tw_buckets'
p607
I262144
sS'CONFIG_SERIAL_8250_EXTENDED'
p608
S'y'
sS'kernel.sched_domain.cpu0.domain0.max_newidle_lb_cost'
p609
I13193
sS'CONFIG_NET_VENDOR_ADAPTEC'
p610
S'y'
sS'CONFIG_EPOLL'
p611
S'y'
sS'net.ipv4.conf.lo.disable_xfrm'
p612
I1
sS'net.ipv6.conf.lo.autoconf'
p613
I1
sS'kernel.sched_domain.cpu2.domain0.imbalance_pct'
p614
I125
sS'kernel.panic'
p615
I0
sS'CONFIG_FAT_DEFAULT_CODEPAGE'
p616
I437
sS'CONFIG_X86_SUPPORTS_MEMORY_FAILURE'
p617
S'y'
sS'CONFIG_CALGARY_IOMMU_ENABLED_BY_DEFAULT'
p618
S'y'
sS'kernel.sched_domain.cpu0.domain1.forkexec_idx'
p619
I0
sS'CONFIG_SCHED_HRTICK'
p620
S'y'
sS'CONFIG_SECURITY_SELINUX_DISABLE'
p621
S'y'
sS'kernel.sched_domain.cpu21.domain0.idle_idx'
p622
I1
sS'kernel.sched_domain.cpu9.domain0.idle_idx'
p623
I1
sS'CONFIG_NET_VENDOR_REALTEK'
p624
S'y'
sS'CONFIG_FAT_DEFAULT_IOCHARSET'
p625
S'"iso8859-1"'
p626
sS'net.ipv6.route.min_adv_mss'
p627
I1220
sS'CONFIG_IP_ROUTE_VERBOSE'
p628
S'y'
sS'CONFIG_BLK_DEV_SD'
p629
S'y'
sS'CONFIG_BRIDGE_EBT_T_FILTER'
p630
S'm'
sS'CONFIG_USB_OHCI_HCD'
p631
S'y'
sS'CONFIG_VIRTIO_CONSOLE'
p632
S'y'
sS'net.ipv6.ip6frag_low_thresh'
p633
I3145728
sS'CONFIG_USB_UHCI_HCD'
p634
S'y'
sS'CONFIG_BSD_DISKLABEL'
p635
S'y'
sS'kernel.sched_domain.cpu28.domain0.max_interval'
p636
I20
sS'kernel.sched_domain.cpu19.domain0.min_interval'
p637
I10
sS'net.core.flow_limit_cpu_bitmap'
p638
S'0000000,00000000,00000000,00000000'
p639
sS'CONFIG_SECURITY_WRITABLE_HOOKS'
p640
S'y'
sS'CONFIG_NVM'
p641
S'y'
sS'net.ipv6.conf.ens3.accept_dad'
p642
I1
sS'CONFIG_TRACING_EVENTS_GPIO'
p643
S'y'
sS'fs.quota.allocated_dquots'
p644
I0
sS'CONFIG_X509_CERTIFICATE_PARSER'
p645
S'y'
sS'kernel.sched_domain.cpu11.domain1.idle_idx'
p646
I2
sS'vm.nr_hugepages'
p647
I0
sS'kernel.sched_domain.cpu23.domain1.wake_idx'
p648
I0
sS'CONFIG_WLAN_VENDOR_ADMTEK'
p649
S'y'
sS'net.ipv4.conf.lo.send_redirects'
p650
I1
sS'kernel.sched_domain.cpu16.domain0.max_interval'
p651
I20
sS'net.ipv6.conf.all.proxy_ndp'
p652
I0
sS'CONFIG_OPTPROBES'
p653
S'y'
sS'net.ipv4.tcp_pacing_ss_ratio'
p654
I200
sS'kernel.keys.persistent_keyring_expiry'
p655
I259200
sS'CONFIG_MD'
p656
S'y'
sS'kernel.sched_domain.cpu7.domain0.forkexec_idx'
p657
I0
sS'kernel.sched_domain.cpu11.domain1.max_newidle_lb_cost'
p658
I15087
sS'CONFIG_DETECT_HUNG_TASK'
p659
S'y'
sS'CONFIG_DMI'
p660
S'y'
sS'kernel.sched_domain.cpu27.domain1.idle_idx'
p661
I2
sS'net.ipv4.conf.lo.arp_notify'
p662
I0
sS'CONFIG_BQL'
p663
S'y'
sS'kernel.softlockup_all_cpu_backtrace'
p664
I0
sS'kernel.sched_domain.cpu17.domain0.min_interval'
p665
I10
sS'kernel.version'
p666
S'#3 SMP Tue Mar 13 14:28:42 EDT 2018'
p667
sS'net.ipv6.neigh.default.gc_interval'
p668
I30
sS'kernel.sched_domain.cpu0.domain0.busy_idx'
p669
I2
sS'CONFIG_CGROUP_SCHED'
p670
S'y'
sS'CONFIG_HT_IRQ'
p671
S'y'
sS'CONFIG_NET_VENDOR_ATHEROS'
p672
S'y'
sS'net.ipv6.neigh.ens3.unres_qlen_bytes'
p673
I212992
sS'kernel.panic_on_io_nmi'
p674
I0
sS'CONFIG_SERIAL_8250_CONSOLE'
p675
S'y'
sS'CONFIG_HAVE_ARCH_MMAP_RND_COMPAT_BITS'
p676
S'y'
sS'CONFIG_NVDIMM_PFN'
p677
S'y'
sS'kernel.bootloader_type'
p678
I114
sS'kernel.sched_domain.cpu11.domain0.newidle_idx'
p679
I0
sS'kernel.sched_domain.cpu7.domain0.newidle_idx'
p680
I0
sS'CONFIG_SERIAL_CORE'
p681
S'y'
sS'net.ipv4.conf.ens3.arp_filter'
p682
I0
sS'net.ipv6.idgen_delay'
p683
I1
sS'CONFIG_HAVE_HARDENED_USERCOPY_ALLOCATOR'
p684
S'y'
sS'net.ipv6.conf.ens3.disable_ipv6'
p685
I0
sS'CONFIG_MMU'
p686
S'y'
sS'CONFIG_HAVE_KERNEL_XZ'
p687
S'y'
sS'CONFIG_MFD_DA9052_SPI'
p688
S'y'
sS'CONFIG_USE_PERCPU_NUMA_NODE_ID'
p689
S'y'
sS'CONFIG_NET_INGRESS'
p690
S'y'
sS'kernel.sched_domain.cpu19.domain1.name'
p691
S'NUMA'
p692
sS'kernel.sched_domain.cpu28.domain1.max_interval'
p693
I60
sS'kernel.msgmax'
p694
I8192
sS'CONFIG_ARCH_ENABLE_HUGEPAGE_MIGRATION'
p695
S'y'
sS'kernel.sched_domain.cpu28.domain1.max_newidle_lb_cost'
p696
I34408
sS'kernel.sched_domain.cpu21.domain0.cache_nice_tries'
p697
I1
sS'CONFIG_CHARGER_MANAGER'
p698
S'y'
sS'net.ipv6.conf.lo.drop_unsolicited_na'
p699
I0
sS'net.ipv4.conf.ens3.medium_id'
p700
I0
sS'kernel.sched_domain.cpu19.domain1.busy_idx'
p701
I3
sS'CONFIG_SYSVIPC'
p702
S'y'
sS'net.ipv6.neigh.ens3.ucast_solicit'
p703
I3
sS'CONFIG_PARPORT_PC_FIFO'
p704
S'y'
sS'CONFIG_WIRELESS'
p705
S'y'
sS'CONFIG_FANOTIFY_ACCESS_PERMISSIONS'
p706
S'y'
sS'CONFIG_DAX'
p707
S'y'
sS'CONFIG_RD_XZ'
p708
S'y'
sS'kernel.sched_domain.cpu17.domain0.busy_factor'
p709
I32
sS'kernel.sched_domain.cpu17.domain1.wake_idx'
p710
I0
sS'CONFIG_CONNECTOR'
p711
S'y'
sS'net.ipv4.conf.default.arp_accept'
p712
I0
sS'net.ipv4.udp_early_demux'
p713
I1
sS'CONFIG_MFD_88PM860X'
p714
S'y'
sS'kernel.numa_balancing_scan_period_max_ms'
p715
I60000
sS'kernel.sched_domain.cpu15.domain0.imbalance_pct'
p716
I125
sS'CONFIG_MODVERSIONS'
p717
S'y'
sS'kernel.sched_migration_cost_ns'
p718
I500000
sS'CONFIG_HAVE_INTEL_TXT'
p719
S'y'
sS'CONFIG_ARCH_HAS_UBSAN_SANITIZE_ALL'
p720
S'y'
sS'kernel.sched_domain.cpu20.domain0.forkexec_idx'
p721
I0
sS'CONFIG_OLD_SIGSUSPEND3'
p722
S'y'
sS'net.ipv6.conf.ens3.use_tempaddr'
p723
I0
sS'dev.mac_hid.mouse_button2_keycode'
p724
I97
sS'net.ipv4.neigh.ens3.proxy_delay'
p725
I80
sS'kernel.sched_domain.cpu27.domain1.max_interval'
p726
I60
sS'net.ipv6.conf.default.router_probe_interval'
p727
I60
sS'kernel.sched_domain.cpu14.domain1.busy_factor'
p728
I32
sS'net.ipv4.route.error_burst'
p729
I1250
sS'CONFIG_NET_VENDOR_ARC'
p730
S'y'
sS'net.ipv6.conf.all.keep_addr_on_down'
p731
I0
sS'kernel.sched_domain.cpu16.domain1.forkexec_idx'
p732
I0
sS'CONFIG_EDAC_ATOMIC_SCRUB'
p733
S'y'
sS'CONFIG_TRUSTED_KEYS'
p734
S'y'
sS'CONFIG_PWM_SYSFS'
p735
S'y'
sS'CONFIG_AUDITSYSCALL'
p736
S'y'
sS'net.ipv6.conf.lo.proxy_ndp'
p737
I0
sS'CONFIG_HAVE_KVM_EVENTFD'
p738
S'y'
sS'CONFIG_HAVE_ARCH_KMEMCHECK'
p739
S'y'
sS'CONFIG_PM_DEVFREQ'
p740
S'y'
sS'CONFIG_UID16'
p741
S'y'
sS'kernel.sched_domain.cpu22.domain1.imbalance_pct'
p742
I125
sS'CONFIG_ACPI_SLEEP'
p743
S'y'
sS'kernel.watchdog_cpumask'
p744
S'0-121'
p745
sS'CONFIG_SND_SUPPORT_OLD_API'
p746
S'y'
sS'net.ipv4.conf.lo.accept_redirects'
p747
I1
sS'net.ipv6.conf.all.max_addresses'
p748
I16
sS'kernel.sched_child_runs_first'
p749
I0
sS'net.ipv6.conf.all.accept_ra_from_local'
p750
I0
sS'CONFIG_PINCONF'
p751
S'y'
sS'CONFIG_RTC_HCTOSYS'
p752
S'y'
sS'CONFIG_CRYPTO_GCM'
p753
S'y'
sS'kernel.softlockup_panic'
p754
I0
sS'kernel.sched_domain.cpu18.domain1.imbalance_pct'
p755
I125
sS'kernel.sched_domain.cpu25.domain0.max_interval'
p756
I20
sS'CONFIG_EFIVAR_FS'
p757
S'y'
sS'CONFIG_RTC_I2C_AND_SPI'
p758
S'y'
sS'CONFIG_USB_EHCI_HCD'
p759
S'y'
sS'CONFIG_CHROME_PLATFORMS'
p760
S'y'
sS'kernel.sched_domain.cpu7.domain1.max_interval'
p761
I60
sS'CONFIG_HAVE_ARCH_KGDB'
p762
S'y'
sS'CONFIG_IO_DELAY_TYPE_0XED'
p763
I1
sS'net.ipv6.conf.ens3.drop_unicast_in_l2_multicast'
p764
I0
sS'net.ipv6.conf.default.force_mld_version'
p765
I0
sS'net.ipv4.ip_no_pmtu_disc'
p766
I0
sS'CONFIG_WLAN_VENDOR_MEDIATEK'
p767
S'y'
sS'vm.dirty_writeback_centisecs'
p768
I500
sS'kernel.sched_domain.cpu14.domain1.idle_idx'
p769
I2
sS'CONFIG_SCSI_CXGB3_ISCSI'
p770
S'm'
sS'net.ipv6.conf.lo.accept_ra'
p771
I1
sS'kernel.sched_domain.cpu2.domain0.max_newidle_lb_cost'
p772
I13506
sS'CONFIG_ARCH_SUPPORTS_OPTIMIZED_INLINING'
p773
S'y'
sS'net.ipv4.conf.default.proxy_arp_pvlan'
p774
I0
sS'kernel.sched_domain.cpu27.domain0.max_newidle_lb_cost'
p775
I13592
sS'CONFIG_PM_STD_PARTITION'
p776
S'""'
p777
sS'net.ipv4.conf.ens3.secure_redirects'
p778
I1
sS'kernel.sched_domain.cpu27.domain1.name'
p779
S'NUMA'
p780
sS'CONFIG_ULTRIX_PARTITION'
p781
S'y'
sS'CONFIG_HAVE_NMI'
p782
S'y'
sS'kernel.sched_domain.cpu19.domain1.busy_factor'
p783
I32
sS'CONFIG_NET_VENDOR_3COM'
p784
S'y'
sS'kernel.sched_domain.cpu16.domain1.name'
p785
S'NUMA'
p786
sS'net.ipv6.conf.ens3.seg6_enabled'
p787
I0
sS'kernel.sched_domain.cpu13.domain1.idle_idx'
p788
I2
sS'fs.mqueue.msgsize_max'
p789
I8192
sS'CONFIG_HAS_IOMEM'
p790
S'y'
sS'kernel.sched_domain.cpu13.domain0.name'
p791
S'DIE'
p792
sS'net.ipv4.conf.all.forwarding'
p793
I0
sS'CONFIG_USB_DEFAULT_PERSIST'
p794
S'y'
sS'CONFIG_NEW_LEDS'
p795
S'y'
sS'kernel.sched_domain.cpu28.domain0.flags'
p796
I4143
sS'kernel.perf_event_paranoid'
p797
I2
sS'net.ipv6.conf.all.mtu'
p798
I1280
sS'net.ipv6.neigh.default.base_reachable_time_ms'
p799
I30000
sS'kernel.sched_domain.cpu24.domain1.flags'
p800
I25647
sS'kernel.perf_event_mlock_kb'
p801
I516
sS'vm.block_dump'
p802
I0
sS'kernel.sched_domain.cpu16.domain0.busy_factor'
p803
I32
sS'CONFIG_PHYLIB'
p804
S'y'
sS'kernel.pty.reserve'
p805
I1024
sS'net.ipv4.conf.all.igmpv3_unsolicited_report_interval'
p806
I1000
sS'CONFIG_PCI_MSI'
p807
S'y'
sS'net.ipv4.conf.default.send_redirects'
p808
I1
sS'net.ipv6.conf.default.disable_ipv6'
p809
I0
sS'kernel.sched_domain.cpu26.domain1.min_interval'
p810
I30
sS'kernel.sched_domain.cpu20.domain1.newidle_idx'
p811
I0
sS'CONFIG_INLINE_READ_UNLOCK_IRQ'
p812
S'y'
sS'CONFIG_DW_DMAC_PCI'
p813
S'y'
sS'kernel.sched_domain.cpu0.domain0.imbalance_pct'
p814
I125
sS'net.ipv6.conf.lo.hop_limit'
p815
I64
sS'kernel.sched_domain.cpu7.domain1.newidle_idx'
p816
I0
sS'net.ipv4.conf.all.arp_accept'
p817
I0
sS'CONFIG_BINARY_PRINTF'
p818
S'y'
sS'kernel.sched_domain.cpu6.domain0.min_interval'
p819
I10
sS'kernel.msgmnb'
p820
I16384
sS'CONFIG_IRQ_BYPASS_MANAGER'
p821
S'm'
sS'kernel.msgmni'
p822
I32000
sS'CONFIG_SLUB'
p823
S'y'
sS'kernel.soft_watchdog'
p824
I1
sS'CONFIG_USB_LED_TRIG'
p825
S'y'
sS'kernel.sched_time_avg_ms'
p826
I1000
sS'kernel.sched_domain.cpu21.domain0.busy_idx'
p827
I2
sS'kernel.sched_domain.cpu8.domain0.cache_nice_tries'
p828
I1
sS'CONFIG_X86_INTEL_MPX'
p829
S'y'
sS'CONFIG_X86_ACPI_CPUFREQ_CPB'
p830
S'y'
sS'net.ipv6.conf.default.mc_forwarding'
p831
I0
sS'kernel.threads-max'
p832
I515185
sS'kernel.sched_domain.cpu1.domain1.busy_factor'
p833
I32
sS'kernel.sched_domain.cpu18.domain1.busy_idx'
p834
I3
sS'net.ipv4.neigh.default.mcast_resolicit'
p835
I0
sS'net.ipv4.conf.default.arp_announce'
p836
I0
sS'CONFIG_ACPI_DOCK'
p837
S'y'
sS'CONFIG_X86_INTEL_MEMORY_PROTECTION_KEYS'
p838
S'y'
sS'net.ipv4.neigh.ens3.base_reachable_time_ms'
p839
I30000
sS'CONFIG_SCHED_MC'
p840
S'y'
sS'CONFIG_ARCH_HAS_MEM_ENCRYPT'
p841
S'y'
sS'CONFIG_BOUNCE'
p842
S'y'
sS'kernel.sched_domain.cpu8.domain1.max_interval'
p843
I60
sS'kernel.sched_domain.cpu17.domain1.min_interval'
p844
I30
sS'kernel.keys.gc_delay'
p845
I300
sS'CONFIG_HAVE_ARCH_TRANSPARENT_HUGEPAGE_PUD'
p846
S'y'
sS'kernel.hung_task_timeout_secs'
p847
I120
sS'CONFIG_X86_MINIMUM_CPU_FAMILY'
p848
I64
sS'CONFIG_CRYPTO_KPP2'
p849
S'y'
sS'CONFIG_SQUASHFS_ZLIB'
p850
S'y'
sS'CONFIG_X86_PLATFORM_DEVICES'
p851
S'y'
sS'CONFIG_CONTEXT_SWITCH_TRACER'
p852
S'y'
sS'net.ipv4.conf.default.accept_source_route'
p853
I1
sS'kernel.core_pipe_limit'
p854
I0
sS'kernel.dmesg_restrict'
p855
I0
sS'kernel.sched_domain.cpu7.domain1.imbalance_pct'
p856
I125
sS'kernel.sched_domain.cpu27.domain1.flags'
p857
I25647
sS'kernel.sched_domain.cpu19.domain1.max_interval'
p858
I60
sS'CONFIG_PERF_EVENTS_INTEL_RAPL'
p859
S'y'
sS'CONFIG_HAVE_PERF_USER_STACK_DUMP'
p860
S'y'
sS'CONFIG_SERIAL_SCCNXP'
p861
S'y'
sS'kernel.sched_domain.cpu28.domain1.cache_nice_tries'
p862
I2
sS'CONFIG_EFI_RUNTIME_MAP'
p863
S'y'
sS'kernel.sched_domain.cpu18.domain1.flags'
p864
I25647
sS'net.ipv6.neigh.lo.base_reachable_time_ms'
p865
I30000
sS'debug.kprobes-optimization'
p866
I1
sS'kernel.sched_domain.cpu6.domain0.idle_idx'
p867
I1
sS'CONFIG_BPF_SYSCALL'
p868
S'y'
sS'net.ipv6.conf.default.accept_ra_pinfo'
p869
I1
sS'kernel.sched_domain.cpu19.domain0.name'
p870
S'DIE'
p871
sS'CONFIG_VIRTIO_PCI_LEGACY'
p872
S'y'
sS'net.ipv6.flowlabel_consistency'
p873
I1
sS'CONFIG_WLAN_VENDOR_QUANTENNA'
p874
S'y'
sS'kernel.sched_domain.cpu25.domain0.forkexec_idx'
p875
I0
sS'kernel.sched_domain.cpu4.domain1.max_interval'
p876
I60
sS'CONFIG_CRYPTO_DEV_CCP'
p877
S'y'
sS'CONFIG_HAVE_EFFICIENT_UNALIGNED_ACCESS'
p878
S'y'
sS'CONFIG_USB_ANNOUNCE_NEW_DEVICES'
p879
S'y'
sS'CONFIG_AUTOFS4_FS'
p880
S'm'
sS'CONFIG_ARCH_SUPPORTS_MEMORY_FAILURE'
p881
S'y'
sS'CONFIG_STAGING'
p882
S'y'
sS'CONFIG_ARCH_HAS_FAST_MULTIPLIER'
p883
S'y'
sS'CONFIG_IPV6_MROUTE_MULTIPLE_TABLES'
p884
S'y'
sS'CONFIG_NET_VENDOR_STMICRO'
p885
S'y'
sS'CONFIG_NUMA_BALANCING_DEFAULT_ENABLED'
p886
S'y'
sS'kernel.sched_domain.cpu12.domain0.flags'
p887
I4143
sS'kernel.sched_domain.cpu15.domain1.forkexec_idx'
p888
I0
sS'net.ipv6.conf.all.accept_ra_rt_info_max_plen'
p889
I0
sS'CONFIG_X86_DEV_DMA_OPS'
p890
S'y'
sS'CONFIG_PCI_ATS'
p891
S'y'
sS'CONFIG_RD_LZO'
p892
S'y'
sS'kernel.sched_domain.cpu7.domain1.cache_nice_tries'
p893
I2
sS'CONFIG_BLK_DEV'
p894
S'y'
sS'CONFIG_HARDLOCKUP_CHECK_TIMESTAMP'
p895
S'y'
sS'CONFIG_SQUASHFS_XZ'
p896
S'y'
sS'kernel.sched_domain.cpu10.domain0.busy_factor'
p897
I32
sS'CONFIG_MDIO_DEVICE'
p898
S'y'
sS'CONFIG_GPIO_RC5T583'
p899
S'y'
sS'net.ipv4.tcp_moderate_rcvbuf'
p900
I1
sS'CONFIG_ACPI_CONTAINER'
p901
S'y'
sS'CONFIG_STACKTRACE'
p902
S'y'
sS'CONFIG_ATA_BMDMA'
p903
S'y'
sS'kernel.sched_domain.cpu20.domain1.forkexec_idx'
p904
I0
sS'net.ipv4.tcp_min_rtt_wlen'
p905
I300
sS'net.ipv6.fwmark_reflect'
p906
I0
sS'CONFIG_MOUSE_PS2_VMMOUSE'
p907
S'y'
sS'net.ipv6.conf.all.disable_ipv6'
p908
I0
sS'CONFIG_SECURITY_APPARMOR'
p909
S'y'
sS'CONFIG_WATCHDOG_CORE'
p910
S'y'
sS'CONFIG_SERIAL_KGDB_NMI'
p911
S'y'
sS'CONFIG_INSTRUCTION_DECODER'
p912
S'y'
sS'net.ipv6.neigh.ens3.proxy_delay'
p913
I80
sS'CONFIG_SOC_TI'
p914
S'y'
sS'CONFIG_MFD_TPS80031'
p915
S'y'
sS'kernel.sched_domain.cpu2.domain1.forkexec_idx'
p916
I0
sS'CONFIG_MEMCG'
p917
S'y'
sS'net.ipv6.conf.default.dad_transmits'
p918
I1
sS'kernel.sched_domain.cpu12.domain1.max_newidle_lb_cost'
p919
I13422
sS'net.ipv4.neigh.lo.ucast_solicit'
p920
I3
sS'kernel.sched_domain.cpu8.domain1.busy_factor'
p921
I32
sS'CONFIG_IOSCHED_CFQ'
p922
S'y'
sS'CONFIG_MEMBARRIER'
p923
S'y'
sS'net.ipv6.conf.all.mldv1_unsolicited_report_interval'
p924
I10000
sS'kernel.sched_domain.cpu2.domain0.idle_idx'
p925
I1
sS'CONFIG_BLK_DEV_DM'
p926
S'y'
sS'CONFIG_DEFAULT_HUNG_TASK_TIMEOUT'
p927
I120
sS'net.ipv6.conf.default.regen_max_retry'
p928
I3
sS'CONFIG_SND_PCI'
p929
S'y'
sS'CONFIG_GENERIC_CPU'
p930
S'y'
sS'net.ipv4.conf.default.accept_local'
p931
I0
sS'net.ipv6.conf.default.forwarding'
p932
I0
sS'net.core.dev_weight_rx_bias'
p933
I1
sS'CONFIG_CPU_SUP_AMD'
p934
S'y'
sS'CONFIG_GENERIC_FIND_FIRST_BIT'
p935
S'y'
sS'CONFIG_HAVE_USER_RETURN_NOTIFIER'
p936
S'y'
sS'kernel.core_pattern'
p937
S'|/usr/share/apport/apport %p %s %c %d %P'
p938
sS'kernel.perf_event_max_sample_rate'
p939
I100000
sS'CONFIG_SCSI'
p940
S'y'
sS'kernel.sched_domain.cpu26.domain0.cache_nice_tries'
p941
I1
sS'CONFIG_HAVE_GCC_PLUGINS'
p942
S'y'
sS'CONFIG_GENERIC_EARLY_IOREMAP'
p943
S'y'
sS'kernel.random.poolsize'
p944
I4096
sS'CONFIG_GLOB'
p945
S'y'
sS'CONFIG_ZBUD'
p946
S'y'
sS'CONFIG_ARCH_MMAP_RND_BITS_MAX'
p947
I32
sS'net.ipv6.conf.lo.force_mld_version'
p948
I0
sS'CONFIG_NUMA_BALANCING'
p949
S'y'
sS'net.ipv4.conf.ens3.accept_redirects'
p950
I1
sS'kernel.sched_domain.cpu1.domain0.busy_factor'
p951
I32
sS'CONFIG_EDD_OFF'
p952
S'y'
sS'CONFIG_THERMAL'
p953
S'y'
sS'CONFIG_BPF'
p954
S'y'
sS'CONFIG_HUGETLBFS'
p955
S'y'
sS'net.ipv4.tcp_frto'
p956
I2
sS'CONFIG_ETHERNET'
p957
S'y'
sS'net.ipv4.tcp_probe_threshold'
p958
I8
sS'kernel.sched_domain.cpu20.domain0.name'
p959
S'DIE'
p960
sS'CONFIG_CPU_IDLE'
p961
S'y'
sS'net.ipv4.conf.default.forwarding'
p962
I0
sS'CONFIG_DECOMPRESS_BZIP2'
p963
S'y'
sS'net.ipv6.conf.default.accept_ra_rtr_pref'
p964
I1
sS'net.ipv4.neigh.lo.delay_first_probe_time'
p965
I5
sS'net.ipv6.conf.ens3.force_tllao'
p966
I0
sS'CONFIG_MFD_MAX8998'
p967
S'y'
sS'CONFIG_AB3100_CORE'
p968
S'y'
sS'CONFIG_PM'
p969
S'y'
sS'CONFIG_FAIR_GROUP_SCHED'
p970
S'y'
sS'CONFIG_HAVE_ARCH_HUGE_VMAP'
p971
S'y'
sS'net.ipv4.ip_forward'
p972
I0
sS'CONFIG_COMPAT_32'
p973
S'y'
sS'kernel.sched_domain.cpu12.domain0.forkexec_idx'
p974
I0
sS'kernel.sched_domain.cpu23.domain1.forkexec_idx'
p975
I0
sS'kernel.sched_domain.cpu7.domain0.busy_factor'
p976
I32
sS'kernel.sched_domain.cpu0.domain0.name'
p977
S'DIE'
p978
sS'kernel.sched_domain.cpu3.domain0.busy_idx'
p979
I2
sS'kernel.sched_domain.cpu0.domain0.max_interval'
p980
I20
sS'kernel.sched_domain.cpu4.domain0.busy_idx'
p981
I2
sS'kernel.sched_domain.cpu21.domain1.idle_idx'
p982
I2
sS'kernel.sched_domain.cpu12.domain1.flags'
p983
I25647
sS'kernel.sched_domain.cpu18.domain0.name'
p984
S'DIE'
p985
sS'CONFIG_NETFILTER_ADVANCED'
p986
S'y'
sS'CONFIG_RANDOMIZE_MEMORY'
p987
S'y'
sS'CONFIG_ASYNC_MEMCPY'
p988
S'm'
sS'net.ipv6.conf.default.accept_ra_from_local'
p989
I0
sS'CONFIG_WLAN_VENDOR_REALTEK'
p990
S'y'
sS'kernel.sched_domain.cpu26.domain1.cache_nice_tries'
p991
I2
sS'net.ipv6.conf.ens3.accept_ra_rt_info_max_plen'
p992
I0
sS'net.core.flow_limit_table_len'
p993
I4096
sS'kernel.sched_domain.cpu9.domain0.flags'
p994
I4143
sS'kernel.sched_domain.cpu17.domain0.wake_idx'
p995
I0
sS'CONFIG_MOUSE_PS2_SYNAPTICS_SMBUS'
p996
S'y'
sS'CONFIG_ZONE_DMA'
p997
S'y'
sS'net.core.max_skb_frags'
p998
I17
sS'CONFIG_COMPAT_FOR_U64_ALIGNMENT'
p999
S'y'
sS'kernel.sched_domain.cpu23.domain1.busy_factor'
p1000
I32
sS'CONFIG_HAVE_KVM_CPU_RELAX_INTERCEPT'
p1001
S'y'
sS'CONFIG_VHOST'
p1002
S'm'
sS'kernel.printk_devkmsg'
p1003
S'ratelimit'
p1004
sS'net.ipv6.neigh.ens3.gc_stale_time'
p1005
I60
sS'kernel.sched_domain.cpu15.domain1.busy_factor'
p1006
I32
sS'CONFIG_HAVE_NET_DSA'
p1007
S'y'
sS'CONFIG_PCI_LABEL'
p1008
S'y'
sS'CONFIG_IOMMU_IOVA'
p1009
S'y'
sS'net.ipv6.conf.default.accept_ra'
p1010
I1
sS'kernel.sched_domain.cpu6.domain0.max_newidle_lb_cost'
p1011
I18314
sS'CONFIG_ISCSI_IBFT_FIND'
p1012
S'y'
sS'kernel.sched_domain.cpu2.domain0.min_interval'
p1013
I10
sS'kernel.sched_domain.cpu5.domain1.max_interval'
p1014
I60
sS'CONFIG_EVM'
p1015
S'y'
sS'CONFIG_PKCS7_MESSAGE_PARSER'
p1016
S'y'
sS'CONFIG_IA32_EMULATION'
p1017
S'y'
sS'net.ipv4.tcp_workaround_signed_windows'
p1018
I0
sS'CONFIG_PM_SLEEP'
p1019
S'y'
sS'CONFIG_IP_MROUTE'
p1020
S'y'
sS'kernel.sched_domain.cpu22.domain0.name'
p1021
S'DIE'
p1022
sS'net.ipv4.ipfrag_secret_interval'
p1023
I0
sS'CONFIG_ZSTD_DECOMPRESS'
p1024
S'm'
sS'kernel.sched_domain.cpu29.domain1.cache_nice_tries'
p1025
I2
sS'net.ipv6.neigh.default.ucast_solicit'
p1026
I3
sS'net.ipv6.neigh.default.locktime'
p1027
I0
sS'CONFIG_AGP_VIA'
p1028
S'y'
sS'net.ipv6.auto_flowlabels'
p1029
I1
sS'kernel.sched_domain.cpu28.domain0.max_newidle_lb_cost'
p1030
I106858
sS'CONFIG_SCHED_MC_PRIO'
p1031
S'y'
sS'kernel.sched_domain.cpu19.domain0.cache_nice_tries'
p1032
I1
sS'kernel.sched_domain.cpu28.domain1.newidle_idx'
p1033
I0
sS'kernel.sched_domain.cpu14.domain0.flags'
p1034
I4143
sS'CONFIG_ELFCORE'
p1035
S'y'
sS'CONFIG_BPF_EVENTS'
p1036
S'y'
sS'net.ipv4.neigh.lo.mcast_solicit'
p1037
I3
sS'CONFIG_BUILD_BIN2C'
p1038
S'y'
sS'kernel.sched_domain.cpu14.domain1.max_interval'
p1039
I60
sS'CONFIG_I2C_PIIX4'
p1040
S'm'
sS'CONFIG_SND_HDA_GENERIC'
p1041
S'm'
sS'kernel.sched_domain.cpu13.domain0.wake_idx'
p1042
I0
sS'CONFIG_SND_HDA'
p1043
S'm'
sS'fs.quota.drops'
p1044
I0
sS'kernel.acct'
p1045
S'4\t2\t30'
p1046
sS'kernel.sched_domain.cpu8.domain0.name'
p1047
S'DIE'
p1048
sS'fs.mqueue.msg_max'
p1049
I10
sS'kernel.yama.ptrace_scope'
p1050
I1
sS'kernel.sched_domain.cpu19.domain0.idle_idx'
p1051
I1
sS'CONFIG_MAC80211_STA_HASH_MAX_SIZE'
p1052
I0
sS'dev.parport.default.timeslice'
p1053
I200
sS'net.ipv4.inet_peer_threshold'
p1054
I65664
sS'kernel.sched_domain.cpu21.domain0.max_newidle_lb_cost'
p1055
I33846
sS'CONFIG_HAVE_ARCH_TRACEHOOK'
p1056
S'y'
sS'net.ipv6.conf.all.ignore_routes_with_linkdown'
p1057
I0
sS'net.core.rps_sock_flow_entries'
p1058
I0
sS'CONFIG_ARCH_SELECT_MEMORY_MODEL'
p1059
S'y'
sS'CONFIG_FONT_8x8'
p1060
S'y'
sS'kernel.sched_domain.cpu1.domain0.min_interval'
p1061
I10
sS'kernel.sched_domain.cpu22.domain1.max_interval'
p1062
I60
sS'CONFIG_EARLY_PRINTK_USB'
p1063
S'y'
sS'net.ipv6.neigh.default.proxy_qlen'
p1064
I64
sS'CONFIG_EDD'
p1065
S'y'
sS'kernel.sched_domain.cpu26.domain1.name'
p1066
S'NUMA'
p1067
sS'net.ipv6.route.max_size'
p1068
I4096
sS'kernel.sched_domain.cpu26.domain1.forkexec_idx'
p1069
I0
sS'kernel.sched_domain.cpu5.domain0.imbalance_pct'
p1070
I125
sS'kernel.sched_domain.cpu13.domain1.name'
p1071
S'NUMA'
p1072
sS'CONFIG_FTRACE_SYSCALLS'
p1073
S'y'
sS'net.ipv6.conf.lo.accept_ra_rt_info_min_plen'
p1074
I0
sS'CONFIG_GENERIC_IRQ_MIGRATION'
p1075
S'y'
sS'kernel.sched_domain.cpu5.domain0.max_interval'
p1076
I20
sS'fs.inode-state'
p1077
S'87042\t516\t0\t0\t0\t0\t0'
p1078
sS'CONFIG_HTC_I2CPLD'
p1079
S'y'
sS'kernel.sched_domain.cpu27.domain0.newidle_idx'
p1080
I0
sS'CONFIG_LEDS_TRIGGERS'
p1081
S'y'
sS'kernel.sched_domain.cpu25.domain0.flags'
p1082
I4143
sS'net.ipv4.ipfrag_max_dist'
p1083
I64
sS'kernel.sched_rt_period_us'
p1084
I1000000
sS'CONFIG_HAVE_CONTEXT_TRACKING'
p1085
S'y'
sS'CONFIG_CRYPTO_DRBG'
p1086
S'y'
sS'CONFIG_ADVISE_SYSCALLS'
p1087
S'y'
sS'CONFIG_STRICT_MODULE_RWX'
p1088
S'y'
sS'kernel.sched_domain.cpu19.domain0.busy_idx'
p1089
I2
sS'kernel.printk_delay'
p1090
I0
sS'kernel.sched_domain.cpu8.domain0.forkexec_idx'
p1091
I0
sS'CONFIG_GENERIC_ISA_DMA'
p1092
S'y'
sS'net.ipv4.neigh.default.retrans_time_ms'
p1093
I1000
sS'net.core.wmem_default'
p1094
I212992
sS'CONFIG_RATIONAL'
p1095
S'y'
sS'kernel.sched_domain.cpu16.domain1.max_newidle_lb_cost'
p1096
I96412
sS'CONFIG_ARCH_DMA_ADDR_T_64BIT'
p1097
S'y'
sS'kernel.sched_domain.cpu22.domain0.busy_idx'
p1098
I2
sS'CONFIG_IP_NF_FILTER'
p1099
S'm'
sS'kernel.sched_domain.cpu20.domain1.min_interval'
p1100
I30
sS'net.ipv4.conf.default.route_localnet'
p1101
I0
sS'net.ipv4.conf.lo.proxy_arp'
p1102
I0
sS'CONFIG_PMIC_DA903X'
p1103
S'y'
sS'CONFIG_X86_POWERNOW_K8'
p1104
S'y'
sS'CONFIG_ACPI_APEI_MEMORY_FAILURE'
p1105
S'y'
sS'net.ipv4.ip_local_reserved_ports'
p1106
S''
sS'CONFIG_NET_VENDOR_QLOGIC'
p1107
S'y'
sS'CONFIG_PCSPKR_PLATFORM'
p1108
S'y'
sS'kernel.sched_domain.cpu17.domain0.max_interval'
p1109
I20
sS'net.ipv6.conf.lo.max_addresses'
p1110
I16
sS'kernel.sched_domain.cpu20.domain1.name'
p1111
S'NUMA'
p1112
sS'kernel.sched_domain.cpu7.domain0.min_interval'
p1113
I10
sS'kernel.sysctl_writes_strict'
p1114
I1
sS'vm.drop_caches'
p1115
I0
sS'kernel.sched_domain.cpu21.domain0.newidle_idx'
p1116
I0
sS'CONFIG_I2C_COMPAT'
p1117
S'y'
sS'net.ipv6.conf.ens3.temp_valid_lft'
p1118
I604800
sS'CONFIG_HAVE_FUNCTION_TRACER'
p1119
S'y'
sS'CONFIG_TRACING_SUPPORT'
p1120
S'y'
sS'kernel.sched_domain.cpu22.domain0.max_newidle_lb_cost'
p1121
I26697
sS'kernel.sched_domain.cpu2.domain1.flags'
p1122
I25647
sS'CONFIG_IMA_APPRAISE'
p1123
S'y'
sS'dev.cdrom.info'
p1124
S''
sS'kernel.sched_domain.cpu21.domain1.name'
p1125
S'NUMA'
p1126
sS'CONFIG_NET_VENDOR_AQUANTIA'
p1127
S'y'
sS'kernel.sched_domain.cpu9.domain0.wake_idx'
p1128
I0
sS'CONFIG_TRANSPARENT_HUGEPAGE_ALWAYS'
p1129
S'y'
sg8
S'HostInfo.host-192.168.123.30'
p1130
sS'CONFIG_X86_L1_CACHE_SHIFT'
p1131
I6
sS'kernel.sched_domain.cpu12.domain0.wake_idx'
p1132
I0
sS'kernel.sched_domain.cpu13.domain0.busy_factor'
p1133
I32
sS'CONFIG_NET_VENDOR_HP'
p1134
S'y'
sS'CONFIG_NET_VENDOR_MELLANOX'
p1135
S'y'
sS'CONFIG_SHMEM'
p1136
S'y'
sS'CONFIG_EFI_RUNTIME_WRAPPERS'
p1137
S'y'
sS'net.core.netdev_max_backlog'
p1138
I1000
sS'kernel.sched_domain.cpu8.domain0.max_newidle_lb_cost'
p1139
I110276
sS'CONFIG_PM_TRACE_RTC'
p1140
S'y'
sS'net.ipv6.neigh.ens3.unres_qlen'
p1141
I101
sS'CONFIG_ARCH_HIBERNATION_POSSIBLE'
p1142
S'y'
sS'kernel.hotplug'
p1143
S''
sS'CONFIG_SERIAL_CORE_CONSOLE'
p1144
S'y'
sS'kernel.sched_domain.cpu4.domain1.cache_nice_tries'
p1145
I2
sS'kernel.sched_domain.cpu9.domain0.busy_idx'
p1146
I2
sS'kernel.ostype'
p1147
S'Linux'
p1148
sS'CONFIG_PNP'
p1149
S'y'
sS'kernel.sched_domain.cpu9.domain0.imbalance_pct'
p1150
I125
sS'CONFIG_IPV6'
p1151
S'y'
sS'CONFIG_GENERIC_CLOCKEVENTS'
p1152
S'y'
sS'CONFIG_MICROCODE_INTEL'
p1153
S'y'
sS'CONFIG_PM_CLK'
p1154
S'y'
sS'kernel.sched_domain.cpu12.domain0.min_interval'
p1155
I10
sS'kernel.sched_domain.cpu11.domain1.newidle_idx'
p1156
I0
sS'CONFIG_KVM_COMPAT'
p1157
S'y'
sS'CONFIG_TCG_TPM'
p1158
S'y'
sS'CONFIG_I2C_DESIGNWARE_PLATFORM'
p1159
S'y'
sS'net.ipv6.conf.ens3.ignore_routes_with_linkdown'
p1160
I0
sS'kernel.sched_domain.cpu29.domain0.newidle_idx'
p1161
I0
sS'kernel.sched_domain.cpu29.domain1.flags'
p1162
I25647
sS'kernel.sched_domain.cpu27.domain0.flags'
p1163
I4143
sS'vm.nr_pdflush_threads'
p1164
I0
sS'kernel.sched_domain.cpu6.domain0.busy_factor'
p1165
I32
sS'kernel.sched_domain.cpu4.domain0.imbalance_pct'
p1166
I125
sS'CONFIG_SQUASHFS'
p1167
S'y'
sS'CONFIG_WQ_POWER_EFFICIENT_DEFAULT'
p1168
S'y'
sS'CONFIG_MFD_MAX77693'
p1169
S'y'
sS'kernel.sched_domain.cpu23.domain0.newidle_idx'
p1170
I0
sS'kernel.sched_domain.cpu17.domain1.cache_nice_tries'
p1171
I2
sS'CONFIG_CGROUP_DEVICE'
p1172
S'y'
sS'CONFIG_NET_VENDOR_ALTEON'
p1173
S'y'
sS'CONFIG_BSD_PROCESS_ACCT_V3'
p1174
S'y'
sS'net.ipv4.conf.ens3.tag'
p1175
I0
sS'CONFIG_AMD_NB'
p1176
S'y'
sS'net.ipv4.conf.default.tag'
p1177
I0
sS'net.ipv4.tcp_max_syn_backlog'
p1178
I2048
sS'kernel.sched_domain.cpu10.domain1.idle_idx'
p1179
I2
sS'CONFIG_DECOMPRESS_XZ'
p1180
S'y'
sS'kernel.sched_domain.cpu23.domain1.cache_nice_tries'
p1181
I2
sS'kernel.sched_domain.cpu16.domain1.flags'
p1182
I25647
sS'net.ipv6.conf.all.dad_transmits'
p1183
I1
sS'net.ipv6.ip6frag_high_thresh'
p1184
I4194304
sS'kernel.sched_domain.cpu21.domain0.busy_factor'
p1185
I32
sS'CONFIG_HAVE_ARCH_JUMP_LABEL'
p1186
S'y'
sS'vm.dirty_expire_centisecs'
p1187
I3000
sS'kernel.sched_domain.cpu17.domain1.name'
p1188
S'NUMA'
p1189
sS'CONFIG_KERNFS'
p1190
S'y'
sS'CONFIG_TCG_TIS_CORE'
p1191
S'y'
sS'CONFIG_IP_MULTICAST'
p1192
S'y'
sS'CONFIG_PM_WAKELOCKS_GC'
p1193
S'y'
sS'kernel.sched_domain.cpu3.domain0.wake_idx'
p1194
I0
sS'kernel.sched_domain.cpu18.domain0.newidle_idx'
p1195
I0
sS'CONFIG_GENERIC_IRQ_SHOW'
p1196
S'y'
sS'CONFIG_MFD_WM8400'
p1197
S'y'
sS'net.ipv6.conf.all.forwarding'
p1198
I0
sS'CONFIG_SERIAL_8250_MANY_PORTS'
p1199
S'y'
sS'net.ipv4.conf.default.medium_id'
p1200
I0
sS'CONFIG_ARCH_HAS_GIGANTIC_PAGE'
p1201
S'y'
sS'vm.oom_dump_tasks'
p1202
I1
sS'net.ipv6.ip6frag_secret_interval'
p1203
I0
sS'CONFIG_PMIC_ADP5520'
p1204
S'y'
sS'CONFIG_USER_NS'
p1205
S'y'
sS'kernel.sched_domain.cpu24.domain0.newidle_idx'
p1206
I0
sS'net.ipv4.neigh.default.gc_stale_time'
p1207
I60
sS'kernel.sched_domain.cpu8.domain1.min_interval'
p1208
I30
sS'CONFIG_ARCH_WANTS_DYNAMIC_TASK_STRUCT'
p1209
S'y'
sS'net.ipv4.conf.ens3.accept_source_route'
p1210
I1
sS'CONFIG_SYSTEM_TRUSTED_KEYRING'
p1211
S'y'
sS'net.ipv6.icmp.ratelimit'
p1212
I1000
sS'net.ipv4.conf.lo.log_martians'
p1213
I0
sS'CONFIG_HAVE_ALIGNED_STRUCT_PAGE'
p1214
S'y'
sS'dev.cdrom.check_media'
p1215
I0
sS'CONFIG_INTEL_SOC_PMIC'
p1216
S'y'
sS'kernel.sched_domain.cpu9.domain0.min_interval'
p1217
I10
sS'net.ipv6.conf.ens3.keep_addr_on_down'
p1218
I0
sS'net.ipv4.conf.default.mc_forwarding'
p1219
I0
sS'net.core.dev_weight_tx_bias'
p1220
I1
sS'CONFIG_MDIO'
p1221
S'm'
sS'net.ipv6.neigh.default.retrans_time_ms'
p1222
I1000
sS'kernel.sched_domain.cpu14.domain1.cache_nice_tries'
p1223
I2
sS'net.ipv6.conf.ens3.drop_unsolicited_na'
p1224
I0
sS'CONFIG_NLS_ISO8859_1'
p1225
S'y'
sS'kernel.sem'
p1226
S'32000\t1024000000\t500\t32000'
p1227
sS'kernel.sched_domain.cpu9.domain1.max_interval'
p1228
I60
sS'net.ipv4.tcp_window_scaling'
p1229
I1
sS'net.ipv4.tcp_available_ulp'
p1230
S''
sS'CONFIG_NEED_DMA_MAP_STATE'
p1231
S'y'
sS'net.ipv6.conf.lo.temp_prefered_lft'
p1232
I86400
sS'CONFIG_HAVE_ARCH_SECCOMP_FILTER'
p1233
S'y'
sS'CONFIG_INPUT_MOUSEDEV_SCREEN_X'
p1234
I1024
sS'CONFIG_INPUT_MOUSEDEV_SCREEN_Y'
p1235
I768
sS'CONFIG_DMIID'
p1236
S'y'
sS'CONFIG_SND_HDA_RECONFIG'
p1237
S'y'
sS'net.ipv4.conf.default.arp_notify'
p1238
I0
sS'CONFIG_INPUT_UINPUT'
p1239
S'y'
sS'net.ipv6.flowlabel_reflect'
p1240
I0
sS'CONFIG_NET_L3_MASTER_DEV'
p1241
S'y'
sS'CONFIG_SERIAL_EARLYCON'
p1242
S'y'
sS'kernel.sched_domain.cpu21.domain1.cache_nice_tries'
p1243
I2
sS'kernel.sched_domain.cpu23.domain1.idle_idx'
p1244
I2
sS'CONFIG_NETLABEL'
p1245
S'y'
sS'CONFIG_ARCH_HAS_ACPI_TABLE_UPGRADE'
p1246
S'y'
sS'CONFIG_IRQ_REMAP'
p1247
S'y'
sS'CONFIG_GENERIC_TRACER'
p1248
S'y'
sS'CONFIG_WLAN'
p1249
S'y'
sS'kernel.sched_domain.cpu15.domain0.busy_idx'
p1250
I2
sS'CONFIG_BE2ISCSI'
p1251
S'm'
sS'kernel.sched_domain.cpu14.domain1.forkexec_idx'
p1252
I0
sS'CONFIG_NET_VENDOR_DEC'
p1253
S'y'
sS'CONFIG_FUTEX'
p1254
S'y'
sS'net.ipv6.neigh.ens3.app_solicit'
p1255
I0
sS'CONFIG_ARCH_WANT_OLD_COMPAT_IPC'
p1256
S'y'
sS'CONFIG_SSB_POSSIBLE'
p1257
S'y'
sS'net.ipv4.conf.default.arp_ignore'
p1258
I0
sS'kernel.sched_domain.cpu19.domain1.flags'
p1259
I25647
sS'kernel.sched_domain.cpu26.domain1.busy_factor'
p1260
I32
sS'net.ipv4.tcp_ecn'
p1261
I2
sS'CONFIG_ZSTD_COMPRESS'
p1262
S'm'
sS'CONFIG_HWMON'
p1263
S'y'
sS'net.ipv4.neigh.default.anycast_delay'
p1264
I100
sS'CONFIG_MFD_DA9052_I2C'
p1265
S'y'
sS'CONFIG_LOG_BUF_SHIFT'
p1266
I18
sS'CONFIG_INTEL_IOMMU'
p1267
S'y'
sS'CONFIG_IRQ_DOMAIN_HIERARCHY'
p1268
S'y'
sS'CONFIG_NET_VENDOR_BROCADE'
p1269
S'y'
sS'CONFIG_ACPI_CUSTOM_DSDT_FILE'
p1270
S'""'
p1271
sS'net.ipv6.neigh.default.gc_thresh2'
p1272
I512
sS'net.ipv6.neigh.default.gc_thresh3'
p1273
I1024
sS'net.ipv6.neigh.default.gc_thresh1'
p1274
I128
sS'kernel.sched_domain.cpu1.domain1.imbalance_pct'
p1275
I125
sS'CONFIG_NO_HZ_IDLE'
p1276
S'y'
sS'user.max_ipc_namespaces'
p1277
I257592
sS'kernel.sched_domain.cpu15.domain0.flags'
p1278
I4143
sS'kernel.sched_domain.cpu25.domain0.busy_factor'
p1279
I32
sS'CONFIG_CRYPTO_SHA256'
p1280
S'y'
sS'net.ipv4.neigh.ens3.unres_qlen_bytes'
p1281
I212992
sS'vm.overcommit_memory'
p1282
I0
sS'CONFIG_MODULE_UNLOAD'
p1283
S'y'
sS'CONFIG_NLS_DEFAULT'
p1284
S'"utf8"'
p1285
sS'CONFIG_MFD_RC5T583'
p1286
S'y'
sS'CONFIG_BTRFS_FS_POSIX_ACL'
p1287
S'y'
sS'kernel.sched_domain.cpu28.domain1.forkexec_idx'
p1288
I0
sS'CONFIG_GENERIC_PHY'
p1289
S'y'
sS'net.ipv6.conf.lo.accept_source_route'
p1290
I0
sS'CONFIG_CHELSIO_LIB'
p1291
S'm'
sS'kernel.sched_domain.cpu18.domain0.cache_nice_tries'
p1292
I1
sS'CONFIG_FB_VESA'
p1293
S'y'
sS'net.ipv4.neigh.lo.retrans_time_ms'
p1294
I1000
sS'CONFIG_X86_RESERVE_LOW'
p1295
I64
sS'kernel.modules_disabled'
p1296
I0
sS'CONFIG_X86_NUMACHIP'
p1297
S'y'
sS'CONFIG_DMI_SCAN_MACHINE_NON_EFI_FALLBACK'
p1298
S'y'
sS'net.ipv6.ip_nonlocal_bind'
p1299
I0
sS'CONFIG_TCP_CONG_CUBIC'
p1300
S'y'
sS'net.ipv6.neigh.default.proxy_delay'
p1301
I80
sS'kernel.sched_domain.cpu16.domain0.busy_idx'
p1302
I2
sS'kernel.sched_domain.cpu8.domain1.cache_nice_tries'
p1303
I2
sS'CONFIG_INOTIFY_USER'
p1304
S'y'
sS'net.core.busy_poll'
p1305
I0
sS'CONFIG_UEFI_CPER'
p1306
S'y'
sS'CONFIG_RTC_DRV_CMOS'
p1307
S'y'
sS'CONFIG_TRANSPARENT_HUGE_PAGECACHE'
p1308
S'y'
sS'net.ipv4.neigh.lo.base_reachable_time_ms'
p1309
I30000
sS'net.ipv4.tcp_tw_reuse'
p1310
I0
sS'CONFIG_MOUSE_PS2_SENTELIC'
p1311
S'y'
sS'CONFIG_LOCKUP_DETECTOR'
p1312
S'y'
sS'kernel.sched_domain.cpu12.domain1.name'
p1313
S'NUMA'
p1314
sS'net.ipv6.conf.all.router_probe_interval'
p1315
I60
sS'CONFIG_STAGING_MEDIA'
p1316
S'y'
sS'net.ipv4.conf.ens3.igmpv3_unsolicited_report_interval'
p1317
I1000
sS'CONFIG_DEFCONFIG_LIST'
p1318
S'"/lib/modules/$UNAME_RELEASE/.config"'
p1319
sS'net.ipv4.ip_local_port_range'
p1320
S'32768\t60999'
p1321
sS'kernel.sched_domain.cpu6.domain1.busy_idx'
p1322
I3
sS'CONFIG_HUGETLB_PAGE'
p1323
S'y'
sS'CONFIG_PERF_EVENTS'
p1324
S'y'
sS'net.ipv4.neigh.lo.locktime'
p1325
I100
sS'CONFIG_SECURITY_TOMOYO_ACTIVATION_TRIGGER'
p1326
S'"/sbin/init"'
p1327
sS'kernel.sched_domain.cpu13.domain1.min_interval'
p1328
I30
sS'CONFIG_MODIFY_LDT_SYSCALL'
p1329
S'y'
sS'CONFIG_UCS2_STRING'
p1330
S'y'
sS'kernel.sched_domain.cpu10.domain1.wake_idx'
p1331
I0
sS'kernel.sched_domain.cpu6.domain1.newidle_idx'
p1332
I0
sS'CONFIG_ARCH_SPARSEMEM_DEFAULT'
p1333
S'y'
sS'CONFIG_IPV6_ROUTE_INFO'
p1334
S'y'
sS'CONFIG_CLKEVT_I8253'
p1335
S'y'
sS'CONFIG_RAPIDIO_DMA_ENGINE'
p1336
S'y'
sS'CONFIG_MFD_SMSC'
p1337
S'y'
sS'kernel.sched_domain.cpu12.domain1.idle_idx'
p1338
I2
sS'CONFIG_SERIAL_8250_PCI'
p1339
S'y'
sS'CONFIG_PCIEASPM_DEFAULT'
p1340
S'y'
sS'kernel.sched_domain.cpu8.domain1.name'
p1341
S'NUMA'
p1342
sS'CONFIG_HAVE_EXIT_THREAD'
p1343
S'y'
sS'CONFIG_SND_HDA_HWDEP'
p1344
S'y'
sS'CONFIG_SOFTLOCKUP_DETECTOR'
p1345
S'y'
sS'kernel.sched_domain.cpu14.domain1.wake_idx'
p1346
I0
sS'CONFIG_EARLY_PRINTK'
p1347
S'y'
sS'net.ipv6.conf.ens3.ndisc_notify'
p1348
I0
sS'net.ipv4.conf.all.proxy_arp_pvlan'
p1349
I0
sS'kernel'
p1350
S'4.14.0-rc8-stock'
p1351
sS'kernel.sched_domain.cpu3.domain0.max_interval'
p1352
I20
sS'CONFIG_BACKLIGHT_LCD_SUPPORT'
p1353
S'y'
sS'CONFIG_DUMMY_CONSOLE_ROWS'
p1354
I25
sS'CONFIG_MOUSE_PS2_ELANTECH'
p1355
S'y'
sS'CONFIG_PCI_MMCONFIG'
p1356
S'y'
sS'CONFIG_KVM_MMIO'
p1357
S'y'
sS'net.ipv4.neigh.default.unres_qlen_bytes'
p1358
I212992
sS'kernel.sched_domain.cpu14.domain0.busy_factor'
p1359
I32
sS'CONFIG_PINCTRL_BAYTRAIL'
p1360
S'y'
sS'net.ipv4.icmp_errors_use_inbound_ifaddr'
p1361
I0
sS'net.ipv6.conf.all.addr_gen_mode'
p1362
I0
sS'kernel.sched_domain.cpu8.domain1.wake_idx'
p1363
I0
sS'CONFIG_HAVE_ACPI_APEI_NMI'
p1364
S'y'
sS'vm.page-cluster'
p1365
I3
sS'kernel.sched_domain.cpu9.domain1.newidle_idx'
p1366
I0
sS'CONFIG_BACKLIGHT_CLASS_DEVICE'
p1367
S'y'
sS'CONFIG_MOUSE_PS2_CYPRESS'
p1368
S'y'
sS'kernel.sched_rt_runtime_us'
p1369
I950000
sS'kernel.sched_domain.cpu29.domain0.busy_factor'
p1370
I32
sS'CONFIG_X86_CMOV'
p1371
S'y'
sS'net.ipv4.tcp_fastopen_blackhole_timeout_sec'
p1372
I3600
sS'CONFIG_SIGNATURE'
p1373
S'y'
sS'net.ipv4.conf.all.mc_forwarding'
p1374
I0
sS'CONFIG_PM_DEBUG'
p1375
S'y'
sS'net.ipv4.neigh.default.ucast_solicit'
p1376
I3
sS'net.ipv4.tcp_keepalive_intvl'
p1377
I75
sS'CONFIG_SOUND'
p1378
S'm'
sS'kernel.sched_domain.cpu6.domain0.flags'
p1379
I4143
sS'CONFIG_SERIO_I8042'
p1380
S'y'
sS'CONFIG_NET_VENDOR_NETRONOME'
p1381
S'y'
sS'CONFIG_BLK_DEV_LOOP'
p1382
S'y'
sS'vm.mmap_min_addr'
p1383
I65536
sS'CONFIG_CRYPTO_DRBG_CTR'
p1384
S'y'
sS'CONFIG_HAVE_CMPXCHG_LOCAL'
p1385
S'y'
sS'net.ipv6.route.mtu_expires'
p1386
I600
sS'CONFIG_SND_USB'
p1387
S'y'
sS'CONFIG_DNOTIFY'
p1388
S'y'
sS'CONFIG_CMDLINE_PARTITION'
p1389
S'y'
sS'CONFIG_NETWORK_SECMARK'
p1390
S'y'
sS'CONFIG_SND_HDA_INTEL'
p1391
S'm'
sS'net.ipv4.ping_group_range'
p1392
S'1\t0'
p1393
sS'CONFIG_PERF_EVENTS_INTEL_CSTATE'
p1394
S'y'
sS'kernel.sched_domain.cpu5.domain0.max_newidle_lb_cost'
p1395
I18477
sS'kernel.sched_domain.cpu28.domain1.busy_idx'
p1396
I3
sS'CONFIG_PPP_MULTILINK'
p1397
S'y'
sS'CONFIG_BLK_DEV_FD'
p1398
S'm'
sS'kernel.sched_domain.cpu16.domain0.forkexec_idx'
p1399
I0
sS'CONFIG_SND_DRIVERS'
p1400
S'y'
sS'CONFIG_SCSI_CXGB4_ISCSI'
p1401
S'm'
sS'CONFIG_CRASH_DUMP'
p1402
S'y'
sS'vm.watermark_scale_factor'
p1403
I10
sS'CONFIG_HAVE_UID16'
p1404
S'y'
sS'CONFIG_NET_VENDOR_WIZNET'
p1405
S'y'
sS'kernel.sched_domain.cpu14.domain0.max_interval'
p1406
I20
sS'kernel.sched_domain.cpu0.domain1.cache_nice_tries'
p1407
I2
sS'dev.parport.default.spintime'
p1408
I500
sS'kernel.sched_domain.cpu24.domain0.wake_idx'
p1409
I0
sS'CONFIG_IOSF_MBI'
p1410
S'y'
sS'net.ipv4.fib_multipath_hash_policy'
p1411
I0
sS'CONFIG_BLK_DEV_BSG'
p1412
S'y'
sS'net.ipv4.neigh.default.app_solicit'
p1413
I0
sS'kernel.sched_domain.cpu19.domain0.newidle_idx'
p1414
I0
sS'CONFIG_CPU_FREQ_GOV_CONSERVATIVE'
p1415
S'y'
sS'CONFIG_MEMORY_HOTPLUG_SPARSE'
p1416
S'y'
sS'CONFIG_ZSWAP'
p1417
S'y'
sS'CONFIG_KVM'
p1418
S'm'
sS'CONFIG_CRYPTO_AEAD2'
p1419
S'y'
sS'kernel.sched_domain.cpu10.domain1.max_newidle_lb_cost'
p1420
I135472
sS'CONFIG_PCIEASPM_DEBUG'
p1421
S'y'
sS'CONFIG_PROC_PID_CPUSET'
p1422
S'y'
sS'CONFIG_MEMORY_BALLOON'
p1423
S'y'
sS'CONFIG_INFINIBAND'
p1424
S'm'
sS'CONFIG_NET_VENDOR_SILAN'
p1425
S'y'
sS'kernel.sched_domain.cpu27.domain1.cache_nice_tries'
p1426
I2
sS'net.ipv4.conf.ens3.log_martians'
p1427
I0
sS'CONFIG_CC_STACKPROTECTOR_STRONG'
p1428
S'y'
sS'CONFIG_HOTPLUG_CPU'
p1429
S'y'
sS'CONFIG_PROC_FS'
p1430
S'y'
sS'net.ipv4.route.redirect_number'
p1431
I9
sS'kernel.sched_domain.cpu27.domain0.busy_factor'
p1432
I32
sS'CONFIG_MOUSE_PS2_ALPS'
p1433
S'y'
sS'kernel.sched_domain.cpu3.domain0.min_interval'
p1434
I10
sS'kernel.sched_domain.cpu14.domain0.busy_idx'
p1435
I2
sS'CONFIG_THERMAL_WRITABLE_TRIPS'
p1436
S'y'
sS'CONFIG_TOUCHSCREEN_PROPERTIES'
p1437
S'y'
sS'vm.extfrag_threshold'
p1438
I500
sS'CONFIG_BLK_DEV_THROTTLING'
p1439
S'y'
sS'CONFIG_SWAP'
p1440
S'y'
sS'kernel.osrelease'
p1441
S'4.14.0-rc8-stock'
p1442
sS'kernel.sched_domain.cpu8.domain0.busy_idx'
p1443
I2
sS'CONFIG_AMD_IOMMU'
p1444
S'y'
sS'CONFIG_PAGE_COUNTER'
p1445
S'y'
sS'CONFIG_ARCH_MIGHT_HAVE_ACPI_PDC'
p1446
S'y'
sS'kernel.sched_domain.cpu14.domain0.forkexec_idx'
p1447
I0
sS'CONFIG_MFD_AS3711'
p1448
S'y'
sS'CONFIG_IO_DELAY_TYPE_UDELAY'
p1449
I2
sS'CONFIG_EFI_MIXED'
p1450
S'y'
sS'kernel.sched_domain.cpu27.domain0.max_interval'
p1451
I20
sS'CONFIG_MFD_WM831X_I2C'
p1452
S'y'
sS'CONFIG_ATA_ACPI'
p1453
S'y'
sS'net.ipv4.conf.lo.route_localnet'
p1454
I0
sS'kernel.sched_domain.cpu3.domain1.imbalance_pct'
p1455
I125
sS'CONFIG_ACPI_APEI'
p1456
S'y'
sS'kernel.sched_domain.cpu1.domain1.name'
p1457
S'NUMA'
p1458
sS'CONFIG_IRQ_DOMAIN'
p1459
S'y'
sS'net.ipv4.udp_wmem_min'
p1460
I4096
sS'net.ipv4.tcp_invalid_ratelimit'
p1461
I500
sS'net.ipv4.neigh.ens3.proxy_qlen'
p1462
I64
sS'CONFIG_NET_VENDOR_AMAZON'
p1463
S'y'
sS'net.ipv4.icmp_msgs_burst'
p1464
I50
sS'kernel.sched_domain.cpu2.domain0.busy_factor'
p1465
I32
sS'CONFIG_VT'
p1466
S'y'
sS'net.ipv4.conf.lo.arp_announce'
p1467
I0
sS'kernel.sched_domain.cpu17.domain0.cache_nice_tries'
p1468
I1
sS'CONFIG_HAVE_IDE'
p1469
S'y'
sS'kernel.sched_domain.cpu6.domain0.forkexec_idx'
p1470
I0
sS'CONFIG_NET_VENDOR_8390'
p1471
S'y'
sS'kernel.sched_domain.cpu15.domain0.cache_nice_tries'
p1472
I1
sS'kernel.sched_domain.cpu3.domain1.max_interval'
p1473
I60
sS'fs.mqueue.queues_max'
p1474
I256
sS'net.ipv4.conf.ens3.rp_filter'
p1475
I1
sS'CONFIG_NET_NS'
p1476
S'y'
sS'CONFIG_HAVE_LIVEPATCH'
p1477
S'y'
sS'CONFIG_KGDB_LOW_LEVEL_TRAP'
p1478
S'y'
sS'CONFIG_HAVE_OPROFILE'
p1479
S'y'
sS'CONFIG_NVDIMM_DAX'
p1480
S'y'
sS'CONFIG_IMA_DEFAULT_HASH'
p1481
S'"sha1"'
p1482
sS'CONFIG_ACPI_THERMAL'
p1483
S'y'
sS'CONFIG_BLK_DEV_BSGLIB'
p1484
S'y'
sS'kernel.sched_domain.cpu2.domain1.wake_idx'
p1485
I0
sS'net.ipv4.neigh.default.locktime'
p1486
I100
sS'CONFIG_DUMMY_CONSOLE_COLUMNS'
p1487
I80
sS'CONFIG_HPET_MMAP'
p1488
S'y'
sS'CONFIG_SERIAL_8250_RT288X'
p1489
S'y'
sS'CONFIG_CLOCKSOURCE_VALIDATE_LAST_CYCLE'
p1490
S'y'
sS'kernel.sched_domain.cpu14.domain1.max_newidle_lb_cost'
p1491
I11530
sS'net.ipv4.conf.lo.rp_filter'
p1492
I0
sS'net.core.busy_read'
p1493
I0
sS'CONFIG_BTRFS_FS'
p1494
S'm'
sS'CONFIG_DCACHE_WORD_ACCESS'
p1495
S'y'
sS'net.ipv6.conf.default.mtu'
p1496
I1280
sS'kernel.sched_domain.cpu7.domain0.idle_idx'
p1497
I1
sS'kernel.sched_domain.cpu22.domain0.imbalance_pct'
p1498
I125
sS'net.ipv4.conf.default.drop_gratuitous_arp'
p1499
I0
sS'CONFIG_UPROBES'
p1500
S'y'
sS'kernel.sched_domain.cpu16.domain0.imbalance_pct'
p1501
I125
sS'CONFIG_ARCH_ENABLE_MEMORY_HOTPLUG'
p1502
S'y'
sS'kernel.sched_domain.cpu4.domain1.forkexec_idx'
p1503
I0
sS'CONFIG_FIRMWARE_MEMMAP'
p1504
S'y'
sS'kernel.sched_domain.cpu11.domain1.busy_factor'
p1505
I32
sS'CONFIG_IPV6_ROUTER_PREF'
p1506
S'y'
sS'kernel.sched_domain.cpu25.domain1.name'
p1507
S'NUMA'
p1508
sS'CONFIG_BOOT_PRINTK_DELAY'
p1509
S'y'
sS'CONFIG_TMPFS'
p1510
S'y'
sS'kernel.sched_domain.cpu14.domain1.name'
p1511
S'NUMA'
p1512
sS'kernel.sched_domain.cpu20.domain1.idle_idx'
p1513
I2
sS'CONFIG_X86_MCE_INTEL'
p1514
S'y'
sS'CONFIG_RTC_INTF_PROC'
p1515
S'y'
sS'kernel.sched_domain.cpu1.domain0.busy_idx'
p1516
I2
sS'CONFIG_MD_AUTODETECT'
p1517
S'y'
sS'net.ipv6.conf.lo.max_desync_factor'
p1518
I600
sS'kernel.sched_domain.cpu4.domain1.flags'
p1519
I25647
sS'kernel.sched_domain.cpu1.domain1.newidle_idx'
p1520
I0
sS'CONFIG_X86_ESPFIX64'
p1521
S'y'
sS'net.ipv4.neigh.lo.gc_stale_time'
p1522
I60
sS'kernel.traceoff_on_warning'
p1523
I0
sS'kernel.sched_domain.cpu2.domain1.busy_factor'
p1524
I32
sS'net.ipv4.conf.all.proxy_arp'
p1525
I0
sS'kernel.sched_domain.cpu15.domain0.max_newidle_lb_cost'
p1526
I63263
sS'CONFIG_ARCH_USE_BUILTIN_BSWAP'
p1527
S'y'
sS'CONFIG_PROC_SYSCTL'
p1528
S'y'
sS'fs.file-max'
p1529
I6578986
sS'CONFIG_ACPI_APEI_GHES'
p1530
S'y'
sS'kernel.sched_domain.cpu11.domain0.busy_factor'
p1531
I32
sS'kernel.sched_domain.cpu19.domain0.wake_idx'
p1532
I0
sS'kernel.sched_domain.cpu26.domain1.idle_idx'
p1533
I2
sS'CONFIG_NET_VENDOR_NVIDIA'
p1534
S'y'
sS'kernel.overflowuid'
p1535
I65534
sS'CONFIG_ACPI_HOTPLUG_CPU'
p1536
S'y'
sS'net.ipv4.conf.ens3.disable_xfrm'
p1537
I0
sS'CONFIG_FRAME_WARN'
p1538
I1024
sS'kernel.sched_domain.cpu11.domain0.max_interval'
p1539
I20
sS'CONFIG_FAT_FS'
p1540
S'y'
sS'CONFIG_IRQ_POLL'
p1541
S'y'
sS'net.ipv6.conf.all.hop_limit'
p1542
I64
sS'CONFIG_VT_CONSOLE_SLEEP'
p1543
S'y'
sS'kernel.random.entropy_avail'
p1544
I426
sS'net.ipv4.conf.default.force_igmp_version'
p1545
I0
sS'kernel.sched_domain.cpu29.domain1.name'
p1546
S'NUMA'
p1547
sS'net.ipv4.ip_default_ttl'
p1548
I64
sS'CONFIG_CLEANCACHE'
p1549
S'y'
sS'kernel.nmi_watchdog'
p1550
I0
sS'kernel.sched_domain.cpu27.domain1.busy_idx'
p1551
I3
sS'CONFIG_PCI_PRI'
p1552
S'y'
sS'kernel.sched_domain.cpu9.domain1.flags'
p1553
I25647
sS'CONFIG_CRYPTO_ALGAPI'
p1554
S'y'
sS'kernel.random.boot_id'
p1555
S'd73d9884-2529-4cb5-a58f-e1d9cdc78a0c'
p1556
sS'net.ipv4.conf.lo.accept_local'
p1557
I0
sS'kernel.sched_domain.cpu2.domain0.max_interval'
p1558
I20
sS'CONFIG_QUOTA'
p1559
S'y'
sS'CONFIG_HAVE_IOREMAP_PROT'
p1560
S'y'
sS'kernel.sched_domain.cpu5.domain0.flags'
p1561
I4143
sS'kernel.sched_domain.cpu13.domain0.forkexec_idx'
p1562
I0
sS'CONFIG_CPUSETS'
p1563
S'y'
sS'kernel.sched_domain.cpu27.domain1.busy_factor'
p1564
I32
sS'kernel.sched_domain.cpu28.domain0.busy_factor'
p1565
I32
sS'CONFIG_CMA'
p1566
S'y'
sS'CONFIG_TRACING'
p1567
S'y'
sS'CONFIG_KDB_KEYBOARD'
p1568
S'y'
sS'CONFIG_RADIX_TREE_MULTIORDER'
p1569
S'y'
sS'net.ipv4.conf.all.promote_secondaries'
p1570
I0
sS'CONFIG_LWTUNNEL'
p1571
S'y'
sS'CONFIG_ARCH_MIGHT_HAVE_PC_SERIO'
p1572
S'y'
sS'kernel.sched_domain.cpu7.domain1.flags'
p1573
I25647
sS'net.ipv4.neigh.lo.proxy_qlen'
p1574
I64
sS'CONFIG_CC_STACKPROTECTOR'
p1575
S'y'
sS'kernel.numa_balancing_scan_size_mb'
p1576
I256
sS'CONFIG_PINCTRL_CHERRYVIEW'
p1577
S'y'
sS'CONFIG_FIB_RULES'
p1578
S'y'
sS'net.ipv4.neigh.lo.unres_qlen_bytes'
p1579
I212992
sS'CONFIG_COMPAT_BINFMT_ELF'
p1580
S'y'
sS'kernel.sched_domain.cpu10.domain0.busy_idx'
p1581
I2
sS'CONFIG_HAVE_KPROBES'
p1582
S'y'
sS'kernel.sched_domain.cpu26.domain0.idle_idx'
p1583
I1
sS'CONFIG_VME_BUS'
p1584
S'y'
sS'CONFIG_FW_LOADER'
p1585
S'y'
sS'CONFIG_ATA_VERBOSE_ERROR'
p1586
S'y'
sS'CONFIG_IOSCHED_DEADLINE'
p1587
S'y'
sS'net.ipv6.conf.all.max_desync_factor'
p1588
I600
sS'CONFIG_ARCH_MMAP_RND_COMPAT_BITS_MAX'
p1589
I16
sS'kernel.sched_domain.cpu4.domain0.busy_factor'
p1590
I32
sS'CONFIG_FB_CFB_IMAGEBLIT'
p1591
S'y'
sS'CONFIG_EXT4_USE_FOR_EXT2'
p1592
S'y'
sS'kernel.sched_domain.cpu22.domain1.cache_nice_tries'
p1593
I2
sS'kernel.sched_domain.cpu25.domain1.max_newidle_lb_cost'
p1594
I73479
sS'CONFIG_INPUT_MOUSEDEV_PSAUX'
p1595
S'y'
sS'CONFIG_BLOCK_COMPAT'
p1596
S'y'
sS'CONFIG_ATH5K_PCI'
p1597
S'y'
sS'kernel.sched_domain.cpu6.domain1.forkexec_idx'
p1598
I0
sS'CONFIG_SCSI_LOGGING'
p1599
S'y'
sS'kernel.sched_domain.cpu13.domain1.newidle_idx'
p1600
I0
sS'CONFIG_NET_CLS'
p1601
S'y'
sS'CONFIG_ACPI_LEGACY_TABLES_LOOKUP'
p1602
S'y'
sS'CONFIG_INPUT_TABLET'
p1603
S'y'
sS'CONFIG_ILLEGAL_POINTER_VALUE'
p1604
S'0xdead000000000000'
p1605
sS'CONFIG_THERMAL_GOV_STEP_WISE'
p1606
S'y'
sS'CONFIG_PRINTK'
p1607
S'y'
sS'net.ipv4.conf.default.promote_secondaries'
p1608
I0
sS'kernel.sched_domain.cpu20.domain0.busy_idx'
p1609
I2
sS'CONFIG_WLAN_VENDOR_MARVELL'
p1610
S'y'
sS'CONFIG_MINIX_SUBPARTITION'
p1611
S'y'
sS'kernel.sched_domain.cpu26.domain0.max_interval'
p1612
I20
sS'kernel.sched_domain.cpu20.domain1.cache_nice_tries'
p1613
I2
sS'CONFIG_SND_MAX_CARDS'
p1614
I32
sS'kernel.sched_domain.cpu13.domain1.max_newidle_lb_cost'
p1615
I9946
sS'kernel.sched_domain.cpu21.domain1.imbalance_pct'
p1616
I125
sS'CONFIG_FRAMEBUFFER_CONSOLE'
p1617
S'y'
sS'CONFIG_BRIDGE'
p1618
S'm'
sS'net.ipv6.conf.lo.accept_ra_pinfo'
p1619
I1
sS'kernel.sched_domain.cpu19.domain1.forkexec_idx'
p1620
I0
sS'CONFIG_NET_VENDOR_AGERE'
p1621
S'y'
sS'CONFIG_ASYNC_XOR'
p1622
S'm'
sS'CONFIG_SND_HDA_PREALLOC_SIZE'
p1623
I64
sS'CONFIG_ACPI_HOTPLUG_IOAPIC'
p1624
S'y'
sS'kernel.sched_domain.cpu1.domain0.flags'
p1625
I4143
sS'CONFIG_TRACE_IRQFLAGS_SUPPORT'
p1626
S'y'
sS'CONFIG_KEYBOARD_ATKBD'
p1627
S'y'
sS'net.core.default_qdisc'
p1628
S'pfifo_fast'
p1629
sS'kernel.sched_domain.cpu14.domain0.min_interval'
p1630
I10
sS'CONFIG_VIRTIO_MMIO'
p1631
S'y'
sS'CONFIG_VIRT_TO_BUS'
p1632
S'y'
sS'kernel.sched_domain.cpu12.domain1.wake_idx'
p1633
I0
sS'CONFIG_INPUT_KEYBOARD'
p1634
S'y'
sS'CONFIG_ARCH_SUPPORTS_DEFERRED_STRUCT_PAGE_INIT'
p1635
S'y'
sS'kernel.sched_domain.cpu2.domain0.name'
p1636
S'DIE'
p1637
sS'kernel.sched_domain.cpu21.domain1.max_newidle_lb_cost'
p1638
I7785
sS'kernel.sched_domain.cpu26.domain0.name'
p1639
S'DIE'
p1640
sS'kernel.sched_domain.cpu23.domain1.max_newidle_lb_cost'
p1641
I11017
sS'net.ipv4.ipfrag_high_thresh'
p1642
I4194304
sS'kernel.sched_domain.cpu5.domain0.idle_idx'
p1643
I1
sS'CONFIG_NET_VENDOR_ROCKER'
p1644
S'y'
sS'kernel.sched_domain.cpu23.domain1.flags'
p1645
I25647
sS'CONFIG_BUG'
p1646
S'y'
sS'CONFIG_CPU_FREQ_GOV_COMMON'
p1647
S'y'
sS'CONFIG_PHYSICAL_ALIGN'
p1648
S'0x1000000'
p1649
sS'kernel.sched_domain.cpu11.domain1.cache_nice_tries'
p1650
I2
sS'kernel.timer_migration'
p1651
I1
sS'CONFIG_HAVE_ARCH_VMAP_STACK'
p1652
S'y'
sS'kernel.sched_domain.cpu9.domain0.name'
p1653
S'DIE'
p1654
sS'kernel.sched_domain.cpu9.domain1.max_newidle_lb_cost'
p1655
I11165
sS'kernel.sched_domain.cpu22.domain1.busy_idx'
p1656
I3
sS'CONFIG_PSTORE_ZLIB_COMPRESS'
p1657
S'y'
sS'CONFIG_CRYPTO_BLKCIPHER2'
p1658
S'y'
sS'CONFIG_GENERIC_IRQ_EFFECTIVE_AFF_MASK'
p1659
S'y'
sS'CONFIG_CHR_DEV_SG'
p1660
S'y'
sS'CONFIG_ARCH_HAS_PKEYS'
p1661
S'y'
sS'CONFIG_SIGNALFD'
p1662
S'y'
sS'CONFIG_IMA_LSM_RULES'
p1663
S'y'
sS'CONFIG_MD_MULTIPATH'
p1664
S'm'
sS'net.ipv4.neigh.default.mcast_solicit'
p1665
I3
sS'kernel.sched_domain.cpu13.domain0.idle_idx'
p1666
I1
sS'CONFIG_SYSTEM_DATA_VERIFICATION'
p1667
S'y'
sS'CONFIG_ACPI'
p1668
S'y'
sS'CONFIG_RTC_MC146818_LIB'
p1669
S'y'
sS'kernel.sched_domain.cpu10.domain0.cache_nice_tries'
p1670
I1
sS'CONFIG_STACKTRACE_SUPPORT'
p1671
S'y'
sS'kernel.sched_domain.cpu8.domain0.flags'
p1672
I4143
sS'CONFIG_INTEL_GTT'
p1673
S'y'
sS'CONFIG_THERMAL_EMULATION'
p1674
S'y'
sS'CONFIG_HAVE_DMA_CONTIGUOUS'
p1675
S'y'
sS'kernel.sched_domain.cpu18.domain1.busy_factor'
p1676
I32
sS'net.netfilter.nf_log.5'
p1677
S'NONE'
p1678
sS'net.netfilter.nf_log.4'
p1679
S'NONE'
p1680
sS'net.netfilter.nf_log.7'
p1681
S'NONE'
p1682
sS'net.netfilter.nf_log.6'
p1683
S'NONE'
p1684
sS'net.netfilter.nf_log.1'
p1685
S'NONE'
p1686
sS'net.netfilter.nf_log.0'
p1687
S'NONE'
p1688
sS'net.netfilter.nf_log.3'
p1689
S'NONE'
p1690
sS'net.netfilter.nf_log.2'
p1691
S'NONE'
p1692
sS'kernel.sched_domain.cpu9.domain1.busy_idx'
p1693
I3
sS'net.netfilter.nf_log.9'
p1694
S'NONE'
p1695
sS'net.netfilter.nf_log.8'
p1696
S'NONE'
p1697
sS'net.ipv4.conf.ens3.arp_announce'
p1698
I0
sS'kernel.real-root-dev'
p1699
I0
sS'vm.user_reserve_kbytes'
p1700
I131072
sS'CONFIG_HAVE_KERNEL_LZO'
p1701
S'y'
sS'kernel.sched_domain.cpu4.domain0.forkexec_idx'
p1702
I0
sS'kernel.sched_domain.cpu9.domain1.cache_nice_tries'
p1703
I2
sS'CONFIG_IP_FIB_TRIE_STATS'
p1704
S'y'
sS'CONFIG_DEVFREQ_GOV_PERFORMANCE'
p1705
S'y'
sS'kernel.sched_domain.cpu20.domain0.busy_factor'
p1706
I32
sS'CONFIG_IPV6_MULTIPLE_TABLES'
p1707
S'y'
sS'CONFIG_MFD_SYSCON'
p1708
S'y'
sS'kernel.sched_domain.cpu22.domain1.name'
p1709
S'NUMA'
p1710
sS'kernel.sched_domain.cpu3.domain0.newidle_idx'
p1711
I0
sS'kernel.sched_domain.cpu16.domain1.min_interval'
p1712
I30
sS'fs.quota.lookups'
p1713
I0
sS'CONFIG_QUOTACTL'
p1714
S'y'
sS'kernel.sched_domain.cpu23.domain0.busy_idx'
p1715
I2
sS'CONFIG_ARCH_WANT_BATCHED_UNMAP_TLB_FLUSH'
p1716
S'y'
sS'CONFIG_SCSI_QLA_ISCSI'
p1717
S'm'
sS'net.ipv6.conf.lo.temp_valid_lft'
p1718
I604800
sS'CONFIG_RTC_LIB'
p1719
S'y'
sS'kernel.pty.max'
p1720
I4096
sS'CONFIG_ISCSI_BOOT_SYSFS'
p1721
S'm'
sS'CONFIG_HAVE_KERNEL_LZ4'
p1722
S'y'
sS'CONFIG_GPIO_PALMAS'
p1723
S'y'
sS'CONFIG_SQUASHFS_XATTR'
p1724
S'y'
sS'CONFIG_NEED_MULTIPLE_NODES'
p1725
S'y'
sS'net.ipv6.conf.default.use_oif_addrs_only'
p1726
I0
sS'kernel.sched_domain.cpu4.domain1.busy_factor'
p1727
I32
sS'vm.lowmem_reserve_ratio'
p1728
S'256\t256\t32\t1'
p1729
sS'kernel.sched_domain.cpu0.domain0.newidle_idx'
p1730
I0
sS'kernel.sched_domain.cpu27.domain0.name'
p1731
S'DIE'
p1732
sS'kernel.sched_domain.cpu20.domain1.max_interval'
p1733
I60
sS'CONFIG_MODULE_SIG_ALL'
p1734
S'y'
sS'CONFIG_CONSOLE_POLL'
p1735
S'y'
sS'CONFIG_VIRTIO_MMIO_CMDLINE_DEVICES'
p1736
S'y'
sS'kernel.sched_domain.cpu0.domain1.name'
p1737
S'NUMA'
p1738
sS'net.ipv4.cipso_rbm_strictvalid'
p1739
I1
sS'CONFIG_HAVE_CLK_PREPARE'
p1740
S'y'
sS'kernel.sched_domain.cpu8.domain1.newidle_idx'
p1741
I0
sS'net.ipv6.conf.ens3.router_solicitation_interval'
p1742
I4
sS'CONFIG_NET_TULIP'
p1743
S'y'
sS'kernel.sched_domain.cpu22.domain0.forkexec_idx'
p1744
I0
sS'CONFIG_HAVE_ARCH_MMAP_RND_BITS'
p1745
S'y'
sS'kernel.sched_domain.cpu15.domain0.min_interval'
p1746
I10
sS'CONFIG_POSIX_MQUEUE'
p1747
S'y'
sS'CONFIG_MDIO_BUS'
p1748
S'y'
sS'CONFIG_KALLSYMS_ALL'
p1749
S'y'
sS'net.ipv4.conf.lo.igmpv3_unsolicited_report_interval'
p1750
I1000
sS'CONFIG_ANON_INODES'
p1751
S'y'
sS'kernel.sched_domain.cpu5.domain1.max_newidle_lb_cost'
p1752
I9559
sS'kernel.shmmni'
p1753
I4096
sS'CONFIG_ATARI_PARTITION'
p1754
S'y'
sS'kernel.sched_domain.cpu8.domain0.min_interval'
p1755
I10
sS'CONFIG_SECURITY_SELINUX_CHECKREQPROT_VALUE'
p1756
I1
sS'net.ipv4.conf.ens3.proxy_arp'
p1757
I0
sS'CONFIG_CPU_FREQ_GOV_ATTR_SET'
p1758
S'y'
sS'CONFIG_CRYPTO_CRCT10DIF'
p1759
S'y'
sS'kernel.sched_domain.cpu10.domain1.max_interval'
p1760
I60
sS'kernel.sched_domain.cpu19.domain1.min_interval'
p1761
I30
sS'kernel.sched_domain.cpu20.domain0.imbalance_pct'
p1762
I125
sS'CONFIG_ARCH_HAS_KCOV'
p1763
S'y'
sS'net.ipv6.conf.lo.accept_ra_rtr_pref'
p1764
I1
sS'CONFIG_RAPIDIO_DISC_TIMEOUT'
p1765
I30
sS'kernel.sched_domain.cpu17.domain0.imbalance_pct'
p1766
I125
sS'net.ipv6.conf.ens3.enhanced_dad'
p1767
I1
sS'kernel.sched_domain.cpu7.domain1.min_interval'
p1768
I30
sS'CONFIG_BSD_PROCESS_ACCT'
p1769
S'y'
sS'CONFIG_SPI_MASTER'
p1770
S'y'
sS'kernel.sched_domain.cpu17.domain1.busy_factor'
p1771
I32
sS'kernel.sched_domain.cpu22.domain0.idle_idx'
p1772
I1
sS'kernel.sched_domain.cpu2.domain1.idle_idx'
p1773
I2
sS'CONFIG_KALLSYMS_ABSOLUTE_PERCPU'
p1774
S'y'
sS'kernel.sched_domain.cpu6.domain0.name'
p1775
S'DIE'
p1776
sS'CONFIG_INTEL_IOMMU_FLOPPY_WA'
p1777
S'y'
sS'net.ipv6.conf.all.temp_valid_lft'
p1778
I604800
sS'CONFIG_LZ4_DECOMPRESS'
p1779
S'y'
sS'CONFIG_CRYPTO_MANAGER'
p1780
S'y'
sS'kernel.sched_domain.cpu12.domain1.forkexec_idx'
p1781
I0
sS'net.ipv4.conf.default.drop_unicast_in_l2_multicast'
p1782
I0
sS'CONFIG_SND_PROC_FS'
p1783
S'y'
sS'net.ipv6.conf.ens3.hop_limit'
p1784
I64
sS'CONFIG_VGA_CONSOLE'
p1785
S'y'
sS'CONFIG_RANDOMIZE_MEMORY_PHYSICAL_PADDING'
p1786
S'0xa'
p1787
sS'CONFIG_ECRYPT_FS'
p1788
S'y'
sS'CONFIG_QUOTACTL_COMPAT'
p1789
S'y'
sS'vm.oom_kill_allocating_task'
p1790
I0
sS'kernel.sched_domain.cpu8.domain0.idle_idx'
p1791
I1
sS'CONFIG_X86_MCE_THRESHOLD'
p1792
S'y'
sS'CONFIG_CGROUP_PIDS'
p1793
S'y'
sS'CONFIG_FB_TILEBLITTING'
p1794
S'y'
sS'net.ipv4.conf.ens3.accept_local'
p1795
I0
sS'net.ipv4.neigh.ens3.gc_stale_time'
p1796
I60
sS'CONFIG_SND_TIMER'
p1797
S'm'
sS'CONFIG_SCHED_INFO'
p1798
S'y'
sS'CONFIG_CRYPTO_AES_X86_64'
p1799
S'm'
sS'net.ipv6.neigh.lo.gc_stale_time'
p1800
I60
sS'CONFIG_HID_PID'
p1801
S'y'
sS'CONFIG_SPLIT_PTLOCK_CPUS'
p1802
I4
sS'dev.cdrom.autoclose'
p1803
I1
sS'CONFIG_LIBCRC32C'
p1804
S'm'
sS'kernel.sched_domain.cpu26.domain0.imbalance_pct'
p1805
I125
sS'CONFIG_WLAN_VENDOR_BROADCOM'
p1806
S'y'
sS'CONFIG_EDAC_SUPPORT'
p1807
S'y'
sS'CONFIG_HAVE_ARCH_COMPAT_MMAP_BASES'
p1808
S'y'
sS'CONFIG_TASK_DELAY_ACCT'
p1809
S'y'
sS'net.ipv4.cipso_rbm_optfmt'
p1810
I0
sS'net.ipv4.route.gc_interval'
p1811
I60
sS'kernel.sched_domain.cpu26.domain0.flags'
p1812
I4143
sS'CONFIG_ARCH_SUSPEND_POSSIBLE'
p1813
S'y'
sS'kernel.sched_domain.cpu20.domain0.flags'
p1814
I4143
sS'CONFIG_SPARSEMEM_EXTREME'
p1815
S'y'
sS'CONFIG_DMA_ACPI'
p1816
S'y'
sS'kernel.kptr_restrict'
p1817
I1
sS'CONFIG_INPUT_MOUSEDEV'
p1818
S'y'
sS'CONFIG_X86_DIRECT_GBPAGES'
p1819
S'y'
sS'CONFIG_NET_VENDOR_MICROCHIP'
p1820
S'y'
sS'net.ipv6.conf.ens3.accept_redirects'
p1821
I1
sS'vm.compact_unevictable_allowed'
p1822
I1
sS'CONFIG_ZLIB_DEFLATE'
p1823
S'y'
sS'kernel.sched_domain.cpu18.domain0.busy_factor'
p1824
I32
sS'CONFIG_ACPI_CPU_FREQ_PSS'
p1825
S'y'
sS'CONFIG_SYSVIPC_COMPAT'
p1826
S'y'
sS'CONFIG_X86_VSYSCALL_EMULATION'
p1827
S'y'
sS'net.ipv6.conf.all.use_tempaddr'
p1828
I2
sS'net.ipv4.neigh.lo.anycast_delay'
p1829
I100
sS'CONFIG_I2C_DESIGNWARE_BAYTRAIL'
p1830
S'y'
sS'CONFIG_HOTPLUG_PCI_CPCI'
p1831
S'y'
sS'CONFIG_FILE_LOCKING'
p1832
S'y'
sS'net.ipv4.conf.ens3.force_igmp_version'
p1833
I0
sS'CONFIG_FTRACE'
p1834
S'y'
sS'CONFIG_GENERIC_IOMAP'
p1835
S'y'
sS'kernel.sched_domain.cpu28.domain1.min_interval'
p1836
I30
sS'CONFIG_DEVFREQ_GOV_USERSPACE'
p1837
S'y'
sS'CONFIG_AUDIT_TREE'
p1838
S'y'
sS'CONFIG_MOUSE_PS2_BYD'
p1839
S'y'
sS'CONFIG_USB_OHCI_HCD_PCI'
p1840
S'y'
sS'net.ipv4.route.min_adv_mss'
p1841
I256
sS'CONFIG_HAVE_KVM_IRQFD'
p1842
S'y'
sS'CONFIG_ARCH_DEFCONFIG'
p1843
S'"arch/x86/configs/x86_64_defconfig"'
p1844
sS'kernel.sched_domain.cpu3.domain1.forkexec_idx'
p1845
I0
sS'net.ipv4.tcp_thin_linear_timeouts'
p1846
I0
sS'CONFIG_CRYPTO_ALGAPI2'
p1847
S'y'
sS'kernel.sched_domain.cpu16.domain1.wake_idx'
p1848
I0
sS'CONFIG_INTEL_TXT'
p1849
S'y'
sS'CONFIG_MOUSE_PS2_TOUCHKIT'
p1850
S'y'
sS'CONFIG_LLC'
p1851
S'm'
sS'kernel.sched_domain.cpu26.domain1.newidle_idx'
p1852
I0
sS'kernel.sched_domain.cpu12.domain0.cache_nice_tries'
p1853
I1
sS'CONFIG_QUEUED_SPINLOCKS'
p1854
S'y'
sS'kernel.sched_domain.cpu11.domain0.min_interval'
p1855
I10
sS'net.ipv4.tcp_congestion_control'
p1856
S'cubic'
p1857
sS'CONFIG_ATA_SFF'
p1858
S'y'
sS'CONFIG_NVMEM'
p1859
S'y'
sS'CONFIG_SERIO_RAW'
p1860
S'm'
sS'CONFIG_HAVE_KVM_IRQ_ROUTING'
p1861
S'y'
sS'dev.mac_hid.mouse_button3_keycode'
p1862
I100
sS'CONFIG_GENERIC_BUG'
p1863
S'y'
sS'CONFIG_BLK_DEV_IO_TRACE'
p1864
S'y'
sS'net.ipv4.conf.ens3.drop_gratuitous_arp'
p1865
I0
sS'CONFIG_MUTEX_SPIN_ON_OWNER'
p1866
S'y'
sS'CONFIG_MEMORY_ISOLATION'
p1867
S'y'
sS'net.ipv6.conf.all.accept_ra_pinfo'
p1868
I1
sS'kernel.shm_next_id'
p1869
S'-1'
p1870
sS'net.ipv6.calipso_cache_bucket_size'
p1871
I10
sS'CONFIG_NET_VENDOR_AURORA'
p1872
S'y'
sS'CONFIG_LOCKDEP_SUPPORT'
p1873
S'y'
sS'net.ipv4.conf.ens3.ignore_routes_with_linkdown'
p1874
I0
sS'CONFIG_GENERIC_CLOCKEVENTS_BROADCAST'
p1875
S'y'
sS'net.ipv6.conf.ens3.accept_ra'
p1876
I1
sS'kernel.sched_domain.cpu1.domain1.max_newidle_lb_cost'
p1877
I59712
sS'kernel.sched_domain.cpu25.domain0.newidle_idx'
p1878
I0
sS'net.ipv4.conf.all.bootp_relay'
p1879
I0
sS'kernel.sched_domain.cpu5.domain0.busy_factor'
p1880
I32
sS'net.ipv6.conf.default.mldv2_unsolicited_report_interval'
p1881
I1000
sS'CONFIG_ZONE_DEVICE'
p1882
S'y'
sS'CONFIG_VIRTUALIZATION'
p1883
S'y'
sS'fs.pipe-user-pages-hard'
p1884
I0
sS'net.ipv6.route.gc_min_interval'
p1885
I0
sS'kernel.sched_domain.cpu7.domain0.cache_nice_tries'
p1886
I1
sS'kernel.sched_domain.cpu20.domain1.max_newidle_lb_cost'
p1887
I71046
sS'CONFIG_HAVE_VIRT_CPU_ACCOUNTING_GEN'
p1888
S'y'
sS'CONFIG_HAVE_ARCH_TRANSPARENT_HUGEPAGE'
p1889
S'y'
sS'CONFIG_PROC_PAGE_MONITOR'
p1890
S'y'
sS'dev.hpet.max-user-freq'
p1891
I64
sS'kernel.sched_domain.cpu16.domain0.max_newidle_lb_cost'
p1892
I102032
sS'net.ipv4.route.gc_thresh'
p1893
S'-1'
p1894
sS'CONFIG_THERMAL_GOV_POWER_ALLOCATOR'
p1895
S'y'
sS'CONFIG_HAVE_CLK'
p1896
S'y'
sS'CONFIG_GENERIC_STRNLEN_USER'
p1897
S'y'
sS'dev.mac_hid.mouse_button_emulation'
p1898
I0
sS'CONFIG_SND_DMA_SGBUF'
p1899
S'y'
sS'CONFIG_ATA_GENERIC'
p1900
S'y'
sS'CONFIG_MOUSE_PS2_TRACKPOINT'
p1901
S'y'
sS'CONFIG_BLK_MQ_VIRTIO'
p1902
S'y'
sS'CONFIG_RD_LZ4'
p1903
S'y'
sS'CONFIG_STRICT_DEVMEM'
p1904
S'y'
sS'CONFIG_ARCH_ENABLE_MEMORY_HOTREMOVE'
p1905
S'y'
sS'kernel.sched_domain.cpu29.domain1.imbalance_pct'
p1906
I125
sS'net.ipv4.conf.all.medium_id'
p1907
I0
sS'net.ipv6.conf.lo.use_tempaddr'
p1908
S'-1'
p1909
sS'kernel.sched_domain.cpu7.domain1.idle_idx'
p1910
I2
sS'kernel.sched_domain.cpu9.domain0.cache_nice_tries'
p1911
I1
sS'kernel.sched_domain.cpu5.domain1.cache_nice_tries'
p1912
I2
sS'CONFIG_DMA_ENGINE'
p1913
S'y'
sS'kernel.sched_domain.cpu22.domain1.min_interval'
p1914
I30
sS'kernel.sched_domain.cpu3.domain1.busy_factor'
p1915
I32
sS'net.ipv6.conf.all.mldv2_unsolicited_report_interval'
p1916
I1000
sS'CONFIG_OUTPUT_FORMAT'
p1917
S'"elf64-x86-64"'
p1918
sS'CONFIG_X86_X2APIC'
p1919
S'y'
sS'CONFIG_CGROUP_BPF'
p1920
S'y'
sS'CONFIG_ARCH_ENABLE_SPLIT_PMD_PTLOCK'
p1921
S'y'
sS'CONFIG_NET_CLS_ACT'
p1922
S'y'
sS'CONFIG_DECOMPRESS_LZO'
p1923
S'y'
sS'net.ipv4.conf.default.src_valid_mark'
p1924
I0
sS'kernel.sched_domain.cpu16.domain0.newidle_idx'
p1925
I0
sS'CONFIG_NETFILTER_XTABLES'
p1926
S'm'
sS'CONFIG_DEBUG_INFO_DWARF4'
p1927
S'y'
sS'kernel.poweroff_cmd'
p1928
S'/sbin/poweroff'
p1929
sS'CONFIG_SCSI_BNX2_ISCSI'
p1930
S'm'
sS'net.ipv4.conf.default.log_martians'
p1931
I0
sS'CONFIG_FREEZER'
p1932
S'y'
sS'CONFIG_QUOTA_NETLINK_INTERFACE'
p1933
S'y'
sS'net.ipv4.tcp_ecn_fallback'
p1934
I1
sS'CONFIG_NET_VENDOR_VIA'
p1935
S'y'
sS'CONFIG_FB'
p1936
S'y'
sS'kernel.sched_domain.cpu25.domain1.busy_idx'
p1937
I3
sS'CONFIG_MFD_WM831X'
p1938
S'y'
sS'kernel.sched_domain.cpu24.domain1.max_newidle_lb_cost'
p1939
I15504
sS'CONFIG_SLUB_DEBUG'
p1940
S'y'
sS'CONFIG_MFD_DA9055'
p1941
S'y'
sS'CONFIG_CGROUP_NET_PRIO'
p1942
S'y'
sS'net.ipv6.neigh.default.mcast_solicit'
p1943
I3
sS'CONFIG_GPIO_LYNXPOINT'
p1944
S'y'
sS'CONFIG_IPC_NS'
p1945
S'y'
sS'CONFIG_PRINTK_TIME'
p1946
S'y'
sS'CONFIG_PCI_MSI_IRQ_DOMAIN'
p1947
S'y'
sS'CONFIG_HAVE_C_RECORDMCOUNT'
p1948
S'y'
sS'net.ipv6.neigh.default.anycast_delay'
p1949
I100
sS'CONFIG_MFD_TPS6586X'
p1950
S'y'
sS'net.ipv6.conf.lo.seg6_enabled'
p1951
I0
sS'kernel.sched_domain.cpu11.domain1.max_interval'
p1952
I60
sS'net.ipv4.conf.ens3.disable_policy'
p1953
I0
sS'CONFIG_PCC'
p1954
S'y'
sS'CONFIG_REGMAP'
p1955
S'y'
sS'CONFIG_SCHEDSTATS'
p1956
S'y'
sS'CONFIG_CLOCKSOURCE_WATCHDOG'
p1957
S'y'
sS'CONFIG_PCI_QUIRKS'
p1958
S'y'
sS'CONFIG_USB_DWC2_PCI'
p1959
S'y'
sS'CONFIG_NET_VENDOR_EXAR'
p1960
S'y'
sS'CONFIG_GENERIC_IRQ_PROBE'
p1961
S'y'
sS'kernel.sched_domain.cpu28.domain0.newidle_idx'
p1962
I0
sS'CONFIG_BTT'
p1963
S'y'
sS'CONFIG_DECOMPRESS_LZ4'
p1964
S'y'
sS'net.ipv6.conf.lo.ignore_routes_with_linkdown'
p1965
I0
sS'CONFIG_HARDLOCKUP_DETECTOR'
p1966
S'y'
sS'kernel.sched_domain.cpu14.domain0.imbalance_pct'
p1967
I125
sS'CONFIG_RTC_SYSTOHC'
p1968
S'y'
sS'CONFIG_USB_XHCI_HCD'
p1969
S'y'
sS'CONFIG_SERIO_LIBPS2'
p1970
S'y'
sS'CONFIG_UNIX'
p1971
S'y'
sS'CONFIG_BASE_SMALL'
p1972
I0
sS'net.ipv4.tcp_fack'
p1973
I0
sS'net.ipv6.conf.ens3.mldv2_unsolicited_report_interval'
p1974
I1000
sS'kernel.sched_domain.cpu22.domain1.idle_idx'
p1975
I2
sS'net.ipv4.neigh.lo.mcast_resolicit'
p1976
I0
sS'uname'
p1977
S'Linux nestedvm 4.14.0-rc8-stock #3 SMP Tue Mar 13 14:28:42 EDT 2018 x86_64 x86_64 x86_64 GNU/Linux'
p1978
sS'CONFIG_DMADEVICES'
p1979
S'y'
sS'kernel.sched_domain.cpu23.domain0.busy_factor'
p1980
I32
sS'CONFIG_DEFAULT_HOSTNAME'
p1981
S'"(none)"'
p1982
sS'CONFIG_CRYPTO_LZO'
p1983
S'y'
sS'CONFIG_HAVE_STACK_VALIDATION'
p1984
S'y'
sS'kernel.sched_domain.cpu11.domain1.flags'
p1985
I25647
sS'CONFIG_VFAT_FS'
p1986
S'y'
sS'kernel.sched_domain.cpu20.domain0.idle_idx'
p1987
I1
sS'CONFIG_HAVE_KVM'
p1988
S'y'
sS'CONFIG_USB_PCI'
p1989
S'y'
sS'CONFIG_ACPI_I2C_OPREGION'
p1990
S'y'
sS'CONFIG_SATA_ZPODD'
p1991
S'y'
sS'CONFIG_SPARSEMEM_VMEMMAP'
p1992
S'y'
sS'CONFIG_NET_VENDOR_SIS'
p1993
S'y'
sS'net.core.netdev_budget_usecs'
p1994
I2000
sS'CONFIG_TCP_CONG_ADVANCED'
p1995
S'y'
sS'CONFIG_USB_EHCI_HCD_PLATFORM'
p1996
S'y'
sS'CONFIG_CPU_FREQ_DEFAULT_GOV_PERFORMANCE'
p1997
S'y'
sS'net.ipv6.conf.all.drop_unsolicited_na'
p1998
I0
sS'CONFIG_FSNOTIFY'
p1999
S'y'
sS'kernel.sched_domain.cpu24.domain1.newidle_idx'
p2000
I0
sS'CONFIG_POWER_RESET'
p2001
S'y'
sS'CONFIG_VIRTIO_NET'
p2002
S'y'
sS'CONFIG_RFKILL'
p2003
S'y'
sS'CONFIG_ARCH_HAS_ZONE_DEVICE'
p2004
S'y'
sS'CONFIG_BCMA_POSSIBLE'
p2005
S'y'
sS'CONFIG_OPTIMIZE_INLINING'
p2006
S'y'
sS'net.ipv4.ipfrag_time'
p2007
I30
sS'net.ipv4.conf.default.secure_redirects'
p2008
I1
sS'kernel.sched_domain.cpu23.domain0.imbalance_pct'
p2009
I125
sS'CONFIG_MOUSE_PS2_SMBUS'
p2010
S'y'
sS'CONFIG_MD_RAID10'
p2011
S'm'
sS'kernel.sched_domain.cpu26.domain1.busy_idx'
p2012
I3
sS'CONFIG_PPDEV'
p2013
S'm'
sS'CONFIG_BLK_DEV_INITRD'
p2014
S'y'
sS'CONFIG_CNIC'
p2015
S'm'
sS'CONFIG_DM_UEVENT'
p2016
S'y'
sS'kernel.sched_domain.cpu29.domain1.wake_idx'
p2017
I0
sS'kernel.sched_domain.cpu28.domain0.imbalance_pct'
p2018
I125
sS'CONFIG_LEGACY_PTYS'
p2019
S'y'
sS'CONFIG_FS_POSIX_ACL'
p2020
S'y'
sS'kernel.auto_msgmni'
p2021
I0
sS'kernel.sched_domain.cpu28.domain0.idle_idx'
p2022
I1
sS'fs.mqueue.msgsize_default'
p2023
I8192
sS'CONFIG_KEXEC_VERIFY_SIG'
p2024
S'y'
sS'fs.inotify.max_user_watches'
p2025
I8192
sS'CONFIG_IMA_APPRAISE_BOOTPARAM'
p2026
S'y'
sS'CONFIG_HPET'
p2027
S'y'
sS'CONFIG_CRYPTO_WORKQUEUE'
p2028
S'y'
sS'kernel.sched_domain.cpu28.domain1.flags'
p2029
I25647
sS'CONFIG_INTEGRITY_SIGNATURE'
p2030
S'y'
sS'kernel.sched_domain.cpu12.domain1.busy_idx'
p2031
I3
sS'CONFIG_SPARSE_IRQ'
p2032
S'y'
sS'kernel.sched_domain.cpu25.domain1.idle_idx'
p2033
I2
sS'CONFIG_BLK_SCSI_REQUEST'
p2034
S'y'
sS'kernel.sched_domain.cpu12.domain0.name'
p2035
S'DIE'
p2036
sS'CONFIG_BITREVERSE'
p2037
S'y'
sS'kernel.sched_domain.cpu27.domain1.newidle_idx'
p2038
I0
sS'net.ipv6.conf.lo.accept_ra_rt_info_max_plen'
p2039
I0
sS'CONFIG_NET_VENDOR_MICREL'
p2040
S'y'
sS'kernel.sched_domain.cpu17.domain0.newidle_idx'
p2041
I0
sS'CONFIG_DEBUG_INFO'
p2042
S'y'
sS'kernel.sched_domain.cpu18.domain1.idle_idx'
p2043
I2
sS'CONFIG_MAGIC_SYSRQ'
p2044
S'y'
sS'CONFIG_SERIAL_8250_PNP'
p2045
S'y'
sS'CONFIG_CLKDEV_LOOKUP'
p2046
S'y'
sS'kernel.sched_domain.cpu11.domain0.forkexec_idx'
p2047
I0
sS'kernel.keys.maxbytes'
p2048
I20000
sS'kernel.sched_domain.cpu26.domain1.max_interval'
p2049
I60
sS'CONFIG_BRANCH_PROFILE_NONE'
p2050
S'y'
sS'CONFIG_NO_BOOTMEM'
p2051
S'y'
sS'CONFIG_XXHASH'
p2052
S'm'
sS'CONFIG_PCI_DIRECT'
p2053
S'y'
sS'vm.dirty_ratio'
p2054
I20
sS'net.ipv6.idgen_retries'
p2055
I3
sS'CONFIG_MAGIC_SYSRQ_SERIAL'
p2056
S'y'
sS'CONFIG_CRYPTO_HASH2'
p2057
S'y'
sS'CONFIG_MEMCG_SWAP'
p2058
S'y'
sS'CONFIG_IOSCHED_NOOP'
p2059
S'y'
sS'CONFIG_USB_COMMON'
p2060
S'y'
sS'kernel.sched_domain.cpu0.domain0.wake_idx'
p2061
I0
sS'CONFIG_SND_VERBOSE_PROCFS'
p2062
S'y'
sS'net.ipv6.conf.ens3.temp_prefered_lft'
p2063
I86400
sS'CONFIG_BRIDGE_NF_EBTABLES'
p2064
S'm'
sS'CONFIG_CRYPTO_JITTERENTROPY'
p2065
S'y'
sS'CONFIG_CRYPTO_DRBG_MENU'
p2066
S'y'
sS'CONFIG_ARCH_USE_CMPXCHG_LOCKREF'
p2067
S'y'
sS'CONFIG_RD_GZIP'
p2068
S'y'
sS'user.max_pid_namespaces'
p2069
I257592
sS'kernel.sched_domain.cpu24.domain1.min_interval'
p2070
I30
sS'kernel.sched_domain.cpu0.domain1.min_interval'
p2071
I30
sS'CONFIG_PANIC_ON_OOPS_VALUE'
p2072
I0
sS'CONFIG_USB_EHCI_ROOT_HUB_TT'
p2073
S'y'
sS'kernel.sched_min_granularity_ns'
p2074
I3000000
sS'kernel.sched_domain.cpu24.domain1.busy_factor'
p2075
I32
sS'CONFIG_X86_NEED_RELOCS'
p2076
S'y'
sS'kernel.sched_domain.cpu26.domain0.busy_idx'
p2077
I2
sS'kernel.sched_domain.cpu4.domain1.busy_idx'
p2078
I3
sS'CONFIG_XZ_DEC_ARM'
p2079
S'y'
sS'CONFIG_SCSI_DMA'
p2080
S'y'
sS'kernel.sched_domain.cpu4.domain0.max_interval'
p2081
I20
sS'kernel.sched_domain.cpu21.domain0.imbalance_pct'
p2082
I125
sS'CONFIG_HVC_DRIVER'
p2083
S'y'
sS'CONFIG_HAVE_RCU_TABLE_FREE'
p2084
S'y'
sS'CONFIG_ZSMALLOC'
p2085
S'y'
sS'CONFIG_HAVE_PERF_REGS'
p2086
S'y'
sS'CONFIG_SND_HWDEP'
p2087
S'm'
sS'CONFIG_CRYPTO_HASH'
p2088
S'y'
sS'kernel.sched_domain.cpu9.domain0.newidle_idx'
p2089
I0
sS'CONFIG_SPARSEMEM_MANUAL'
p2090
S'y'
sS'CONFIG_KEYS_COMPAT'
p2091
S'y'
sS'kernel.sched_domain.cpu15.domain0.max_interval'
p2092
I20
sS'kernel.sched_domain.cpu3.domain1.newidle_idx'
p2093
I0
sS'CONFIG_CRYPTO_NULL2'
p2094
S'y'
sS'CONFIG_RCU_STALL_COMMON'
p2095
S'y'
sS'net.ipv6.conf.lo.accept_ra_min_hop_limit'
p2096
I1
sS'kernel.sched_domain.cpu22.domain1.forkexec_idx'
p2097
I0
sS'net.ipv4.conf.default.proxy_arp'
p2098
I0
sS'kernel.sched_rr_timeslice_ms'
p2099
I100
sS'net.ipv6.conf.lo.disable_ipv6'
p2100
I0
sS'kernel.sched_domain.cpu16.domain0.min_interval'
p2101
I10
sS'CONFIG_NEED_PER_CPU_PAGE_FIRST_CHUNK'
p2102
S'y'
sS'CONFIG_KGDB_KDB'
p2103
S'y'
sS'kernel.sched_domain.cpu19.domain0.busy_factor'
p2104
I32
sS'net.ipv4.conf.all.src_valid_mark'
p2105
I0
sS'fs.overflowuid'
p2106
I65534
sS'net.ipv4.conf.ens3.arp_accept'
p2107
I0
sS'CONFIG_FB_CFB_FILLRECT'
p2108
S'y'
sS'CONFIG_SECURITYFS'
p2109
S'y'
sS'CONFIG_OSF_PARTITION'
p2110
S'y'
sS'CONFIG_CRYPTO_AKCIPHER'
p2111
S'y'
sS'CONFIG_MAY_USE_DEVLINK'
p2112
S'y'
sS'kernel.sched_domain.cpu17.domain1.imbalance_pct'
p2113
I125
sS'net.ipv6.conf.default.accept_redirects'
p2114
I1
sS'CONFIG_BNX2'
p2115
S'm'
sS'CONFIG_I2C_CHARDEV'
p2116
S'y'
sS'CONFIG_CMA_AREAS'
p2117
I7
sS'CONFIG_ARM_GIC_MAX_NR'
p2118
I1
sS'net.ipv4.conf.all.accept_redirects'
p2119
I1
sS'kernel.sched_domain.cpu28.domain0.busy_idx'
p2120
I2
sS'kernel.sched_domain.cpu2.domain1.imbalance_pct'
p2121
I125
sS'vm.max_map_count'
p2122
I65530
sS'CONFIG_SCSI_SCAN_ASYNC'
p2123
S'y'
sS'net.ipv6.conf.default.enhanced_dad'
p2124
I1
sS'net.ipv4.conf.lo.arp_ignore'
p2125
I0
sS'kernel.sched_domain.cpu13.domain1.forkexec_idx'
p2126
I0
sS'CONFIG_HAVE_KVM_IRQCHIP'
p2127
S'y'
sS'CONFIG_INLINE_READ_UNLOCK'
p2128
S'y'
sS'CONFIG_PM_SLEEP_SMP'
p2129
S'y'
sS'kernel.sched_domain.cpu7.domain0.max_newidle_lb_cost'
p2130
I127386
sS'net.ipv4.conf.ens3.proxy_arp_pvlan'
p2131
I0
sS'CONFIG_FIX_EARLYCON_MEM'
p2132
S'y'
sS'kernel.sched_domain.cpu3.domain0.forkexec_idx'
p2133
I0
sS'net.netfilter.nf_log.11'
p2134
S'NONE'
p2135
sS'net.ipv6.conf.lo.ndisc_notify'
p2136
I0
sS'CONFIG_SCHED_DEBUG'
p2137
S'y'
sS'net.ipv4.conf.ens3.promote_secondaries'
p2138
I0
sS'CONFIG_VT_HW_CONSOLE_BINDING'
p2139
S'y'
sS'CONFIG_MIGRATION'
p2140
S'y'
sS'CONFIG_SYSVIPC_SYSCTL'
p2141
S'y'
sS'CONFIG_HAMRADIO'
p2142
S'y'
sS'kernel.sched_domain.cpu25.domain0.name'
p2143
S'DIE'
p2144
sS'CONFIG_KGDB'
p2145
S'y'
sS'kernel.sched_domain.cpu22.domain0.busy_factor'
p2146
I32
sS'CONFIG_EFI_ESRT'
p2147
S'y'
sS'CONFIG_RAS'
p2148
S'y'
sS'CONFIG_GENERIC_PINCONF'
p2149
S'y'
sS'kernel.sched_domain.cpu23.domain1.newidle_idx'
p2150
I0
sS'kernel.sched_domain.cpu8.domain0.max_interval'
p2151
I20
sS'CONFIG_HIGH_RES_TIMERS'
p2152
S'y'
sS'CONFIG_PPP'
p2153
S'y'
sS'CONFIG_HAVE_GENERIC_GUP'
p2154
S'y'
sS'CONFIG_NET_VENDOR_HUAWEI'
p2155
S'y'
sS'CONFIG_ZLIB_INFLATE'
p2156
S'y'
sS'CONFIG_CORE_DUMP_DEFAULT_ELF_HEADERS'
p2157
S'y'
sS'CONFIG_POWER_AVS'
p2158
S'y'
sS'CONFIG_MFD_AAT2870_CORE'
p2159
S'y'
sS'CONFIG_QED'
p2160
S'm'
sS'CONFIG_LEGACY_PTY_COUNT'
p2161
I0
sS'CONFIG_COMPAT'
p2162
S'y'
sS'net.ipv6.conf.default.force_tllao'
p2163
I0
sS'CONFIG_AGP_INTEL'
p2164
S'y'
sS'CONFIG_CRYPTO_CRC32C'
p2165
S'y'
sS'kernel.sched_domain.cpu3.domain1.min_interval'
p2166
I30
sS'CONFIG_LOCK_SPIN_ON_OWNER'
p2167
S'y'
sS'CONFIG_CRYPTO_GHASH'
p2168
S'y'
sS'kernel.sched_domain.cpu27.domain0.wake_idx'
p2169
I0
sS'kernel.sched_domain.cpu25.domain1.wake_idx'
p2170
I0
sS'CONFIG_ACPI_TABLE_UPGRADE'
p2171
S'y'
sS'CONFIG_BLK_CMDLINE_PARSER'
p2172
S'y'
sS'net.ipv4.inet_peer_minttl'
p2173
I120
sS'net.core.netdev_budget'
p2174
I300
sS'kernel.shmall'
p2175
L18446744073692774399L
sS'CONFIG_ABX500_CORE'
p2176
S'y'
sS'CONFIG_ACPI_APEI_PCIEAER'
p2177
S'y'
sS'CONFIG_CRYPTO_MANAGER_DISABLE_TESTS'
p2178
S'y'
sS'kernel.sched_domain.cpu12.domain0.busy_idx'
p2179
I2
sS'CONFIG_GENERIC_BUG_RELATIVE_POINTERS'
p2180
S'y'
sS'CONFIG_TICK_ONESHOT'
p2181
S'y'
sS'CONFIG_LOG_CPU_MAX_BUF_SHIFT'
p2182
I12
sS'CONFIG_WLAN_VENDOR_INTEL'
p2183
S'y'
sS'net.ipv6.conf.default.seg6_enabled'
p2184
I0
sS'net.ipv4.ip_nonlocal_bind'
p2185
I0
sS'CONFIG_EXT4_FS'
p2186
S'y'
sS'CONFIG_BOOTPARAM_HUNG_TASK_PANIC_VALUE'
p2187
I0
sS'kernel.sched_domain.cpu1.domain0.newidle_idx'
p2188
I0
sS'net.ipv4.neigh.default.base_reachable_time_ms'
p2189
I30000
sS'CONFIG_BALLOON_COMPACTION'
p2190
S'y'
sS'CONFIG_ASYNC_PQ'
p2191
S'm'
sS'CONFIG_USELIB'
p2192
S'y'
sS'kernel.sched_domain.cpu24.domain0.busy_idx'
p2193
I2
sS'net.ipv6.conf.default.hop_limit'
p2194
I64
sS'CONFIG_FB_IMSTT'
p2195
S'y'
sS'kernel.sched_domain.cpu0.domain0.forkexec_idx'
p2196
I0
sS'CONFIG_PM_OPP'
p2197
S'y'
sS'kernel.sched_domain.cpu5.domain0.min_interval'
p2198
I10
sS'kernel.sched_domain.cpu21.domain1.busy_factor'
p2199
I32
sS'CONFIG_KSM'
p2200
S'y'
sS'CONFIG_RTC_INTF_SYSFS'
p2201
S'y'
sS'kernel.sched_domain.cpu14.domain0.name'
p2202
S'DIE'
p2203
sS'net.ipv6.conf.all.accept_ra'
p2204
I1
sS'CONFIG_MFD_TPS65912_I2C'
p2205
S'y'
sS'net.ipv4.conf.lo.arp_filter'
p2206
I0
sS'net.iw_cm.default_backlog'
p2207
I256
sS'kernel.sched_domain.cpu26.domain1.max_newidle_lb_cost'
p2208
I19486
sS'CONFIG_SERIAL_8250_SHARE_IRQ'
p2209
S'y'
sS'kernel.sched_domain.cpu2.domain0.forkexec_idx'
p2210
I0
sS'net.ipv6.conf.all.router_solicitations'
p2211
S'-1'
p2212
sS'net.ipv4.udp_l3mdev_accept'
p2213
I0
sS'kernel.unprivileged_bpf_disabled'
p2214
I0
sS'CONFIG_FUSION_MAX_SGE'
p2215
I128
sS'CONFIG_HAS_IOPORT_MAP'
p2216
S'y'
sS'CONFIG_MFD_WM831X_SPI'
p2217
S'y'
sS'kernel.sched_domain.cpu9.domain1.name'
p2218
S'NUMA'
p2219
sS'kernel.sched_cfs_bandwidth_slice_us'
p2220
I5000
sS'kernel.sched_domain.cpu27.domain0.min_interval'
p2221
I10
sS'CONFIG_INPUT_LEDS'
p2222
S'm'
sS'net.ipv4.tcp_app_win'
p2223
I31
sS'net.ipv4.cipso_cache_enable'
p2224
I1
sS'CONFIG_EVM_EXTRA_SMACK_XATTRS'
p2225
S'y'
sS'net.ipv6.conf.ens3.autoconf'
p2226
I1
sS'kernel.sched_domain.cpu24.domain0.cache_nice_tries'
p2227
I1
sS'CONFIG_IKCONFIG'
p2228
S'm'
sS'kernel.sched_domain.cpu19.domain0.max_interval'
p2229
I20
sS'CONFIG_MEMORY'
p2230
S'y'
sS'kernel.numa_balancing_scan_delay_ms'
p2231
I1000
sS'CONFIG_KDB_DEFAULT_ENABLE'
p2232
S'0x1'
p2233
sS'fs.inotify.max_queued_events'
p2234
I16384
sS'CONFIG_SG_POOL'
p2235
S'y'
sS'CONFIG_CRYPTO_RSA'
p2236
S'y'
sS'net.ipv4.tcp_pacing_ca_ratio'
p2237
I120
sS'CONFIG_CPU_FREQ_GOV_POWERSAVE'
p2238
S'y'
sS'CONFIG_HAVE_BOOTMEM_INFO_NODE'
p2239
S'y'
sS'kernel.sched_domain.cpu17.domain1.forkexec_idx'
p2240
I0
sS'CONFIG_SPARSEMEM_ALLOC_MEM_MAP_TOGETHER'
p2241
S'y'
sS'CONFIG_ARCH_PHYS_ADDR_T_64BIT'
p2242
S'y'
sS'kernel.sched_domain.cpu8.domain0.wake_idx'
p2243
I0
sS'CONFIG_ACPI_PCI_SLOT'
p2244
S'y'
sS'CONFIG_CPU_FREQ_GOV_USERSPACE'
p2245
S'y'
sS'kernel.sched_domain.cpu19.domain1.idle_idx'
p2246
I2
sS'kernel.sched_domain.cpu22.domain1.max_newidle_lb_cost'
p2247
I8751
sS'CONFIG_HAVE_UNSTABLE_SCHED_CLOCK'
p2248
S'y'
sS'kernel.sched_domain.cpu8.domain1.forkexec_idx'
p2249
I0
sS'net.ipv4.igmp_link_local_mcast_reports'
p2250
I1
sS'CONFIG_MEM_SOFT_DIRTY'
p2251
S'y'
sS'CONFIG_MODULES_USE_ELF_RELA'
p2252
S'y'
sS'CONFIG_SECURITY_SMACK'
p2253
S'y'
sS'net.ipv6.anycast_src_echo_reply'
p2254
I0
sS'CONFIG_KPROBES'
p2255
S'y'
sS'CONFIG_FRAME_POINTER'
p2256
S'y'
sS'CONFIG_SGETMASK_SYSCALL'
p2257
S'y'
sS'CONFIG_BLK_DEV_DM_BUILTIN'
p2258
S'y'
sS'net.ipv4.conf.lo.tag'
p2259
I0
sS'CONFIG_SQUASHFS_FRAGMENT_CACHE_SIZE'
p2260
I3
sS'kernel.sched_domain.cpu3.domain0.idle_idx'
p2261
I1
sS'CONFIG_AUDIT'
p2262
S'y'
sS'CONFIG_UPROBE_EVENTS'
p2263
S'y'
sS'CONFIG_ARCH_SUPPORTS_DEBUG_PAGEALLOC'
p2264
S'y'
sS'kernel.random.urandom_min_reseed_secs'
p2265
I60
sS'CONFIG_X86_CMPXCHG64'
p2266
S'y'
sS'CONFIG_NET_FLOW_LIMIT'
p2267
S'y'
sS'CONFIG_ND_CLAIM'
p2268
S'y'
sS'kernel.sched_domain.cpu21.domain1.wake_idx'
p2269
I0
sS'kernel.sched_domain.cpu4.domain0.newidle_idx'
p2270
I0
sS'CONFIG_CRYPTO_BLKCIPHER'
p2271
S'y'
sS'net.ipv6.conf.default.accept_ra_mtu'
p2272
I1
sS'fs.dir-notify-enable'
p2273
I1
sS'CONFIG_HAVE_HARDLOCKUP_DETECTOR_PERF'
p2274
S'y'
sS'kernel.sched_domain.cpu25.domain1.max_interval'
p2275
I60
sS'net.ipv4.tcp_slow_start_after_idle'
p2276
I1
sS'kernel.sched_domain.cpu17.domain1.max_newidle_lb_cost'
p2277
I13882
sS'net.ipv4.tcp_limit_output_bytes'
p2278
I262144
sS'kernel.sched_domain.cpu12.domain1.imbalance_pct'
p2279
I125
sS'CONFIG_HAVE_COPY_THREAD_TLS'
p2280
S'y'
sS'net.ipv6.route.gc_thresh'
p2281
I1024
sS'CONFIG_ARCH_RANDOM'
p2282
S'y'
sS'net.ipv6.conf.ens3.router_probe_interval'
p2283
I60
sS'CONFIG_X86_EXTENDED_PLATFORM'
p2284
S'y'
sS'CONFIG_PM_TRACE'
p2285
S'y'
sS'CONFIG_SYSCTL_EXCEPTION_TRACE'
p2286
S'y'
sS'CONFIG_X86_INTERNODE_CACHE_SHIFT'
p2287
I6
sS'CONFIG_HAVE_SYSCALL_TRACEPOINTS'
p2288
S'y'
sS'kernel.sched_domain.cpu13.domain1.max_interval'
p2289
I60
sS'CONFIG_CRC32'
p2290
S'y'
sS'CONFIG_FUSION'
p2291
S'y'
sS'net.ipv4.conf.lo.accept_source_route'
p2292
I1
sS'net.ipv6.conf.ens3.suppress_frag_ndisc'
p2293
I1
sS'CONFIG_SWPHY'
p2294
S'y'
sS'CONFIG_FUTEX_PI'
p2295
S'y'
sS'kernel.sched_domain.cpu6.domain1.wake_idx'
p2296
I0
sS'net.ipv6.conf.all.mc_forwarding'
p2297
I0
sS'vm.admin_reserve_kbytes'
p2298
I8192
sS'CONFIG_ASYNC_TX_DMA'
p2299
S'y'
sS'CONFIG_DW_DMAC_CORE'
p2300
S'y'
sS'CONFIG_RTC_NVMEM'
p2301
S'y'
sS'kernel.sched_domain.cpu6.domain0.newidle_idx'
p2302
I0
sS'kernel.sched_domain.cpu5.domain0.name'
p2303
S'DIE'
p2304
sS'net.ipv4.tcp_early_demux'
p2305
I1
sS'CONFIG_EXT4_FS_SECURITY'
p2306
S'y'
sS'kernel.sched_domain.cpu9.domain0.forkexec_idx'
p2307
I0
sS'kernel.sched_domain.cpu19.domain1.max_newidle_lb_cost'
p2308
I83476
sS'net.ipv4.neigh.default.unres_qlen'
p2309
I101
sS'kernel.sched_domain.cpu4.domain1.idle_idx'
p2310
I2
sS'CONFIG_COMMON_CLK'
p2311
S'y'
sS'CONFIG_MFD_PALMAS'
p2312
S'y'
sS'CONFIG_AUXDISPLAY'
p2313
S'y'
sS'CONFIG_WLAN_VENDOR_ST'
p2314
S'y'
sS'kernel.printk_ratelimit'
p2315
I5
sS'net.ipv6.conf.all.enhanced_dad'
p2316
I1
sS'net.ipv4.neigh.default.delay_first_probe_time'
p2317
I5
sS'CONFIG_SECURITY_SELINUX_BOOTPARAM_VALUE'
p2318
I0
sS'fs.lease-break-time'
p2319
I45
sS'kernel.sched_domain.cpu26.domain0.busy_factor'
p2320
I32
sS'vm.dirty_bytes'
p2321
I0
sS'net.ipv6.conf.lo.accept_redirects'
p2322
I1
sS'CONFIG_KVM_GUEST'
p2323
S'y'
sS'net.ipv4.tcp_syn_retries'
p2324
I6
sS'kernel.shm_rmid_forced'
p2325
I0
sS'CONFIG_PERF_EVENTS_INTEL_UNCORE'
p2326
S'y'
sS'net.ipv4.conf.ens3.igmpv2_unsolicited_report_interval'
p2327
I10000
sS'kernel.sched_domain.cpu17.domain1.max_interval'
p2328
I60
sS'kernel.sched_domain.cpu13.domain0.cache_nice_tries'
p2329
I1
sS'kernel.sched_domain.cpu11.domain1.forkexec_idx'
p2330
I0
sS'CONFIG_NET_VENDOR_I825XX'
p2331
S'y'
sS'CONFIG_X86_FAST_FEATURE_TESTS'
p2332
S'y'
sS'CONFIG_BRIDGE_IGMP_SNOOPING'
p2333
S'y'
sS'CONFIG_UEVENT_HELPER_PATH'
p2334
S'""'
p2335
sS'kernel.sched_domain.cpu20.domain1.busy_factor'
p2336
I32
sS'CONFIG_CRYPTO_GHASH_CLMUL_NI_INTEL'
p2337
S'm'
sS'CONFIG_DEVFREQ_GOV_POWERSAVE'
p2338
S'y'
sS'kernel.sched_domain.cpu11.domain1.min_interval'
p2339
I30
sS'net.ipv6.conf.ens3.accept_ra_from_local'
p2340
I0
sS'net.ipv6.conf.default.router_solicitation_interval'
p2341
I4
sS'kernel.sched_domain.cpu26.domain0.wake_idx'
p2342
I0
sS'net.ipv4.tcp_tso_win_divisor'
p2343
I3
sS'CONFIG_RELOCATABLE'
p2344
S'y'
sS'kernel.sched_domain.cpu24.domain0.max_interval'
p2345
I20
sS'fs.pipe-max-size'
p2346
I1048576
sS'CONFIG_NO_HZ'
p2347
S'y'
sS'CONFIG_DYNAMIC_FTRACE_WITH_REGS'
p2348
S'y'
sS'CONFIG_CHELSIO_T4_DCB'
p2349
S'y'
sS'kernel.sched_domain.cpu26.domain0.forkexec_idx'
p2350
I0
sS'CONFIG_RTC_SYSTOHC_DEVICE'
p2351
S'"rtc0"'
p2352
sS'CONFIG_DEFAULT_SECURITY_APPARMOR'
p2353
S'y'
sS'kernel.sched_domain.cpu18.domain0.min_interval'
p2354
I10
sS'CONFIG_HAVE_KERNEL_BZIP2'
p2355
S'y'
sS'net.ipv6.conf.ens3.addr_gen_mode'
p2356
I0
sS'CONFIG_QED_SRIOV'
p2357
S'y'
sS'net.ipv4.route.gc_min_interval_ms'
p2358
I500
sS'kernel.sched_domain.cpu23.domain0.cache_nice_tries'
p2359
I1
sS'CONFIG_WLAN_VENDOR_RSI'
p2360
S'y'
sS'CONFIG_VIRTIO_BLK'
p2361
S'y'
sS'kernel.sched_domain.cpu2.domain1.name'
p2362
S'NUMA'
p2363
sS'CONFIG_HOTPLUG_PCI_PCIE'
p2364
S'y'
sS'net.ipv6.neigh.ens3.mcast_solicit'
p2365
I3
sS'CONFIG_GPIO_SX150X'
p2366
S'y'
sS'CONFIG_IP_MULTIPLE_TABLES'
p2367
S'y'
sS'CONFIG_THP_SWAP'
p2368
S'y'
sS'CONFIG_RFS_ACCEL'
p2369
S'y'
sS'fs.dentry-state'
p2370
S'104513\t79303\t45\t0\t0\t0'
p2371
sS'CONFIG_TRACEPOINTS'
p2372
S'y'
sS'CONFIG_IP6_NF_IPTABLES'
p2373
S'm'
sS'CONFIG_CRYPTO_AKCIPHER2'
p2374
S'y'
sS'CONFIG_ARCH_HAS_ADD_PAGES'
p2375
S'y'
sS'net.ipv6.conf.lo.dad_transmits'
p2376
I1
sS'CONFIG_SECURITY_APPARMOR_HASH_DEFAULT'
p2377
S'y'
sS'CONFIG_SMP'
p2378
S'y'
sS'CONFIG_NEED_PER_CPU_EMBED_FIRST_CHUNK'
p2379
S'y'
sS'kernel.sched_domain.cpu28.domain0.cache_nice_tries'
p2380
I1
sS'net.ipv6.conf.default.accept_dad'
p2381
I1
sS'kernel.sched_domain.cpu10.domain1.newidle_idx'
p2382
I0
sS'CONFIG_TMPFS_XATTR'
p2383
S'y'
sS'CONFIG_BLK_CGROUP'
p2384
S'y'
sS'CONFIG_PATA_ACPI'
p2385
S'm'
sS'kernel.sched_domain.cpu27.domain1.max_newidle_lb_cost'
p2386
I59393
sS'CONFIG_WATCHDOG'
p2387
S'y'
sS'CONFIG_RTC_CLASS'
p2388
S'y'
sS'CONFIG_ISCSI_TCP'
p2389
S'm'
sS'CONFIG_HAVE_DEBUG_STACKOVERFLOW'
p2390
S'y'
sS'net.ipv6.neigh.default.gc_stale_time'
p2391
I60
sS'CONFIG_TCP_MD5SIG'
p2392
S'y'
sS'net.ipv4.neigh.ens3.unres_qlen'
p2393
I101
sS'kernel.sched_domain.cpu11.domain1.busy_idx'
p2394
I3
sS'CONFIG_IP_PIMSM_V1'
p2395
S'y'
sS'CONFIG_MICROCODE'
p2396
S'y'
sS'kernel.sched_domain.cpu27.domain0.forkexec_idx'
p2397
I0
sS'kernel.sched_domain.cpu3.domain1.max_newidle_lb_cost'
p2398
I9925
sS'CONFIG_TUN'
p2399
S'y'
sS'kernel.sched_domain.cpu20.domain0.cache_nice_tries'
p2400
I1
sS'CONFIG_NET_VENDOR_SEEQ'
p2401
S'y'
sS'CONFIG_IP_PIMSM_V2'
p2402
S'y'
sS'net.ipv4.tcp_low_latency'
p2403
I0
sS'kernel.sched_domain.cpu18.domain1.newidle_idx'
p2404
I0
sS'net.ipv4.ip_forward_use_pmtu'
p2405
I0
sS'CONFIG_VIRTIO'
p2406
S'y'
sS'kernel.randomize_va_space'
p2407
I2
sS'vm.legacy_va_layout'
p2408
I0
sS'CONFIG_PARAVIRT'
p2409
S'y'
sS'CONFIG_HAVE_OPTPROBES'
p2410
S'y'
sS'CONFIG_XZ_DEC_BCJ'
p2411
S'y'
sS'net.ipv4.icmp_echo_ignore_all'
p2412
I0
sS'net.ipv4.ip_dynaddr'
p2413
I0
sS'CONFIG_SYSFS'
p2414
S'y'
sS'dev.cdrom.autoeject'
p2415
I0
sS'CONFIG_PROFILING'
p2416
S'y'
sS'kernel.sched_domain.cpu19.domain0.max_newidle_lb_cost'
p2417
I148026
sS'kernel.sched_domain.cpu6.domain1.name'
p2418
S'NUMA'
p2419
sS'net.ipv4.route.max_size'
p2420
I2147483647
sS'CONFIG_NET_VENDOR_INTEL'
p2421
S'y'
sS'CONFIG_TASKSTATS'
p2422
S'y'
sS'vm.memory_failure_early_kill'
p2423
I0
sS'kernel.sched_domain.cpu6.domain1.busy_factor'
p2424
I32
sS'net.ipv6.conf.default.use_tempaddr'
p2425
I2
sS'CONFIG_DEVTMPFS'
p2426
S'y'
sS'CONFIG_CFS_BANDWIDTH'
p2427
S'y'
sS'kernel.sched_domain.cpu12.domain0.idle_idx'
p2428
I1
sS'net.ipv6.route.gc_timeout'
p2429
I60
sS'CONFIG_HAVE_MOD_ARCH_SPECIFIC'
p2430
S'y'
sS'net.ipv6.neigh.ens3.base_reachable_time_ms'
p2431
I30000
sS'CONFIG_FB_MODE_HELPERS'
p2432
S'y'
sS'CONFIG_USB_OHCI_LITTLE_ENDIAN'
p2433
S'y'
sS'net.ipv4.conf.default.ignore_routes_with_linkdown'
p2434
I0
sS'kernel.sched_domain.cpu2.domain1.max_interval'
p2435
I60
sS'net.ipv4.icmp_echo_ignore_broadcasts'
p2436
I1
sS'CONFIG_IRQ_WORK'
p2437
S'y'
sS'CONFIG_TCG_TIS'
p2438
S'y'
sS'CONFIG_XZ_DEC_POWERPC'
p2439
S'y'
sS'CONFIG_HZ_250'
p2440
S'y'
sS'kernel.sched_domain.cpu0.domain1.flags'
p2441
I25647
sS'CONFIG_ACPI_PROCESSOR'
p2442
S'y'
sS'kernel.sched_domain.cpu14.domain1.min_interval'
p2443
I30
sS'CONFIG_REGMAP_I2C'
p2444
S'y'
sS'net.ipv6.neigh.ens3.locktime'
p2445
I0
sS'kernel.sched_domain.cpu20.domain0.max_newidle_lb_cost'
p2446
I110348
sS'kernel.sched_domain.cpu24.domain0.forkexec_idx'
p2447
I0
sS'net.ipv4.conf.all.arp_filter'
p2448
I0
sS'net.ipv4.route.redirect_load'
p2449
I5
sS'CONFIG_THERMAL_GOV_BANG_BANG'
p2450
S'y'
sS'CONFIG_MFD_MAX8997'
p2451
S'y'
sS'CONFIG_HAVE_ACPI_APEI'
p2452
S'y'
sS'kernel.sched_domain.cpu13.domain1.imbalance_pct'
p2453
I125
sS'CONFIG_FONT_SUPPORT'
p2454
S'y'
sS'kernel.sched_domain.cpu6.domain0.imbalance_pct'
p2455
I125
sS'CONFIG_X86_PMEM_LEGACY_DEVICE'
p2456
S'y'
sS'kernel.sched_domain.cpu1.domain1.wake_idx'
p2457
I0
sS'CONFIG_REGMAP_IRQ'
p2458
S'y'
sS'CONFIG_ASSOCIATIVE_ARRAY'
p2459
S'y'
sS'CONFIG_EZX_PCAP'
p2460
S'y'
sS'CONFIG_SCSI_MOD'
p2461
S'y'
sS'CONFIG_CRYPTO_HASH_INFO'
p2462
S'y'
sS'kernel.sched_domain.cpu24.domain0.imbalance_pct'
p2463
I125
sS'net.ipv4.conf.all.shared_media'
p2464
I1
sS'CONFIG_IOMMU_API'
p2465
S'y'
sS'CONFIG_INLINE_SPIN_UNLOCK_IRQ'
p2466
S'y'
sS'CONFIG_BLOCK'
p2467
S'y'
sS'CONFIG_MEMORY_FAILURE'
p2468
S'y'
sS'CONFIG_FB_NOTIFY'
p2469
S'y'
sS'CONFIG_NET_VENDOR_EZCHIP'
p2470
S'y'
sS'CONFIG_TIMERFD'
p2471
S'y'
sS'kernel.sched_domain.cpu1.domain0.max_interval'
p2472
I20
sS'net.ipv4.conf.ens3.mc_forwarding'
p2473
I0
sS'CONFIG_CPU_RMAP'
p2474
S'y'
sS'kernel.sched_domain.cpu15.domain0.newidle_idx'
p2475
I0
sS'net.netfilter.nf_log.10'
p2476
S'NONE'
p2477
sS'net.netfilter.nf_log.12'
p2478
S'NONE'
p2479
sS'CONFIG_ARCH_HAS_PMEM_API'
p2480
S'y'
sS'net.ipv6.conf.all.drop_unicast_in_l2_multicast'
p2481
I0
sS'CONFIG_X86_INTEL_LPSS'
p2482
S'y'
sS'net.core.rmem_max'
p2483
I212992
sS'CONFIG_CRYPTO_DRBG_HASH'
p2484
S'y'
sS'CONFIG_SECURITY_PATH'
p2485
S'y'
sS'CONFIG_THERMAL_EMERGENCY_POWEROFF_DELAY_MS'
p2486
I0
sS'CONFIG_DEBUG_FS'
p2487
S'y'
sS'kernel.sched_domain.cpu24.domain0.max_newidle_lb_cost'
p2488
I24629
sS'CONFIG_USB_ARCH_HAS_HCD'
p2489
S'y'
sS'CONFIG_STACK_TRACER'
p2490
S'y'
sS'net.core.dev_weight'
p2491
I64
sS'CONFIG_THREAD_INFO_IN_TASK'
p2492
S'y'
sS'kernel.sched_domain.cpu22.domain0.cache_nice_tries'
p2493
I1
sS'CONFIG_X86_MPPARSE'
p2494
S'y'
sS'CONFIG_NET_VENDOR_SYNOPSYS'
p2495
S'y'
sS'CONFIG_SECURITY_TOMOYO_MAX_AUDIT_LOG'
p2496
I1024
sS'CONFIG_PCIE_PME'
p2497
S'y'
sS'kernel.sched_domain.cpu6.domain1.max_newidle_lb_cost'
p2498
I11355
sS'CONFIG_HAVE_CC_STACKPROTECTOR'
p2499
S'y'
sS'CONFIG_NET_VENDOR_MARVELL'
p2500
S'y'
sS'kernel.sched_domain.cpu15.domain1.idle_idx'
p2501
I2
sS'CONFIG_BLK_DEV_LOOP_MIN_COUNT'
p2502
I8
sS'CONFIG_CRASH_CORE'
p2503
S'y'
sS'net.ipv6.conf.ens3.proxy_ndp'
p2504
I0
sS'CONFIG_DEFAULT_TCP_CONG'
p2505
S'"cubic"'
p2506
sS'CONFIG_CRYPTO_CBC'
p2507
S'y'
sS'CONFIG_PGTABLE_MAPPING'
p2508
S'y'
sS'CONFIG_NET_VENDOR_NATSEMI'
p2509
S'y'
sS'CONFIG_HAVE_EBPF_JIT'
p2510
S'y'
sS'kernel.shmmax'
p2511
L18446744073692774399L
sS'net.ipv6.conf.all.accept_ra_min_hop_limit'
p2512
I1
sS'kernel.sched_domain.cpu19.domain1.newidle_idx'
p2513
I0
sS'CONFIG_PARAVIRT_SPINLOCKS'
p2514
S'y'
sS'CONFIG_FB_SIMPLE'
p2515
S'y'
sS'kernel.sched_domain.cpu0.domain1.imbalance_pct'
p2516
I125
sS'CONFIG_QUEUED_RWLOCKS'
p2517
S'y'
sS'CONFIG_SUSPEND_FREEZER'
p2518
S'y'
sS'kernel.sched_domain.cpu9.domain1.min_interval'
p2519
I30
sS'CONFIG_VHOST_NET'
p2520
S'm'
sS'net.ipv4.conf.ens3.forwarding'
p2521
I0
sS'kernel.sched_domain.cpu2.domain1.cache_nice_tries'
p2522
I2
sS'kernel.sched_domain.cpu6.domain0.cache_nice_tries'
p2523
I1
sS'net.ipv6.conf.default.autoconf'
p2524
I1
sS'fs.pipe-user-pages-soft'
p2525
I16384
sS'CONFIG_CRYPTO_SIMD'
p2526
S'm'
sS'CONFIG_SND_PCM_TIMER'
p2527
S'y'
sS'CONFIG_X86_INTEL_PSTATE'
p2528
S'y'
sS'net.ipv4.tcp_mtu_probing'
p2529
I0
sS'kernel.sched_domain.cpu20.domain0.wake_idx'
p2530
I0
sS'CONFIG_MFD_TWL4030_AUDIO'
p2531
S'y'
sS'CONFIG_CGROUP_PERF'
p2532
S'y'
sS'CONFIG_WATCHDOG_HANDLE_BOOT_ENABLED'
p2533
S'y'
sS'CONFIG_SOLARIS_X86_PARTITION'
p2534
S'y'
sS'kernel.sched_domain.cpu12.domain1.newidle_idx'
p2535
I0
sS'kernel.sched_domain.cpu11.domain0.idle_idx'
p2536
I1
sS'kernel.sched_domain.cpu5.domain1.name'
p2537
S'NUMA'
p2538
sS'CONFIG_NEED_SG_DMA_LENGTH'
p2539
S'y'
sS'vm.hugepages_treat_as_movable'
p2540
I0
sS'CONFIG_GENERIC_CALIBRATE_DELAY'
p2541
S'y'
sS'CONFIG_ARCH_HAS_DEVMEM_IS_ALLOWED'
p2542
S'y'
sS'CONFIG_SND'
p2543
S'm'
sS'CONFIG_LZO_DECOMPRESS'
p2544
S'y'
sS'kernel.ftrace_enabled'
p2545
I1
sS'CONFIG_CRYPTO_RNG'
p2546
S'y'
sS'CONFIG_MODULES_TREE_LOOKUP'
p2547
S'y'
sS'CONFIG_ECRYPT_FS_MESSAGING'
p2548
S'y'
sS'CONFIG_RTC_HCTOSYS_DEVICE'
p2549
S'"rtc0"'
p2550
sS'net.ipv4.conf.ens3.src_valid_mark'
p2551
I0
sS'CONFIG_EFI_VARS'
p2552
S'y'
sS'kernel.sched_domain.cpu16.domain0.idle_idx'
p2553
I1
sS'CONFIG_KEXEC_FILE'
p2554
S'y'
sS'CONFIG_I2C_BOARDINFO'
p2555
S'y'
sS'net.ipv4.tcp_mem'
p2556
S'768591\t1024791\t1537182'
p2557
sS'CONFIG_SECCOMP'
p2558
S'y'
sS'CONFIG_CRYPTO_RNG2'
p2559
S'y'
sS'kernel.sched_domain.cpu10.domain0.newidle_idx'
p2560
I0
sS'CONFIG_ARCH_MMAP_RND_BITS'
p2561
I28
sS'kernel.sched_domain.cpu22.domain1.newidle_idx'
p2562
I0
sS'CONFIG_PMIC_DA9052'
p2563
S'y'
sS'CONFIG_KGDB_SERIAL_CONSOLE'
p2564
S'y'
sS'kernel.sched_domain.cpu25.domain0.wake_idx'
p2565
I0
sS'CONFIG_IMA_DEFAULT_TEMPLATE'
p2566
S'"ima-ng"'
p2567
sS'kernel.sched_domain.cpu26.domain1.flags'
p2568
I25647
sS'kernel.sched_domain.cpu6.domain0.busy_idx'
p2569
I2
sS'CONFIG_CRYPTO_SHA1'
p2570
S'y'
sS'CONFIG_MMIOTRACE'
p2571
S'y'
sS'kernel.sched_domain.cpu10.domain1.busy_factor'
p2572
I32
sS'CONFIG_HW_RANDOM'
p2573
S'y'
sS'CONFIG_ARCH_HAS_CPU_RELAX'
p2574
S'y'
sS'kernel.sched_domain.cpu11.domain1.wake_idx'
p2575
I0
sS'net.ipv6.conf.all.accept_source_route'
p2576
I0
sS'CONFIG_PARAVIRT_TIME_ACCOUNTING'
p2577
S'y'
sS'kernel.sched_domain.cpu7.domain0.name'
p2578
S'DIE'
p2579
sS'net.ipv4.neigh.ens3.delay_first_probe_time'
p2580
I5
sS'net.ipv4.neigh.ens3.retrans_time_ms'
p2581
I1000
sS'CONFIG_KALLSYMS'
p2582
S'y'
sS'CONFIG_SND_SPI'
p2583
S'y'
sS'CONFIG_RFKILL_INPUT'
p2584
S'y'
sS'net.ipv4.route.gc_timeout'
p2585
I300
sS'CONFIG_NET_VENDOR_SAMSUNG'
p2586
S'y'
sS'CONFIG_SPARSEMEM'
p2587
S'y'
sS'CONFIG_ARCH_HAS_ELF_RANDOMIZE'
p2588
S'y'
sS'kernel.sched_domain.cpu17.domain0.idle_idx'
p2589
I1
sS'CONFIG_HAVE_DMA_API_DEBUG'
p2590
S'y'
sS'CONFIG_ACPI_BUTTON'
p2591
S'y'
sS'CONFIG_TTY'
p2592
S'y'
sS'CONFIG_X86_BOOTPARAM_MEMORY_CORRUPTION_CHECK'
p2593
S'y'
sS'CONFIG_XZ_DEC'
p2594
S'y'
sS'CONFIG_X86_PM_TIMER'
p2595
S'y'
sS'net.ipv4.conf.ens3.arp_notify'
p2596
I0
sS'CONFIG_SERIAL_8250_LPSS'
p2597
S'y'
sS'net.ipv6.conf.all.accept_ra_rtr_pref'
p2598
I1
sS'CONFIG_RPS'
p2599
S'y'
sS'CONFIG_AUDIT_WATCH'
p2600
S'y'
sS'CONFIG_KVM_GENERIC_DIRTYLOG_READ_PROTECT'
p2601
S'y'
sS'CONFIG_DMAR_TABLE'
p2602
S'y'
sS'CONFIG_SYSTEM_EXTRA_CERTIFICATE_SIZE'
p2603
I4096
sS'net.ipv4.conf.ens3.send_redirects'
p2604
I1
sS'kernel.sched_domain.cpu23.domain1.imbalance_pct'
p2605
I125
sS'CONFIG_PREEMPT_VOLUNTARY'
p2606
S'y'
sS'CONFIG_DEVMEM'
p2607
S'y'
sS'CONFIG_FUSE_FS'
p2608
S'y'
sS'CONFIG_USER_RETURN_NOTIFIER'
p2609
S'y'
sS'kernel.sched_domain.cpu11.domain0.imbalance_pct'
p2610
I125
sS'net.ipv4.tcp_max_reordering'
p2611
I300
sS'net.ipv4.neigh.default.gc_interval'
p2612
I30
sS'kernel.sched_domain.cpu20.domain1.busy_idx'
p2613
I3
sS'kernel.sg-big-buff'
p2614
I32768
sS'net.ipv6.route.gc_elasticity'
p2615
I9
sS'CONFIG_ARCH_SPARSEMEM_ENABLE'
p2616
S'y'
sS'CONFIG_NETFILTER_INGRESS'
p2617
S'y'
sS'CONFIG_HAVE_MEMBLOCK'
p2618
S'y'
sS'CONFIG_SCHED_TRACER'
p2619
S'y'
sS'CONFIG_SQUASHFS_DECOMP_SINGLE'
p2620
S'y'
sS'CONFIG_X86_IO_APIC'
p2621
S'y'
sS'net.ipv6.conf.default.temp_valid_lft'
p2622
I604800
sS'kernel.sched_domain.cpu0.domain1.newidle_idx'
p2623
I0
sS'kernel.sched_domain.cpu3.domain1.idle_idx'
p2624
I2
sS'CONFIG_ZONE_DMA32'
p2625
S'y'
sS'net.ipv6.neigh.default.app_solicit'
p2626
I0
sS'net.ipv4.tcp_timestamps'
p2627
I1
sS'kernel.sched_domain.cpu5.domain0.busy_idx'
p2628
I2
sS'kernel.sched_domain.cpu16.domain1.busy_factor'
p2629
I32
sS'kernel.sched_domain.cpu15.domain1.wake_idx'
p2630
I0
sS'CONFIG_GENERIC_CPU_AUTOPROBE'
p2631
S'y'
sS'CONFIG_NR_CPUS'
p2632
I512
sS'CONFIG_DOUBLEFAULT'
p2633
S'y'
sS'user.max_user_namespaces'
p2634
I257592
sS'CONFIG_BIG_KEYS'
p2635
S'y'
sS'kernel.sched_domain.cpu4.domain0.flags'
p2636
I4143
sS'kernel.keys.root_maxkeys'
p2637
I1000000
sS'kernel.sched_domain.cpu25.domain0.busy_idx'
p2638
I2
sS'CONFIG_POSIX_MQUEUE_SYSCTL'
p2639
S'y'
sS'fs.nr_open'
p2640
I1048576
sS'net.ipv6.conf.ens3.disable_policy'
p2641
I0
sS'CONFIG_IOMMU_SUPPORT'
p2642
S'y'
sS'kernel.sched_domain.cpu10.domain1.busy_idx'
p2643
I3
sS'net.ipv6.neigh.lo.delay_first_probe_time'
p2644
I5
sS'CONFIG_AMD_NUMA'
p2645
S'y'
sS'net.core.somaxconn'
p2646
I128
sS'CONFIG_AMIGA_PARTITION'
p2647
S'y'
sS'CONFIG_CONSOLE_LOGLEVEL_DEFAULT'
p2648
I7
sS'CONFIG_SQUASHFS_LZ4'
p2649
S'y'
sS'net.ipv6.conf.ens3.accept_ra_pinfo'
p2650
I1
sS'CONFIG_SCSI_CONSTANTS'
p2651
S'y'
sS'kernel.sched_domain.cpu17.domain0.max_newidle_lb_cost'
p2652
I85648
sS'CONFIG_CRYPTO_AES'
p2653
S'y'
sS'kernel.sched_domain.cpu19.domain0.imbalance_pct'
p2654
I125
sS'CONFIG_XZ_DEC_SPARC'
p2655
S'y'
sS'CONFIG_SECURITY_SELINUX_DEVELOP'
p2656
S'y'
sS'kernel.sched_domain.cpu28.domain1.wake_idx'
p2657
I0
sS'net.ipv4.conf.lo.mc_forwarding'
p2658
I0
sS'net.ipv4.tcp_keepalive_probes'
p2659
I9
sS'CONFIG_TREE_RCU'
p2660
S'y'
sS'vm.hugetlb_shm_group'
p2661
I0
sS'CONFIG_X86_TSC'
p2662
S'y'
sS'CONFIG_SECURITY_SELINUX_BOOTPARAM'
p2663
S'y'
sS'net.ipv6.flowlabel_state_ranges'
p2664
I0
sS'kernel.sched_domain.cpu15.domain1.newidle_idx'
p2665
I0
sS'CONFIG_X86_MCE_AMD'
p2666
S'y'
sg3
(lp2667
S'HostInfo'
p2668
ag6
aS'object'
p2669
asS'CONFIG_MICROCODE_AMD'
p2670
S'y'
sS'kernel.sched_domain.cpu25.domain0.idle_idx'
p2671
I1
sS'CONFIG_LIBNVDIMM'
p2672
S'y'
sS'kernel.random.read_wakeup_threshold'
p2673
I64
sS'kernel.sched_domain.cpu1.domain0.wake_idx'
p2674
I0
sS'kernel.sched_domain.cpu27.domain0.busy_idx'
p2675
I2
sS'CONFIG_RESET_CONTROLLER'
p2676
S'y'
sS'net.ipv4.tcp_no_metrics_save'
p2677
I0
sS'CONFIG_I2C_HELPER_AUTO'
p2678
S'y'
sS'CONFIG_JBD2'
p2679
S'y'
sS'kernel.sched_domain.cpu1.domain0.forkexec_idx'
p2680
I0
sS'kernel.sched_domain.cpu15.domain0.busy_factor'
p2681
I32
sS'CONFIG_PARTITION_ADVANCED'
p2682
S'y'
sS'CONFIG_EFI_STUB'
p2683
S'y'
sS'net.ipv6.neigh.ens3.mcast_resolicit'
p2684
I0
sS'net.ipv4.conf.all.arp_announce'
p2685
I0
sS'kernel.sched_domain.cpu29.domain1.busy_factor'
p2686
I32
sS'kernel.sched_domain.cpu24.domain1.idle_idx'
p2687
I2
sS'CONFIG_RTC_INTF_DEV'
p2688
S'y'
sS'CONFIG_EXT4_FS_POSIX_ACL'
p2689
S'y'
sS'CONFIG_SRCU'
p2690
S'y'
sS'CONFIG_SND_VMASTER'
p2691
S'y'
sS'CONFIG_INPUT_EVDEV'
p2692
S'y'
sS'net.ipv4.conf.all.arp_ignore'
p2693
I0
sS'kernel.sched_domain.cpu13.domain0.busy_idx'
p2694
I2
sS'CONFIG_GPIO_TPS6586X'
p2695
S'y'
sS'CONFIG_SECCOMP_FILTER'
p2696
S'y'
sS'kernel.sched_domain.cpu25.domain1.imbalance_pct'
p2697
I125
sS'kernel.sched_domain.cpu3.domain0.flags'
p2698
I4143
sS'kernel.sched_domain.cpu12.domain1.max_interval'
p2699
I60
sS'CONFIG_SERIO'
p2700
S'y'
sS'net.ipv6.conf.ens3.accept_ra_min_hop_limit'
p2701
I1
sS'CONFIG_ARCH_HAS_CACHE_LINE_SIZE'
p2702
S'y'
sS'CONFIG_SERIAL_8250_RUNTIME_UARTS'
p2703
I32
sS'CONFIG_FB_EFI'
p2704
S'y'
sS'CONFIG_MMU_NOTIFIER'
p2705
S'y'
sS'kernel.sched_domain.cpu29.domain0.max_newidle_lb_cost'
p2706
I100993
sS'CONFIG_ACPI_SYSTEM_POWER_STATES_SUPPORT'
p2707
S'y'
sS'CONFIG_SQUASHFS_LZO'
p2708
S'y'
sS'net.ipv4.tcp_stdurg'
p2709
I0
sS'CONFIG_SCSI_DH'
p2710
S'y'
sS'kernel.sched_domain.cpu19.domain0.forkexec_idx'
p2711
I0
sS'kernel.sched_domain.cpu4.domain1.name'
p2712
S'NUMA'
p2713
sS'kernel.unknown_nmi_panic'
p2714
I0
sS'CONFIG_NO_HZ_COMMON'
p2715
S'y'
sS'net.ipv4.conf.all.route_localnet'
p2716
I0
sS'kernel.seccomp.actions_logged'
p2717
S'kill_process kill_thread trap errno trace log'
p2718
sS'net.ipv6.conf.all.force_mld_version'
p2719
I0
sS'CONFIG_SECURITY_TOMOYO'
p2720
S'y'
sS'CONFIG_MSDOS_PARTITION'
p2721
S'y'
sS'kernel.sched_domain.cpu15.domain1.imbalance_pct'
p2722
I125
sS'vm.overcommit_kbytes'
p2723
I0
sS'net.ipv4.conf.all.drop_unicast_in_l2_multicast'
p2724
I0
sS'CONFIG_POWER_SUPPLY'
p2725
S'y'
sS'kernel.sched_domain.cpu2.domain0.cache_nice_tries'
p2726
I1
sS'CONFIG_DECOMPRESS_LZMA'
p2727
S'y'
sS'net.ipv6.conf.all.ndisc_notify'
p2728
I0
sS'kernel.sched_domain.cpu7.domain0.max_interval'
p2729
I20
sS'CONFIG_CALGARY_IOMMU'
p2730
S'y'
sS'net.ipv4.neigh.lo.unres_qlen'
p2731
I101
sS'CONFIG_IO_DELAY_TYPE_0X80'
p2732
I0
sS'CONFIG_SND_JACK'
p2733
S'y'
sS'CONFIG_DYNAMIC_DEBUG'
p2734
S'y'
sS'CONFIG_CRYPTO_HW'
p2735
S'y'
sS'kernel.printk_ratelimit_burst'
p2736
I10
sS'CONFIG_CRYPTO_SEQIV'
p2737
S'y'
sS'CONFIG_NET_VENDOR_OKI'
p2738
S'y'
sS'kernel.sched_domain.cpu3.domain0.busy_factor'
p2739
I32
sS'kernel.sched_domain.cpu4.domain0.min_interval'
p2740
I10
sS'CONFIG_DECOMPRESS_GZIP'
p2741
S'y'
sS'net.ipv6.conf.lo.accept_ra_mtu'
p2742
I1
sS'kernel.sched_domain.cpu16.domain0.flags'
p2743
I4143
sS'CONFIG_RAID6_PQ'
p2744
S'm'
sS'CONFIG_CFQ_GROUP_IOSCHED'
p2745
S'y'
sS'CONFIG_PARAVIRT_CLOCK'
p2746
S'y'
sS'fs.quota.reads'
p2747
I0
sS'kernel.sched_domain.cpu5.domain1.newidle_idx'
p2748
I0
sS'CONFIG_OID_REGISTRY'
p2749
S'y'
sS'net.ipv4.conf.lo.shared_media'
p2750
I1
sS'CONFIG_NLS'
p2751
S'y'
sS'kernel.sched_domain.cpu22.domain0.max_interval'
p2752
I20
sS'kernel.sched_domain.cpu1.domain1.flags'
p2753
I25647
sS'CONFIG_NODES_SHIFT'
p2754
I6
sS'CONFIG_ARCH_HAS_STRICT_MODULE_RWX'
p2755
S'y'
sS'net.ipv4.route.redirect_silence'
p2756
I5120
sS'CONFIG_SND_OSSEMUL'
p2757
S'y'
sS'CONFIG_CGROUP_FREEZER'
p2758
S'y'
sS'CONFIG_NET_VENDOR_CHELSIO'
p2759
S'y'
sS'CONFIG_FRAMEBUFFER_CONSOLE_DETECT_PRIMARY'
p2760
S'y'
sS'CONFIG_ASN1'
p2761
S'y'
sS'kernel.sched_domain.cpu24.domain1.max_interval'
p2762
I60
sS'CONFIG_PCIEASPM'
p2763
S'y'
sS'CONFIG_LDM_PARTITION'
p2764
S'y'
sS'CONFIG_CROSS_MEMORY_ATTACH'
p2765
S'y'
sS'CONFIG_COMPACTION'
p2766
S'y'
sS'kernel.io_delay_type'
p2767
I1
sS'CONFIG_HAVE_KRETPROBES'
p2768
S'y'
sS'CONFIG_MPLS'
p2769
S'y'
sS'CONFIG_CPU_IDLE_GOV_LADDER'
p2770
S'y'
sS'CONFIG_UNISYSSPAR'
p2771
S'y'
sS'CONFIG_X86_64_SMP'
p2772
S'y'
sS'net.ipv6.conf.all.autoconf'
p2773
I1
sS'CONFIG_CRC16'
p2774
S'y'
sS'CONFIG_CPU_FREQ_GOV_ONDEMAND'
p2775
S'y'
sS'CONFIG_CROSS_COMPILE'
p2776
S'""'
p2777
sS'CONFIG_ARCH_HAS_SET_MEMORY'
p2778
S'y'
sS'CONFIG_SYSCTL_SYSCALL'
p2779
S'y'
sS'net.ipv4.neigh.ens3.mcast_solicit'
p2780
I3
sS'CONFIG_PRINTK_SAFE_LOG_BUF_SHIFT'
p2781
I13
sS'CONFIG_NET_RX_BUSY_POLL'
p2782
S'y'
sS'CONFIG_GENERIC_TIME_VSYSCALL'
p2783
S'y'
sS'CONFIG_HARDLOCKUP_DETECTOR_PERF'
p2784
S'y'
sS'CONFIG_USB_PHY'
p2785
S'y'
sS'CONFIG_FUNCTION_PROFILER'
p2786
S'y'
sS'kernel.sched_domain.cpu14.domain0.max_newidle_lb_cost'
p2787
I14913
sS'CONFIG_RCU_NEED_SEGCBLIST'
p2788
S'y'
sS'kernel.sched_domain.cpu3.domain1.name'
p2789
S'NUMA'
p2790
sS'CONFIG_MULTIUSER'
p2791
S'y'
sS'net.ipv4.tcp_wmem'
p2792
S'4096\t16384\t4194304'
p2793
sS'kernel.sched_domain.cpu9.domain1.idle_idx'
p2794
I2
sS'CONFIG_VMAP_STACK'
p2795
S'y'
sS'kernel.sched_nr_migrate'
p2796
I32
sS'CONFIG_HAVE_KVM_MSI'
p2797
S'y'
sS'CONFIG_X86_PMEM_LEGACY'
p2798
S'y'
sS'net.core.bpf_jit_enable'
p2799
I0
sS'kernel.sched_domain.cpu1.domain1.busy_idx'
p2800
I3
sS'kernel.keys.root_maxbytes'
p2801
I25000000
sS'kernel.sched_domain.cpu25.domain0.max_newidle_lb_cost'
p2802
I12027
sS'CONFIG_NET_VENDOR_BROADCOM'
p2803
S'y'
sS'kernel.sched_domain.cpu24.domain0.min_interval'
p2804
I10
sS'kernel.pid_max'
p2805
I124928
sS'net.ipv4.conf.ens3.bootp_relay'
p2806
I0
sS'CONFIG_MICROCODE_OLD_INTERFACE'
p2807
S'y'
sS'kernel.cap_last_cap'
p2808
I37
sS'kernel.sched_domain.cpu17.domain1.flags'
p2809
I25647
sS'CONFIG_ARCH_USE_QUEUED_RWLOCKS'
p2810
S'y'
sS'CONFIG_ARCH_MIGHT_HAVE_PC_PARPORT'
p2811
S'y'
sS'net.ipv4.tcp_available_congestion_control'
p2812
S'cubic reno'
p2813
sS'kernel.sched_domain.cpu8.domain0.newidle_idx'
p2814
I0
sS'kernel.sched_domain.cpu13.domain1.cache_nice_tries'
p2815
I2
sS'kernel.sched_domain.cpu18.domain0.max_newidle_lb_cost'
p2816
I14505
sS'CONFIG_CRYPTO_CRC32C_INTEL'
p2817
S'y'
sS'CONFIG_ACPI_BATTERY'
p2818
S'y'
sS'kernel.sched_domain.cpu20.domain1.wake_idx'
p2819
I0
sS'CONFIG_ACPI_PROCESSOR_IDLE'
p2820
S'y'
sS'kernel.sched_domain.cpu13.domain0.flags'
p2821
I4143
sS'kernel.printk'
p2822
S'4\t4\t1\t7'
p2823
sS'CONFIG_PID_NS'
p2824
S'y'
sS'CONFIG_NETFILTER'
p2825
S'y'
sS'user.max_inotify_instances'
p2826
I1024
sS'CONFIG_ACPI_AC'
p2827
S'y'
sS'CONFIG_VM_EVENT_COUNTERS'
p2828
S'y'
sS'CONFIG_BINFMT_SCRIPT'
p2829
S'y'
sS'CONFIG_TMPFS_POSIX_ACL'
p2830
S'y'
sS'net.ipv6.conf.default.max_desync_factor'
p2831
I600
sS'CONFIG_DEFAULT_DEADLINE'
p2832
S'y'
sS'CONFIG_MFD_SEC_CORE'
p2833
S'y'
sS'kernel.sched_domain.cpu10.domain1.min_interval'
p2834
I30
sS'CONFIG_NET_VENDOR_QUALCOMM'
p2835
S'y'
sS'net.ipv4.igmp_max_memberships'
p2836
I20
sS'CONFIG_X86_REROUTE_FOR_BROKEN_BOOT_IRQS'
p2837
S'y'
sS'kernel.sched_domain.cpu18.domain1.max_interval'
p2838
I60
sS'net.ipv6.conf.lo.router_solicitation_interval'
p2839
I4
sS'CONFIG_MODULE_SIG_HASH'
p2840
S'"sha512"'
p2841
sS'net.ipv6.conf.lo.accept_ra_defrtr'
p2842
I1
sS'CONFIG_SOCK_CGROUP_DATA'
p2843
S'y'
sS'debug.exception-trace'
p2844
I1
sS'CONFIG_ACPI_NUMA'
p2845
S'y'
sS'CONFIG_SECURITY_SELINUX_AVC_STATS'
p2846
S'y'
sS'CONFIG_IMA_MEASURE_PCR_IDX'
p2847
I10
sS'CONFIG_MODULE_SRCVERSION_ALL'
p2848
S'y'
sS'CONFIG_X86'
p2849
S'y'
sS'CONFIG_CRC_T10DIF'
p2850
S'y'
sS'kernel.sched_domain.cpu4.domain1.min_interval'
p2851
I30
sS'net.ipv6.neigh.lo.locktime'
p2852
I0
sS'kernel.sched_domain.cpu27.domain1.imbalance_pct'
p2853
I125
sS'kernel.sched_domain.cpu21.domain1.flags'
p2854
I25647
sS'CONFIG_NET_VENDOR_DLINK'
p2855
S'y'
sS'net.ipv6.conf.all.router_solicitation_delay'
p2856
I1
sS'CONFIG_EARLY_PRINTK_DBGP'
p2857
S'y'
sS'CONFIG_CC_OPTIMIZE_FOR_PERFORMANCE'
p2858
S'y'
sS'kernel.sched_domain.cpu18.domain0.max_interval'
p2859
I20
sS'CONFIG_TREE_SRCU'
p2860
S'y'
sS'net.ipv4.tcp_rmem'
p2861
S'4096\t87380\t6291456'
p2862
sS'CONFIG_PCI_IOV'
p2863
S'y'
sS'CONFIG_ATA_PIIX'
p2864
S'y'
sS'kernel.sched_domain.cpu20.domain1.flags'
p2865
I25647
sS'CONFIG_CRYPTO_GF128MUL'
p2866
S'y'
sS'kernel.sched_domain.cpu1.domain0.max_newidle_lb_cost'
p2867
I100344
sS'kernel.sched_domain.cpu10.domain1.cache_nice_tries'
p2868
I2
sS'CONFIG_SND_HDA_INPUT_BEEP'
p2869
S'y'
sS'fs.epoll.max_user_watches'
p2870
I13505269
sS'CONFIG_SERIAL_8250'
p2871
S'y'
sS'net.ipv6.conf.default.temp_prefered_lft'
p2872
I86400
sS'CONFIG_IP_NF_IPTABLES'
p2873
S'm'
sS'kernel.sched_domain.cpu8.domain1.flags'
p2874
I25647
sS'kernel.sched_domain.cpu1.domain1.cache_nice_tries'
p2875
I2
sS'kernel.sched_domain.cpu17.domain1.busy_idx'
p2876
I3
sS'kernel.sched_domain.cpu28.domain1.busy_factor'
p2877
I32
sS'CONFIG_SND_X86'
p2878
S'y'
sS'kernel.sched_domain.cpu23.domain1.max_interval'
p2879
I60
sS'kernel.sched_domain.cpu29.domain0.flags'
p2880
I4143
sS'kernel.pty.nr'
p2881
I0
sS'kernel.sched_domain.cpu29.domain1.newidle_idx'
p2882
I0
sS'net.ipv6.conf.lo.accept_dad'
p2883
S'-1'
p2884
sS'net.ipv6.conf.ens3.router_solicitation_delay'
p2885
I1
sS'net.ipv6.conf.lo.mldv1_unsolicited_report_interval'
p2886
I10000
sS'CONFIG_HAVE_ARCH_KASAN'
p2887
S'y'
sS'net.ipv6.conf.ens3.router_solicitation_max_interval'
p2888
I3600
sS'kernel.sched_domain.cpu8.domain0.imbalance_pct'
p2889
I125
sS'net.ipv4.tcp_base_mss'
p2890
I1024
sS'CONFIG_HAVE_PERF_EVENTS_NMI'
p2891
S'y'
sS'CONFIG_ASYMMETRIC_KEY_TYPE'
p2892
S'y'
sS'CONFIG_MFD_WM8350'
p2893
S'y'
sS'kernel.sched_domain.cpu22.domain0.min_interval'
p2894
I10
sS'CONFIG_JUMP_LABEL'
p2895
S'y'
sS'kernel.sched_domain.cpu10.domain1.name'
p2896
S'NUMA'
p2897
sS'kernel.sched_domain.cpu9.domain0.max_interval'
p2898
I20
sS'CONFIG_FS_DAX'
p2899
S'y'
sS'net.ipv4.conf.default.bootp_relay'
p2900
I0
sS'kernel.sched_domain.cpu21.domain0.min_interval'
p2901
I10
sS'CONFIG_COREDUMP'
p2902
S'y'
sS'CONFIG_MFD_TPS65912'
p2903
S'y'
sS'kernel.sched_domain.cpu13.domain0.newidle_idx'
p2904
I0
sS'net.ipv6.neigh.lo.ucast_solicit'
p2905
I3
sS'kernel.sched_domain.cpu16.domain1.idle_idx'
p2906
I2
sS'kernel.core_uses_pid'
p2907
I0
sS'net.ipv6.conf.lo.drop_unicast_in_l2_multicast'
p2908
I0
sS'CONFIG_NET_FC'
p2909
S'y'
sS'net.ipv6.conf.default.router_solicitation_delay'
p2910
I1
sS'kernel.sched_domain.cpu24.domain1.imbalance_pct'
p2911
I125
sS'CONFIG_PCI_LOCKLESS_CONFIG'
p2912
S'y'
sS'net.ipv6.neigh.ens3.anycast_delay'
p2913
I100
sS'net.ipv4.conf.lo.drop_gratuitous_arp'
p2914
I0
sS'kernel.sched_domain.cpu4.domain1.newidle_idx'
p2915
I0
sS'net.ipv6.conf.ens3.mldv1_unsolicited_report_interval'
p2916
I10000
sS'net.ipv4.conf.lo.ignore_routes_with_linkdown'
p2917
I0
sS'CONFIG_NET_CORE'
p2918
S'y'
sS'kernel.panic_on_unrecovered_nmi'
p2919
I0
sS'CONFIG_HAVE_MEMORY_PRESENT'
p2920
S'y'
sS'net.ipv6.conf.default.keep_addr_on_down'
p2921
I0
sS'kernel.sched_domain.cpu4.domain0.max_newidle_lb_cost'
p2922
I90040
sS'CONFIG_X86_FEATURE_NAMES'
p2923
S'y'
sS'CONFIG_NOP_TRACER'
p2924
S'y'
sS'CONFIG_FUNCTION_TRACER'
p2925
S'y'
sS'CONFIG_CPU_FREQ_STAT'
p2926
S'y'
sS'net.ipv4.neigh.ens3.locktime'
p2927
I100
sS'kernel.sched_domain.cpu14.domain0.wake_idx'
p2928
I0
sS'net.ipv4.tcp_fwmark_accept'
p2929
I0
sS'net.ipv6.neigh.lo.unres_qlen_bytes'
p2930
I212992
sS'CONFIG_POSIX_TIMERS'
p2931
S'y'
sS'CONFIG_LWTUNNEL_BPF'
p2932
S'y'
sS'net.ipv4.tcp_early_retrans'
p2933
I3
sS'net.ipv4.conf.default.disable_xfrm'
p2934
I0
sS'kernel.sched_domain.cpu13.domain0.imbalance_pct'
p2935
I125
sS'CONFIG_PHYSICAL_START'
p2936
S'0x1000000'
p2937
sS'CONFIG_COMPAT_OLD_SIGACTION'
p2938
S'y'
sS'net.ipv6.conf.lo.router_probe_interval'
p2939
I60
sS'kernel.sched_domain.cpu23.domain1.busy_idx'
p2940
I3
sS'net.ipv6.conf.ens3.max_addresses'
p2941
I16
sS'CONFIG_PSTORE'
p2942
S'y'
sS'CONFIG_USER_STACKTRACE_SUPPORT'
p2943
S'y'
sS'net.ipv4.conf.all.accept_source_route'
p2944
I0
sS'CONFIG_I2C'
p2945
S'y'
sS'CONFIG_X86_PAT'
p2946
S'y'
sS'CONFIG_GENERIC_HWEIGHT'
p2947
S'y'
sS'kernel.sched_domain.cpu6.domain0.max_interval'
p2948
I20
sS'CONFIG_X86_CHECK_BIOS_CORRUPTION'
p2949
S'y'
sS'kernel.sched_domain.cpu24.domain1.wake_idx'
p2950
I0
sS'CONFIG_ARCH_HAS_SG_CHAIN'
p2951
S'y'
sS'CONFIG_ARCH_SUPPORTS_ATOMIC_RMW'
p2952
S'y'
sS'kernel.sched_domain.cpu26.domain0.max_newidle_lb_cost'
p2953
I121939
sS'net.ipv4.conf.ens3.shared_media'
p2954
I1
sS'CONFIG_RT_MUTEXES'
p2955
S'y'
sS'net.core.rmem_default'
p2956
I212992
sS'kernel.sched_domain.cpu24.domain1.forkexec_idx'
p2957
I0
sS'CONFIG_RFKILL_LEDS'
p2958
S'y'
sS'CONFIG_ARCH_USES_HIGH_VMA_FLAGS'
p2959
S'y'
sS'net.ipv4.conf.lo.drop_unicast_in_l2_multicast'
p2960
I0
sS'CONFIG_THIN_ARCHIVES'
p2961
S'y'
sS'kernel.sched_domain.cpu24.domain1.name'
p2962
S'NUMA'
p2963
sS'net.ipv6.conf.all.regen_max_retry'
p2964
I3
sS'net.ipv6.conf.all.accept_ra_defrtr'
p2965
I1
sS'kernel.sched_domain.cpu16.domain1.imbalance_pct'
p2966
I125
sS'net.ipv4.conf.all.arp_notify'
p2967
I0
sS'CONFIG_ARCH_DISCARD_MEMBLOCK'
p2968
S'y'
sS'CONFIG_VIRTIO_PCI'
p2969
S'y'
sS'kernel.kexec_load_disabled'
p2970
I0
sS'kernel.sched_domain.cpu0.domain1.busy_idx'
p2971
I3
sS'CONFIG_X86_64'
p2972
S'y'
sS'CONFIG_CRYPTO_MANAGER2'
p2973
S'y'
sS'CONFIG_NUMA'
p2974
S'y'
sS'fs.file-nr'
p2975
S'1442\t0\t6578986'
p2976
sS'CONFIG_OPROFILE_NMI_TIMER'
p2977
S'y'
sS'fs.quota.cache_hits'
p2978
I0
sS'CONFIG_X86_SMAP'
p2979
S'y'
sS'CONFIG_PANIC_TIMEOUT'
p2980
I0
sS'CONFIG_SLUB_CPU_PARTIAL'
p2981
S'y'
sS'kernel.sched_domain.cpu10.domain0.max_interval'
p2982
I20
sS'CONFIG_HAVE_MEMBLOCK_NODE_MAP'
p2983
S'y'
sS'kernel.sched_domain.cpu27.domain1.wake_idx'
p2984
I0
sS'CONFIG_CRYPTO_AEAD'
p2985
S'y'
sS'kernel.sched_domain.cpu12.domain0.newidle_idx'
p2986
I0
sS'CONFIG_ARCH_MAY_HAVE_PC_FDC'
p2987
S'y'
sS'kernel.sched_domain.cpu23.domain1.name'
p2988
S'NUMA'
p2989
sS'net.ipv6.neigh.default.mcast_resolicit'
p2990
I0
sS'kernel.tainted'
p2991
I0
sS'kernel.sched_domain.cpu22.domain0.newidle_idx'
p2992
I0
sS'CONFIG_REGULATOR_TPS65217'
p2993
S'y'
sS'CONFIG_HIBERNATE_CALLBACKS'
p2994
S'y'
sS'CONFIG_CLKBLD_I8253'
p2995
S'y'
sS'CONFIG_IPV6_SUBTREES'
p2996
S'y'
sS'kernel.sched_domain.cpu4.domain0.wake_idx'
p2997
I0
sS'kernel.sched_latency_ns'
p2998
I24000000
sS'kernel.sched_domain.cpu13.domain0.min_interval'
p2999
I10
sS'CONFIG_NAMESPACES'
p3000
S'y'
sS'CONFIG_BPF_JIT'
p3001
S'y'
sS'CONFIG_DEFAULT_CUBIC'
p3002
S'y'
sS'kernel.sched_domain.cpu29.domain1.max_interval'
p3003
I60
sS'kernel.numa_balancing'
p3004
I1
sS'kernel.hardlockup_panic'
p3005
I0
sS'CONFIG_MFD_TPS65912_SPI'
p3006
S'y'
sS'CONFIG_PROC_CHILDREN'
p3007
S'y'
sS'CONFIG_PHYS_ADDR_T_64BIT'
p3008
S'y'
sS'net.ipv6.conf.all.accept_ra_rt_info_min_plen'
p3009
I0
sS'CONFIG_GENERIC_PENDING_IRQ'
p3010
S'y'
sS'net.ipv4.neigh.ens3.ucast_solicit'
p3011
I3
sS'CONFIG_KDB_CONTINUE_CATASTROPHIC'
p3012
I0
sS'CONFIG_FB_BOOT_VESA_SUPPORT'
p3013
S'y'
sS'kernel.perf_event_max_contexts_per_stack'
p3014
I8
sS'CONFIG_DYNAMIC_FTRACE'
p3015
S'y'
sS'net.ipv6.conf.ens3.dad_transmits'
p3016
I1
sS'kernel.sched_domain.cpu10.domain0.flags'
p3017
I4143
sS'net.ipv6.conf.lo.mtu'
p3018
I65536
sS'kernel.sched_domain.cpu22.domain0.wake_idx'
p3019
I0
sS'net.ipv6.conf.ens3.router_solicitations'
p3020
S'-1'
p3021
sS'kernel.sched_domain.cpu29.domain1.forkexec_idx'
p3022
I0
sS'net.ipv6.conf.lo.keep_addr_on_down'
p3023
I0
sS'CONFIG_USB_EHCI_PCI'
p3024
S'y'
sS'CONFIG_KVM_ASYNC_PF'
p3025
S'y'
sS'net.ipv6.ip6frag_time'
p3026
I60
sS'net.ipv4.conf.all.log_martians'
p3027
I0
sS'fs.aio-max-nr'
p3028
I65536
sS'CONFIG_ARCH_SUPPORTS_INT128'
p3029
S'y'
sS'CONFIG_SECURITY'
p3030
S'y'
sS'CONFIG_SPI'
p3031
S'y'
sS'net.ipv4.tcp_orphan_retries'
p3032
I0
sS'net.ipv4.tcp_fin_timeout'
p3033
I60
sS'CONFIG_IDLE_PAGE_TRACKING'
p3034
S'y'
sS'CONFIG_CRYPTO_CRYPTD'
p3035
S'm'
sS'CONFIG_DEVPORT'
p3036
S'y'
sS'kernel.sched_domain.cpu21.domain1.busy_idx'
p3037
I3
sS'CONFIG_MODULE_SIG'
p3038
S'y'
sS'net.ipv6.conf.default.drop_unsolicited_na'
p3039
I0
sS'CONFIG_ARCH_PROC_KCORE_TEXT'
p3040
S'y'
sS'CONFIG_SPARSEMEM_VMEMMAP_ENABLE'
p3041
S'y'
sS'net.ipv4.tcp_recovery'
p3042
I1
sS'kernel.sched_domain.cpu24.domain0.busy_factor'
p3043
I32
sS'CONFIG_NET_CADENCE'
p3044
S'y'
sS'CONFIG_PCIEAER'
p3045
S'y'
sS'kernel.sched_domain.cpu9.domain1.busy_factor'
p3046
I32
sS'kernel.sched_domain.cpu25.domain1.min_interval'
p3047
I30
sS'kernel.sched_domain.cpu12.domain0.max_newidle_lb_cost'
p3048
I141181
sS'CONFIG_SERIAL_8250_NR_UARTS'
p3049
I48
sS'net.ipv6.conf.ens3.forwarding'
p3050
I0
sS'CONFIG_NET_VENDOR_MYRI'
p3051
S'y'
sS'CONFIG_ARCH_SUPPORTS_NUMA_BALANCING'
p3052
S'y'
sS'kernel.sched_domain.cpu24.domain0.flags'
p3053
I4143
sS'net.ipv4.neigh.ens3.anycast_delay'
p3054
I100
sS'CONFIG_SND_PCM'
p3055
S'm'
sS'net.ipv6.conf.default.mldv1_unsolicited_report_interval'
p3056
I10000
sS'kernel.sched_domain.cpu29.domain0.idle_idx'
p3057
I1
sS'CONFIG_ARCH_HAS_STRICT_KERNEL_RWX'
p3058
S'y'
sS'CONFIG_TWL6040_CORE'
p3059
S'y'
sS'net.ipv4.tcp_sack'
p3060
I1
sS'CONFIG_BLK_DEV_MD'
p3061
S'y'
sS'kernel.panic_on_rcu_stall'
p3062
I0
sS'net.ipv6.conf.ens3.mtu'
p3063
I1500
sS'CONFIG_IOMMU_HELPER'
p3064
S'y'
sS'kernel.ns_last_pid'
p3065
I78844
sS'kernel.sched_domain.cpu29.domain0.forkexec_idx'
p3066
I0
sS'CONFIG_RWSEM_XCHGADD_ALGORITHM'
p3067
S'y'
sS'CONFIG_HAVE_KERNEL_GZIP'
p3068
S'y'
sS'CONFIG_MEGARAID_NEWGEN'
p3069
S'y'
sS'vm.overcommit_ratio'
p3070
I50
sS'CONFIG_MFD_TPS65217'
p3071
S'y'
sS'kernel.sched_domain.cpu8.domain1.idle_idx'
p3072
I2
sS'kernel.sched_domain.cpu16.domain0.wake_idx'
p3073
I0
sS'CONFIG_ENCRYPTED_KEYS'
p3074
S'y'
sS'kernel.sched_domain.cpu11.domain0.name'
p3075
S'DIE'
p3076
sS'net.ipv6.neigh.ens3.retrans_time_ms'
p3077
I1000
sS'CONFIG_ACPI_PROCESSOR_CSTATE'
p3078
S'y'
sS'CONFIG_BLK_DEBUG_FS'
p3079
S'y'
sS'CONFIG_IPV6_PIMSM_V2'
p3080
S'y'
sS'CONFIG_INITRAMFS_SOURCE'
p3081
S'""'
p3082
sS'kernel.sched_domain.cpu5.domain0.forkexec_idx'
p3083
I0
sS'CONFIG_NET_VENDOR_TI'
p3084
S'y'
sS'CONFIG_HPET_MMAP_DEFAULT'
p3085
S'y'
sS'CONFIG_PROCESSOR_SELECT'
p3086
S'y'
sS'CONFIG_MQ_IOSCHED_KYBER'
p3087
S'y'
sS'user.max_cgroup_namespaces'
p3088
I257592
sS'dev.scsi.logging_level'
p3089
I0
sS'CONFIG_SLHC'
p3090
S'y'
sS'CONFIG_PREVENT_FIRMWARE_BUILD'
p3091
S'y'
sS'net.ipv4.conf.default.accept_redirects'
p3092
I1
sS'CONFIG_PWM_CRC'
p3093
S'y'
sS'CONFIG_ARCH_MMAP_RND_COMPAT_BITS_MIN'
p3094
I8
sS'kernel.hung_task_panic'
p3095
I0
sS'net.ipv4.tcp_retrans_collapse'
p3096
I1
sS'CONFIG_HAVE_KPROBES_ON_FTRACE'
p3097
S'y'
sS'fs.quota.writes'
p3098
I0
sS'CONFIG_ARCH_WANT_HUGE_PMD_SHARE'
p3099
S'y'
sS'kernel.sched_domain.cpu2.domain0.flags'
p3100
I4143
sS'CONFIG_PROC_VMCORE'
p3101
S'y'
sS'CONFIG_GDB_SCRIPTS'
p3102
S'y'
sS'kernel.sched_domain.cpu7.domain0.wake_idx'
p3103
I0
sS'CONFIG_HAVE_CMPXCHG_DOUBLE'
p3104
S'y'
sS'CONFIG_ARCH_SUPPORTS_UPROBES'
p3105
S'y'
sS'CONFIG_FB_CFB_COPYAREA'
p3106
S'y'
sS'CONFIG_GENERIC_NET_UTILS'
p3107
S'y'
sS'CONFIG_SLAB_MERGE_DEFAULT'
p3108
S'y'
sS'kernel.sched_domain.cpu5.domain1.imbalance_pct'
p3109
I125
sS'CONFIG_MODULES'
p3110
S'y'
sS'CONFIG_PCI_DOMAINS'
p3111
S'y'
sS'CONFIG_HAVE_MMIOTRACE_SUPPORT'
p3112
S'y'
sS'CONFIG_WLAN_VENDOR_TI'
p3113
S'y'
sS'CONFIG_ARCH_CLOCKSOURCE_DATA'
p3114
S'y'
sS'kernel.sched_domain.cpu9.domain0.max_newidle_lb_cost'
p3115
I11939
sS'vm.dirty_background_bytes'
p3116
I0
sS'kernel.hardlockup_all_cpu_backtrace'
p3117
I0
sS'net.ipv6.conf.ens3.accept_source_route'
p3118
I0
sS'net.ipv6.conf.default.router_solicitation_max_interval'
p3119
I3600
sS'CONFIG_MFD_LP8788'
p3120
S'y'
sS'CONFIG_FRONTSWAP'
p3121
S'y'
sS'CONFIG_NET_VENDOR_EMULEX'
p3122
S'y'
sS'kernel.watchdog'
p3123
I1
sS'kernel.sched_domain.cpu19.domain1.cache_nice_tries'
p3124
I2
sS'CONFIG_HYPERVISOR_GUEST'
p3125
S'y'
sS'CONFIG_GART_IOMMU'
p3126
S'y'
sS'kernel.sched_domain.cpu2.domain1.newidle_idx'
p3127
I0
sS'net.ipv4.udp_mem'
p3128
S'1537185\t2049582\t3074370'
p3129
sS'net.ipv6.conf.ens3.max_desync_factor'
p3130
I600
sS'net.ipv4.icmp_ratelimit'
p3131
I1000
sS'CONFIG_ALLOW_DEV_COREDUMP'
p3132
S'y'
sS'CONFIG_X86_PCC_CPUFREQ'
p3133
S'y'
sS'net.ipv4.neigh.lo.app_solicit'
p3134
I0
sS'CONFIG_ARCH_USES_PG_UNCACHED'
p3135
S'y'
sS'CONFIG_UEVENT_HELPER'
p3136
S'y'
sS'CONFIG_IMA_DEFAULT_HASH_SHA1'
p3137
S'y'
sS'kernel.sched_domain.cpu26.domain1.wake_idx'
p3138
I0
sS'net.ipv6.conf.all.use_oif_addrs_only'
p3139
I0
sS'kernel.sched_tunable_scaling'
p3140
I1
sS'CONFIG_RD_LZMA'
p3141
S'y'
sS'kernel.sched_domain.cpu11.domain0.wake_idx'
p3142
I0
sS'CONFIG_PCI_REALLOC_ENABLE_AUTO'
p3143
S'y'
sS'net.ipv6.conf.lo.mc_forwarding'
p3144
I0
sS'CONFIG_WLAN_VENDOR_ATH'
p3145
S'y'
sS'CONFIG_PM_ADVANCED_DEBUG'
p3146
S'y'
sS'kernel.bootloader_version'
p3147
I2
sS'kernel.sched_domain.cpu13.domain0.max_interval'
p3148
I20
sS'CONFIG_ARCH_MMAP_RND_COMPAT_BITS'
p3149
I8
sS'CONFIG_THERMAL_GOV_USER_SPACE'
p3150
S'y'
sS'kernel.sched_domain.cpu26.domain0.newidle_idx'
p3151
I0
sS'net.ipv6.calipso_cache_enable'
p3152
I1
sS'fs.mount-max'
p3153
I100000
sS'net.ipv6.conf.all.force_tllao'
p3154
I0
sS'CONFIG_USERFAULTFD'
p3155
S'y'
sS'CONFIG_CHELSIO_T4'
p3156
S'm'
sS'kernel.sched_schedstats'
p3157
I0
sS'CONFIG_ACPI_BGRT'
p3158
S'y'
sS'net.ipv4.neigh.default.gc_thresh1'
p3159
I128
sS'net.ipv4.neigh.default.gc_thresh2'
p3160
I512
sS'net.ipv4.neigh.default.gc_thresh3'
p3161
I1024
sS'kernel.sched_domain.cpu23.domain0.forkexec_idx'
p3162
I0
sS'CONFIG_LZO_COMPRESS'
p3163
S'y'
sS'CONFIG_MOUSE_PS2_FOCALTECH'
p3164
S'y'
sS'net.ipv4.fwmark_reflect'
p3165
I0
sS'CONFIG_IMA'
p3166
S'y'
sS'CONFIG_CPU_IDLE_GOV_MENU'
p3167
S'y'
sS'vm.dirty_background_ratio'
p3168
I10
sS'kernel.sched_domain.cpu27.domain0.imbalance_pct'
p3169
I125
sS'CONFIG_SCHED_OMIT_FRAME_POINTER'
p3170
S'y'
sS'kernel.hostname'
p3171
S'nestedvm'
p3172
sS'CONFIG_PINCTRL_AMD'
p3173
S'y'
sS'CONFIG_UIO'
p3174
S'm'
sS'net.ipv4.conf.ens3.drop_unicast_in_l2_multicast'
p3175
I0
sS'net.ipv4.conf.lo.proxy_arp_pvlan'
p3176
I0
sS'CONFIG_DDR'
p3177
S'y'
sS'net.ipv4.conf.lo.promote_secondaries'
p3178
I0
sS'CONFIG_SECTION_MISMATCH_WARN_ONLY'
p3179
S'y'
sS'CONFIG_SRAM'
p3180
S'y'
sS'CONFIG_ARCH_HAVE_NMI_SAFE_CMPXCHG'
p3181
S'y'
sS'vm.min_free_kbytes'
p3182
I225280
sS'kernel.sched_domain.cpu25.domain1.newidle_idx'
p3183
I0
sS'CONFIG_RING_BUFFER'
p3184
S'y'
sS'kernel.sched_domain.cpu21.domain1.max_interval'
p3185
I60
sS'net.ipv4.route.min_pmtu'
p3186
I552
sS'CONFIG_HAVE_ARCH_SOFT_DIRTY'
p3187
S'y'
sS'kernel.perf_cpu_time_max_percent'
p3188
I25
sS'kernel.sched_domain.cpu25.domain1.flags'
p3189
I25647
sS'kernel.sched_domain.cpu10.domain0.min_interval'
p3190
I10
sS'CONFIG_PROC_KCORE'
p3191
S'y'
sS'vm.zone_reclaim_mode'
p3192
I0
sS'dev.raid.speed_limit_min'
p3193
I1000
sS'kernel.sched_domain.cpu8.domain1.max_newidle_lb_cost'
p3194
I58652
sS'CONFIG_SECURITY_TOMOYO_MAX_ACCEPT_ENTRY'
p3195
I2048
sS'net.ipv4.route.gc_min_interval'
p3196
I0
sS'CONFIG_MAGIC_SYSRQ_DEFAULT_ENABLE'
p3197
S'0x1'
p3198
sS'CONFIG_DEVTMPFS_MOUNT'
p3199
S'y'
sS'kernel.sched_domain.cpu16.domain1.busy_idx'
p3200
I3
sS'kernel.sched_domain.cpu4.domain1.wake_idx'
p3201
I0
sS'CONFIG_USB_DWC2'
p3202
S'y'
sS'kernel.sched_domain.cpu15.domain0.name'
p3203
S'DIE'
p3204
sS'kernel.sched_domain.cpu18.domain1.cache_nice_tries'
p3205
I2
sS'net.ipv4.fib_multipath_use_neigh'
p3206
I0
sS'net.ipv4.icmp_msgs_per_sec'
p3207
I1000
sS'kernel.sched_domain.cpu15.domain0.idle_idx'
p3208
I1
sS'net.ipv4.tcp_retries1'
p3209
I3
sS'net.ipv4.tcp_retries2'
p3210
I15
sS'CONFIG_SECURITY_APPARMOR_HASH'
p3211
S'y'
sS'CONFIG_PGTABLE_LEVELS'
p3212
I4
sS'kernel.sched_domain.cpu26.domain1.imbalance_pct'
p3213
I125
sS'CONFIG_NET_VENDOR_ALACRITECH'
p3214
S'y'
sS'CONFIG_KPROBES_ON_FTRACE'
p3215
S'y'
sS'kernel.sched_domain.cpu5.domain1.idle_idx'
p3216
I2
sS'CONFIG_ARCH_MEMORY_PROBE'
p3217
S'y'
sS'CONFIG_GPIO_ACPI'
p3218
S'y'
sS'kernel.sched_domain.cpu25.domain0.imbalance_pct'
p3219
I125
sS'CONFIG_RELAY'
p3220
S'y'
sS'kernel.sched_domain.cpu29.domain1.min_interval'
p3221
I30
sS'kernel.sched_domain.cpu7.domain1.forkexec_idx'
p3222
I0
sS'kernel.sched_domain.cpu1.domain1.max_interval'
p3223
I60
sS'kernel.domainname'
p3224
S'(none)'
p3225
sS'dev.raid.speed_limit_max'
p3226
I200000
sS'CONFIG_FB_ASILIANT'
p3227
S'y'
sS'CONFIG_SYSV68_PARTITION'
p3228
S'y'
sS'CONFIG_HAVE_FTRACE_MCOUNT_RECORD'
p3229
S'y'
sS'CONFIG_XZ_DEC_ARMTHUMB'
p3230
S'y'
sS'CONFIG_VGA_ARB'
p3231
S'y'
sS'CONFIG_INTEGRITY_TRUSTED_KEYRING'
p3232
S'y'
sS'CONFIG_HW_CONSOLE'
p3233
S'y'
sS'CONFIG_MFD_TPS65910'
p3234
S'y'
sS'net.ipv4.igmp_max_msf'
p3235
I10
sS'vm.percpu_pagelist_fraction'
p3236
I0
sS'net.ipv4.conf.all.disable_xfrm'
p3237
I0
sS'kernel.sched_domain.cpu29.domain0.imbalance_pct'
p3238
I125
sS'CONFIG_PM_SLEEP_DEBUG'
p3239
S'y'
sS'CONFIG_INLINE_WRITE_UNLOCK_IRQ'
p3240
S'y'
sS'CONFIG_NET_VENDOR_RDC'
p3241
S'y'
sS'CONFIG_MFD_MAX8925'
p3242
S'y'
sS'CONFIG_XZ_DEC_X86'
p3243
S'y'
sS'CONFIG_X86_X32'
p3244
S'y'
sS'vm.vfs_cache_pressure'
p3245
I100
sS'kernel.msg_next_id'
p3246
S'-1'
p3247
sS'net.ipv4.tcp_allowed_congestion_control'
p3248
S'cubic reno'
p3249
sS'kernel.sched_wakeup_granularity_ns'
p3250
I4000000
sS'net.ipv4.neigh.ens3.mcast_resolicit'
p3251
I0
sS'net.ipv6.conf.lo.disable_policy'
p3252
I0
sS'net.ipv6.conf.lo.addr_gen_mode'
p3253
I0
sS'CONFIG_X86_SPEEDSTEP_CENTRINO'
p3254
S'y'
sS'net.ipv4.route.gc_elasticity'
p3255
I8
sS'kernel.sched_domain.cpu28.domain0.wake_idx'
p3256
I0
sS'CONFIG_HAVE_PCSPKR_PLATFORM'
p3257
S'y'
sS'kernel.sched_domain.cpu23.domain0.max_interval'
p3258
I20
sS'net.ipv4.tcp_syncookies'
p3259
I1
sS'CONFIG_ARCH_WANTS_THP_SWAP'
p3260
S'y'
sS'kernel.sched_domain.cpu24.domain1.cache_nice_tries'
p3261
I2
sS'net.ipv6.neigh.lo.mcast_solicit'
p3262
I3
sS'CONFIG_IO_DELAY_TYPE_NONE'
p3263
I3
sS'kernel.sched_domain.cpu0.domain0.busy_factor'
p3264
I32
sS'kernel.sched_domain.cpu25.domain0.min_interval'
p3265
I10
sS'CONFIG_EARLY_PRINTK_EFI'
p3266
S'y'
sS'CONFIG_PROBE_EVENTS'
p3267
S'y'
sS'CONFIG_WLAN_VENDOR_CISCO'
p3268
S'y'
sS'CONFIG_USB_DWC2_HOST'
p3269
S'y'
sS'kernel.sched_domain.cpu27.domain0.idle_idx'
p3270
I1
sS'CONFIG_FRAMEBUFFER_CONSOLE_ROTATION'
p3271
S'y'
sS'CONFIG_PROC_EVENTS'
p3272
S'y'
sS'kernel.sched_domain.cpu1.domain1.idle_idx'
p3273
I2
sS'kernel.sched_domain.cpu14.domain0.newidle_idx'
p3274
I0
sS'net.core.tstamp_allow_data'
p3275
I1
sS'kernel.sched_domain.cpu18.domain0.wake_idx'
p3276
I0
sS'kernel.sched_domain.cpu0.domain1.wake_idx'
p3277
I0
sS'CONFIG_LOCALVERSION'
p3278
S'""'
p3279
sS'CONFIG_PWM'
p3280
S'y'
sS'net.unix.max_dgram_qlen'
p3281
I512
sS'kernel.sched_domain.cpu10.domain1.forkexec_idx'
p3282
I0
sS'CONFIG_TTY_PRINTK'
p3283
S'y'
sS'kernel.ctrl-alt-del'
p3284
I0
sS'kernel.sched_domain.cpu2.domain1.max_newidle_lb_cost'
p3285
I9908
sS'net.ipv4.conf.default.rp_filter'
p3286
I1
sS'kernel.sched_domain.cpu3.domain0.imbalance_pct'
p3287
I125
sS'kernel.sched_domain.cpu15.domain1.max_interval'
p3288
I60
sS'CONFIG_CRC32_SLICEBY8'
p3289
S'y'
sS'CONFIG_REGMAP_SPI'
p3290
S'y'
sS'CONFIG_PINMUX'
p3291
S'y'
sS'net.ipv4.conf.lo.force_igmp_version'
p3292
I0
sS'CONFIG_INTEL_IOMMU_SVM'
p3293
S'y'
sS'kernel.sched_domain.cpu13.domain1.busy_idx'
p3294
I3
sS'CONFIG_TRACE_CLOCK'
p3295
S'y'
sS'kernel.sched_domain.cpu21.domain1.forkexec_idx'
p3296
I0
sS'net.ipv4.conf.all.send_redirects'
p3297
I1
sg10
g11
sS'kernel.sched_domain.cpu15.domain1.min_interval'
p3298
I30
sS'CONFIG_NET_VENDOR_CISCO'
p3299
S'y'
sS'CONFIG_BASE_FULL'
p3300
S'y'
sS'CONFIG_STP'
p3301
S'm'
sS'net.ipv4.conf.all.rp_filter'
p3302
I1
sS'kernel.sched_domain.cpu4.domain1.imbalance_pct'
p3303
I125
sS'CONFIG_ATA'
p3304
S'y'
sS'CONFIG_EVM_ATTR_FSUUID'
p3305
S'y'
sS'CONFIG_CRYPTO_GLUE_HELPER_X86'
p3306
S'm'
sS'net.ipv4.ip_early_demux'
p3307
I1
sS'CONFIG_BOOTPARAM_HARDLOCKUP_PANIC_VALUE'
p3308
I0
sS'CONFIG_SYSTEM_EXTRA_CERTIFICATE'
p3309
S'y'
sS'kernel.sched_domain.cpu5.domain1.busy_idx'
p3310
I3
sS'CONFIG_SYSTEM_TRUSTED_KEYS'
p3311
S'""'
p3312
sS'kernel.tracepoint_printk'
p3313
I0
sS'net.ipv6.conf.lo.router_solicitation_delay'
p3314
I1
sS'CONFIG_HOTPLUG_PCI'
p3315
S'y'
sS'kernel.sched_domain.cpu0.domain0.min_interval'
p3316
I10
sS'CONFIG_SERIAL_MAX310X'
p3317
S'y'
sS'kernel.sched_domain.cpu0.domain0.idle_idx'
p3318
I1
sS'CONFIG_PNPACPI'
p3319
S'y'
sS'CONFIG_EDAC'
p3320
S'y'
sS'CONFIG_INPUT_TOUCHSCREEN'
p3321
S'y'
sS'CONFIG_NLS_CODEPAGE_437'
p3322
S'y'
sS'vm.numa_zonelist_order'
p3323
S'Node'
p3324
sS'kernel.sched_domain.cpu11.domain0.cache_nice_tries'
p3325
I1
sS'CONFIG_FANOTIFY'
p3326
S'y'
sS'kernel.sched_domain.cpu12.domain1.min_interval'
p3327
I30
sS'vm.memory_failure_recovery'
p3328
I1
sS'CONFIG_ACPI_HED'
p3329
S'y'
sS'kernel.sched_domain.cpu25.domain1.busy_factor'
p3330
I32
sS'net.ipv6.neigh.lo.unres_qlen'
p3331
I101
sS'CONFIG_X86_AMD_PLATFORM_DEVICE'
p3332
S'y'
sS'kernel.sched_domain.cpu27.domain0.cache_nice_tries'
p3333
I1
sS'CONFIG_FONT_8x16'
p3334
S'y'
sS'net.ipv6.mld_max_msf'
p3335
I64
sS'net.ipv4.neigh.default.proxy_delay'
p3336
I80
sS'kernel.sched_domain.cpu14.domain1.imbalance_pct'
p3337
I125
sS'kernel.seccomp.actions_avail'
p3338
S'kill_process kill_thread trap errno trace log allow'
p3339
sS'CONFIG_USB_XHCI_PCI'
p3340
S'y'
sS'kernel.numa_balancing_scan_period_min_ms'
p3341
I1000
sS'kernel.sched_domain.cpu18.domain0.flags'
p3342
I4143
sS'kernel.sched_domain.cpu12.domain1.cache_nice_tries'
p3343
I2
sS'kernel.sched_domain.cpu17.domain0.busy_idx'
p3344
I2
sS'CONFIG_NET_VENDOR_SUN'
p3345
S'y'
sS'CONFIG_KERNEL_GZIP'
p3346
S'y'
sS'kernel.sched_domain.cpu13.domain0.max_newidle_lb_cost'
p3347
I56751
sS'net.ipv6.conf.default.ndisc_notify'
p3348
I0
sS'CONFIG_SOUND_OSS_CORE'
p3349
S'y'
sS'CONFIG_DEFAULT_SECURITY'
p3350
S'"apparmor"'
p3351
sS'kernel.sched_domain.cpu3.domain1.busy_idx'
p3352
I3
sS'net.ipv4.conf.ens3.route_localnet'
p3353
I0
sS'net.ipv6.conf.all.accept_redirects'
p3354
I1
sS'net.ipv4.conf.default.igmpv3_unsolicited_report_interval'
p3355
I1000
sS'kernel.sched_domain.cpu9.domain1.wake_idx'
p3356
I0
sS'net.core.warnings'
p3357
I0
sS'CONFIG_HPET_TIMER'
p3358
S'y'
sS'net.ipv6.conf.default.accept_source_route'
p3359
I0
sS'kernel.sched_domain.cpu7.domain1.busy_factor'
p3360
I32
sS'kernel.sched_domain.cpu15.domain0.wake_idx'
p3361
I0
sS'kernel.sched_domain.cpu13.domain1.flags'
p3362
I25647
sS'kernel.sched_domain.cpu7.domain1.name'
p3363
S'NUMA'
p3364
sS'net.ipv6.conf.lo.mldv2_unsolicited_report_interval'
p3365
I1000
sS'kernel.sched_domain.cpu28.domain1.imbalance_pct'
p3366
I125
sS'kernel.sched_domain.cpu29.domain0.cache_nice_tries'
p3367
I1
sS'CONFIG_SECURITY_NETWORK'
p3368
S'y'
sS'CONFIG_RAPIDIO'
p3369
S'y'
sS'kernel.sched_domain.cpu21.domain0.flags'
p3370
I4143
sS'CONFIG_TRACER_SNAPSHOT'
p3371
S'y'
sS'net.core.message_cost'
p3372
I5
sS'net.ipv6.conf.all.router_solicitation_interval'
p3373
I4
sS'net.ipv6.neigh.lo.retrans_time_ms'
p3374
I1000
sS'vm.stat_interval'
p3375
I1
sS'CONFIG_CGROUP_CPUACCT'
p3376
S'y'
sS'CONFIG_INPUT_JOYSTICK'
p3377
S'y'
sS'net.ipv4.conf.all.igmpv2_unsolicited_report_interval'
p3378
I10000
sS'net.ipv4.conf.all.accept_local'
p3379
I0
sS'CONFIG_I8253_LOCK'
p3380
S'y'
sS'CONFIG_MAC_EMUMOUSEBTN'
p3381
S'm'
sS'CONFIG_HIBERNATION'
p3382
S'y'
sS'kernel.sched_domain.cpu19.domain1.imbalance_pct'
p3383
I125
sS'CONFIG_XPS'
p3384
S'y'
sS'kernel.sched_domain.cpu6.domain1.idle_idx'
p3385
I2
sS'CONFIG_SND_JACK_INPUT_DEV'
p3386
S'y'
sS'CONFIG_INPUT_MOUSE'
p3387
S'y'
sS'kernel.sched_domain.cpu7.domain1.wake_idx'
p3388
I0
sS'CONFIG_IMA_TRUSTED_KEYRING'
p3389
S'y'
sS'CONFIG_MFD_WM8350_I2C'
p3390
S'y'
sS'net.ipv6.neigh.default.delay_first_probe_time'
p3391
I5
sS'CONFIG_CRYPTO_MD5'
p3392
S'y'
sS'kernel.sched_domain.cpu3.domain0.name'
p3393
S'DIE'
p3394
sS'kernel.sched_domain.cpu14.domain1.flags'
p3395
I25647
sS'kernel.sched_domain.cpu24.domain1.busy_idx'
p3396
I3
sS'CONFIG_USB_SUPPORT'
p3397
S'y'
sS'CONFIG_IOSF_MBI_DEBUG'
p3398
S'y'
sS'fs.leases-enable'
p3399
I1
sS'kernel.sched_domain.cpu28.domain0.forkexec_idx'
p3400
I0
sS'net.ipv6.conf.all.temp_prefered_lft'
p3401
I86400
sS'CONFIG_GENERIC_IO'
p3402
S'y'
sS'kernel.sched_domain.cpu22.domain1.busy_factor'
p3403
I32
sS'CONFIG_64BIT'
p3404
S'y'
sS'CONFIG_HAVE_IRQ_TIME_ACCOUNTING'
p3405
S'y'
sS'kernel.sched_domain.cpu4.domain0.cache_nice_tries'
p3406
I1
sS'CONFIG_AUDIT_ARCH'
p3407
S'y'
sS'fs.aio-nr'
p3408
I0
sS'CONFIG_THERMAL_HWMON'
p3409
S'y'
sS'kernel.sched_domain.cpu0.domain1.max_newidle_lb_cost'
p3410
I15159
sS'kernel.watchdog_thresh'
p3411
I10
sS'CONFIG_HZ'
p3412
I250
sS'CONFIG_X86_DEBUG_FPU'
p3413
S'y'
sS'CONFIG_MPILIB'
p3414
S'y'
sS'CONFIG_INTEGRITY_AUDIT'
p3415
S'y'
sS'CONFIG_GPIO_SYSFS'
p3416
S'y'
sS'CONFIG_KEXEC_CORE'
p3417
S'y'
sS'kernel.sched_domain.cpu6.domain1.imbalance_pct'
p3418
I125
sS'CONFIG_EFI'
p3419
S'y'
sS'kernel.sched_domain.cpu22.domain1.wake_idx'
p3420
I0
sS'CONFIG_NET_VENDOR_SMSC'
p3421
S'y'
sS'kernel.sched_domain.cpu0.domain1.idle_idx'
p3422
I2
sS'kernel.sched_domain.cpu25.domain1.cache_nice_tries'
p3423
I2
sS'CONFIG_KEYS'
p3424
S'y'
sS'kernel.sched_domain.cpu6.domain1.min_interval'
p3425
I30
sS'kernel.sched_domain.cpu2.domain1.min_interval'
p3426
I30
sS'CONFIG_KVM_VFIO'
p3427
S'y'
sS'net.ipv4.conf.lo.disable_policy'
p3428
I1
sS'kernel.sched_domain.cpu1.domain0.imbalance_pct'
p3429
I125
sS'CONFIG_MEMORY_HOTREMOVE'
p3430
S'y'
sS'CONFIG_SECURITY_TOMOYO_POLICY_LOADER'
p3431
S'"/sbin/tomoyo-init"'
p3432
sS'CONFIG_BINFMT_ELF'
p3433
S'y'
sS'net.ipv4.tcp_rfc1337'
p3434
I0
sS'kernel.sysrq'
p3435
I176
sS'CONFIG_TASK_IO_ACCOUNTING'
p3436
S'y'
sS'CONFIG_SATA_PMP'
p3437
S'y'
sS'net.ipv6.conf.lo.router_solicitation_max_interval'
p3438
I3600
sa(dp3439
g10
g11
sS'fstype'
p3440
S'tmpfs-separate'
p3441
sg3
(lp3442
S'FileSystem'
p3443
ag6
ag14
aS'object'
p3444
asg8
S'FileSystem.host-192.168.123.30.fstype-tmpfs-separate'
p3445
sa(dp3446
S'topDir'
p3447
S'~/vm-scalability/bench/tmp/linux-3.18'
p3448
sS'excludes'
p3449
(lp3450
S'*/.git'
p3451
asg10
g11
sg3
(lp3452
S'PrefetchDir'
p3453
ag6
ag14
aS'object'
p3454
asg8
S'PrefetchDir.topDir-~/vm-scalability/bench/tmp/linux-3.18.host-192.168.123.30'
p3455
sa(dp3456
g8
S'SetCPUs.host-192.168.123.30'
p3457
sS'seq'
p3458
g3458
sg10
g11
sS'hotplug'
p3459
I01
sg3
(lp3460
S'SetCPUs'
p3461
ag6
ag14
aS'object'
p3462
asS'num'
p3463
I30
sa(dp3464
g10
g11
sg3
(lp3465
S'SystemMonitor'
p3466
ag6
ag14
aS'object'
p3467
asg8
S'SystemMonitor.host-192.168.123.30'
p3468
sa(dp3469
S'real'
p3470
F44.466900000000003
sS'time.iowait'
p3471
F0.10000000000000001
sg8
S'GmakeLoad.trial-0.host-192.168.123.30'
p3472
sS'time.real'
p3473
F44.466900000000003
sS'time.idle'
p3474
F284.267
sS'time.sys'
p3475
F140.81
sg3
(lp3476
S'GmakeLoad'
p3477
ag6
aS'ResultsProvider'
p3478
ag14
aS'object'
p3479
asS'objPath'
p3480
S'/tmp/mosbench/tmpfs-separate/0'
p3481
sS'units'
p3482
S'builds'
p3483
sg10
g11
sS'result'
p3484
F1
sS'srcPath'
p3485
g3448
sS'cores'
p3486
I30
sS'time.steal'
p3487
F0.40999999999999998
sS'time.irq'
p3488
F0
sS'time.softirq'
p3489
F0.19
sS'time.nice'
p3490
F0
sS'unit'
p3491
S'build'
p3492
sS'time.user'
p3493
F908.92999999999995
sa.