(lp1
(dp2
S'classNames'
p3
(lp4
S'ResultPath'
p5
aS'Task'
p6
aS'object'
p7
asS'name'
p8
g5
sa(dp9
S'host'
p10
S'192.168.123.30'
p11
sg3
(lp12
S'Host'
p13
ag6
aS'SourceFileProvider'
p14
aS'object'
p15
asg8
S'Host.host-192.168.123.30'
p16
sa(dp17
S'CONFIG_USB_OHCI_HCD_PLATFORM'
p18
S'y'
sS'CONFIG_DEFAULT_IO_DELAY_TYPE'
p19
I1
sS'CONFIG_DNS_RESOLVER'
p20
S'y'
sS'net.ipv6.conf.lo.suppress_frag_ndisc'
p21
I1
sS'CONFIG_GENERIC_STRNCPY_FROM_USER'
p22
S'y'
sS'net.netfilter.nf_log_all_netns'
p23
I0
sS'CONFIG_KVM_SCHEDACT'
p24
S'y'
sS'CONFIG_WLAN_VENDOR_RALINK'
p25
S'y'
sS'CONFIG_HAVE_DYNAMIC_FTRACE_WITH_REGS'
p26
S'y'
sS'kernel.sched_domain.cpu5.domain0.newidle_idx'
p27
I0
sS'net.ipv4.conf.all.tag'
p28
I0
sS'CONFIG_EVENT_TRACING'
p29
S'y'
sS'CONFIG_LIVEPATCH'
p30
S'y'
sS'CONFIG_LEDS_TRIGGER_CPU'
p31
S'y'
sS'CONFIG_PCIEPORTBUS'
p32
S'y'
sS'CONFIG_INIT_ENV_ARG_LIMIT'
p33
I32
sS'net.ipv6.conf.default.accept_ra_min_hop_limit'
p34
I1
sS'CONFIG_LEDS_CLASS'
p35
S'y'
sS'kernel.sched_domain.cpu2.domain0.newidle_idx'
p36
I0
sS'net.ipv4.neigh.default.proxy_qlen'
p37
I64
sS'CONFIG_PMC_ATOM'
p38
S'y'
sS'CONFIG_MANDATORY_FILE_LOCKING'
p39
S'y'
sS'fs.quota.free_dquots'
p40
I0
sS'CONFIG_PRINTK_NMI'
p41
S'y'
sS'CONFIG_NETDEVICES'
p42
S'y'
sS'CONFIG_HAVE_DYNAMIC_FTRACE'
p43
S'y'
sS'CONFIG_PINCTRL_SX150X'
p44
S'y'
sS'CONFIG_NET_SCHED'
p45
S'y'
sS'CONFIG_UNIXWARE_DISKLABEL'
p46
S'y'
sS'CONFIG_INLINE_WRITE_UNLOCK'
p47
S'y'
sS'CONFIG_ACPI_REV_OVERRIDE_POSSIBLE'
p48
S'y'
sS'CONFIG_HAVE_ARCH_AUDITSYSCALL'
p49
S'y'
sS'kernel.sched_domain.cpu11.domain0.flags'
p50
I4143
sS'CONFIG_NET_VENDOR_RENESAS'
p51
S'y'
sS'CONFIG_FIRMWARE_EDID'
p52
S'y'
sS'CONFIG_CGROUPS'
p53
S'y'
sS'net.ipv6.conf.ens3.regen_max_retry'
p54
I3
sS'net.ipv4.conf.lo.medium_id'
p55
I0
sS'CONFIG_DEFAULT_MMAP_MIN_ADDR'
p56
I65536
sS'CONFIG_AIO'
p57
S'y'
sS'CONFIG_X86_DEBUGCTLMSR'
p58
S'y'
sS'CONFIG_ARCH_HIBERNATION_HEADER'
p59
S'y'
sS'net.ipv4.tcp_synack_retries'
p60
I5
sS'CONFIG_SECURITY_YAMA'
p61
S'y'
sS'kernel.sched_domain.cpu18.domain0.idle_idx'
p62
I1
sS'CONFIG_CRYPTO_ECB'
p63
S'y'
sS'CONFIG_ACPI_HOTPLUG_MEMORY'
p64
S'y'
sS'net.ipv4.tcp_notsent_lowat'
p65
I4294967295
sS'kernel.sched_domain.cpu17.domain0.name'
p66
S'DIE'
p67
sS'CONFIG_FS_DAX_PMD'
p68
S'y'
sS'CONFIG_X86_LOCAL_APIC'
p69
S'y'
sS'CONFIG_GENERIC_SMP_IDLE_THREAD'
p70
S'y'
sS'kernel.sched_domain.cpu18.domain0.imbalance_pct'
p71
I125
sS'CONFIG_GENERIC_CLOCKEVENTS_MIN_ADJUST'
p72
S'y'
sS'net.ipv6.conf.lo.accept_redirects'
p73
I1
sS'CONFIG_TASK_XACCT'
p74
S'y'
sS'CONFIG_KEXEC_BZIMAGE_VERIFY_SIG'
p75
S'y'
sS'CONFIG_EVENTFD'
p76
S'y'
sS'CONFIG_FTRACE_MCOUNT_RECORD'
p77
S'y'
sS'CONFIG_HAVE_PERF_EVENTS'
p78
S'y'
sS'CONFIG_SND_HDA_CORE'
p79
S'm'
sS'CONFIG_ARCH_SUPPORTS_UPROBES'
p80
S'y'
sS'CONFIG_PACKET'
p81
S'y'
sS'net.ipv6.conf.ens3.use_oif_addrs_only'
p82
I0
sS'kernel.sched_domain.cpu10.domain0.name'
p83
S'DIE'
p84
sS'net.ipv6.conf.all.router_solicitation_max_interval'
p85
I3600
sS'net.ipv4.neigh.lo.proxy_delay'
p86
I80
sS'CONFIG_PARPORT_PC'
p87
S'm'
sS'CONFIG_NLATTR'
p88
S'y'
sS'CONFIG_AGP'
p89
S'y'
sS'CONFIG_INPUT_JOYDEV'
p90
S'm'
sS'net.ipv6.conf.default.addr_gen_mode'
p91
I0
sS'net.ipv4.conf.ens3.igmpv2_unsolicited_report_interval'
p92
I10000
sS'CONFIG_INFINIBAND_ADDR_TRANS'
p93
S'y'
sS'CONFIG_CRYPTO_SHA512'
p94
S'y'
sS'CONFIG_WLAN_VENDOR_INTERSIL'
p95
S'y'
sS'CONFIG_CRYPTO_NULL'
p96
S'y'
sS'CONFIG_VIRTIO_BALLOON'
p97
S'y'
sS'CONFIG_INTEGRITY_ASYMMETRIC_KEYS'
p98
S'y'
sS'CONFIG_BLK_MQ_RDMA'
p99
S'y'
sS'CONFIG_FRAME_POINTER_UNWINDER'
p100
S'y'
sS'CONFIG_HAVE_IRQ_EXIT_ON_IRQ_STACK'
p101
S'y'
sS'CONFIG_CRYPTO_AES_NI_INTEL'
p102
S'm'
sS'CONFIG_MOUSE_PS2'
p103
S'm'
sS'CONFIG_EFI_PARTITION'
p104
S'y'
sS'CONFIG_NODES_SPAN_OTHER_NODES'
p105
S'y'
sS'CONFIG_FUNCTION_GRAPH_TRACER'
p106
S'y'
sS'net.ipv6.conf.all.seg6_enabled'
p107
I0
sS'CONFIG_IPV6_MROUTE'
p108
S'y'
sS'kernel.sched_domain.cpu2.domain0.busy_idx'
p109
I2
sS'kernel.sched_domain.cpu21.domain0.idle_idx'
p110
I1
sS'CONFIG_FHANDLE'
p111
S'y'
sS'CONFIG_HAVE_FUNCTION_GRAPH_TRACER'
p112
S'y'
sS'CONFIG_FS_IOMAP'
p113
S'y'
sS'kernel.sched_domain.cpu17.domain0.flags'
p114
I4143
sS'CONFIG_CRYPTO_ACOMP2'
p115
S'y'
sS'CONFIG_HAVE_KERNEL_LZMA'
p116
S'y'
sS'CONFIG_ARCH_HAS_DEBUG_VIRTUAL'
p117
S'y'
sS'net.ipv6.neigh.default.unres_qlen_bytes'
p118
I212992
sS'kernel.sem_next_id'
p119
S'-1'
p120
sS'kernel.random.write_wakeup_threshold'
p121
I896
sS'net.ipv6.conf.lo.use_oif_addrs_only'
p122
I0
sS'net.ipv6.conf.ens3.accept_ra_defrtr'
p123
I1
sS'kernel.sched_domain.cpu3.domain0.max_newidle_lb_cost'
p124
I40699
sS'net.ipv6.neigh.lo.proxy_qlen'
p125
I64
sS'net.ipv4.tcp_fastopen'
p126
I1
sS'kernel.sched_domain.cpu23.domain0.newidle_idx'
p127
I0
sS'CONFIG_DEFAULT_IOSCHED'
p128
S'"deadline"'
p129
sS'kernel.sched_domain.cpu22.domain0.flags'
p130
I4143
sS'CONFIG_FUSION_LOGGING'
p131
S'y'
sS'CONFIG_NET_PACKET_ENGINE'
p132
S'y'
sS'CONFIG_DQL'
p133
S'y'
sS'net.ipv6.conf.lo.force_tllao'
p134
I0
sS'CONFIG_IP_ADVANCED_ROUTER'
p135
S'y'
sS'CONFIG_SERIAL_SCCNXP_CONSOLE'
p136
S'y'
sS'kernel.sched_domain.cpu17.domain0.imbalance_pct'
p137
I125
sS'CONFIG_NOP_USB_XCEIV'
p138
S'y'
sS'kernel.print-fatal-signals'
p139
I0
sS'CONFIG_INET'
p140
S'y'
sS'net.ipv4.tcp_probe_interval'
p141
I600
sS'kernel.sched_domain.cpu10.domain0.max_newidle_lb_cost'
p142
I20252
sS'CONFIG_EXTRA_FIRMWARE'
p143
S'""'
p144
sS'CONFIG_I2C_DESIGNWARE_CORE'
p145
S'y'
sS'net.ipv4.conf.lo.arp_accept'
p146
I0
sS'CONFIG_REGMAP_MMIO'
p147
S'y'
sS'CONFIG_SND_HDA_POWER_SAVE_DEFAULT'
p148
I0
sS'kernel.sched_domain.cpu0.domain0.cache_nice_tries'
p149
I1
sS'net.ipv6.conf.lo.forwarding'
p150
I0
sS'CONFIG_NET_VENDOR_SOLARFLARE'
p151
S'y'
sS'CONFIG_FIXED_PHY'
p152
S'y'
sS'net.ipv4.conf.default.shared_media'
p153
I1
sS'CONFIG_NET_VENDOR_TEHUTI'
p154
S'y'
sS'net.ipv6.conf.default.router_solicitations'
p155
S'-1'
p156
sS'CONFIG_MFD_DA9063'
p157
S'y'
sS'CONFIG_CRYPTO'
p158
S'y'
sS'CONFIG_WLAN_VENDOR_ZYDAS'
p159
S'y'
sS'CONFIG_STRICT_KERNEL_RWX'
p160
S'y'
sS'net.ipv6.mld_qrv'
p161
I2
sS'CONFIG_SND_HDA_PATCH_LOADER'
p162
S'y'
sS'net.ipv4.conf.all.disable_policy'
p163
I0
sS'CONFIG_COMPAT_FOR_U64_ALIGNMENT'
p164
S'y'
sS'CONFIG_PPP_FILTER'
p165
S'y'
sS'CONFIG_CPU_FREQ'
p166
S'y'
sS'net.core.netdev_tstamp_prequeue'
p167
I1
sS'kernel.sched_domain.cpu18.domain0.forkexec_idx'
p168
I0
sS'net.ipv6.conf.all.accept_dad'
p169
I1
sS'kernel.sched_domain.cpu19.domain0.cache_nice_tries'
p170
I1
sS'CONFIG_DCB'
p171
S'y'
sS'CONFIG_I2C_PIIX4'
p172
S'm'
sS'kernel.panic_on_oops'
p173
I0
sS'kernel.sched_domain.cpu22.domain0.idle_idx'
p174
I1
sS'kernel.sched_domain.cpu21.domain0.max_interval'
p175
I48
sS'CONFIG_MEMORY_HOTPLUG'
p176
S'y'
sS'dev.cdrom.debug'
p177
I0
sS'kernel.sched_domain.cpu15.domain0.forkexec_idx'
p178
I0
sS'CONFIG_MOUSE_PS2_SYNAPTICS'
p179
S'y'
sS'kernel.sched_domain.cpu23.domain0.wake_idx'
p180
I0
sS'CONFIG_SECURITY_SELINUX'
p181
S'y'
sS'net.ipv6.conf.lo.max_addresses'
p182
I16
sS'CONFIG_PCI_PASID'
p183
S'y'
sS'CONFIG_SCSI_LOWLEVEL'
p184
S'y'
sS'CONFIG_GENERIC_MSI_IRQ'
p185
S'y'
sS'kernel.ngroups_max'
p186
I65536
sS'CONFIG_MTRR_SANITIZER'
p187
S'y'
sS'CONFIG_PM_DEVFREQ_EVENT'
p188
S'y'
sS'CONFIG_POWER_RESET_RESTART'
p189
S'y'
sS'kernel.max_lock_depth'
p190
I1024
sS'CONFIG_ZPOOL'
p191
S'y'
sS'CONFIG_PATA_SIS'
p192
S'y'
sS'CONFIG_GENERIC_ALLOCATOR'
p193
S'y'
sS'CONFIG_ARCH_HAS_UACCESS_FLUSHCACHE'
p194
S'y'
sS'CONFIG_SYN_COOKIES'
p195
S'y'
sS'net.ipv6.conf.default.max_addresses'
p196
I16
sS'CONFIG_ARCH_WANT_OLD_COMPAT_IPC'
p197
S'y'
sS'CONFIG_CGROUP_WRITEBACK'
p198
S'y'
sS'CONFIG_X86_ACPI_CPUFREQ'
p199
S'y'
sS'CONFIG_DUMMY_CONSOLE'
p200
S'y'
sS'kernel.sched_domain.cpu23.domain0.name'
p201
S'DIE'
p202
sS'CONFIG_RWSEM_SPIN_ON_OWNER'
p203
S'y'
sS'CONFIG_SECURITY_APPARMOR_BOOTPARAM_VALUE'
p204
I1
sS'vm.dirtytime_expire_seconds'
p205
I43200
sS'net.ipv4.tcp_challenge_ack_limit'
p206
I1000
sS'CONFIG_HOTPLUG_PCI_ACPI'
p207
S'y'
sS'CONFIG_KARMA_PARTITION'
p208
S'y'
sS'CONFIG_INFINIBAND_ISER'
p209
S'm'
sS'vm.min_slab_ratio'
p210
I5
sS'CONFIG_CLZ_TAB'
p211
S'y'
sS'CONFIG_MODIFY_LDT_SYSCALL'
p212
S'y'
sS'CONFIG_X86_THERMAL_VECTOR'
p213
S'y'
sS'CONFIG_RCU_CPU_STALL_TIMEOUT'
p214
I60
sS'CONFIG_BACKLIGHT_CLASS_DEVICE'
p215
S'y'
sS'CONFIG_BOOTPARAM_SOFTLOCKUP_PANIC_VALUE'
p216
I0
sS'CONFIG_PM_WAKELOCKS'
p217
S'y'
sS'CONFIG_GPIOLIB_IRQCHIP'
p218
S'y'
sS'kernel.sched_domain.cpu1.domain0.idle_idx'
p219
I1
sS'CONFIG_WLAN'
p220
S'y'
sS'CONFIG_BLK_DEV_INTEGRITY'
p221
S'y'
sS'kernel.sched_domain.cpu11.domain0.busy_idx'
p222
I2
sS'CONFIG_ARCH_HAS_HMM'
p223
S'y'
sS'CONFIG_SQUASHFS_FILE_DIRECT'
p224
S'y'
sS'CONFIG_NETWORK_FILESYSTEMS'
p225
S'y'
sS'CONFIG_SERIAL_8250_RSA'
p226
S'y'
sS'net.ipv4.tcp_min_tso_segs'
p227
I2
sS'CONFIG_SCHED_STACK_END_CHECK'
p228
S'y'
sS'CONFIG_LEGACY_VSYSCALL_EMULATE'
p229
S'y'
sS'CONFIG_POWERCAP'
p230
S'y'
sS'CONFIG_UNUSED_SYMBOLS'
p231
S'y'
sS'CONFIG_PM_WAKELOCKS_LIMIT'
p232
I100
sS'CONFIG_INTEGRITY'
p233
S'y'
sS'kernel.sched_domain.cpu23.domain0.max_newidle_lb_cost'
p234
I51502
sS'fs.mqueue.msg_default'
p235
I10
sS'CONFIG_MD_LINEAR'
p236
S'm'
sS'net.ipv4.tcp_max_orphans'
p237
I262144
sS'CONFIG_MFD_MAX77843'
p238
S'y'
sS'CONFIG_CONSOLE_TRANSLATIONS'
p239
S'y'
sS'CONFIG_SLABINFO'
p240
S'y'
sS'kernel.perf_event_max_stack'
p241
I127
sS'CONFIG_PCI'
p242
S'y'
sS'CONFIG_GENERIC_MSI_IRQ_DOMAIN'
p243
S'y'
sS'kernel.sched_domain.cpu4.domain0.name'
p244
S'DIE'
p245
sS'CONFIG_SYSTEM_BLACKLIST_KEYRING'
p246
S'y'
sS'kernel.sched_domain.cpu6.domain0.wake_idx'
p247
I0
sS'CONFIG_IP_ROUTE_MULTIPATH'
p248
S'y'
sS'CONFIG_SCHED_SMT'
p249
S'y'
sS'net.ipv4.tcp_adv_win_scale'
p250
I1
sS'CONFIG_INTEL_IDLE'
p251
S'y'
sS'CONFIG_ASYNC_CORE'
p252
S'm'
sS'net.ipv4.udp_rmem_min'
p253
I4096
sS'CONFIG_FIRMWARE_IN_KERNEL'
p254
S'y'
sS'CONFIG_GPIO_TPS65910'
p255
S'y'
sS'CONFIG_CRC_CCITT'
p256
S'y'
sS'CONFIG_PERSISTENT_KEYRINGS'
p257
S'y'
sS'CONFIG_MOUSE_PS2_LIFEBOOK'
p258
S'y'
sS'CONFIG_ARCH_WANT_COMPAT_IPC_PARSE_VERSION'
p259
S'y'
sS'net.ipv6.conf.all.router_probe_interval'
p260
I60
sS'CONFIG_ACPI_CPPC_LIB'
p261
S'y'
sS'CONFIG_ASYNC_RAID6_RECOV'
p262
S'm'
sS'net.ipv6.conf.default.ignore_routes_with_linkdown'
p263
I0
sS'CONFIG_BLK_DEV_SR'
p264
S'y'
sS'net.ipv6.conf.lo.accept_ra_from_local'
p265
I0
sS'CONFIG_EXPORTFS'
p266
S'y'
sS'CONFIG_CRYPTO_CRC32_PCLMUL'
p267
S'm'
sS'CONFIG_INPUT'
p268
S'y'
sS'CONFIG_THERMAL_DEFAULT_GOV_STEP_WISE'
p269
S'y'
sS'fs.suid_dumpable'
p270
I2
sS'CONFIG_CPU_FREQ_GOV_PERFORMANCE'
p271
S'y'
sS'CONFIG_SERIAL_8250_DMA'
p272
S'y'
sS'kernel.sched_domain.cpu8.domain0.busy_factor'
p273
I32
sS'CONFIG_SCHED_AUTOGROUP'
p274
S'y'
sS'net.core.optmem_max'
p275
I20480
sS'user.max_inotify_watches'
p276
I8192
sS'vm.nr_overcommit_hugepages'
p277
I0
sS'net.ipv6.conf.default.accept_ra_defrtr'
p278
I1
sS'net.ipv6.conf.default.accept_ra_rt_info_min_plen'
p279
I0
sS'kernel.sched_domain.cpu7.domain0.flags'
p280
I4143
sS'CONFIG_DEBUG_INFO_DWARF4'
p281
S'y'
sS'CONFIG_NET_EMATCH'
p282
S'y'
sS'CONFIG_CPU_SUP_CENTAUR'
p283
S'y'
sS'kernel.sched_domain.cpu3.domain0.cache_nice_tries'
p284
I1
sS'CONFIG_IOMMU_HELPER'
p285
S'y'
sS'CONFIG_PCI_QUIRKS'
p286
S'y'
sS'CONFIG_SERIAL_NONSTANDARD'
p287
S'y'
sS'kernel.sched_domain.cpu14.domain0.idle_idx'
p288
I1
sS'user.max_uts_namespaces'
p289
I257513
sS'net.ipv6.route.gc_interval'
p290
I30
sS'CONFIG_TRACER_MAX_TRACE'
p291
S'y'
sS'CONFIG_VIRT_DRIVERS'
p292
S'y'
sS'net.ipv6.bindv6only'
p293
I0
sS'kernel.sched_domain.cpu23.domain0.idle_idx'
p294
I1
sS'net.ipv6.conf.ens3.accept_ra_rtr_pref'
p295
I1
sS'CONFIG_SUN_PARTITION'
p296
S'y'
sS'net.ipv4.conf.all.drop_gratuitous_arp'
p297
I0
sS'CONFIG_PINCTRL'
p298
S'y'
sS'CONFIG_THERMAL_GOV_FAIR_SHARE'
p299
S'y'
sS'CONFIG_MOUSE_PS2_LOGIPS2PP'
p300
S'y'
sS'net.ipv6.route.gc_min_interval_ms'
p301
I500
sS'CONFIG_IRQ_FORCED_THREADING'
p302
S'y'
sS'CONFIG_MTRR_SANITIZER_SPARE_REG_NR_DEFAULT'
p303
I1
sS'CONFIG_BLK_MQ_PCI'
p304
S'y'
sS'CONFIG_DEBUG_BUGVERBOSE'
p305
S'y'
sS'CONFIG_LSM_MMAP_MIN_ADDR'
p306
I0
sS'CONFIG_FS_MBCACHE'
p307
S'y'
sS'CONFIG_KVM_INTEL'
p308
S'm'
sS'net.ipv6.neigh.ens3.proxy_qlen'
p309
I64
sS'net.ipv6.conf.lo.ndisc_notify'
p310
I0
sS'CONFIG_USB'
p311
S'y'
sS'CONFIG_IA32_EMULATION'
p312
S'y'
sS'CONFIG_SND_DYNAMIC_MINORS'
p313
S'y'
sS'CONFIG_MD_RAID1'
p314
S'm'
sS'CONFIG_HAVE_SETUP_PER_CPU_AREA'
p315
S'y'
sS'user.max_net_namespaces'
p316
I257513
sS'kernel.sched_domain.cpu12.domain0.max_interval'
p317
I48
sS'vm.laptop_mode'
p318
I0
sS'CONFIG_SIGNED_PE_FILE_VERIFICATION'
p319
S'y'
sS'CONFIG_NET_VENDOR_CAVIUM'
p320
S'y'
sS'CONFIG_IMA_NG_TEMPLATE'
p321
S'y'
sS'CONFIG_CRYPTO_GCM'
p322
S'y'
sS'CONFIG_KEXEC'
p323
S'y'
sS'CONFIG_CRYPTO_DEV_PADLOCK'
p324
S'y'
sS'CONFIG_HAVE_ARCH_WITHIN_STACK_FRAMES'
p325
S'y'
sS'kernel.sched_domain.cpu2.domain0.wake_idx'
p326
I0
sS'net.ipv4.conf.all.secure_redirects'
p327
I1
sS'kernel.sched_domain.cpu5.domain0.cache_nice_tries'
p328
I1
sS'CONFIG_HAVE_REGS_AND_STACK_ACCESS_API'
p329
S'y'
sS'kernel.sched_domain.cpu21.domain0.wake_idx'
p330
I0
sS'CONFIG_DEVFREQ_GOV_SIMPLE_ONDEMAND'
p331
S'y'
sS'net.ipv4.conf.lo.igmpv2_unsolicited_report_interval'
p332
I10000
sS'kernel.sched_domain.cpu4.domain0.idle_idx'
p333
I1
sS'CONFIG_VFAT_FS'
p334
S'y'
sS'net.ipv6.conf.ens3.accept_ra_mtu'
p335
I1
sS'kernel.sched_domain.cpu21.domain0.forkexec_idx'
p336
I0
sS'CONFIG_INPUT_MISC'
p337
S'y'
sS'CONFIG_PARPORT_1284'
p338
S'y'
sS'net.ipv4.conf.all.force_igmp_version'
p339
I0
sS'CONFIG_UTS_NS'
p340
S'y'
sS'CONFIG_BRIDGE_IGMP_SNOOPING'
p341
S'y'
sS'CONFIG_MFD_MAX14577'
p342
S'y'
sS'net.ipv6.neigh.lo.mcast_resolicit'
p343
I0
sS'CONFIG_PREEMPT_NOTIFIERS'
p344
S'y'
sS'CONFIG_IO_DELAY_0XED'
p345
S'y'
sS'CONFIG_AGP_AMD64'
p346
S'y'
sS'CONFIG_WATCHDOG'
p347
S'y'
sS'CONFIG_MTRR'
p348
S'y'
sS'kernel.overflowgid'
p349
I65534
sS'CONFIG_CRYPTO_RNG_DEFAULT'
p350
S'y'
sS'kernel.sched_domain.cpu7.domain0.busy_idx'
p351
I2
sS'CONFIG_X86_MCE'
p352
S'y'
sS'CONFIG_KALLSYMS_BASE_RELATIVE'
p353
S'y'
sS'CONFIG_ISA_DMA_API'
p354
S'y'
sS'CONFIG_ASYMMETRIC_PUBLIC_KEY_SUBTYPE'
p355
S'y'
sS'CONFIG_ELF_CORE'
p356
S'y'
sS'net.ipv6.neigh.lo.proxy_delay'
p357
I80
sS'net.ipv6.conf.lo.router_solicitations'
p358
S'-1'
p359
sS'kernel.ftrace_dump_on_oops'
p360
I0
sS'net.ipv4.conf.default.arp_filter'
p361
I0
sS'kernel.sched_autogroup_enabled'
p362
I1
sS'CONFIG_ARCH_HAS_PMEM_API'
p363
S'y'
sS'kernel.sched_domain.cpu14.domain0.cache_nice_tries'
p364
I1
sS'net.ipv6.neigh.lo.anycast_delay'
p365
I100
sS'CONFIG_USB_DYNAMIC_MINORS'
p366
S'y'
sS'CONFIG_ARCH_HAS_FORTIFY_SOURCE'
p367
S'y'
sS'CONFIG_SUSPEND_FREEZER'
p368
S'y'
sS'net.ipv4.icmp_ratemask'
p369
I6168
sS'CONFIG_SERIAL_8250_EXAR'
p370
S'y'
sS'kernel.hung_task_warnings'
p371
I10
sS'CONFIG_SYSTEM_BLACKLIST_HASH_LIST'
p372
S'""'
p373
sS'CONFIG_ARCH_MMAP_RND_BITS_MIN'
p374
I28
sS'CONFIG_EXPERT'
p375
S'y'
sS'net.ipv4.tcp_abort_on_overflow'
p376
I0
sS'CONFIG_WLAN_VENDOR_ATMEL'
p377
S'y'
sS'CONFIG_HAVE_MIXED_BREAKPOINTS_REGS'
p378
S'y'
sS'CONFIG_ARCH_ENABLE_THP_MIGRATION'
p379
S'y'
sS'CONFIG_SWIOTLB'
p380
S'y'
sS'kernel.sched_domain.cpu9.domain0.busy_factor'
p381
I32
sS'net.ipv4.conf.lo.bootp_relay'
p382
I0
sS'kernel.sched_domain.cpu18.domain0.busy_idx'
p383
I2
sS'CONFIG_SCSI_PROC_FS'
p384
S'y'
sS'CONFIG_RD_BZIP2'
p385
S'y'
sS'net.ipv6.conf.ens3.accept_ra_rt_info_min_plen'
p386
I0
sS'CONFIG_FDDI'
p387
S'y'
sS'CONFIG_XZ_DEC_SPARC'
p388
S'y'
sS'CONFIG_MMC'
p389
S'y'
sS'kernel.sched_domain.cpu20.domain0.min_interval'
p390
I24
sS'CONFIG_MICROCODE_AMD'
p391
S'y'
sS'vm.nr_hugepages_mempolicy'
p392
I0
sS'net.ipv4.conf.all.ignore_routes_with_linkdown'
p393
I0
sS'CONFIG_HPET_EMULATE_RTC'
p394
S'y'
sS'CONFIG_XOR_BLOCKS'
p395
S'm'
sS'kernel.sched_domain.cpu1.domain0.name'
p396
S'DIE'
p397
sS'CONFIG_REGULATOR'
p398
S'y'
sS'CONFIG_MAILBOX'
p399
S'y'
sS'CONFIG_CRYPTO_HW'
p400
S'y'
sS'CONFIG_DECOMPRESS_GZIP'
p401
S'y'
sS'CONFIG_OID_REGISTRY'
p402
S'y'
sS'net.ipv6.conf.lo.regen_max_retry'
p403
I3
sS'net.ipv6.conf.default.proxy_ndp'
p404
I0
sS'CONFIG_MEMTEST'
p405
S'y'
sS'net.ipv4.ip_unprivileged_port_start'
p406
I1024
sS'net.ipv6.neigh.lo.app_solicit'
p407
I0
sS'CONFIG_PCI_BUS_ADDR_T_64BIT'
p408
S'y'
sS'CONFIG_VGA_SWITCHEROO'
p409
S'y'
sS'CONFIG_XZ_DEC_IA64'
p410
S'y'
sS'CONFIG_WLAN_VENDOR_MARVELL'
p411
S'y'
sS'CONFIG_ARCH_USE_QUEUED_SPINLOCKS'
p412
S'y'
sS'CONFIG_IPV6_SUBTREES'
p413
S'y'
sS'CONFIG_NET_EMATCH_STACK'
p414
I32
sS'net.ipv4.tcp_rmem'
p415
S'4096\t87380\t6291456'
p416
sS'kernel.panic_on_warn'
p417
I0
sS'net.ipv6.conf.lo.enhanced_dad'
p418
I1
sS'CONFIG_GPIOLIB'
p419
S'y'
sS'kernel.keys.maxkeys'
p420
I200
sS'kernel.sched_domain.cpu16.domain0.name'
p421
S'DIE'
p422
sS'kernel.sched_domain.cpu20.domain0.newidle_idx'
p423
I0
sS'kernel.sched_domain.cpu4.domain0.max_newidle_lb_cost'
p424
I29527
sS'CONFIG_USER_STACKTRACE_SUPPORT'
p425
S'y'
sS'net.ipv4.neigh.ens3.app_solicit'
p426
I0
sS'CONFIG_HAVE_KVM_IRQ_BYPASS'
p427
S'y'
sS'CONFIG_ARCH_DISCARD_MEMBLOCK'
p428
S'y'
sS'net.ipv6.conf.default.suppress_frag_ndisc'
p429
I1
sS'fs.inotify.max_user_instances'
p430
I1024
sS'CONFIG_SYSCTL'
p431
S'y'
sS'net.ipv4.icmp_ignore_bogus_error_responses'
p432
I1
sS'CONFIG_HAVE_FENTRY'
p433
S'y'
sS'kernel.sched_domain.cpu20.domain0.max_interval'
p434
I48
sS'CONFIG_KRETPROBES'
p435
S'y'
sS'fs.quota.syncs'
p436
I0
sS'CONFIG_SECURITY_SMACK_NETFILTER'
p437
S'y'
sS'net.ipv6.neigh.ens3.delay_first_probe_time'
p438
I5
sS'kernel.stack_tracer_enabled'
p439
I0
sS'CONFIG_FB_CMDLINE'
p440
S'y'
sS'kernel.sched_domain.cpu0.domain0.flags'
p441
I4143
sS'CONFIG_CRYPTO_DRBG_HMAC'
p442
S'y'
sS'CONFIG_MAC_PARTITION'
p443
S'y'
sS'CONFIG_MISC_FILESYSTEMS'
p444
S'y'
sS'abi.vsyscall32'
p445
I1
sS'net.ipv4.route.error_cost'
p446
I250
sS'CONFIG_CRYPTO_SKEIN'
p447
S'y'
sS'net.ipv6.conf.all.suppress_frag_ndisc'
p448
I1
sS'CONFIG_GENERIC_PCI_IOMAP'
p449
S'y'
sS'CONFIG_SND_HDA_INPUT_BEEP_MODE'
p450
I0
sS'CONFIG_DEBUG_KERNEL'
p451
S'y'
sS'net.ipv4.igmp_qrv'
p452
I2
sS'CONFIG_RANDOMIZE_BASE'
p453
S'y'
sS'CONFIG_MODULE_SIG_SHA512'
p454
S'y'
sS'CONFIG_CHELSIO_T3'
p455
S'm'
sS'kernel.sched_domain.cpu23.domain0.flags'
p456
I4143
sS'user.max_mnt_namespaces'
p457
I257513
sS'net.core.wmem_max'
p458
I212992
sS'vm.swappiness'
p459
I60
sS'vm.zone_reclaim_mode'
p460
I0
sS'net.ipv4.tcp_l3mdev_accept'
p461
I0
sS'CONFIG_SBITMAP'
p462
S'y'
sS'net.ipv4.cipso_cache_bucket_size'
p463
I10
sS'net.ipv4.ipfrag_low_thresh'
p464
I3145728
sS'net.ipv4.route.mtu_expires'
p465
I600
sS'CONFIG_KPROBE_EVENTS'
p466
S'y'
sS'net.ipv6.conf.default.drop_unicast_in_l2_multicast'
p467
I0
sS'CONFIG_USB_EHCI_TT_NEWSCHED'
p468
S'y'
sS'CONFIG_X86_16BIT'
p469
S'y'
sS'net.ipv6.conf.ens3.force_mld_version'
p470
I0
sS'net.iw_cm.default_backlog'
p471
I256
sS'CONFIG_CRYPTO_CTR'
p472
S'y'
sS'CONFIG_CRC32_SLICEBY8'
p473
S'y'
sS'net.ipv4.tcp_reordering'
p474
I3
sS'net.ipv6.calipso_cache_enable'
p475
I1
sS'CONFIG_TWL4030_CORE'
p476
S'y'
sS'CONFIG_HAS_DMA'
p477
S'y'
sS'kernel.random.uuid'
p478
S'2fc213e1-42fc-4f07-bc58-9d71a704ff81'
p479
sS'CONFIG_SOUND_OSS_CORE'
p480
S'y'
sS'net.ipv4.conf.lo.secure_redirects'
p481
I1
sS'kernel.sched_domain.cpu10.domain0.forkexec_idx'
p482
I0
sS'fs.overflowgid'
p483
I65534
sS'net.ipv4.tcp_dsack'
p484
I1
sS'CONFIG_CPU_SUP_INTEL'
p485
S'y'
sS'CONFIG_TRANSPARENT_HUGEPAGE'
p486
S'y'
sS'CONFIG_SCSI_ISCSI_ATTRS'
p487
S'm'
sS'CONFIG_MQ_IOSCHED_DEADLINE'
p488
S'y'
sS'CONFIG_CRYPTO_HMAC'
p489
S'y'
sS'kernel.sched_domain.cpu12.domain0.imbalance_pct'
p490
I125
sS'CONFIG_VT_CONSOLE'
p491
S'y'
sS'kernel.acpi_video_flags'
p492
I0
sS'net.ipv6.conf.lo.router_solicitation_max_interval'
p493
I3600
sS'CONFIG_VGA_ARB_MAX_GPUS'
p494
I16
sS'CONFIG_BUILDTIME_EXTABLE_SORT'
p495
S'y'
sS'CONFIG_KEXEC_JUMP'
p496
S'y'
sS'net.ipv4.tcp_autocorking'
p497
I1
sS'kernel.sched_domain.cpu7.domain0.imbalance_pct'
p498
I125
sS'net.ipv4.conf.lo.forwarding'
p499
I0
sS'kernel.sched_domain.cpu17.domain0.forkexec_idx'
p500
I0
sS'kernel.sched_domain.cpu10.domain0.wake_idx'
p501
I0
sS'dev.cdrom.lock'
p502
I1
sS'CONFIG_HAVE_HW_BREAKPOINT'
p503
S'y'
sS'CONFIG_MACINTOSH_DRIVERS'
p504
S'y'
sS'CONFIG_ISDN'
p505
S'y'
sS'CONFIG_MFD_CORE'
p506
S'y'
sS'CONFIG_ACPI_FAN'
p507
S'y'
sS'kernel.sched_domain.cpu11.domain0.max_newidle_lb_cost'
p508
I19840
sS'net.ipv4.conf.lo.src_valid_mark'
p509
I0
sS'CONFIG_AIX_PARTITION'
p510
S'y'
sS'kernel.sched_domain.cpu16.domain0.cache_nice_tries'
p511
I1
sS'kernel.sched_domain.cpu1.domain0.cache_nice_tries'
p512
I1
sS'CONFIG_MD_RAID456'
p513
S'm'
sS'net.ipv4.conf.ens3.arp_ignore'
p514
I0
sS'CONFIG_TICK_CPU_ACCOUNTING'
p515
S'y'
sS'CONFIG_MFD_TPS65090'
p516
S'y'
sS'CONFIG_SFI'
p517
S'y'
sS'fs.inode-nr'
p518
S'100534\t517'
p519
sS'CONFIG_NET_SCH_FIFO'
p520
S'y'
sS'net.core.netdev_rss_key'
p521
S'00:00:00:00:00:00:00:00:00:00:00:00:00:00:00:00:00:00:00:00:00:00:00:00:00:00:00:00:00:00:00:00:00:00:00:00:00:00:00:00:00:00:00:00:00:00:00:00:00:00:00:00'
p522
sS'net.ipv4.conf.default.igmpv2_unsolicited_report_interval'
p523
I10000
sS'CONFIG_SYSFS_SYSCALL'
p524
S'y'
sS'kernel.sched_domain.cpu12.domain0.busy_factor'
p525
I32
sS'CONFIG_ARCH_WANT_GENERAL_HUGETLB'
p526
S'y'
sS'CONFIG_GENERIC_CMOS_UPDATE'
p527
S'y'
sS'net.ipv4.tcp_max_tw_buckets'
p528
I262144
sS'CONFIG_SERIAL_8250_EXTENDED'
p529
S'y'
sS'kernel.sched_domain.cpu0.domain0.max_newidle_lb_cost'
p530
I37890
sS'CONFIG_NET_VENDOR_ADAPTEC'
p531
S'y'
sS'CONFIG_EPOLL'
p532
S'y'
sS'net.ipv4.conf.lo.disable_xfrm'
p533
I1
sS'kernel.sched_domain.cpu20.domain0.cache_nice_tries'
p534
I1
sS'kernel.sched_domain.cpu2.domain0.imbalance_pct'
p535
I125
sS'kernel.panic'
p536
I0
sS'CONFIG_FAT_DEFAULT_CODEPAGE'
p537
I437
sS'CONFIG_X86_SUPPORTS_MEMORY_FAILURE'
p538
S'y'
sS'CONFIG_CALGARY_IOMMU_ENABLED_BY_DEFAULT'
p539
S'y'
sS'CONFIG_SCHED_HRTICK'
p540
S'y'
sS'CONFIG_SECURITY_SELINUX_DISABLE'
p541
S'y'
sS'net.ipv4.conf.default.disable_policy'
p542
I0
sS'kernel.sched_domain.cpu9.domain0.idle_idx'
p543
I1
sS'CONFIG_NET_VENDOR_REALTEK'
p544
S'y'
sS'CONFIG_FAT_DEFAULT_IOCHARSET'
p545
S'"iso8859-1"'
p546
sS'net.ipv6.route.min_adv_mss'
p547
I1220
sS'CONFIG_IP_ROUTE_VERBOSE'
p548
S'y'
sS'CONFIG_BLK_DEV_SD'
p549
S'y'
sS'CONFIG_BRIDGE_EBT_T_FILTER'
p550
S'm'
sS'CONFIG_USB_OHCI_HCD'
p551
S'y'
sS'CONFIG_VIRTIO_CONSOLE'
p552
S'y'
sS'net.ipv6.ip6frag_low_thresh'
p553
I3145728
sS'CONFIG_USB_UHCI_HCD'
p554
S'y'
sS'CONFIG_BSD_DISKLABEL'
p555
S'y'
sS'kernel.sched_domain.cpu19.domain0.min_interval'
p556
I24
sS'net.core.flow_limit_cpu_bitmap'
p557
S'000000,00000000,00000000,00000000,00000000,00000000,00000000,00000000'
p558
sS'CONFIG_SECURITY_WRITABLE_HOOKS'
p559
S'y'
sS'CONFIG_NVM'
p560
S'y'
sS'net.ipv6.conf.ens3.accept_dad'
p561
I1
sS'CONFIG_TRACING_EVENTS_GPIO'
p562
S'y'
sS'fs.quota.allocated_dquots'
p563
I0
sS'CONFIG_X509_CERTIFICATE_PARSER'
p564
S'y'
sS'CONFIG_CGROUP_HUGETLB'
p565
S'y'
sS'net.ipv4.ip_forward_use_pmtu'
p566
I0
sS'net.ipv4.conf.lo.send_redirects'
p567
I1
sS'kernel.sched_domain.cpu16.domain0.max_interval'
p568
I48
sS'net.ipv6.conf.all.proxy_ndp'
p569
I0
sS'CONFIG_OPTPROBES'
p570
S'y'
sS'net.ipv4.tcp_pacing_ss_ratio'
p571
I200
sS'kernel.keys.persistent_keyring_expiry'
p572
I259200
sS'CONFIG_MD'
p573
S'y'
sS'kernel.sched_domain.cpu7.domain0.forkexec_idx'
p574
I0
sS'CONFIG_DETECT_HUNG_TASK'
p575
S'y'
sS'CONFIG_DMI'
p576
S'y'
sS'CONFIG_INTEL_IOMMU_SVM'
p577
S'y'
sS'net.ipv4.conf.lo.arp_notify'
p578
I0
sS'CONFIG_BQL'
p579
S'y'
sS'net.ipv4.tcp_ecn'
p580
I2
sS'kernel.sched_domain.cpu17.domain0.min_interval'
p581
I24
sS'kernel.version'
p582
S'#3 SMP Tue Mar 13 14:28:42 EDT 2018'
p583
sS'net.ipv6.neigh.default.gc_interval'
p584
I30
sS'kernel.sched_domain.cpu0.domain0.busy_idx'
p585
I2
sS'CONFIG_CGROUP_SCHED'
p586
S'y'
sS'CONFIG_HT_IRQ'
p587
S'y'
sS'CONFIG_NET_VENDOR_ATHEROS'
p588
S'y'
sS'net.ipv6.neigh.ens3.unres_qlen_bytes'
p589
I212992
sS'kernel.panic_on_io_nmi'
p590
I0
sS'CONFIG_SERIAL_8250_CONSOLE'
p591
S'y'
sS'CONFIG_HAVE_ARCH_MMAP_RND_COMPAT_BITS'
p592
S'y'
sS'CONFIG_NVDIMM_PFN'
p593
S'y'
sS'net.ipv4.neigh.default.anycast_delay'
p594
I100
sS'kernel.sched_domain.cpu11.domain0.newidle_idx'
p595
I0
sS'kernel.sched_domain.cpu7.domain0.newidle_idx'
p596
I0
sS'CONFIG_SERIAL_CORE'
p597
S'y'
sS'net.ipv4.conf.ens3.arp_filter'
p598
I0
sS'net.ipv6.idgen_delay'
p599
I1
sS'CONFIG_HAVE_HARDENED_USERCOPY_ALLOCATOR'
p600
S'y'
sS'CONFIG_MMU'
p601
S'y'
sS'CONFIG_HAVE_KERNEL_XZ'
p602
S'y'
sS'CONFIG_MFD_DA9052_SPI'
p603
S'y'
sS'CONFIG_USE_PERCPU_NUMA_NODE_ID'
p604
S'y'
sS'CONFIG_NET_INGRESS'
p605
S'y'
sS'CONFIG_HAVE_ARCH_KASAN'
p606
S'y'
sS'net.ipv6.conf.ens3.disable_ipv6'
p607
I0
sS'kernel.msgmax'
p608
I8192
sS'CONFIG_ARCH_ENABLE_HUGEPAGE_MIGRATION'
p609
S'y'
sS'kernel.sched_domain.cpu21.domain0.cache_nice_tries'
p610
I1
sS'CONFIG_CHARGER_MANAGER'
p611
S'y'
sS'net.ipv6.conf.lo.drop_unsolicited_na'
p612
I0
sS'net.ipv4.conf.ens3.medium_id'
p613
I0
sS'CONFIG_SYSVIPC'
p614
S'y'
sS'net.ipv6.neigh.ens3.ucast_solicit'
p615
I3
sS'CONFIG_PARPORT_PC_FIFO'
p616
S'y'
sS'CONFIG_WIRELESS'
p617
S'y'
sS'CONFIG_RD_XZ'
p618
S'y'
sS'kernel.sched_domain.cpu17.domain0.busy_factor'
p619
I32
sS'CONFIG_CONNECTOR'
p620
S'y'
sS'net.ipv4.conf.default.arp_accept'
p621
I0
sS'net.ipv4.udp_early_demux'
p622
I1
sS'CONFIG_MFD_88PM860X'
p623
S'y'
sS'kernel.numa_balancing_scan_period_max_ms'
p624
I60000
sS'net.ipv6.neigh.default.gc_thresh2'
p625
I512
sS'CONFIG_MODVERSIONS'
p626
S'y'
sS'kernel.sched_migration_cost_ns'
p627
I500000
sS'CONFIG_HAVE_INTEL_TXT'
p628
S'y'
sS'CONFIG_ARCH_HAS_UBSAN_SANITIZE_ALL'
p629
S'y'
sS'kernel.sched_domain.cpu20.domain0.forkexec_idx'
p630
I0
sS'CONFIG_OLD_SIGSUSPEND3'
p631
S'y'
sS'net.ipv6.neigh.default.gc_thresh1'
p632
I128
sS'dev.mac_hid.mouse_button2_keycode'
p633
I97
sS'net.ipv4.neigh.ens3.proxy_delay'
p634
I80
sS'net.ipv6.conf.default.router_probe_interval'
p635
I60
sS'net.ipv4.route.error_burst'
p636
I1250
sS'CONFIG_NET_VENDOR_ARC'
p637
S'y'
sS'net.ipv6.conf.all.keep_addr_on_down'
p638
I0
sS'CONFIG_BLK_CMDLINE_PARSER'
p639
S'y'
sS'CONFIG_EDAC_ATOMIC_SCRUB'
p640
S'y'
sS'CONFIG_TRUSTED_KEYS'
p641
S'y'
sS'CONFIG_PWM_SYSFS'
p642
S'y'
sS'CONFIG_AUDITSYSCALL'
p643
S'y'
sS'net.ipv6.conf.lo.proxy_ndp'
p644
I0
sS'CONFIG_HAVE_KVM_EVENTFD'
p645
S'y'
sS'CONFIG_HAVE_ARCH_KMEMCHECK'
p646
S'y'
sS'CONFIG_PM_DEVFREQ'
p647
S'y'
sS'CONFIG_UID16'
p648
S'y'
sS'CONFIG_ACPI_SLEEP'
p649
S'y'
sS'kernel.watchdog_cpumask'
p650
S'0-247'
p651
sS'CONFIG_SND_SUPPORT_OLD_API'
p652
S'y'
sS'net.ipv4.conf.lo.accept_redirects'
p653
I1
sS'net.ipv6.conf.all.max_addresses'
p654
I16
sS'kernel.sched_child_runs_first'
p655
I0
sS'net.ipv6.conf.all.accept_ra_from_local'
p656
I0
sS'CONFIG_RTC_HCTOSYS'
p657
S'y'
sS'kernel.softlockup_panic'
p658
I0
sS'CONFIG_RTC_I2C_AND_SPI'
p659
S'y'
sS'CONFIG_USB_EHCI_HCD'
p660
S'y'
sS'CONFIG_CHROME_PLATFORMS'
p661
S'y'
sS'CONFIG_HAVE_ARCH_KGDB'
p662
S'y'
sS'CONFIG_IO_DELAY_TYPE_0XED'
p663
I1
sS'net.ipv6.conf.ens3.drop_unicast_in_l2_multicast'
p664
I0
sS'net.ipv6.conf.default.force_mld_version'
p665
I0
sS'net.ipv4.ip_no_pmtu_disc'
p666
I0
sS'CONFIG_WLAN_VENDOR_MEDIATEK'
p667
S'y'
sS'vm.dirty_writeback_centisecs'
p668
I500
sS'net.ipv4.conf.all.send_redirects'
p669
I1
sS'CONFIG_SCSI_CXGB3_ISCSI'
p670
S'm'
sS'net.ipv6.conf.lo.accept_ra'
p671
I1
sS'kernel.sched_domain.cpu2.domain0.max_newidle_lb_cost'
p672
I23098
sS'CONFIG_ARCH_SUPPORTS_OPTIMIZED_INLINING'
p673
S'y'
sS'net.ipv4.conf.default.proxy_arp_pvlan'
p674
I0
sS'CONFIG_PM_STD_PARTITION'
p675
S'""'
p676
sS'net.ipv4.conf.ens3.secure_redirects'
p677
I1
sS'CONFIG_ULTRIX_PARTITION'
p678
S'y'
sS'CONFIG_HAVE_NMI'
p679
S'y'
sS'net.ipv6.conf.ens3.seg6_enabled'
p680
I0
sS'fs.mqueue.msgsize_max'
p681
I8192
sS'CONFIG_HAS_IOMEM'
p682
S'y'
sS'kernel.sched_domain.cpu13.domain0.name'
p683
S'DIE'
p684
sS'net.ipv4.conf.all.forwarding'
p685
I0
sS'CONFIG_USB_DEFAULT_PERSIST'
p686
S'y'
sS'CONFIG_NEW_LEDS'
p687
S'y'
sS'CONFIG_DMI_SCAN_MACHINE_NON_EFI_FALLBACK'
p688
S'y'
sS'kernel.sched_latency_ns'
p689
I24000000
sS'net.ipv4.conf.all.bootp_relay'
p690
I0
sS'net.ipv6.neigh.default.base_reachable_time_ms'
p691
I30000
sS'kernel.perf_event_mlock_kb'
p692
I516
sS'vm.block_dump'
p693
I0
sS'kernel.sched_domain.cpu16.domain0.busy_factor'
p694
I32
sS'kernel.pty.reserve'
p695
I1024
sS'net.ipv4.conf.all.igmpv3_unsolicited_report_interval'
p696
I1000
sS'net.ipv4.conf.default.send_redirects'
p697
I1
sS'net.ipv6.conf.default.disable_ipv6'
p698
I0
sS'CONFIG_MD_RAID0'
p699
S'm'
sS'CONFIG_INLINE_READ_UNLOCK_IRQ'
p700
S'y'
sS'CONFIG_DW_DMAC_PCI'
p701
S'y'
sS'kernel.sched_domain.cpu0.domain0.imbalance_pct'
p702
I125
sS'net.ipv6.conf.lo.hop_limit'
p703
I64
sS'net.ipv4.conf.all.arp_accept'
p704
I0
sS'CONFIG_BINARY_PRINTF'
p705
S'y'
sS'kernel.sched_domain.cpu6.domain0.min_interval'
p706
I24
sS'kernel.msgmnb'
p707
I16384
sS'CONFIG_IRQ_BYPASS_MANAGER'
p708
S'm'
sS'kernel.msgmni'
p709
I32000
sS'CONFIG_SLUB'
p710
S'y'
sS'kernel.soft_watchdog'
p711
I1
sS'CONFIG_USB_LED_TRIG'
p712
S'y'
sS'kernel.sched_time_avg_ms'
p713
I1000
sS'kernel.sched_domain.cpu21.domain0.busy_idx'
p714
I2
sS'kernel.sched_domain.cpu8.domain0.cache_nice_tries'
p715
I1
sS'CONFIG_X86_INTEL_MPX'
p716
S'y'
sS'CONFIG_X86_ACPI_CPUFREQ_CPB'
p717
S'y'
sS'net.ipv6.conf.default.mc_forwarding'
p718
I0
sS'kernel.threads-max'
p719
I515027
sS'net.ipv4.neigh.default.mcast_resolicit'
p720
I0
sS'net.ipv4.conf.default.arp_announce'
p721
I0
sS'CONFIG_ACPI_DOCK'
p722
S'y'
sS'CONFIG_X86_INTEL_MEMORY_PROTECTION_KEYS'
p723
S'y'
sS'net.ipv4.neigh.ens3.base_reachable_time_ms'
p724
I30000
sS'CONFIG_SCHED_MC'
p725
S'y'
sS'CONFIG_ARCH_HAS_MEM_ENCRYPT'
p726
S'y'
sS'CONFIG_BOUNCE'
p727
S'y'
sS'CONFIG_VIRT_TO_BUS'
p728
S'y'
sS'kernel.keys.gc_delay'
p729
I300
sS'CONFIG_HAVE_ARCH_TRANSPARENT_HUGEPAGE_PUD'
p730
S'y'
sS'kernel.hung_task_timeout_secs'
p731
I120
sS'CONFIG_X86_MINIMUM_CPU_FAMILY'
p732
I64
sS'CONFIG_CRYPTO_KPP2'
p733
S'y'
sS'CONFIG_SQUASHFS_ZLIB'
p734
S'y'
sS'CONFIG_X86_PLATFORM_DEVICES'
p735
S'y'
sS'CONFIG_CONTEXT_SWITCH_TRACER'
p736
S'y'
sS'net.ipv4.conf.default.accept_source_route'
p737
I1
sS'kernel.core_pipe_limit'
p738
I0
sS'kernel.dmesg_restrict'
p739
I0
sS'CONFIG_NET_VENDOR_VIA'
p740
S'y'
sS'CONFIG_PERF_EVENTS_INTEL_RAPL'
p741
S'y'
sS'CONFIG_HAVE_PERF_USER_STACK_DUMP'
p742
S'y'
sS'CONFIG_SERIAL_SCCNXP'
p743
S'y'
sS'CONFIG_EFI_RUNTIME_MAP'
p744
S'y'
sS'net.ipv6.neigh.lo.base_reachable_time_ms'
p745
I30000
sS'debug.kprobes-optimization'
p746
I1
sS'kernel.sched_domain.cpu6.domain0.idle_idx'
p747
I1
sS'CONFIG_BPF_SYSCALL'
p748
S'y'
sS'net.ipv6.conf.default.accept_ra_pinfo'
p749
I1
sS'kernel.sched_domain.cpu19.domain0.name'
p750
S'DIE'
p751
sS'CONFIG_VIRTIO_PCI_LEGACY'
p752
S'y'
sS'CONFIG_SATA_ZPODD'
p753
S'y'
sS'CONFIG_WLAN_VENDOR_QUANTENNA'
p754
S'y'
sS'CONFIG_CRYPTO_DEV_CCP'
p755
S'y'
sS'CONFIG_HAVE_EFFICIENT_UNALIGNED_ACCESS'
p756
S'y'
sS'CONFIG_USB_ANNOUNCE_NEW_DEVICES'
p757
S'y'
sS'CONFIG_AUTOFS4_FS'
p758
S'm'
sS'CONFIG_STAGING'
p759
S'y'
sS'CONFIG_ARCH_HAS_FAST_MULTIPLIER'
p760
S'y'
sS'CONFIG_IPV6_MROUTE_MULTIPLE_TABLES'
p761
S'y'
sS'CONFIG_NET_VENDOR_STMICRO'
p762
S'y'
sS'CONFIG_NUMA_BALANCING_DEFAULT_ENABLED'
p763
S'y'
sS'kernel.sched_domain.cpu12.domain0.flags'
p764
I4143
sS'CONFIG_RD_LZ4'
p765
S'y'
sS'net.ipv6.conf.all.accept_ra_rt_info_max_plen'
p766
I0
sS'CONFIG_X86_DEV_DMA_OPS'
p767
S'y'
sS'CONFIG_PCI_ATS'
p768
S'y'
sS'CONFIG_RD_LZO'
p769
S'y'
sS'net.ipv4.tcp_ecn_fallback'
p770
I1
sS'CONFIG_BLK_DEV'
p771
S'y'
sS'CONFIG_HARDLOCKUP_CHECK_TIMESTAMP'
p772
S'y'
sS'CONFIG_SQUASHFS_XZ'
p773
S'y'
sS'kernel.sched_domain.cpu10.domain0.busy_factor'
p774
I32
sS'CONFIG_MDIO_DEVICE'
p775
S'y'
sS'CONFIG_GPIO_RC5T583'
p776
S'y'
sS'net.ipv4.tcp_moderate_rcvbuf'
p777
I1
sS'CONFIG_ACPI_CONTAINER'
p778
S'y'
sS'CONFIG_ATA_BMDMA'
p779
S'y'
sS'net.ipv4.tcp_min_rtt_wlen'
p780
I300
sS'net.ipv6.fwmark_reflect'
p781
I0
sS'CONFIG_MOUSE_PS2_VMMOUSE'
p782
S'y'
sS'kernel.sched_domain.cpu22.domain0.wake_idx'
p783
I0
sS'CONFIG_SECURITY_APPARMOR'
p784
S'y'
sS'CONFIG_WATCHDOG_CORE'
p785
S'y'
sS'CONFIG_SERIAL_KGDB_NMI'
p786
S'y'
sS'CONFIG_INSTRUCTION_DECODER'
p787
S'y'
sS'net.ipv6.neigh.ens3.proxy_delay'
p788
I80
sS'CONFIG_SOC_TI'
p789
S'y'
sS'CONFIG_MFD_TPS80031'
p790
S'y'
sS'net.ipv6.conf.lo.router_probe_interval'
p791
I60
sS'CONFIG_MEMCG'
p792
S'y'
sS'net.ipv6.conf.default.dad_transmits'
p793
I1
sS'CONFIG_SCSI_SCAN_ASYNC'
p794
S'y'
sS'net.core.busy_poll'
p795
I0
sS'CONFIG_IOSCHED_CFQ'
p796
S'y'
sS'CONFIG_MEMBARRIER'
p797
S'y'
sS'net.ipv6.conf.all.mldv1_unsolicited_report_interval'
p798
I10000
sS'kernel.sched_domain.cpu2.domain0.idle_idx'
p799
I1
sS'CONFIG_BLK_DEV_DM'
p800
S'y'
sS'CONFIG_DEFAULT_HUNG_TASK_TIMEOUT'
p801
I120
sS'net.ipv6.conf.default.regen_max_retry'
p802
I3
sS'CONFIG_SND_PCI'
p803
S'y'
sS'CONFIG_GENERIC_CPU'
p804
S'y'
sS'net.ipv4.conf.default.accept_local'
p805
I0
sS'net.ipv6.conf.default.forwarding'
p806
I0
sS'net.core.dev_weight_rx_bias'
p807
I1
sS'CONFIG_CPU_SUP_AMD'
p808
S'y'
sS'CONFIG_GENERIC_FIND_FIRST_BIT'
p809
S'y'
sS'CONFIG_HAVE_USER_RETURN_NOTIFIER'
p810
S'y'
sS'kernel.core_pattern'
p811
S'|/usr/share/apport/apport %p %s %c %d %P'
p812
sS'kernel.perf_event_max_sample_rate'
p813
I100000
sS'CONFIG_SCSI'
p814
S'y'
sS'CONFIG_KPROBES'
p815
S'y'
sS'CONFIG_HAVE_GCC_PLUGINS'
p816
S'y'
sS'CONFIG_GENERIC_EARLY_IOREMAP'
p817
S'y'
sS'kernel.random.poolsize'
p818
I4096
sS'CONFIG_GLOB'
p819
S'y'
sS'CONFIG_ZBUD'
p820
S'y'
sS'CONFIG_ARCH_MMAP_RND_BITS_MAX'
p821
I32
sS'net.ipv6.conf.lo.force_mld_version'
p822
I0
sS'CONFIG_NUMA_BALANCING'
p823
S'y'
sS'net.ipv4.conf.ens3.accept_redirects'
p824
I1
sS'kernel.sched_domain.cpu1.domain0.busy_factor'
p825
I32
sS'CONFIG_EDD_OFF'
p826
S'y'
sS'CONFIG_THERMAL'
p827
S'y'
sS'CONFIG_BPF'
p828
S'y'
sS'CONFIG_HUGETLBFS'
p829
S'y'
sS'net.ipv4.tcp_frto'
p830
I2
sS'CONFIG_ETHERNET'
p831
S'y'
sS'net.ipv4.tcp_probe_threshold'
p832
I8
sS'kernel.sched_domain.cpu20.domain0.name'
p833
S'DIE'
p834
sS'CONFIG_CPU_IDLE'
p835
S'y'
sS'net.ipv4.conf.default.forwarding'
p836
I0
sS'CONFIG_DECOMPRESS_BZIP2'
p837
S'y'
sS'net.ipv6.conf.default.accept_ra_rtr_pref'
p838
I1
sS'net.ipv4.neigh.lo.delay_first_probe_time'
p839
I5
sS'net.ipv6.conf.ens3.force_tllao'
p840
I0
sS'CONFIG_AB3100_CORE'
p841
S'y'
sS'CONFIG_PM'
p842
S'y'
sS'CONFIG_FAIR_GROUP_SCHED'
p843
S'y'
sS'CONFIG_HAVE_ARCH_HUGE_VMAP'
p844
S'y'
sS'net.ipv4.ip_forward'
p845
I0
sS'CONFIG_COMPAT_32'
p846
S'y'
sS'kernel.sched_domain.cpu12.domain0.forkexec_idx'
p847
I0
sS'kernel.sched_domain.cpu7.domain0.busy_factor'
p848
I32
sS'kernel.sched_domain.cpu0.domain0.name'
p849
S'DIE'
p850
sS'kernel.sched_domain.cpu3.domain0.busy_idx'
p851
I2
sS'kernel.sched_domain.cpu4.domain0.busy_idx'
p852
I2
sS'CONFIG_SUSPEND'
p853
S'y'
sS'kernel.sched_domain.cpu18.domain0.name'
p854
S'DIE'
p855
sS'CONFIG_NETFILTER_ADVANCED'
p856
S'y'
sS'CONFIG_RANDOMIZE_MEMORY'
p857
S'y'
sS'net.ipv6.conf.default.accept_ra_from_local'
p858
I0
sS'CONFIG_WLAN_VENDOR_REALTEK'
p859
S'y'
sS'CONFIG_PCIE_PME'
p860
S'y'
sS'net.ipv6.conf.ens3.accept_ra_rt_info_max_plen'
p861
I0
sS'net.core.flow_limit_table_len'
p862
I4096
sS'kernel.sched_domain.cpu9.domain0.flags'
p863
I4143
sS'kernel.sched_domain.cpu17.domain0.wake_idx'
p864
I0
sS'CONFIG_MOUSE_PS2_SYNAPTICS_SMBUS'
p865
S'y'
sS'CONFIG_ZONE_DMA'
p866
S'y'
sS'net.core.max_skb_frags'
p867
I17
sS'CONFIG_DEFCONFIG_LIST'
p868
S'"/lib/modules/$UNAME_RELEASE/.config"'
p869
sS'CONFIG_HAVE_KVM_CPU_RELAX_INTERCEPT'
p870
S'y'
sS'CONFIG_VHOST'
p871
S'm'
sS'kernel.printk_devkmsg'
p872
S'ratelimit'
p873
sS'net.ipv6.neigh.ens3.gc_stale_time'
p874
I60
sS'CONFIG_HAVE_NET_DSA'
p875
S'y'
sS'CONFIG_PCI_LABEL'
p876
S'y'
sS'CONFIG_IOMMU_IOVA'
p877
S'y'
sS'net.ipv6.conf.default.accept_ra'
p878
I1
sS'kernel.sched_domain.cpu6.domain0.max_newidle_lb_cost'
p879
I70689
sS'CONFIG_ISCSI_IBFT_FIND'
p880
S'y'
sS'CONFIG_EVM'
p881
S'y'
sS'CONFIG_PKCS7_MESSAGE_PARSER'
p882
S'y'
sS'net.ipv4.tcp_workaround_signed_windows'
p883
I0
sS'CONFIG_PM_SLEEP'
p884
S'y'
sS'CONFIG_IP_MROUTE'
p885
S'y'
sS'kernel.sched_domain.cpu22.domain0.name'
p886
S'DIE'
p887
sS'net.ipv4.ipfrag_secret_interval'
p888
I0
sS'CONFIG_ZSTD_DECOMPRESS'
p889
S'm'
sS'net.ipv6.neigh.default.ucast_solicit'
p890
I3
sS'net.ipv6.neigh.default.locktime'
p891
I0
sS'CONFIG_AGP_VIA'
p892
S'y'
sS'net.ipv6.auto_flowlabels'
p893
I1
sS'fs.quota.reads'
p894
I0
sS'CONFIG_SCHED_MC_PRIO'
p895
S'y'
sS'CONFIG_NODES_SHIFT'
p896
I6
sS'kernel.sched_domain.cpu14.domain0.flags'
p897
I4143
sS'CONFIG_ELFCORE'
p898
S'y'
sS'CONFIG_BPF_EVENTS'
p899
S'y'
sS'net.ipv4.neigh.lo.mcast_solicit'
p900
I3
sS'CONFIG_BUILD_BIN2C'
p901
S'y'
sS'CONFIG_SND_HDA_GENERIC'
p902
S'm'
sS'net.core.bpf_jit_enable'
p903
I0
sS'CONFIG_SND_HDA'
p904
S'm'
sS'fs.quota.drops'
p905
I0
sS'kernel.acct'
p906
S'4\t2\t30'
p907
sS'kernel.sched_domain.cpu8.domain0.name'
p908
S'DIE'
p909
sS'fs.mqueue.msg_max'
p910
I10
sS'kernel.yama.ptrace_scope'
p911
I1
sS'kernel.sched_domain.cpu19.domain0.idle_idx'
p912
I1
sS'CONFIG_MAC80211_STA_HASH_MAX_SIZE'
p913
I0
sS'dev.parport.default.timeslice'
p914
I200
sS'net.ipv4.inet_peer_threshold'
p915
I65664
sS'kernel.sched_domain.cpu21.domain0.max_newidle_lb_cost'
p916
I37180
sS'net.ipv6.conf.all.ignore_routes_with_linkdown'
p917
I0
sS'net.core.rps_sock_flow_entries'
p918
I0
sS'CONFIG_ARCH_SELECT_MEMORY_MODEL'
p919
S'y'
sS'CONFIG_FONT_8x8'
p920
S'y'
sS'kernel.sched_domain.cpu1.domain0.min_interval'
p921
I24
sS'net.ipv6.conf.default.disable_policy'
p922
I0
sS'CONFIG_EARLY_PRINTK_USB'
p923
S'y'
sS'net.ipv6.neigh.default.proxy_qlen'
p924
I64
sS'CONFIG_EDD'
p925
S'y'
sS'net.ipv6.route.max_size'
p926
I4096
sS'kernel.sched_domain.cpu5.domain0.imbalance_pct'
p927
I125
sS'net.ipv4.tcp_fwmark_accept'
p928
I0
sS'CONFIG_FTRACE_SYSCALLS'
p929
S'y'
sS'net.ipv6.conf.lo.accept_ra_rt_info_min_plen'
p930
I0
sS'CONFIG_GENERIC_IRQ_MIGRATION'
p931
S'y'
sS'kernel.sched_domain.cpu5.domain0.max_interval'
p932
I48
sS'fs.inode-state'
p933
S'100534\t517\t0\t0\t0\t0\t0'
p934
sS'CONFIG_HTC_I2CPLD'
p935
S'y'
sS'CONFIG_LEDS_TRIGGERS'
p936
S'y'
sS'net.ipv4.ipfrag_max_dist'
p937
I64
sS'kernel.sched_rt_period_us'
p938
I1000000
sS'CONFIG_HAVE_CONTEXT_TRACKING'
p939
S'y'
sS'CONFIG_CRYPTO_DRBG'
p940
S'y'
sS'CONFIG_ADVISE_SYSCALLS'
p941
S'y'
sS'CONFIG_STRICT_MODULE_RWX'
p942
S'y'
sS'kernel.sched_domain.cpu19.domain0.busy_idx'
p943
I2
sS'kernel.printk_delay'
p944
I0
sS'kernel.sched_domain.cpu8.domain0.forkexec_idx'
p945
I0
sS'CONFIG_GENERIC_ISA_DMA'
p946
S'y'
sS'net.ipv4.neigh.default.retrans_time_ms'
p947
I1000
sS'net.core.wmem_default'
p948
I212992
sS'CONFIG_RATIONAL'
p949
S'y'
sS'CONFIG_ARCH_DMA_ADDR_T_64BIT'
p950
S'y'
sS'kernel.sched_domain.cpu22.domain0.busy_idx'
p951
I2
sS'CONFIG_IP_NF_FILTER'
p952
S'm'
sS'net.ipv4.conf.default.route_localnet'
p953
I0
sS'net.ipv4.conf.lo.proxy_arp'
p954
I0
sS'CONFIG_PMIC_DA903X'
p955
S'y'
sS'CONFIG_X86_POWERNOW_K8'
p956
S'y'
sS'CONFIG_ACPI_APEI_MEMORY_FAILURE'
p957
S'y'
sS'net.ipv4.ip_local_reserved_ports'
p958
S''
sS'CONFIG_NET_VENDOR_QLOGIC'
p959
S'y'
sS'CONFIG_PCSPKR_PLATFORM'
p960
S'y'
sS'kernel.sched_domain.cpu17.domain0.max_interval'
p961
I48
sS'kernel.sysctl_writes_strict'
p962
I1
sS'vm.drop_caches'
p963
I0
sS'kernel.sched_domain.cpu21.domain0.newidle_idx'
p964
I0
sS'CONFIG_I2C_COMPAT'
p965
S'y'
sS'net.ipv6.conf.ens3.temp_valid_lft'
p966
I604800
sS'CONFIG_HAVE_FUNCTION_TRACER'
p967
S'y'
sS'CONFIG_TRACING_SUPPORT'
p968
S'y'
sS'kernel.sched_domain.cpu22.domain0.max_newidle_lb_cost'
p969
I39037
sS'CONFIG_IMA_APPRAISE'
p970
S'y'
sS'dev.cdrom.info'
p971
S''
sS'CONFIG_NET_VENDOR_AQUANTIA'
p972
S'y'
sS'kernel.sched_domain.cpu9.domain0.wake_idx'
p973
I0
sS'CONFIG_TRANSPARENT_HUGEPAGE_ALWAYS'
p974
S'y'
sg8
S'HostInfo.host-192.168.123.30'
p975
sS'CONFIG_X86_L1_CACHE_SHIFT'
p976
I6
sS'kernel.sched_domain.cpu12.domain0.wake_idx'
p977
I0
sS'kernel.sched_domain.cpu13.domain0.busy_factor'
p978
I32
sS'CONFIG_NET_VENDOR_HP'
p979
S'y'
sS'CONFIG_NET_VENDOR_MELLANOX'
p980
S'y'
sS'CONFIG_SHMEM'
p981
S'y'
sS'CONFIG_EFI_RUNTIME_WRAPPERS'
p982
S'y'
sS'net.core.netdev_max_backlog'
p983
I1000
sS'kernel.sched_domain.cpu8.domain0.max_newidle_lb_cost'
p984
I37820
sS'CONFIG_PM_TRACE_RTC'
p985
S'y'
sS'net.ipv6.neigh.ens3.unres_qlen'
p986
I101
sS'CONFIG_ARCH_HIBERNATION_POSSIBLE'
p987
S'y'
sS'kernel.hotplug'
p988
S''
sS'CONFIG_SERIAL_CORE_CONSOLE'
p989
S'y'
sS'kernel.sched_domain.cpu9.domain0.busy_idx'
p990
I2
sS'kernel.ostype'
p991
S'Linux'
p992
sS'CONFIG_PNP'
p993
S'y'
sS'kernel.sched_domain.cpu9.domain0.imbalance_pct'
p994
I125
sS'CONFIG_IPV6'
p995
S'y'
sS'CONFIG_GENERIC_CLOCKEVENTS'
p996
S'y'
sS'CONFIG_MICROCODE_INTEL'
p997
S'y'
sS'CONFIG_PM_CLK'
p998
S'y'
sS'kernel.sched_domain.cpu12.domain0.min_interval'
p999
I24
sS'CONFIG_KVM_COMPAT'
p1000
S'y'
sS'CONFIG_TCG_TPM'
p1001
S'y'
sS'CONFIG_I2C_DESIGNWARE_PLATFORM'
p1002
S'y'
sS'net.ipv6.conf.ens3.ignore_routes_with_linkdown'
p1003
I0
sS'CONFIG_CHECKPOINT_RESTORE'
p1004
S'y'
sS'vm.nr_pdflush_threads'
p1005
I0
sS'kernel.sched_domain.cpu6.domain0.busy_factor'
p1006
I32
sS'kernel.sched_domain.cpu4.domain0.imbalance_pct'
p1007
I125
sS'CONFIG_SQUASHFS'
p1008
S'y'
sS'CONFIG_WQ_POWER_EFFICIENT_DEFAULT'
p1009
S'y'
sS'CONFIG_MFD_MAX77693'
p1010
S'y'
sS'kernel.core_uses_pid'
p1011
I0
sS'CONFIG_CGROUP_DEVICE'
p1012
S'y'
sS'CONFIG_NET_VENDOR_ALTEON'
p1013
S'y'
sS'CONFIG_BSD_PROCESS_ACCT_V3'
p1014
S'y'
sS'net.ipv4.conf.ens3.tag'
p1015
I0
sS'CONFIG_AMD_NB'
p1016
S'y'
sS'net.ipv4.conf.default.tag'
p1017
I0
sS'net.ipv4.tcp_max_syn_backlog'
p1018
I2048
sS'CONFIG_DECOMPRESS_XZ'
p1019
S'y'
sS'net.ipv6.conf.all.dad_transmits'
p1020
I1
sS'kernel.sched_domain.cpu21.domain0.busy_factor'
p1021
I32
sS'vm.dirty_expire_centisecs'
p1022
I3000
sS'CONFIG_KERNFS'
p1023
S'y'
sS'CONFIG_IP_MULTICAST'
p1024
S'y'
sS'CONFIG_PM_WAKELOCKS_GC'
p1025
S'y'
sS'kernel.sched_domain.cpu3.domain0.wake_idx'
p1026
I0
sS'kernel.sched_domain.cpu18.domain0.newidle_idx'
p1027
I0
sS'CONFIG_GENERIC_IRQ_SHOW'
p1028
S'y'
sS'CONFIG_MFD_WM8400'
p1029
S'y'
sS'net.ipv6.conf.all.forwarding'
p1030
I0
sS'net.ipv4.conf.default.medium_id'
p1031
I0
sS'CONFIG_ARCH_HAS_GIGANTIC_PAGE'
p1032
S'y'
sS'vm.oom_dump_tasks'
p1033
I1
sS'net.ipv6.ip6frag_secret_interval'
p1034
I0
sS'CONFIG_PMIC_ADP5520'
p1035
S'y'
sS'CONFIG_USER_NS'
p1036
S'y'
sS'net.ipv4.neigh.default.gc_stale_time'
p1037
I60
sS'CONFIG_PARPORT'
p1038
S'm'
sS'CONFIG_ARCH_WANTS_DYNAMIC_TASK_STRUCT'
p1039
S'y'
sS'net.ipv4.conf.ens3.accept_source_route'
p1040
I1
sS'CONFIG_SYSTEM_TRUSTED_KEYRING'
p1041
S'y'
sS'net.ipv6.icmp.ratelimit'
p1042
I1000
sS'net.ipv4.conf.lo.log_martians'
p1043
I0
sS'CONFIG_HAVE_ALIGNED_STRUCT_PAGE'
p1044
S'y'
sS'dev.cdrom.check_media'
p1045
I0
sS'CONFIG_INTEL_SOC_PMIC'
p1046
S'y'
sS'kernel.panic_on_rcu_stall'
p1047
I0
sS'net.ipv6.conf.ens3.keep_addr_on_down'
p1048
I0
sS'net.ipv4.conf.default.mc_forwarding'
p1049
I0
sS'net.core.dev_weight_tx_bias'
p1050
I1
sS'CONFIG_MDIO'
p1051
S'm'
sS'net.ipv6.neigh.default.retrans_time_ms'
p1052
I1000
sS'net.ipv6.conf.ens3.drop_unsolicited_na'
p1053
I0
sS'kernel.sem'
p1054
S'32000\t1024000000\t500\t32000'
p1055
sS'net.ipv4.tcp_window_scaling'
p1056
I1
sS'net.ipv4.tcp_available_ulp'
p1057
S''
sS'CONFIG_NEED_DMA_MAP_STATE'
p1058
S'y'
sS'net.ipv6.conf.lo.temp_prefered_lft'
p1059
I86400
sS'CONFIG_HAVE_ARCH_SECCOMP_FILTER'
p1060
S'y'
sS'CONFIG_INPUT_MOUSEDEV_SCREEN_X'
p1061
I1024
sS'CONFIG_INPUT_MOUSEDEV_SCREEN_Y'
p1062
I768
sS'CONFIG_DMIID'
p1063
S'y'
sS'net.ipv4.conf.default.arp_notify'
p1064
I0
sS'CONFIG_INPUT_UINPUT'
p1065
S'y'
sS'net.ipv6.flowlabel_reflect'
p1066
I0
sS'CONFIG_DAX'
p1067
S'y'
sS'CONFIG_NETLABEL'
p1068
S'y'
sS'CONFIG_ARCH_HAS_ACPI_TABLE_UPGRADE'
p1069
S'y'
sS'CONFIG_IRQ_REMAP'
p1070
S'y'
sS'CONFIG_GENERIC_TRACER'
p1071
S'y'
sS'kernel.sched_domain.cpu15.domain0.busy_idx'
p1072
I2
sS'CONFIG_BE2ISCSI'
p1073
S'm'
sS'CONFIG_NET_VENDOR_DEC'
p1074
S'y'
sS'CONFIG_FUTEX'
p1075
S'y'
sS'net.ipv6.neigh.ens3.app_solicit'
p1076
I0
sS'net.ipv4.inet_peer_maxttl'
p1077
I600
sS'CONFIG_SSB_POSSIBLE'
p1078
S'y'
sS'net.ipv4.conf.default.arp_ignore'
p1079
I0
sS'CONFIG_WLAN_VENDOR_ADMTEK'
p1080
S'y'
sS'kernel.softlockup_all_cpu_backtrace'
p1081
I0
sS'CONFIG_ZSTD_COMPRESS'
p1082
S'm'
sS'CONFIG_HWMON'
p1083
S'y'
sS'kernel.bootloader_type'
p1084
I114
sS'CONFIG_MFD_DA9052_I2C'
p1085
S'y'
sS'CONFIG_LOG_BUF_SHIFT'
p1086
I18
sS'CONFIG_INTEL_IOMMU'
p1087
S'y'
sS'CONFIG_IRQ_DOMAIN_HIERARCHY'
p1088
S'y'
sS'CONFIG_NET_VENDOR_BROCADE'
p1089
S'y'
sS'CONFIG_ACPI_CUSTOM_DSDT_FILE'
p1090
S'""'
p1091
sS'kernel.sched_domain.cpu15.domain0.imbalance_pct'
p1092
I125
sS'net.ipv6.neigh.default.gc_thresh3'
p1093
I1024
sS'net.ipv6.conf.ens3.use_tempaddr'
p1094
I0
sS'vm.nr_hugepages'
p1095
I0
sS'CONFIG_NO_HZ_IDLE'
p1096
S'y'
sS'user.max_ipc_namespaces'
p1097
I257513
sS'kernel.sched_domain.cpu15.domain0.flags'
p1098
I4143
sS'CONFIG_COMPAT'
p1099
S'y'
sS'CONFIG_CRYPTO_SHA256'
p1100
S'y'
sS'net.ipv4.neigh.ens3.unres_qlen_bytes'
p1101
I212992
sS'vm.overcommit_memory'
p1102
I0
sS'CONFIG_MODULE_UNLOAD'
p1103
S'y'
sS'CONFIG_NLS_DEFAULT'
p1104
S'"utf8"'
p1105
sS'CONFIG_MFD_RC5T583'
p1106
S'y'
sS'CONFIG_BTRFS_FS_POSIX_ACL'
p1107
S'y'
sS'CONFIG_GENERIC_PHY'
p1108
S'y'
sS'net.ipv6.conf.lo.accept_source_route'
p1109
I0
sS'CONFIG_CHELSIO_LIB'
p1110
S'm'
sS'kernel.sched_domain.cpu18.domain0.cache_nice_tries'
p1111
I1
sS'net.ipv4.neigh.lo.retrans_time_ms'
p1112
I1000
sS'CONFIG_X86_RESERVE_LOW'
p1113
I64
sS'kernel.modules_disabled'
p1114
I0
sS'CONFIG_X86_NUMACHIP'
p1115
S'y'
sS'net.ipv6.ip_nonlocal_bind'
p1116
I0
sS'CONFIG_TCP_CONG_CUBIC'
p1117
S'y'
sS'kernel.sched_domain.cpu16.domain0.busy_idx'
p1118
I2
sS'CONFIG_INOTIFY_USER'
p1119
S'y'
sS'net.ipv4.neigh.lo.ucast_solicit'
p1120
I3
sS'CONFIG_UEFI_CPER'
p1121
S'y'
sS'CONFIG_RTC_DRV_CMOS'
p1122
S'y'
sS'CONFIG_TRANSPARENT_HUGE_PAGECACHE'
p1123
S'y'
sS'net.ipv4.neigh.lo.base_reachable_time_ms'
p1124
I30000
sS'net.ipv4.tcp_tw_reuse'
p1125
I0
sS'CONFIG_MOUSE_PS2_SENTELIC'
p1126
S'y'
sS'CONFIG_LOCKUP_DETECTOR'
p1127
S'y'
sS'CONFIG_ASYNC_MEMCPY'
p1128
S'm'
sS'CONFIG_RAPIDIO'
p1129
S'y'
sS'CONFIG_STAGING_MEDIA'
p1130
S'y'
sS'net.ipv4.conf.ens3.igmpv3_unsolicited_report_interval'
p1131
I1000
sS'net.ipv4.ip_local_port_range'
p1132
S'32768\t60999'
p1133
sS'kernel.sched_domain.cpu2.domain0.min_interval'
p1134
I24
sS'CONFIG_HUGETLB_PAGE'
p1135
S'y'
sS'CONFIG_PERF_EVENTS'
p1136
S'y'
sS'net.ipv4.neigh.lo.locktime'
p1137
I100
sS'CONFIG_SECURITY_TOMOYO_ACTIVATION_TRIGGER'
p1138
S'"/sbin/init"'
p1139
sS'CONFIG_UCS2_STRING'
p1140
S'y'
sS'CONFIG_ARCH_SPARSEMEM_DEFAULT'
p1141
S'y'
sS'CONFIG_IPV6_ROUTE_INFO'
p1142
S'y'
sS'CONFIG_CLKEVT_I8253'
p1143
S'y'
sS'CONFIG_SERIAL_8250_PCI'
p1144
S'y'
sS'CONFIG_PCIEASPM_DEFAULT'
p1145
S'y'
sS'CONFIG_HAVE_EXIT_THREAD'
p1146
S'y'
sS'CONFIG_SND_HDA_HWDEP'
p1147
S'y'
sS'CONFIG_SOFTLOCKUP_DETECTOR'
p1148
S'y'
sS'CONFIG_EARLY_PRINTK'
p1149
S'y'
sS'net.ipv6.conf.ens3.ndisc_notify'
p1150
I0
sS'net.ipv4.conf.all.proxy_arp_pvlan'
p1151
I0
sS'kernel'
p1152
S'4.14.0-rc8-stock'
p1153
sS'user.max_cgroup_namespaces'
p1154
I257513
sS'CONFIG_BACKLIGHT_LCD_SUPPORT'
p1155
S'y'
sS'CONFIG_DUMMY_CONSOLE_ROWS'
p1156
I25
sS'CONFIG_MOUSE_PS2_ELANTECH'
p1157
S'y'
sS'CONFIG_PCI_MMCONFIG'
p1158
S'y'
sS'CONFIG_KVM_MMIO'
p1159
S'y'
sS'net.ipv4.neigh.default.unres_qlen_bytes'
p1160
I212992
sS'kernel.sched_domain.cpu14.domain0.busy_factor'
p1161
I32
sS'CONFIG_PINCTRL_BAYTRAIL'
p1162
S'y'
sS'net.ipv4.icmp_errors_use_inbound_ifaddr'
p1163
I0
sS'net.ipv6.conf.all.addr_gen_mode'
p1164
I0
sS'CONFIG_HAVE_ACPI_APEI_NMI'
p1165
S'y'
sS'vm.page-cluster'
p1166
I3
sS'CONFIG_MOUSE_PS2_CYPRESS'
p1167
S'y'
sS'kernel.sched_rt_runtime_us'
p1168
I950000
sS'CONFIG_USB_DWC2_PCI'
p1169
S'y'
sS'CONFIG_X86_CMOV'
p1170
S'y'
sS'net.ipv4.tcp_fastopen_blackhole_timeout_sec'
p1171
I3600
sS'CONFIG_SIGNATURE'
p1172
S'y'
sS'net.ipv4.conf.all.mc_forwarding'
p1173
I0
sS'CONFIG_PM_DEBUG'
p1174
S'y'
sS'net.ipv4.neigh.default.ucast_solicit'
p1175
I3
sS'net.ipv4.tcp_keepalive_intvl'
p1176
I75
sS'CONFIG_SOUND'
p1177
S'm'
sS'kernel.sched_domain.cpu6.domain0.flags'
p1178
I4143
sS'CONFIG_SERIO_I8042'
p1179
S'y'
sS'CONFIG_NET_VENDOR_NETRONOME'
p1180
S'y'
sS'CONFIG_BLK_DEV_LOOP'
p1181
S'y'
sS'vm.mmap_min_addr'
p1182
I65536
sS'CONFIG_CRYPTO_DRBG_CTR'
p1183
S'y'
sS'CONFIG_HAVE_CMPXCHG_LOCAL'
p1184
S'y'
sS'net.ipv6.route.mtu_expires'
p1185
I600
sS'CONFIG_SND_USB'
p1186
S'y'
sS'CONFIG_CMDLINE_PARTITION'
p1187
S'y'
sS'CONFIG_NETWORK_SECMARK'
p1188
S'y'
sS'CONFIG_SND_HDA_INTEL'
p1189
S'm'
sS'net.ipv4.ping_group_range'
p1190
S'1\t0'
p1191
sS'CONFIG_PERF_EVENTS_INTEL_CSTATE'
p1192
S'y'
sS'kernel.sched_domain.cpu5.domain0.max_newidle_lb_cost'
p1193
I40206
sS'net.ipv4.icmp_msgs_burst'
p1194
I50
sS'CONFIG_PPP_MULTILINK'
p1195
S'y'
sS'CONFIG_BLK_DEV_FD'
p1196
S'm'
sS'kernel.sched_domain.cpu16.domain0.forkexec_idx'
p1197
I0
sS'CONFIG_SND_DRIVERS'
p1198
S'y'
sS'CONFIG_SCSI_CXGB4_ISCSI'
p1199
S'm'
sS'CONFIG_CRASH_DUMP'
p1200
S'y'
sS'vm.watermark_scale_factor'
p1201
I10
sS'CONFIG_HAVE_UID16'
p1202
S'y'
sS'CONFIG_NET_VENDOR_WIZNET'
p1203
S'y'
sS'kernel.sched_domain.cpu14.domain0.max_interval'
p1204
I48
sS'CONFIG_IPV6_ROUTER_PREF'
p1205
S'y'
sS'dev.parport.default.spintime'
p1206
I500
sS'CONFIG_IOSF_MBI'
p1207
S'y'
sS'net.ipv4.fib_multipath_hash_policy'
p1208
I0
sS'CONFIG_BLK_DEV_BSG'
p1209
S'y'
sS'kernel.sched_domain.cpu5.domain0.flags'
p1210
I4143
sS'kernel.sched_domain.cpu19.domain0.newidle_idx'
p1211
I0
sS'CONFIG_CPU_FREQ_GOV_CONSERVATIVE'
p1212
S'y'
sS'CONFIG_MEMORY_HOTPLUG_SPARSE'
p1213
S'y'
sS'CONFIG_ZSWAP'
p1214
S'y'
sS'CONFIG_KVM'
p1215
S'm'
sS'CONFIG_PCIEASPM_DEBUG'
p1216
S'y'
sS'CONFIG_PROC_PID_CPUSET'
p1217
S'y'
sS'CONFIG_MEMORY_BALLOON'
p1218
S'y'
sS'CONFIG_INFINIBAND'
p1219
S'm'
sS'CONFIG_NET_VENDOR_SILAN'
p1220
S'y'
sS'net.ipv4.conf.ens3.log_martians'
p1221
I0
sS'CONFIG_CC_STACKPROTECTOR_STRONG'
p1222
S'y'
sS'CONFIG_HOTPLUG_CPU'
p1223
S'y'
sS'CONFIG_PROC_FS'
p1224
S'y'
sS'net.ipv4.route.redirect_number'
p1225
I9
sS'CONFIG_MOUSE_PS2_ALPS'
p1226
S'y'
sS'kernel.sched_domain.cpu3.domain0.min_interval'
p1227
I24
sS'kernel.sched_domain.cpu14.domain0.busy_idx'
p1228
I2
sS'CONFIG_THERMAL_WRITABLE_TRIPS'
p1229
S'y'
sS'CONFIG_TOUCHSCREEN_PROPERTIES'
p1230
S'y'
sS'vm.lowmem_reserve_ratio'
p1231
S'256\t256\t32\t1'
p1232
sS'CONFIG_BLK_DEV_THROTTLING'
p1233
S'y'
sS'CONFIG_SWAP'
p1234
S'y'
sS'kernel.osrelease'
p1235
S'4.14.0-rc8-stock'
p1236
sS'kernel.sched_domain.cpu8.domain0.busy_idx'
p1237
I2
sS'CONFIG_AMD_IOMMU'
p1238
S'y'
sS'CONFIG_PAGE_COUNTER'
p1239
S'y'
sS'CONFIG_ARCH_MIGHT_HAVE_ACPI_PDC'
p1240
S'y'
sS'kernel.sched_domain.cpu14.domain0.forkexec_idx'
p1241
I0
sS'CONFIG_MFD_AS3711'
p1242
S'y'
sS'CONFIG_IO_DELAY_TYPE_UDELAY'
p1243
I2
sS'CONFIG_EFI_MIXED'
p1244
S'y'
sS'CONFIG_FILE_LOCKING'
p1245
S'y'
sS'CONFIG_MFD_WM831X_I2C'
p1246
S'y'
sS'CONFIG_ATA_ACPI'
p1247
S'y'
sS'net.ipv4.conf.lo.route_localnet'
p1248
I0
sS'net.ipv6.conf.all.drop_unsolicited_na'
p1249
I0
sS'CONFIG_ACPI_APEI'
p1250
S'y'
sS'net.ipv6.conf.ens3.mc_forwarding'
p1251
I0
sS'CONFIG_IRQ_DOMAIN'
p1252
S'y'
sS'net.ipv4.udp_wmem_min'
p1253
I4096
sS'net.ipv4.tcp_invalid_ratelimit'
p1254
I500
sS'net.ipv4.neigh.ens3.proxy_qlen'
p1255
I64
sS'CONFIG_NET_VENDOR_AMAZON'
p1256
S'y'
sS'kernel.sched_domain.cpu2.domain0.busy_factor'
p1257
I32
sS'CONFIG_VT'
p1258
S'y'
sS'net.ipv4.conf.lo.arp_announce'
p1259
I0
sS'kernel.sched_domain.cpu17.domain0.cache_nice_tries'
p1260
I1
sS'CONFIG_HAVE_IDE'
p1261
S'y'
sS'kernel.sched_domain.cpu6.domain0.forkexec_idx'
p1262
I0
sS'CONFIG_NET_VENDOR_8390'
p1263
S'y'
sS'kernel.sched_domain.cpu15.domain0.cache_nice_tries'
p1264
I1
sS'fs.mqueue.queues_max'
p1265
I256
sS'net.ipv4.conf.ens3.rp_filter'
p1266
I0
sS'CONFIG_NET_NS'
p1267
S'y'
sS'CONFIG_HAVE_LIVEPATCH'
p1268
S'y'
sS'CONFIG_KGDB_LOW_LEVEL_TRAP'
p1269
S'y'
sS'CONFIG_HAVE_OPROFILE'
p1270
S'y'
sS'CONFIG_NVDIMM_DAX'
p1271
S'y'
sS'CONFIG_IMA_DEFAULT_HASH'
p1272
S'"sha1"'
p1273
sS'CONFIG_ACPI_THERMAL'
p1274
S'y'
sS'CONFIG_BLK_DEV_BSGLIB'
p1275
S'y'
sS'net.ipv4.neigh.default.locktime'
p1276
I100
sS'CONFIG_PINCTRL_CHERRYVIEW'
p1277
S'y'
sS'CONFIG_HPET_MMAP'
p1278
S'y'
sS'CONFIG_SERIAL_8250_RT288X'
p1279
S'y'
sS'CONFIG_CLOCKSOURCE_VALIDATE_LAST_CYCLE'
p1280
S'y'
sS'net.ipv4.conf.lo.rp_filter'
p1281
I0
sS'net.core.busy_read'
p1282
I0
sS'CONFIG_BTRFS_FS'
p1283
S'm'
sS'CONFIG_DCACHE_WORD_ACCESS'
p1284
S'y'
sS'net.ipv6.conf.default.mtu'
p1285
I1280
sS'kernel.sched_domain.cpu7.domain0.idle_idx'
p1286
I1
sS'kernel.sched_domain.cpu22.domain0.imbalance_pct'
p1287
I125
sS'net.ipv4.conf.default.drop_gratuitous_arp'
p1288
I0
sS'CONFIG_UPROBES'
p1289
S'y'
sS'kernel.sched_domain.cpu19.domain0.busy_factor'
p1290
I32
sS'CONFIG_ARCH_ENABLE_MEMORY_HOTPLUG'
p1291
S'y'
sS'CONFIG_FIRMWARE_MEMMAP'
p1292
S'y'
sS'CONFIG_FIX_EARLYCON_MEM'
p1293
S'y'
sS'CONFIG_SCHED_DEBUG'
p1294
S'y'
sS'CONFIG_BOOT_PRINTK_DELAY'
p1295
S'y'
sS'CONFIG_TMPFS'
p1296
S'y'
sS'CONFIG_X86_MCE_INTEL'
p1297
S'y'
sS'CONFIG_RTC_INTF_PROC'
p1298
S'y'
sS'kernel.sched_domain.cpu1.domain0.busy_idx'
p1299
I2
sS'CONFIG_MD_AUTODETECT'
p1300
S'y'
sS'CONFIG_CRYPTO_CRCT10DIF_PCLMUL'
p1301
S'm'
sS'CONFIG_X86_ESPFIX64'
p1302
S'y'
sS'net.ipv4.neigh.lo.gc_stale_time'
p1303
I60
sS'kernel.traceoff_on_warning'
p1304
I0
sS'net.ipv4.conf.all.proxy_arp'
p1305
I0
sS'kernel.sched_domain.cpu15.domain0.max_newidle_lb_cost'
p1306
I29821
sS'CONFIG_ARCH_USE_BUILTIN_BSWAP'
p1307
S'y'
sS'CONFIG_PROC_SYSCTL'
p1308
S'y'
sS'fs.file-max'
p1309
I6576659
sS'CONFIG_ACPI_APEI_GHES'
p1310
S'y'
sS'kernel.sched_domain.cpu11.domain0.busy_factor'
p1311
I32
sS'kernel.sched_domain.cpu19.domain0.wake_idx'
p1312
I0
sS'net.ipv4.tcp_limit_output_bytes'
p1313
I262144
sS'CONFIG_NET_VENDOR_NVIDIA'
p1314
S'y'
sS'kernel.overflowuid'
p1315
I65534
sS'CONFIG_ACPI_HOTPLUG_CPU'
p1316
S'y'
sS'net.ipv4.conf.ens3.disable_xfrm'
p1317
I0
sS'CONFIG_FRAME_WARN'
p1318
I1024
sS'net.ipv6.conf.all.enhanced_dad'
p1319
I1
sS'CONFIG_FAT_FS'
p1320
S'y'
sS'CONFIG_IRQ_POLL'
p1321
S'y'
sS'net.ipv6.conf.all.hop_limit'
p1322
I64
sS'CONFIG_VT_CONSOLE_SLEEP'
p1323
S'y'
sS'kernel.random.entropy_avail'
p1324
I898
sS'net.ipv4.conf.default.force_igmp_version'
p1325
I0
sS'net.ipv4.ip_default_ttl'
p1326
I64
sS'CONFIG_CLEANCACHE'
p1327
S'y'
sS'CONFIG_PCI_PRI'
p1328
S'y'
sS'CONFIG_CRYPTO_ALGAPI'
p1329
S'y'
sS'kernel.random.boot_id'
p1330
S'a97ed727-4789-4e94-ac9a-6034a0a169b8'
p1331
sS'net.ipv4.conf.lo.accept_local'
p1332
I0
sS'kernel.sched_domain.cpu2.domain0.max_interval'
p1333
I48
sS'CONFIG_QUOTA'
p1334
S'y'
sS'net.ipv4.neigh.default.app_solicit'
p1335
I0
sS'kernel.sched_domain.cpu13.domain0.forkexec_idx'
p1336
I0
sS'CONFIG_CPUSETS'
p1337
S'y'
sS'CONFIG_THERMAL_GOV_BANG_BANG'
p1338
S'y'
sS'CONFIG_REGMAP_IRQ'
p1339
S'y'
sS'CONFIG_CMA'
p1340
S'y'
sS'CONFIG_TRACING'
p1341
S'y'
sS'CONFIG_KDB_KEYBOARD'
p1342
S'y'
sS'CONFIG_RADIX_TREE_MULTIORDER'
p1343
S'y'
sS'net.ipv4.conf.all.promote_secondaries'
p1344
I0
sS'CONFIG_LWTUNNEL'
p1345
S'y'
sS'CONFIG_ARCH_MIGHT_HAVE_PC_SERIO'
p1346
S'y'
sS'net.ipv4.neigh.lo.proxy_qlen'
p1347
I64
sS'CONFIG_CC_STACKPROTECTOR'
p1348
S'y'
sS'net.ipv6.conf.lo.router_solicitation_delay'
p1349
I1
sS'CONFIG_FIB_RULES'
p1350
S'y'
sS'net.ipv4.neigh.lo.unres_qlen_bytes'
p1351
I212992
sS'CONFIG_COMPAT_BINFMT_ELF'
p1352
S'y'
sS'kernel.sched_domain.cpu10.domain0.busy_idx'
p1353
I2
sS'CONFIG_HAVE_KPROBES'
p1354
S'y'
sS'net.ipv4.tcp_mem'
p1355
S'768357\t1024476\t1536714'
p1356
sS'CONFIG_VME_BUS'
p1357
S'y'
sS'CONFIG_FW_LOADER'
p1358
S'y'
sS'CONFIG_ATA_VERBOSE_ERROR'
p1359
S'y'
sS'CONFIG_IOSCHED_DEADLINE'
p1360
S'y'
sS'net.ipv6.conf.all.max_desync_factor'
p1361
I600
sS'CONFIG_ARCH_MMAP_RND_COMPAT_BITS_MAX'
p1362
I16
sS'kernel.sched_domain.cpu4.domain0.busy_factor'
p1363
I32
sS'CONFIG_FB_CFB_IMAGEBLIT'
p1364
S'y'
sS'CONFIG_EXT4_USE_FOR_EXT2'
p1365
S'y'
sS'CONFIG_INPUT_MOUSEDEV_PSAUX'
p1366
S'y'
sS'CONFIG_BLOCK_COMPAT'
p1367
S'y'
sS'CONFIG_ATH5K_PCI'
p1368
S'y'
sS'CONFIG_SCSI_LOGGING'
p1369
S'y'
sS'CONFIG_IP_NF_IPTABLES'
p1370
S'm'
sS'CONFIG_NET_CLS'
p1371
S'y'
sS'CONFIG_ACPI_LEGACY_TABLES_LOOKUP'
p1372
S'y'
sS'CONFIG_INPUT_TABLET'
p1373
S'y'
sS'CONFIG_ILLEGAL_POINTER_VALUE'
p1374
S'0xdead000000000000'
p1375
sS'CONFIG_THERMAL_GOV_STEP_WISE'
p1376
S'y'
sS'CONFIG_PRINTK'
p1377
S'y'
sS'net.ipv4.conf.default.promote_secondaries'
p1378
I0
sS'kernel.sched_domain.cpu20.domain0.busy_idx'
p1379
I2
sS'CONFIG_NET_L3_MASTER_DEV'
p1380
S'y'
sS'CONFIG_MINIX_SUBPARTITION'
p1381
S'y'
sS'CONFIG_SND_MAX_CARDS'
p1382
I32
sS'CONFIG_FRAMEBUFFER_CONSOLE'
p1383
S'y'
sS'CONFIG_BRIDGE'
p1384
S'm'
sS'net.ipv6.conf.lo.accept_ra_pinfo'
p1385
I1
sS'CONFIG_NET_VENDOR_AGERE'
p1386
S'y'
sS'CONFIG_ASYNC_XOR'
p1387
S'm'
sS'CONFIG_ACPI_HOTPLUG_IOAPIC'
p1388
S'y'
sS'kernel.sched_domain.cpu1.domain0.flags'
p1389
I4143
sS'CONFIG_TRACE_IRQFLAGS_SUPPORT'
p1390
S'y'
sS'CONFIG_KEYBOARD_ATKBD'
p1391
S'y'
sS'net.core.default_qdisc'
p1392
S'pfifo_fast'
p1393
sS'kernel.sched_domain.cpu14.domain0.min_interval'
p1394
I24
sS'CONFIG_VIRTIO_MMIO'
p1395
S'y'
sS'CONFIG_SND_PCM'
p1396
S'm'
sS'CONFIG_SND_X86'
p1397
S'y'
sS'CONFIG_INPUT_KEYBOARD'
p1398
S'y'
sS'CONFIG_ARCH_SUPPORTS_DEFERRED_STRUCT_PAGE_INIT'
p1399
S'y'
sS'net.ipv6.conf.all.accept_ra_mtu'
p1400
I1
sS'net.ipv4.ipfrag_high_thresh'
p1401
I4194304
sS'kernel.sched_domain.cpu5.domain0.idle_idx'
p1402
I1
sS'CONFIG_NET_VENDOR_ROCKER'
p1403
S'y'
sS'CONFIG_I2C'
p1404
S'y'
sS'CONFIG_BUG'
p1405
S'y'
sS'CONFIG_CPU_FREQ_GOV_COMMON'
p1406
S'y'
sS'CONFIG_PHYSICAL_ALIGN'
p1407
S'0x1000000'
p1408
sS'kernel.timer_migration'
p1409
I1
sS'CONFIG_HAVE_ARCH_VMAP_STACK'
p1410
S'y'
sS'kernel.sched_domain.cpu9.domain0.name'
p1411
S'DIE'
p1412
sS'CONFIG_PSTORE_ZLIB_COMPRESS'
p1413
S'y'
sS'CONFIG_CRYPTO_BLKCIPHER2'
p1414
S'y'
sS'CONFIG_GENERIC_IRQ_EFFECTIVE_AFF_MASK'
p1415
S'y'
sS'CONFIG_CHR_DEV_SG'
p1416
S'y'
sS'CONFIG_ARCH_HAS_PKEYS'
p1417
S'y'
sS'CONFIG_SIGNALFD'
p1418
S'y'
sS'CONFIG_IMA_LSM_RULES'
p1419
S'y'
sS'CONFIG_MD_MULTIPATH'
p1420
S'm'
sS'net.ipv4.neigh.default.mcast_solicit'
p1421
I3
sS'kernel.sched_domain.cpu13.domain0.idle_idx'
p1422
I1
sS'CONFIG_SYSTEM_DATA_VERIFICATION'
p1423
S'y'
sS'CONFIG_ACPI'
p1424
S'y'
sS'CONFIG_RTC_MC146818_LIB'
p1425
S'y'
sS'kernel.sched_domain.cpu10.domain0.cache_nice_tries'
p1426
I1
sS'CONFIG_STACKTRACE_SUPPORT'
p1427
S'y'
sS'kernel.sched_domain.cpu8.domain0.flags'
p1428
I4143
sS'CONFIG_INTEL_GTT'
p1429
S'y'
sS'CONFIG_THERMAL_EMULATION'
p1430
S'y'
sS'CONFIG_HAVE_DMA_CONTIGUOUS'
p1431
S'y'
sS'net.netfilter.nf_log.5'
p1432
S'NONE'
p1433
sS'net.netfilter.nf_log.4'
p1434
S'NONE'
p1435
sS'net.netfilter.nf_log.7'
p1436
S'NONE'
p1437
sS'net.netfilter.nf_log.6'
p1438
S'NONE'
p1439
sS'net.netfilter.nf_log.1'
p1440
S'NONE'
p1441
sS'net.netfilter.nf_log.0'
p1442
S'NONE'
p1443
sS'net.netfilter.nf_log.3'
p1444
S'NONE'
p1445
sS'net.netfilter.nf_log.2'
p1446
S'NONE'
p1447
sS'CONFIG_INLINE_READ_UNLOCK'
p1448
S'y'
sS'net.netfilter.nf_log.9'
p1449
S'NONE'
p1450
sS'net.netfilter.nf_log.8'
p1451
S'NONE'
p1452
sS'net.ipv4.conf.ens3.arp_announce'
p1453
I0
sS'kernel.real-root-dev'
p1454
I0
sS'vm.vfs_cache_pressure'
p1455
I100
sS'vm.user_reserve_kbytes'
p1456
I131072
sS'CONFIG_HAVE_KERNEL_LZO'
p1457
S'y'
sS'dev.raid.speed_limit_max'
p1458
I200000
sS'CONFIG_IP_FIB_TRIE_STATS'
p1459
S'y'
sS'CONFIG_DEVFREQ_GOV_PERFORMANCE'
p1460
S'y'
sS'net.ipv4.conf.all.disable_xfrm'
p1461
I0
sS'CONFIG_IPV6_MULTIPLE_TABLES'
p1462
S'y'
sS'kernel.sched_domain.cpu3.domain0.newidle_idx'
p1463
I0
sS'fs.quota.lookups'
p1464
I0
sS'CONFIG_QUOTACTL'
p1465
S'y'
sS'kernel.sched_domain.cpu23.domain0.busy_idx'
p1466
I2
sS'CONFIG_ARCH_WANT_BATCHED_UNMAP_TLB_FLUSH'
p1467
S'y'
sS'CONFIG_SCSI_QLA_ISCSI'
p1468
S'm'
sS'net.ipv6.conf.lo.temp_valid_lft'
p1469
I604800
sS'kernel.pty.max'
p1470
I4096
sS'CONFIG_ISCSI_BOOT_SYSFS'
p1471
S'm'
sS'CONFIG_HAVE_KERNEL_LZ4'
p1472
S'y'
sS'CONFIG_GPIO_PALMAS'
p1473
S'y'
sS'CONFIG_SQUASHFS_XATTR'
p1474
S'y'
sS'CONFIG_NEED_MULTIPLE_NODES'
p1475
S'y'
sS'net.ipv6.conf.default.use_oif_addrs_only'
p1476
I0
sS'CONFIG_KERNEL_GZIP'
p1477
S'y'
sS'vm.extfrag_threshold'
p1478
I500
sS'kernel.sched_domain.cpu0.domain0.newidle_idx'
p1479
I0
sS'CONFIG_ARCH_HAS_GCOV_PROFILE_ALL'
p1480
S'y'
sS'CONFIG_MODULE_SIG_ALL'
p1481
S'y'
sS'CONFIG_CONSOLE_POLL'
p1482
S'y'
sS'CONFIG_VIRTIO_MMIO_CMDLINE_DEVICES'
p1483
S'y'
sS'net.ipv4.cipso_rbm_strictvalid'
p1484
I1
sS'CONFIG_HAVE_CLK_PREPARE'
p1485
S'y'
sS'net.ipv6.conf.ens3.router_solicitation_interval'
p1486
I4
sS'CONFIG_NET_TULIP'
p1487
S'y'
sS'kernel.sched_domain.cpu22.domain0.forkexec_idx'
p1488
I0
sS'kernel.sched_domain.cpu15.domain0.min_interval'
p1489
I24
sS'CONFIG_POSIX_MQUEUE'
p1490
S'y'
sS'CONFIG_MDIO_BUS'
p1491
S'y'
sS'CONFIG_KALLSYMS_ALL'
p1492
S'y'
sS'net.ipv4.conf.lo.igmpv3_unsolicited_report_interval'
p1493
I1000
sS'CONFIG_ANON_INODES'
p1494
S'y'
sS'CONFIG_MPLS'
p1495
S'y'
sS'kernel.shmmni'
p1496
I4096
sS'CONFIG_ATARI_PARTITION'
p1497
S'y'
sS'kernel.sched_domain.cpu8.domain0.min_interval'
p1498
I24
sS'CONFIG_SECURITY_SELINUX_CHECKREQPROT_VALUE'
p1499
I1
sS'net.ipv4.conf.ens3.proxy_arp'
p1500
I0
sS'CONFIG_CRYPTO_CRCT10DIF'
p1501
S'y'
sS'kernel.sched_domain.cpu20.domain0.imbalance_pct'
p1502
I125
sS'CONFIG_ARCH_HAS_KCOV'
p1503
S'y'
sS'net.ipv6.conf.lo.accept_ra_rtr_pref'
p1504
I1
sS'CONFIG_RAPIDIO_DISC_TIMEOUT'
p1505
I30
sS'kernel.modprobe'
p1506
S'/sbin/modprobe'
p1507
sS'net.ipv6.conf.ens3.enhanced_dad'
p1508
I1
sS'net.ipv6.conf.default.accept_ra_rt_info_max_plen'
p1509
I0
sS'CONFIG_BSD_PROCESS_ACCT'
p1510
S'y'
sS'CONFIG_SPI_MASTER'
p1511
S'y'
sS'kernel.sched_domain.cpu10.domain0.imbalance_pct'
p1512
I125
sS'CONFIG_KALLSYMS_ABSOLUTE_PERCPU'
p1513
S'y'
sS'kernel.sched_domain.cpu6.domain0.name'
p1514
S'DIE'
p1515
sS'CONFIG_INTEL_IOMMU_FLOPPY_WA'
p1516
S'y'
sS'net.ipv6.conf.all.temp_valid_lft'
p1517
I604800
sS'CONFIG_LZ4_DECOMPRESS'
p1518
S'y'
sS'CONFIG_CRYPTO_MANAGER'
p1519
S'y'
sS'CONFIG_MESSAGE_LOGLEVEL_DEFAULT'
p1520
I4
sS'net.ipv4.conf.default.drop_unicast_in_l2_multicast'
p1521
I0
sS'CONFIG_SND_PROC_FS'
p1522
S'y'
sS'net.ipv6.conf.ens3.hop_limit'
p1523
I64
sS'CONFIG_VGA_CONSOLE'
p1524
S'y'
sS'CONFIG_RANDOMIZE_MEMORY_PHYSICAL_PADDING'
p1525
S'0xa'
p1526
sS'CONFIG_ECRYPT_FS'
p1527
S'y'
sS'CONFIG_QUOTACTL_COMPAT'
p1528
S'y'
sS'vm.oom_kill_allocating_task'
p1529
I0
sS'kernel.sched_domain.cpu8.domain0.idle_idx'
p1530
I1
sS'CONFIG_X86_MCE_THRESHOLD'
p1531
S'y'
sS'CONFIG_CGROUP_PIDS'
p1532
S'y'
sS'CONFIG_FB_TILEBLITTING'
p1533
S'y'
sS'net.ipv4.conf.ens3.accept_local'
p1534
I0
sS'CONFIG_NLS_ISO8859_1'
p1535
S'y'
sS'CONFIG_SND_TIMER'
p1536
S'm'
sS'kernel.sched_domain.cpu2.domain0.name'
p1537
S'DIE'
p1538
sS'CONFIG_SCHED_INFO'
p1539
S'y'
sS'CONFIG_CRYPTO_AES_X86_64'
p1540
S'm'
sS'net.ipv6.neigh.lo.gc_stale_time'
p1541
I60
sS'CONFIG_HID_PID'
p1542
S'y'
sS'CONFIG_SPLIT_PTLOCK_CPUS'
p1543
I4
sS'dev.cdrom.autoclose'
p1544
I1
sS'CONFIG_LIBCRC32C'
p1545
S'm'
sS'CONFIG_EDAC_SUPPORT'
p1546
S'y'
sS'CONFIG_HAVE_ARCH_COMPAT_MMAP_BASES'
p1547
S'y'
sS'CONFIG_TASK_DELAY_ACCT'
p1548
S'y'
sS'net.ipv6.conf.all.force_tllao'
p1549
I0
sS'net.ipv4.route.gc_interval'
p1550
I60
sS'CONFIG_ARCH_SUSPEND_POSSIBLE'
p1551
S'y'
sS'kernel.sched_domain.cpu20.domain0.flags'
p1552
I4143
sS'CONFIG_SPARSEMEM_EXTREME'
p1553
S'y'
sS'CONFIG_DMA_ACPI'
p1554
S'y'
sS'kernel.kptr_restrict'
p1555
I1
sS'CONFIG_INPUT_MOUSEDEV'
p1556
S'y'
sS'CONFIG_X86_DIRECT_GBPAGES'
p1557
S'y'
sS'CONFIG_NET_VENDOR_MICROCHIP'
p1558
S'y'
sS'net.ipv6.conf.ens3.accept_redirects'
p1559
I1
sS'vm.compact_unevictable_allowed'
p1560
I1
sS'CONFIG_ZLIB_DEFLATE'
p1561
S'y'
sS'kernel.sched_domain.cpu18.domain0.busy_factor'
p1562
I32
sS'CONFIG_ACPI_CPU_FREQ_PSS'
p1563
S'y'
sS'CONFIG_SYSVIPC_COMPAT'
p1564
S'y'
sS'CONFIG_X86_VSYSCALL_EMULATION'
p1565
S'y'
sS'net.ipv6.conf.all.use_tempaddr'
p1566
I2
sS'net.ipv6.conf.all.accept_ra_rtr_pref'
p1567
I1
sS'CONFIG_I2C_DESIGNWARE_BAYTRAIL'
p1568
S'y'
sS'CONFIG_HOTPLUG_PCI_CPCI'
p1569
S'y'
sS'net.ipv4.conf.ens3.force_igmp_version'
p1570
I0
sS'CONFIG_FTRACE'
p1571
S'y'
sS'CONFIG_GENERIC_IOMAP'
p1572
S'y'
sS'CONFIG_CGROUP_NET_CLASSID'
p1573
S'y'
sS'CONFIG_DEVFREQ_GOV_USERSPACE'
p1574
S'y'
sS'CONFIG_AUDIT_TREE'
p1575
S'y'
sS'CONFIG_MOUSE_PS2_BYD'
p1576
S'y'
sS'CONFIG_USB_OHCI_HCD_PCI'
p1577
S'y'
sS'net.ipv4.route.min_adv_mss'
p1578
I256
sS'CONFIG_ARCH_DEFCONFIG'
p1579
S'"arch/x86/configs/x86_64_defconfig"'
p1580
sS'CONFIG_WAN'
p1581
S'y'
sS'net.ipv4.tcp_thin_linear_timeouts'
p1582
I0
sS'CONFIG_CRYPTO_ALGAPI2'
p1583
S'y'
sS'CONFIG_INTEL_TXT'
p1584
S'y'
sS'CONFIG_MOUSE_PS2_TOUCHKIT'
p1585
S'y'
sS'CONFIG_LLC'
p1586
S'm'
sS'CONFIG_SND_SPI'
p1587
S'y'
sS'kernel.sched_domain.cpu12.domain0.cache_nice_tries'
p1588
I1
sS'CONFIG_QUEUED_SPINLOCKS'
p1589
S'y'
sS'kernel.sched_domain.cpu11.domain0.min_interval'
p1590
I24
sS'net.ipv4.tcp_congestion_control'
p1591
S'cubic'
p1592
sS'CONFIG_ATA_SFF'
p1593
S'y'
sS'CONFIG_NVMEM'
p1594
S'y'
sS'CONFIG_SERIO_RAW'
p1595
S'm'
sS'CONFIG_HAVE_KVM_IRQ_ROUTING'
p1596
S'y'
sS'dev.mac_hid.mouse_button3_keycode'
p1597
I100
sS'CONFIG_GENERIC_BUG'
p1598
S'y'
sS'CONFIG_BLK_DEV_IO_TRACE'
p1599
S'y'
sS'net.ipv4.conf.ens3.drop_gratuitous_arp'
p1600
I0
sS'CONFIG_MUTEX_SPIN_ON_OWNER'
p1601
S'y'
sS'CONFIG_MEMORY_ISOLATION'
p1602
S'y'
sS'net.ipv6.conf.all.accept_ra_pinfo'
p1603
I1
sS'kernel.shm_next_id'
p1604
S'-1'
p1605
sS'net.ipv6.calipso_cache_bucket_size'
p1606
I10
sS'CONFIG_NET_VENDOR_AURORA'
p1607
S'y'
sS'CONFIG_LOCKDEP_SUPPORT'
p1608
S'y'
sS'net.ipv4.conf.ens3.ignore_routes_with_linkdown'
p1609
I0
sS'CONFIG_GENERIC_CLOCKEVENTS_BROADCAST'
p1610
S'y'
sS'net.ipv6.conf.ens3.accept_ra'
p1611
I1
sS'CONFIG_HAVE_ARCH_JUMP_LABEL'
p1612
S'y'
sS'net.ipv6.conf.all.mtu'
p1613
I1280
sS'kernel.sched_domain.cpu5.domain0.busy_factor'
p1614
I32
sS'net.ipv6.conf.default.mldv2_unsolicited_report_interval'
p1615
I1000
sS'CONFIG_ZONE_DEVICE'
p1616
S'y'
sS'CONFIG_VIRTUALIZATION'
p1617
S'y'
sS'fs.pipe-user-pages-hard'
p1618
I0
sS'net.ipv6.route.gc_min_interval'
p1619
I0
sS'kernel.sched_domain.cpu7.domain0.cache_nice_tries'
p1620
I1
sS'CONFIG_HAVE_VIRT_CPU_ACCOUNTING_GEN'
p1621
S'y'
sS'CONFIG_HAVE_ARCH_TRANSPARENT_HUGEPAGE'
p1622
S'y'
sS'CONFIG_PROC_PAGE_MONITOR'
p1623
S'y'
sS'dev.hpet.max-user-freq'
p1624
I64
sS'kernel.hostname'
p1625
S'nestedvm'
p1626
sS'net.ipv4.route.gc_thresh'
p1627
S'-1'
p1628
sS'CONFIG_THERMAL_GOV_POWER_ALLOCATOR'
p1629
S'y'
sS'CONFIG_HAVE_CLK'
p1630
S'y'
sS'CONFIG_GENERIC_STRNLEN_USER'
p1631
S'y'
sS'dev.mac_hid.mouse_button_emulation'
p1632
I0
sS'CONFIG_SND_DMA_SGBUF'
p1633
S'y'
sS'CONFIG_ATA_GENERIC'
p1634
S'y'
sS'CONFIG_MOUSE_PS2_TRACKPOINT'
p1635
S'y'
sS'CONFIG_BLK_MQ_VIRTIO'
p1636
S'y'
sS'CONFIG_UNIX98_PTYS'
p1637
S'y'
sS'CONFIG_STRICT_DEVMEM'
p1638
S'y'
sS'CONFIG_ARCH_ENABLE_MEMORY_HOTREMOVE'
p1639
S'y'
sS'CONFIG_DUMMY_CONSOLE_COLUMNS'
p1640
I80
sS'net.ipv4.conf.all.medium_id'
p1641
I0
sS'net.ipv6.conf.lo.use_tempaddr'
p1642
S'-1'
p1643
sS'kernel.sched_domain.cpu9.domain0.cache_nice_tries'
p1644
I1
sS'CONFIG_DMA_ENGINE'
p1645
S'y'
sS'net.ipv6.conf.all.mldv2_unsolicited_report_interval'
p1646
I1000
sS'CONFIG_OUTPUT_FORMAT'
p1647
S'"elf64-x86-64"'
p1648
sS'CONFIG_X86_X2APIC'
p1649
S'y'
sS'CONFIG_CGROUP_BPF'
p1650
S'y'
sS'CONFIG_ARCH_ENABLE_SPLIT_PMD_PTLOCK'
p1651
S'y'
sS'CONFIG_NET_CLS_ACT'
p1652
S'y'
sS'CONFIG_DECOMPRESS_LZO'
p1653
S'y'
sS'net.ipv4.conf.default.src_valid_mark'
p1654
I0
sS'kernel.sched_domain.cpu16.domain0.newidle_idx'
p1655
I0
sS'CONFIG_NETFILTER_XTABLES'
p1656
S'm'
sS'net.ipv4.conf.lo.proxy_arp_pvlan'
p1657
I0
sS'CONFIG_SCSI_BNX2_ISCSI'
p1658
S'm'
sS'net.ipv4.conf.default.log_martians'
p1659
I0
sS'CONFIG_FREEZER'
p1660
S'y'
sS'CONFIG_QUOTA_NETLINK_INTERFACE'
p1661
S'y'
sS'CONFIG_FB'
p1662
S'y'
sS'CONFIG_MFD_WM831X'
p1663
S'y'
sS'CONFIG_SLUB_DEBUG'
p1664
S'y'
sS'CONFIG_MFD_DA9055'
p1665
S'y'
sS'CONFIG_CGROUP_NET_PRIO'
p1666
S'y'
sS'net.ipv6.neigh.default.mcast_solicit'
p1667
I3
sS'CONFIG_GPIO_LYNXPOINT'
p1668
S'y'
sS'CONFIG_IPC_NS'
p1669
S'y'
sS'CONFIG_PRINTK_TIME'
p1670
S'y'
sS'CONFIG_PCI_MSI_IRQ_DOMAIN'
p1671
S'y'
sS'CONFIG_HAVE_C_RECORDMCOUNT'
p1672
S'y'
sS'net.ipv6.neigh.default.anycast_delay'
p1673
I100
sS'CONFIG_MFD_TPS6586X'
p1674
S'y'
sS'net.ipv6.conf.lo.seg6_enabled'
p1675
I0
sS'net.ipv4.conf.ens3.disable_policy'
p1676
I0
sS'CONFIG_PCC'
p1677
S'y'
sS'CONFIG_REGMAP'
p1678
S'y'
sS'CONFIG_SCHEDSTATS'
p1679
S'y'
sS'CONFIG_CLOCKSOURCE_WATCHDOG'
p1680
S'y'
sS'net.core.message_burst'
p1681
I10
sS'CONFIG_NET_VENDOR_EXAR'
p1682
S'y'
sS'CONFIG_GENERIC_IRQ_PROBE'
p1683
S'y'
sS'CONFIG_BTT'
p1684
S'y'
sS'CONFIG_DECOMPRESS_LZ4'
p1685
S'y'
sS'net.ipv6.conf.lo.ignore_routes_with_linkdown'
p1686
I0
sS'CONFIG_HARDLOCKUP_DETECTOR'
p1687
S'y'
sS'kernel.sched_domain.cpu14.domain0.imbalance_pct'
p1688
I125
sS'CONFIG_RTC_SYSTOHC'
p1689
S'y'
sS'CONFIG_USB_XHCI_HCD'
p1690
S'y'
sS'CONFIG_SERIO_LIBPS2'
p1691
S'y'
sS'CONFIG_UNIX'
p1692
S'y'
sS'CONFIG_BASE_SMALL'
p1693
I0
sS'net.ipv4.tcp_fack'
p1694
I0
sS'net.ipv6.conf.ens3.mldv2_unsolicited_report_interval'
p1695
I1000
sS'net.ipv4.neigh.lo.mcast_resolicit'
p1696
I0
sS'uname'
p1697
S'Linux nestedvm 4.14.0-rc8-stock #3 SMP Tue Mar 13 14:28:42 EDT 2018 x86_64 x86_64 x86_64 GNU/Linux'
p1698
sS'CONFIG_DMADEVICES'
p1699
S'y'
sS'CONFIG_DEFAULT_HOSTNAME'
p1700
S'"(none)"'
p1701
sS'CONFIG_CRYPTO_LZO'
p1702
S'y'
sS'CONFIG_HAVE_STACK_VALIDATION'
p1703
S'y'
sS'kernel.sched_domain.cpu20.domain0.idle_idx'
p1704
I1
sS'CONFIG_HAVE_KVM'
p1705
S'y'
sS'CONFIG_USB_PCI'
p1706
S'y'
sS'CONFIG_ACPI_I2C_OPREGION'
p1707
S'y'
sS'CONFIG_SPARSEMEM_VMEMMAP'
p1708
S'y'
sS'CONFIG_NET_VENDOR_SIS'
p1709
S'y'
sS'net.core.netdev_budget_usecs'
p1710
I2000
sS'CONFIG_TCP_CONG_ADVANCED'
p1711
S'y'
sS'CONFIG_CPU_FREQ_DEFAULT_GOV_PERFORMANCE'
p1712
S'y'
sS'net.ipv6.ip6frag_high_thresh'
p1713
I4194304
sS'CONFIG_FSNOTIFY'
p1714
S'y'
sS'CONFIG_POWER_RESET'
p1715
S'y'
sS'CONFIG_VIRTIO_NET'
p1716
S'y'
sS'CONFIG_RFKILL'
p1717
S'y'
sS'CONFIG_ARCH_HAS_ZONE_DEVICE'
p1718
S'y'
sS'CONFIG_BCMA_POSSIBLE'
p1719
S'y'
sS'CONFIG_OPTIMIZE_INLINING'
p1720
S'y'
sS'net.ipv4.ipfrag_time'
p1721
I30
sS'net.ipv4.conf.default.secure_redirects'
p1722
I1
sS'kernel.sched_domain.cpu23.domain0.imbalance_pct'
p1723
I125
sS'CONFIG_MOUSE_PS2_SMBUS'
p1724
S'y'
sS'CONFIG_MD_RAID10'
p1725
S'm'
sS'kernel.sched_domain.cpu11.domain0.max_interval'
p1726
I48
sS'CONFIG_PPDEV'
p1727
S'm'
sS'CONFIG_BLK_DEV_INITRD'
p1728
S'y'
sS'CONFIG_CNIC'
p1729
S'm'
sS'CONFIG_DM_UEVENT'
p1730
S'y'
sS'CONFIG_LEGACY_PTYS'
p1731
S'y'
sS'CONFIG_FS_POSIX_ACL'
p1732
S'y'
sS'kernel.auto_msgmni'
p1733
I0
sS'fs.mqueue.msgsize_default'
p1734
I8192
sS'CONFIG_KEXEC_VERIFY_SIG'
p1735
S'y'
sS'fs.inotify.max_user_watches'
p1736
I8192
sS'CONFIG_IMA_APPRAISE_BOOTPARAM'
p1737
S'y'
sS'CONFIG_HPET'
p1738
S'y'
sS'CONFIG_CRYPTO_WORKQUEUE'
p1739
S'y'
sS'CONFIG_INTEGRITY_SIGNATURE'
p1740
S'y'
sS'CONFIG_SPARSE_IRQ'
p1741
S'y'
sS'CONFIG_BLK_SCSI_REQUEST'
p1742
S'y'
sS'kernel.sched_domain.cpu12.domain0.name'
p1743
S'DIE'
p1744
sS'CONFIG_BITREVERSE'
p1745
S'y'
sS'CONFIG_HAVE_ARCH_MMAP_RND_BITS'
p1746
S'y'
sS'net.ipv6.conf.lo.accept_ra_rt_info_max_plen'
p1747
I0
sS'CONFIG_NET_VENDOR_MICREL'
p1748
S'y'
sS'kernel.sched_domain.cpu17.domain0.newidle_idx'
p1749
I0
sS'CONFIG_DEBUG_INFO'
p1750
S'y'
sS'CONFIG_MAGIC_SYSRQ'
p1751
S'y'
sS'CONFIG_SERIAL_8250_PNP'
p1752
S'y'
sS'CONFIG_CLKDEV_LOOKUP'
p1753
S'y'
sS'kernel.sched_domain.cpu11.domain0.forkexec_idx'
p1754
I0
sS'kernel.keys.maxbytes'
p1755
I20000
sS'CONFIG_BRANCH_PROFILE_NONE'
p1756
S'y'
sS'CONFIG_NO_BOOTMEM'
p1757
S'y'
sS'CONFIG_XXHASH'
p1758
S'm'
sS'vm.dirty_ratio'
p1759
I20
sS'net.ipv6.idgen_retries'
p1760
I3
sS'CONFIG_MAGIC_SYSRQ_SERIAL'
p1761
S'y'
sS'CONFIG_CRYPTO_HASH2'
p1762
S'y'
sS'CONFIG_MEMCG_SWAP'
p1763
S'y'
sS'CONFIG_IOSCHED_NOOP'
p1764
S'y'
sS'CONFIG_USB_COMMON'
p1765
S'y'
sS'kernel.sched_domain.cpu0.domain0.wake_idx'
p1766
I0
sS'CONFIG_SND_VERBOSE_PROCFS'
p1767
S'y'
sS'net.ipv6.conf.ens3.temp_prefered_lft'
p1768
I86400
sS'CONFIG_BRIDGE_NF_EBTABLES'
p1769
S'm'
sS'CONFIG_CRYPTO_JITTERENTROPY'
p1770
S'y'
sS'CONFIG_CRYPTO_DRBG_MENU'
p1771
S'y'
sS'CONFIG_ARCH_USE_CMPXCHG_LOCKREF'
p1772
S'y'
sS'CONFIG_RD_GZIP'
p1773
S'y'
sS'user.max_pid_namespaces'
p1774
I257513
sS'CONFIG_RTC_LIB'
p1775
S'y'
sS'CONFIG_USB_EHCI_ROOT_HUB_TT'
p1776
S'y'
sS'kernel.sched_min_granularity_ns'
p1777
I3000000
sS'CONFIG_X86_NEED_RELOCS'
p1778
S'y'
sS'CONFIG_XZ_DEC_ARM'
p1779
S'y'
sS'CONFIG_SCSI_DMA'
p1780
S'y'
sS'kernel.sched_domain.cpu4.domain0.max_interval'
p1781
I48
sS'kernel.sched_domain.cpu21.domain0.imbalance_pct'
p1782
I125
sS'CONFIG_HVC_DRIVER'
p1783
S'y'
sS'CONFIG_HAVE_RCU_TABLE_FREE'
p1784
S'y'
sS'CONFIG_ZSMALLOC'
p1785
S'y'
sS'CONFIG_HAVE_PERF_REGS'
p1786
S'y'
sS'CONFIG_SND_HWDEP'
p1787
S'm'
sS'CONFIG_CRYPTO_HASH'
p1788
S'y'
sS'kernel.sched_domain.cpu9.domain0.newidle_idx'
p1789
I0
sS'CONFIG_SPARSEMEM_MANUAL'
p1790
S'y'
sS'CONFIG_KEYS_COMPAT'
p1791
S'y'
sS'kernel.sched_domain.cpu15.domain0.max_interval'
p1792
I48
sS'CONFIG_CRYPTO_NULL2'
p1793
S'y'
sS'CONFIG_RCU_STALL_COMMON'
p1794
S'y'
sS'net.ipv6.conf.lo.accept_ra_min_hop_limit'
p1795
I1
sS'CONFIG_MFD_SEC_CORE'
p1796
S'y'
sS'net.ipv4.conf.default.proxy_arp'
p1797
I0
sS'kernel.sched_rr_timeslice_ms'
p1798
I100
sS'net.ipv6.conf.lo.disable_ipv6'
p1799
I0
sS'kernel.sched_domain.cpu16.domain0.min_interval'
p1800
I24
sS'CONFIG_NEED_PER_CPU_PAGE_FIRST_CHUNK'
p1801
S'y'
sS'CONFIG_KGDB_KDB'
p1802
S'y'
sS'kernel.sched_domain.cpu16.domain0.imbalance_pct'
p1803
I125
sS'net.ipv4.conf.all.src_valid_mark'
p1804
I0
sS'fs.overflowuid'
p1805
I65534
sS'net.ipv4.conf.ens3.arp_accept'
p1806
I0
sS'CONFIG_FB_CFB_FILLRECT'
p1807
S'y'
sS'CONFIG_SECURITYFS'
p1808
S'y'
sS'CONFIG_OSF_PARTITION'
p1809
S'y'
sS'CONFIG_CRYPTO_AKCIPHER'
p1810
S'y'
sS'CONFIG_MAY_USE_DEVLINK'
p1811
S'y'
sS'net.ipv6.conf.default.accept_redirects'
p1812
I1
sS'CONFIG_BNX2'
p1813
S'm'
sS'CONFIG_CMA_AREAS'
p1814
I7
sS'CONFIG_ARM_GIC_MAX_NR'
p1815
I1
sS'net.ipv4.conf.all.accept_redirects'
p1816
I1
sS'vm.max_map_count'
p1817
I65530
sS'CONFIG_HAVE_KVM_IRQFD'
p1818
S'y'
sS'net.ipv6.conf.default.enhanced_dad'
p1819
I1
sS'net.ipv4.conf.lo.arp_ignore'
p1820
I0
sS'CONFIG_HAVE_KVM_IRQCHIP'
p1821
S'y'
sS'CONFIG_PM_SLEEP_SMP'
p1822
S'y'
sS'kernel.sched_domain.cpu7.domain0.max_newidle_lb_cost'
p1823
I20407
sS'net.ipv4.conf.ens3.proxy_arp_pvlan'
p1824
I0
sS'kernel.sched_domain.cpu3.domain0.forkexec_idx'
p1825
I0
sS'net.netfilter.nf_log.11'
p1826
S'NONE'
p1827
sS'net.ipv4.conf.ens3.promote_secondaries'
p1828
I0
sS'CONFIG_VT_HW_CONSOLE_BINDING'
p1829
S'y'
sS'CONFIG_MIGRATION'
p1830
S'y'
sS'CONFIG_SYSVIPC_SYSCTL'
p1831
S'y'
sS'CONFIG_HAMRADIO'
p1832
S'y'
sS'CONFIG_KGDB'
p1833
S'y'
sS'kernel.sched_domain.cpu22.domain0.busy_factor'
p1834
I32
sS'CONFIG_EFI_ESRT'
p1835
S'y'
sS'CONFIG_RAS'
p1836
S'y'
sS'CONFIG_GENERIC_PINCONF'
p1837
S'y'
sS'kernel.sched_domain.cpu8.domain0.max_interval'
p1838
I48
sS'CONFIG_HIGH_RES_TIMERS'
p1839
S'y'
sS'CONFIG_PPP'
p1840
S'y'
sS'CONFIG_HAVE_GENERIC_GUP'
p1841
S'y'
sS'CONFIG_NET_VENDOR_HUAWEI'
p1842
S'y'
sS'CONFIG_ZLIB_INFLATE'
p1843
S'y'
sS'CONFIG_CORE_DUMP_DEFAULT_ELF_HEADERS'
p1844
S'y'
sS'CONFIG_POWER_AVS'
p1845
S'y'
sS'CONFIG_MFD_AAT2870_CORE'
p1846
S'y'
sS'CONFIG_QED'
p1847
S'm'
sS'CONFIG_LEGACY_PTY_COUNT'
p1848
I0
sS'CONFIG_GENERIC_CALIBRATE_DELAY'
p1849
S'y'
sS'net.ipv6.conf.default.force_tllao'
p1850
I0
sS'CONFIG_AGP_INTEL'
p1851
S'y'
sS'CONFIG_CRYPTO_CRC32C'
p1852
S'y'
sS'CONFIG_LOCK_SPIN_ON_OWNER'
p1853
S'y'
sS'CONFIG_CRYPTO_GHASH'
p1854
S'y'
sS'kernel.sched_domain.cpu0.domain0.max_interval'
p1855
I48
sS'net.ipv4.inet_peer_minttl'
p1856
I120
sS'net.core.netdev_budget'
p1857
I300
sS'kernel.shmall'
p1858
L18446744073692774399L
sS'CONFIG_ABX500_CORE'
p1859
S'y'
sS'CONFIG_ACPI_APEI_PCIEAER'
p1860
S'y'
sS'CONFIG_CRYPTO_MANAGER_DISABLE_TESTS'
p1861
S'y'
sS'kernel.sched_domain.cpu12.domain0.busy_idx'
p1862
I2
sS'CONFIG_GENERIC_BUG_RELATIVE_POINTERS'
p1863
S'y'
sS'CONFIG_TICK_ONESHOT'
p1864
S'y'
sS'CONFIG_LOG_CPU_MAX_BUF_SHIFT'
p1865
I12
sS'CONFIG_WLAN_VENDOR_INTEL'
p1866
S'y'
sS'net.ipv6.conf.default.seg6_enabled'
p1867
I0
sS'net.ipv4.ip_nonlocal_bind'
p1868
I0
sS'CONFIG_EXT4_FS'
p1869
S'y'
sS'kernel.sched_domain.cpu1.domain0.newidle_idx'
p1870
I0
sS'net.ipv4.neigh.default.base_reachable_time_ms'
p1871
I30000
sS'CONFIG_ASYNC_PQ'
p1872
S'm'
sS'CONFIG_USELIB'
p1873
S'y'
sS'net.ipv4.route.redirect_silence'
p1874
I5120
sS'net.ipv6.conf.default.hop_limit'
p1875
I64
sS'CONFIG_FB_IMSTT'
p1876
S'y'
sS'CONFIG_X86_64_SMP'
p1877
S'y'
sS'CONFIG_PM_OPP'
p1878
S'y'
sS'kernel.sched_domain.cpu5.domain0.min_interval'
p1879
I24
sS'CONFIG_TCG_TIS_CORE'
p1880
S'y'
sS'CONFIG_KSM'
p1881
S'y'
sS'CONFIG_RTC_INTF_SYSFS'
p1882
S'y'
sS'kernel.sched_domain.cpu14.domain0.name'
p1883
S'DIE'
p1884
sS'net.ipv6.conf.all.accept_ra'
p1885
I1
sS'CONFIG_X86_64_ACPI_NUMA'
p1886
S'y'
sS'net.ipv4.conf.lo.arp_filter'
p1887
I0
sS'CONFIG_EFIVAR_FS'
p1888
S'y'
sS'CONFIG_SERIAL_8250_SHARE_IRQ'
p1889
S'y'
sS'kernel.sched_domain.cpu2.domain0.forkexec_idx'
p1890
I0
sS'net.ipv6.conf.all.router_solicitations'
p1891
S'-1'
p1892
sS'net.ipv4.udp_l3mdev_accept'
p1893
I0
sS'kernel.unprivileged_bpf_disabled'
p1894
I0
sS'CONFIG_FUSION_MAX_SGE'
p1895
I128
sS'CONFIG_HAS_IOPORT_MAP'
p1896
S'y'
sS'CONFIG_MFD_WM831X_SPI'
p1897
S'y'
sS'CONFIG_JUMP_LABEL'
p1898
S'y'
sS'CONFIG_INPUT_LEDS'
p1899
S'm'
sS'net.ipv4.tcp_app_win'
p1900
I31
sS'net.ipv4.cipso_cache_enable'
p1901
I1
sS'CONFIG_EVM_EXTRA_SMACK_XATTRS'
p1902
S'y'
sS'net.ipv6.conf.ens3.autoconf'
p1903
I1
sS'kernel.sched_domain.cpu19.domain0.max_interval'
p1904
I48
sS'CONFIG_MEMORY'
p1905
S'y'
sS'kernel.numa_balancing_scan_delay_ms'
p1906
I1000
sS'CONFIG_KDB_DEFAULT_ENABLE'
p1907
S'0x1'
p1908
sS'fs.inotify.max_queued_events'
p1909
I16384
sS'CONFIG_SG_POOL'
p1910
S'y'
sS'CONFIG_CRYPTO_RSA'
p1911
S'y'
sS'net.ipv4.tcp_pacing_ca_ratio'
p1912
I120
sS'CONFIG_CPU_FREQ_GOV_POWERSAVE'
p1913
S'y'
sS'CONFIG_HAVE_BOOTMEM_INFO_NODE'
p1914
S'y'
sS'CONFIG_SPARSEMEM_ALLOC_MEM_MAP_TOGETHER'
p1915
S'y'
sS'CONFIG_ARCH_PHYS_ADDR_T_64BIT'
p1916
S'y'
sS'kernel.sched_domain.cpu8.domain0.wake_idx'
p1917
I0
sS'CONFIG_CPU_FREQ_GOV_USERSPACE'
p1918
S'y'
sS'CONFIG_HAVE_UNSTABLE_SCHED_CLOCK'
p1919
S'y'
sS'net.ipv4.igmp_link_local_mcast_reports'
p1920
I1
sS'CONFIG_MEM_SOFT_DIRTY'
p1921
S'y'
sS'CONFIG_MODULES_USE_ELF_RELA'
p1922
S'y'
sS'CONFIG_SECURITY_SMACK'
p1923
S'y'
sS'net.ipv6.anycast_src_echo_reply'
p1924
I0
sS'CONFIG_FRAME_POINTER'
p1925
S'y'
sS'CONFIG_SGETMASK_SYSCALL'
p1926
S'y'
sS'CONFIG_BLK_DEV_DM_BUILTIN'
p1927
S'y'
sS'net.ipv4.conf.lo.tag'
p1928
I0
sS'CONFIG_SQUASHFS_FRAGMENT_CACHE_SIZE'
p1929
I3
sS'kernel.sched_domain.cpu3.domain0.idle_idx'
p1930
I1
sS'CONFIG_AUDIT'
p1931
S'y'
sS'CONFIG_UPROBE_EVENTS'
p1932
S'y'
sS'CONFIG_ARCH_SUPPORTS_DEBUG_PAGEALLOC'
p1933
S'y'
sS'CONFIG_X86_CMPXCHG64'
p1934
S'y'
sS'CONFIG_NET_FLOW_LIMIT'
p1935
S'y'
sS'CONFIG_ND_CLAIM'
p1936
S'y'
sS'CONFIG_TOUCHSCREEN_ELAN'
p1937
S'y'
sS'kernel.sched_domain.cpu4.domain0.newidle_idx'
p1938
I0
sS'CONFIG_CRYPTO_BLKCIPHER'
p1939
S'y'
sS'net.ipv6.conf.default.accept_ra_mtu'
p1940
I1
sS'kernel.sched_domain.cpu23.domain0.busy_factor'
p1941
I32
sS'CONFIG_HAVE_HARDLOCKUP_DETECTOR_PERF'
p1942
S'y'
sS'net.ipv4.tcp_slow_start_after_idle'
p1943
I1
sS'kernel.nmi_watchdog'
p1944
I0
sS'CONFIG_HAVE_COPY_THREAD_TLS'
p1945
S'y'
sS'net.ipv6.route.gc_thresh'
p1946
I1024
sS'CONFIG_ARCH_RANDOM'
p1947
S'y'
sS'net.ipv6.conf.ens3.router_probe_interval'
p1948
I60
sS'CONFIG_X86_EXTENDED_PLATFORM'
p1949
S'y'
sS'CONFIG_PM_TRACE'
p1950
S'y'
sS'CONFIG_SYSCTL_EXCEPTION_TRACE'
p1951
S'y'
sS'CONFIG_X86_INTERNODE_CACHE_SHIFT'
p1952
I6
sS'CONFIG_HAVE_SYSCALL_TRACEPOINTS'
p1953
S'y'
sS'CONFIG_ARCH_SUPPORTS_MEMORY_FAILURE'
p1954
S'y'
sS'CONFIG_CRC32'
p1955
S'y'
sS'CONFIG_FUSION'
p1956
S'y'
sS'net.ipv4.conf.lo.accept_source_route'
p1957
I1
sS'net.ipv6.conf.ens3.suppress_frag_ndisc'
p1958
I1
sS'CONFIG_SWPHY'
p1959
S'y'
sS'CONFIG_FUTEX_PI'
p1960
S'y'
sS'CONFIG_HAVE_IOREMAP_PROT'
p1961
S'y'
sS'net.ipv6.conf.all.mc_forwarding'
p1962
I0
sS'vm.admin_reserve_kbytes'
p1963
I8192
sS'CONFIG_ASYNC_TX_DMA'
p1964
S'y'
sS'CONFIG_DW_DMAC_CORE'
p1965
S'y'
sS'CONFIG_RTC_NVMEM'
p1966
S'y'
sS'kernel.sched_domain.cpu6.domain0.newidle_idx'
p1967
I0
sS'kernel.sched_domain.cpu5.domain0.name'
p1968
S'DIE'
p1969
sS'net.ipv4.tcp_early_demux'
p1970
I1
sS'CONFIG_EXT4_FS_SECURITY'
p1971
S'y'
sS'kernel.sched_domain.cpu9.domain0.forkexec_idx'
p1972
I0
sS'net.ipv4.neigh.default.unres_qlen'
p1973
I101
sS'CONFIG_COMMON_CLK'
p1974
S'y'
sS'CONFIG_MFD_PALMAS'
p1975
S'y'
sS'CONFIG_AUXDISPLAY'
p1976
S'y'
sS'CONFIG_WLAN_VENDOR_ST'
p1977
S'y'
sS'kernel.printk_ratelimit'
p1978
I5
sS'net.ipv4.neigh.default.delay_first_probe_time'
p1979
I5
sS'CONFIG_SECURITY_SELINUX_BOOTPARAM_VALUE'
p1980
I0
sS'fs.lease-break-time'
p1981
I45
sS'CONFIG_SELECT_MEMORY_MODEL'
p1982
S'y'
sS'vm.dirty_bytes'
p1983
I0
sS'net.ipv6.conf.all.disable_policy'
p1984
I0
sS'CONFIG_KVM_GUEST'
p1985
S'y'
sS'net.ipv4.tcp_syn_retries'
p1986
I6
sS'kernel.shm_rmid_forced'
p1987
I0
sS'CONFIG_PERF_EVENTS_INTEL_UNCORE'
p1988
S'y'
sS'kernel.hung_task_check_count'
p1989
I4194304
sS'kernel.sched_domain.cpu13.domain0.cache_nice_tries'
p1990
I1
sS'CONFIG_NET_VENDOR_I825XX'
p1991
S'y'
sS'CONFIG_X86_FAST_FEATURE_TESTS'
p1992
S'y'
sS'kernel.sched_domain.cpu21.domain0.name'
p1993
S'DIE'
p1994
sS'CONFIG_UEVENT_HELPER_PATH'
p1995
S'""'
p1996
sS'CONFIG_CRYPTO_GHASH_CLMUL_NI_INTEL'
p1997
S'm'
sS'CONFIG_DEVFREQ_GOV_POWERSAVE'
p1998
S'y'
sS'net.ipv6.conf.ens3.accept_ra_from_local'
p1999
I0
sS'net.ipv6.conf.default.router_solicitation_interval'
p2000
I4
sS'net.ipv4.tcp_tso_win_divisor'
p2001
I3
sS'CONFIG_RELOCATABLE'
p2002
S'y'
sS'fs.pipe-max-size'
p2003
I1048576
sS'CONFIG_NO_HZ'
p2004
S'y'
sS'CONFIG_DYNAMIC_FTRACE_WITH_REGS'
p2005
S'y'
sS'CONFIG_CHELSIO_T4_DCB'
p2006
S'y'
sS'CONFIG_RTC_SYSTOHC_DEVICE'
p2007
S'"rtc0"'
p2008
sS'CONFIG_DEFAULT_SECURITY_APPARMOR'
p2009
S'y'
sS'kernel.sched_domain.cpu18.domain0.min_interval'
p2010
I24
sS'CONFIG_HAVE_KERNEL_BZIP2'
p2011
S'y'
sS'net.ipv6.conf.ens3.addr_gen_mode'
p2012
I0
sS'CONFIG_QED_SRIOV'
p2013
S'y'
sS'net.ipv4.route.gc_min_interval_ms'
p2014
I500
sS'kernel.sched_domain.cpu23.domain0.cache_nice_tries'
p2015
I1
sS'CONFIG_WLAN_VENDOR_RSI'
p2016
S'y'
sS'CONFIG_VIRTIO_BLK'
p2017
S'y'
sS'CONFIG_HOTPLUG_PCI_PCIE'
p2018
S'y'
sS'net.ipv6.neigh.ens3.mcast_solicit'
p2019
I3
sS'CONFIG_GPIO_SX150X'
p2020
S'y'
sS'CONFIG_IP_MULTIPLE_TABLES'
p2021
S'y'
sS'CONFIG_THP_SWAP'
p2022
S'y'
sS'CONFIG_RFS_ACCEL'
p2023
S'y'
sS'fs.dentry-state'
p2024
S'129610\t96903\t45\t0\t0\t0'
p2025
sS'CONFIG_TRACEPOINTS'
p2026
S'y'
sS'CONFIG_IP6_NF_IPTABLES'
p2027
S'm'
sS'CONFIG_CRYPTO_AKCIPHER2'
p2028
S'y'
sS'CONFIG_ARCH_HAS_ADD_PAGES'
p2029
S'y'
sS'net.ipv6.conf.lo.dad_transmits'
p2030
I1
sS'CONFIG_SECURITY_APPARMOR_HASH_DEFAULT'
p2031
S'y'
sS'CONFIG_SMP'
p2032
S'y'
sS'CONFIG_NEED_PER_CPU_EMBED_FIRST_CHUNK'
p2033
S'y'
sS'kernel.sched_domain.cpu0.domain0.forkexec_idx'
p2034
I0
sS'net.ipv6.conf.default.accept_dad'
p2035
I1
sS'CONFIG_IKCONFIG'
p2036
S'm'
sS'CONFIG_BLK_CGROUP'
p2037
S'y'
sS'CONFIG_PATA_ACPI'
p2038
S'm'
sS'kernel.sched_domain.cpu19.domain0.flags'
p2039
I4143
sS'CONFIG_RTC_CLASS'
p2040
S'y'
sS'CONFIG_ISCSI_TCP'
p2041
S'm'
sS'CONFIG_HAVE_DEBUG_STACKOVERFLOW'
p2042
S'y'
sS'net.ipv6.neigh.default.gc_stale_time'
p2043
I60
sS'CONFIG_TCP_MD5SIG'
p2044
S'y'
sS'net.ipv4.neigh.ens3.unres_qlen'
p2045
I101
sS'CONFIG_IP_PIMSM_V1'
p2046
S'y'
sS'CONFIG_MICROCODE'
p2047
S'y'
sS'CONFIG_HAVE_DEBUG_KMEMLEAK'
p2048
S'y'
sS'CONFIG_TUN'
p2049
S'y'
sS'net.ipv6.conf.lo.autoconf'
p2050
I1
sS'CONFIG_NET_VENDOR_SEEQ'
p2051
S'y'
sS'CONFIG_IP_PIMSM_V2'
p2052
S'y'
sS'net.ipv4.tcp_low_latency'
p2053
I0
sS'net.ipv6.flowlabel_state_ranges'
p2054
I0
sS'CONFIG_VIRTIO'
p2055
S'y'
sS'kernel.randomize_va_space'
p2056
I2
sS'vm.legacy_va_layout'
p2057
I0
sS'CONFIG_PARAVIRT'
p2058
S'y'
sS'CONFIG_HAVE_OPTPROBES'
p2059
S'y'
sS'CONFIG_XZ_DEC_BCJ'
p2060
S'y'
sS'net.ipv4.icmp_echo_ignore_all'
p2061
I0
sS'net.ipv4.ip_dynaddr'
p2062
I0
sS'CONFIG_SYSFS'
p2063
S'y'
sS'dev.cdrom.autoeject'
p2064
I0
sS'CONFIG_PROFILING'
p2065
S'y'
sS'kernel.sched_domain.cpu19.domain0.max_newidle_lb_cost'
p2066
I20139
sS'CONFIG_PINCONF'
p2067
S'y'
sS'CONFIG_THREAD_INFO_IN_TASK'
p2068
S'y'
sS'CONFIG_NET_VENDOR_INTEL'
p2069
S'y'
sS'CONFIG_TASKSTATS'
p2070
S'y'
sS'vm.memory_failure_early_kill'
p2071
I0
sS'net.ipv6.conf.default.use_tempaddr'
p2072
I2
sS'CONFIG_DEVTMPFS'
p2073
S'y'
sS'CONFIG_CFS_BANDWIDTH'
p2074
S'y'
sS'kernel.sched_domain.cpu12.domain0.idle_idx'
p2075
I1
sS'net.ipv6.route.gc_timeout'
p2076
I60
sS'CONFIG_HAVE_MOD_ARCH_SPECIFIC'
p2077
S'y'
sS'net.ipv6.neigh.ens3.base_reachable_time_ms'
p2078
I30000
sS'CONFIG_FB_MODE_HELPERS'
p2079
S'y'
sS'CONFIG_USB_OHCI_LITTLE_ENDIAN'
p2080
S'y'
sS'net.ipv4.conf.default.ignore_routes_with_linkdown'
p2081
I0
sS'net.ipv6.flowlabel_consistency'
p2082
I1
sS'net.ipv4.icmp_echo_ignore_broadcasts'
p2083
I1
sS'CONFIG_IRQ_WORK'
p2084
S'y'
sS'CONFIG_TCG_TIS'
p2085
S'y'
sS'CONFIG_XZ_DEC_POWERPC'
p2086
S'y'
sS'CONFIG_HZ_250'
p2087
S'y'
sS'CONFIG_STACKTRACE'
p2088
S'y'
sS'CONFIG_ACPI_PROCESSOR'
p2089
S'y'
sS'kernel.pid_max'
p2090
I253952
sS'CONFIG_REGMAP_I2C'
p2091
S'y'
sS'net.ipv6.neigh.ens3.locktime'
p2092
I0
sS'kernel.sched_domain.cpu20.domain0.max_newidle_lb_cost'
p2093
I16456
sS'net.ipv4.conf.all.arp_filter'
p2094
I0
sS'net.ipv4.route.redirect_load'
p2095
I5
sS'CONFIG_MFD_MAX8998'
p2096
S'y'
sS'CONFIG_MFD_MAX8997'
p2097
S'y'
sS'CONFIG_HAVE_ACPI_APEI'
p2098
S'y'
sS'CONFIG_DDR'
p2099
S'y'
sS'CONFIG_FONT_SUPPORT'
p2100
S'y'
sS'kernel.sched_domain.cpu6.domain0.imbalance_pct'
p2101
I125
sS'CONFIG_X86_PMEM_LEGACY_DEVICE'
p2102
S'y'
sS'CONFIG_MODULE_SIG_KEY'
p2103
S'"certs/signing_key.pem"'
p2104
sS'CONFIG_ASSOCIATIVE_ARRAY'
p2105
S'y'
sS'CONFIG_EZX_PCAP'
p2106
S'y'
sS'CONFIG_SCSI_MOD'
p2107
S'y'
sS'CONFIG_CRYPTO_HASH_INFO'
p2108
S'y'
sS'net.ipv4.conf.all.shared_media'
p2109
I1
sS'CONFIG_IOMMU_API'
p2110
S'y'
sS'CONFIG_INLINE_SPIN_UNLOCK_IRQ'
p2111
S'y'
sS'CONFIG_BLOCK'
p2112
S'y'
sS'CONFIG_MEMORY_FAILURE'
p2113
S'y'
sS'CONFIG_FB_NOTIFY'
p2114
S'y'
sS'CONFIG_NET_VENDOR_EZCHIP'
p2115
S'y'
sS'kernel.sched_domain.cpu1.domain0.max_interval'
p2116
I48
sS'kernel.sched_domain.cpu14.domain0.newidle_idx'
p2117
I0
sS'CONFIG_CPU_RMAP'
p2118
S'y'
sS'kernel.sched_domain.cpu15.domain0.newidle_idx'
p2119
I0
sS'net.netfilter.nf_log.10'
p2120
S'NONE'
p2121
sS'net.netfilter.nf_log.12'
p2122
S'NONE'
p2123
sS'net.ipv6.neigh.default.unres_qlen'
p2124
I101
sS'net.ipv6.conf.all.drop_unicast_in_l2_multicast'
p2125
I0
sS'CONFIG_X86_INTEL_LPSS'
p2126
S'y'
sS'net.core.rmem_max'
p2127
I212992
sS'CONFIG_CRYPTO_DRBG_HASH'
p2128
S'y'
sS'CONFIG_SECURITY_PATH'
p2129
S'y'
sS'CONFIG_THERMAL_EMERGENCY_POWEROFF_DELAY_MS'
p2130
I0
sS'CONFIG_DEBUG_FS'
p2131
S'y'
sS'CONFIG_USB_ARCH_HAS_HCD'
p2132
S'y'
sS'CONFIG_STACK_TRACER'
p2133
S'y'
sS'net.core.dev_weight'
p2134
I64
sS'kernel.sched_domain.cpu22.domain0.cache_nice_tries'
p2135
I1
sS'CONFIG_X86_MPPARSE'
p2136
S'y'
sS'CONFIG_NET_VENDOR_SYNOPSYS'
p2137
S'y'
sS'CONFIG_SECURITY_TOMOYO_MAX_AUDIT_LOG'
p2138
I1024
sS'CONFIG_HAVE_CC_STACKPROTECTOR'
p2139
S'y'
sS'CONFIG_NET_VENDOR_MARVELL'
p2140
S'y'
sS'CONFIG_BLK_DEV_LOOP_MIN_COUNT'
p2141
I8
sS'net.ipv6.conf.ens3.proxy_ndp'
p2142
I0
sS'CONFIG_DEFAULT_TCP_CONG'
p2143
S'"cubic"'
p2144
sS'CONFIG_CRYPTO_CBC'
p2145
S'y'
sS'CONFIG_PGTABLE_MAPPING'
p2146
S'y'
sS'CONFIG_NET_VENDOR_NATSEMI'
p2147
S'y'
sS'CONFIG_HAVE_EBPF_JIT'
p2148
S'y'
sS'kernel.shmmax'
p2149
L18446744073692774399L
sS'net.ipv6.conf.all.accept_ra_min_hop_limit'
p2150
I1
sS'CONFIG_PARAVIRT_SPINLOCKS'
p2151
S'y'
sS'CONFIG_FB_SIMPLE'
p2152
S'y'
sS'net.ipv6.neigh.default.proxy_delay'
p2153
I80
sS'CONFIG_QUEUED_RWLOCKS'
p2154
S'y'
sS'CONFIG_USB_DWC2'
p2155
S'y'
sS'CONFIG_RAPIDIO_DMA_ENGINE'
p2156
S'y'
sS'CONFIG_VHOST_NET'
p2157
S'm'
sS'net.ipv4.conf.ens3.forwarding'
p2158
I0
sS'CONFIG_MFD_SYSCON'
p2159
S'y'
sS'kernel.sched_domain.cpu6.domain0.cache_nice_tries'
p2160
I1
sS'net.ipv6.conf.default.autoconf'
p2161
I1
sS'fs.pipe-user-pages-soft'
p2162
I16384
sS'CONFIG_CRYPTO_SIMD'
p2163
S'm'
sS'CONFIG_SND_PCM_TIMER'
p2164
S'y'
sS'CONFIG_X86_INTEL_PSTATE'
p2165
S'y'
sS'net.ipv4.tcp_mtu_probing'
p2166
I0
sS'kernel.sched_domain.cpu20.domain0.wake_idx'
p2167
I0
sS'CONFIG_MFD_TWL4030_AUDIO'
p2168
S'y'
sS'CONFIG_CGROUP_PERF'
p2169
S'y'
sS'CONFIG_WATCHDOG_HANDLE_BOOT_ENABLED'
p2170
S'y'
sS'CONFIG_SOLARIS_X86_PARTITION'
p2171
S'y'
sS'CONFIG_MFD_SMSC'
p2172
S'y'
sS'kernel.sched_domain.cpu11.domain0.idle_idx'
p2173
I1
sS'CONFIG_NEED_SG_DMA_LENGTH'
p2174
S'y'
sS'vm.hugepages_treat_as_movable'
p2175
I0
sS'CONFIG_ARCH_HAS_DEVMEM_IS_ALLOWED'
p2176
S'y'
sS'CONFIG_SND'
p2177
S'm'
sS'CONFIG_LZO_DECOMPRESS'
p2178
S'y'
sS'kernel.ftrace_enabled'
p2179
I1
sS'CONFIG_CRYPTO_RNG'
p2180
S'y'
sS'CONFIG_MODULES_TREE_LOOKUP'
p2181
S'y'
sS'CONFIG_ECRYPT_FS_MESSAGING'
p2182
S'y'
sS'CONFIG_RTC_HCTOSYS_DEVICE'
p2183
S'"rtc0"'
p2184
sS'net.ipv4.conf.ens3.src_valid_mark'
p2185
I0
sS'CONFIG_EFI_VARS'
p2186
S'y'
sS'kernel.sched_domain.cpu16.domain0.idle_idx'
p2187
I1
sS'CONFIG_KEXEC_FILE'
p2188
S'y'
sS'CONFIG_I2C_BOARDINFO'
p2189
S'y'
sS'CONFIG_SECCOMP'
p2190
S'y'
sS'CONFIG_CRYPTO_RNG2'
p2191
S'y'
sS'kernel.sched_domain.cpu10.domain0.newidle_idx'
p2192
I0
sS'CONFIG_ARCH_MMAP_RND_BITS'
p2193
I28
sS'CONFIG_PMIC_DA9052'
p2194
S'y'
sS'CONFIG_KGDB_SERIAL_CONSOLE'
p2195
S'y'
sS'CONFIG_CPU_FREQ_GOV_ATTR_SET'
p2196
S'y'
sS'CONFIG_IMA_DEFAULT_TEMPLATE'
p2197
S'"ima-ng"'
p2198
sS'CONFIG_BOOTPARAM_HUNG_TASK_PANIC_VALUE'
p2199
I0
sS'kernel.sched_domain.cpu6.domain0.busy_idx'
p2200
I2
sS'CONFIG_CRYPTO_SHA1'
p2201
S'y'
sS'CONFIG_MMIOTRACE'
p2202
S'y'
sS'CONFIG_HW_RANDOM'
p2203
S'y'
sS'CONFIG_ARCH_HAS_CPU_RELAX'
p2204
S'y'
sS'net.ipv6.conf.all.accept_source_route'
p2205
I0
sS'CONFIG_PARAVIRT_TIME_ACCOUNTING'
p2206
S'y'
sS'kernel.sched_domain.cpu7.domain0.name'
p2207
S'DIE'
p2208
sS'net.ipv4.neigh.ens3.delay_first_probe_time'
p2209
I5
sS'net.ipv4.neigh.ens3.retrans_time_ms'
p2210
I1000
sS'CONFIG_KALLSYMS'
p2211
S'y'
sS'CONFIG_RFKILL_INPUT'
p2212
S'y'
sS'net.ipv4.route.gc_timeout'
p2213
I300
sS'CONFIG_NET_VENDOR_SAMSUNG'
p2214
S'y'
sS'CONFIG_SPARSEMEM'
p2215
S'y'
sS'CONFIG_ARCH_HAS_ELF_RANDOMIZE'
p2216
S'y'
sS'kernel.sched_domain.cpu17.domain0.idle_idx'
p2217
I1
sS'CONFIG_HAVE_DMA_API_DEBUG'
p2218
S'y'
sS'CONFIG_ACPI_BUTTON'
p2219
S'y'
sS'CONFIG_TTY'
p2220
S'y'
sS'CONFIG_X86_BOOTPARAM_MEMORY_CORRUPTION_CHECK'
p2221
S'y'
sS'CONFIG_XZ_DEC'
p2222
S'y'
sS'CONFIG_X86_PM_TIMER'
p2223
S'y'
sS'net.ipv4.conf.ens3.arp_notify'
p2224
I0
sS'CONFIG_SERIAL_8250_LPSS'
p2225
S'y'
sS'net.ipv4.neigh.lo.anycast_delay'
p2226
I100
sS'CONFIG_RPS'
p2227
S'y'
sS'CONFIG_AUDIT_WATCH'
p2228
S'y'
sS'CONFIG_KVM_GENERIC_DIRTYLOG_READ_PROTECT'
p2229
S'y'
sS'CONFIG_DMAR_TABLE'
p2230
S'y'
sS'CONFIG_SYSTEM_EXTRA_CERTIFICATE_SIZE'
p2231
I4096
sS'net.ipv4.conf.ens3.send_redirects'
p2232
I1
sS'CONFIG_FB_VESA'
p2233
S'y'
sS'CONFIG_PREEMPT_VOLUNTARY'
p2234
S'y'
sS'CONFIG_DEVMEM'
p2235
S'y'
sS'CONFIG_FUSE_FS'
p2236
S'y'
sS'CONFIG_USER_RETURN_NOTIFIER'
p2237
S'y'
sS'kernel.sched_domain.cpu11.domain0.imbalance_pct'
p2238
I125
sS'net.ipv4.tcp_max_reordering'
p2239
I300
sS'net.ipv4.neigh.default.gc_interval'
p2240
I30
sS'kernel.sg-big-buff'
p2241
I32768
sS'net.ipv6.route.gc_elasticity'
p2242
I9
sS'CONFIG_ARCH_SPARSEMEM_ENABLE'
p2243
S'y'
sS'CONFIG_SCHED_TRACER'
p2244
S'y'
sS'CONFIG_SQUASHFS_DECOMP_SINGLE'
p2245
S'y'
sS'CONFIG_X86_IO_APIC'
p2246
S'y'
sS'net.ipv6.conf.default.temp_valid_lft'
p2247
I604800
sS'CONFIG_ZONE_DMA32'
p2248
S'y'
sS'CONFIG_SERIAL_8250_MANY_PORTS'
p2249
S'y'
sS'net.ipv4.tcp_timestamps'
p2250
I1
sS'kernel.sched_domain.cpu5.domain0.busy_idx'
p2251
I2
sS'CONFIG_EDAC'
p2252
S'y'
sS'CONFIG_GENERIC_CPU_AUTOPROBE'
p2253
S'y'
sS'CONFIG_NR_CPUS'
p2254
I512
sS'CONFIG_DOUBLEFAULT'
p2255
S'y'
sS'user.max_user_namespaces'
p2256
I257513
sS'CONFIG_BIG_KEYS'
p2257
S'y'
sS'kernel.sched_domain.cpu4.domain0.flags'
p2258
I4143
sS'kernel.keys.root_maxkeys'
p2259
I1000000
sS'CONFIG_POSIX_MQUEUE_SYSCTL'
p2260
S'y'
sS'fs.nr_open'
p2261
I1048576
sS'net.ipv6.conf.ens3.disable_policy'
p2262
I0
sS'net.ipv6.neigh.lo.delay_first_probe_time'
p2263
I5
sS'CONFIG_AMD_NUMA'
p2264
S'y'
sS'net.core.somaxconn'
p2265
I128
sS'CONFIG_AMIGA_PARTITION'
p2266
S'y'
sS'CONFIG_CONSOLE_LOGLEVEL_DEFAULT'
p2267
I7
sS'CONFIG_SQUASHFS_LZ4'
p2268
S'y'
sS'net.ipv6.conf.ens3.accept_ra_pinfo'
p2269
I1
sS'CONFIG_SCSI_CONSTANTS'
p2270
S'y'
sS'kernel.sched_domain.cpu17.domain0.max_newidle_lb_cost'
p2271
I75351
sS'CONFIG_CRYPTO_AES'
p2272
S'y'
sS'kernel.sched_domain.cpu19.domain0.imbalance_pct'
p2273
I125
sS'CONFIG_SECURITY_SELINUX_DEVELOP'
p2274
S'y'
sS'net.ipv4.conf.lo.mc_forwarding'
p2275
I0
sS'net.ipv4.tcp_keepalive_probes'
p2276
I9
sS'CONFIG_TREE_RCU'
p2277
S'y'
sS'vm.hugetlb_shm_group'
p2278
I0
sS'CONFIG_X86_TSC'
p2279
S'y'
sS'CONFIG_SECURITY_SELINUX_BOOTPARAM'
p2280
S'y'
sS'CONFIG_ACPI_PCI_SLOT'
p2281
S'y'
sS'CONFIG_X86_MCE_AMD'
p2282
S'y'
sg3
(lp2283
S'HostInfo'
p2284
ag6
aS'object'
p2285
asS'kernel.random.urandom_min_reseed_secs'
p2286
I60
sS'CONFIG_LIBNVDIMM'
p2287
S'y'
sS'kernel.random.read_wakeup_threshold'
p2288
I64
sS'kernel.sched_domain.cpu1.domain0.wake_idx'
p2289
I0
sS'CONFIG_RESET_CONTROLLER'
p2290
S'y'
sS'net.ipv4.tcp_no_metrics_save'
p2291
I0
sS'CONFIG_I2C_HELPER_AUTO'
p2292
S'y'
sS'CONFIG_JBD2'
p2293
S'y'
sS'kernel.sched_domain.cpu1.domain0.forkexec_idx'
p2294
I0
sS'kernel.sched_domain.cpu15.domain0.busy_factor'
p2295
I32
sS'CONFIG_PARTITION_ADVANCED'
p2296
S'y'
sS'CONFIG_EFI_STUB'
p2297
S'y'
sS'net.ipv6.neigh.ens3.mcast_resolicit'
p2298
I0
sS'net.ipv4.conf.all.arp_announce'
p2299
I0
sS'CONFIG_CRYPTO_AEAD2'
p2300
S'y'
sS'CONFIG_RTC_INTF_DEV'
p2301
S'y'
sS'CONFIG_EXT4_FS_POSIX_ACL'
p2302
S'y'
sS'CONFIG_SRCU'
p2303
S'y'
sS'CONFIG_SND_VMASTER'
p2304
S'y'
sS'CONFIG_INPUT_EVDEV'
p2305
S'y'
sS'net.ipv4.conf.all.arp_ignore'
p2306
I0
sS'kernel.sched_domain.cpu13.domain0.busy_idx'
p2307
I2
sS'CONFIG_GPIO_TPS6586X'
p2308
S'y'
sS'CONFIG_SECCOMP_FILTER'
p2309
S'y'
sS'kernel.sched_domain.cpu3.domain0.flags'
p2310
I4143
sS'CONFIG_SERIO'
p2311
S'y'
sS'net.ipv6.conf.ens3.accept_ra_min_hop_limit'
p2312
I1
sS'CONFIG_ARCH_HAS_CACHE_LINE_SIZE'
p2313
S'y'
sS'CONFIG_SERIAL_8250_RUNTIME_UARTS'
p2314
I32
sS'CONFIG_MMU_NOTIFIER'
p2315
S'y'
sS'CONFIG_HW_CONSOLE'
p2316
S'y'
sS'CONFIG_ACPI_SYSTEM_POWER_STATES_SUPPORT'
p2317
S'y'
sS'CONFIG_SQUASHFS_LZO'
p2318
S'y'
sS'net.ipv4.tcp_stdurg'
p2319
I0
sS'CONFIG_SCSI_DH'
p2320
S'y'
sS'kernel.sched_domain.cpu19.domain0.forkexec_idx'
p2321
I0
sS'kernel.unknown_nmi_panic'
p2322
I0
sS'CONFIG_NO_HZ_COMMON'
p2323
S'y'
sS'net.ipv4.conf.all.route_localnet'
p2324
I0
sS'kernel.seccomp.actions_logged'
p2325
S'kill_process kill_thread trap errno trace log'
p2326
sS'net.ipv6.conf.all.force_mld_version'
p2327
I0
sS'CONFIG_MSDOS_PARTITION'
p2328
S'y'
sS'vm.overcommit_kbytes'
p2329
I0
sS'net.ipv4.conf.all.drop_unicast_in_l2_multicast'
p2330
I0
sS'CONFIG_POWER_SUPPLY'
p2331
S'y'
sS'kernel.sched_domain.cpu2.domain0.cache_nice_tries'
p2332
I1
sS'CONFIG_DECOMPRESS_LZMA'
p2333
S'y'
sS'net.ipv6.conf.all.ndisc_notify'
p2334
I0
sS'kernel.sched_domain.cpu7.domain0.max_interval'
p2335
I48
sS'CONFIG_CALGARY_IOMMU'
p2336
S'y'
sS'net.ipv4.neigh.lo.unres_qlen'
p2337
I101
sS'CONFIG_IO_DELAY_TYPE_0X80'
p2338
I0
sS'CONFIG_SND_JACK'
p2339
S'y'
sS'CONFIG_DYNAMIC_DEBUG'
p2340
S'y'
sS'kernel.printk_ratelimit_burst'
p2341
I10
sS'CONFIG_CRYPTO_SEQIV'
p2342
S'y'
sS'CONFIG_NET_VENDOR_OKI'
p2343
S'y'
sS'kernel.sched_domain.cpu3.domain0.busy_factor'
p2344
I32
sS'kernel.sched_domain.cpu4.domain0.min_interval'
p2345
I24
sS'kernel.sched_domain.cpu5.domain0.wake_idx'
p2346
I0
sS'net.ipv6.conf.lo.accept_ra_mtu'
p2347
I1
sS'kernel.sched_domain.cpu16.domain0.flags'
p2348
I4143
sS'CONFIG_RAID6_PQ'
p2349
S'm'
sS'CONFIG_CFQ_GROUP_IOSCHED'
p2350
S'y'
sS'CONFIG_PARAVIRT_CLOCK'
p2351
S'y'
sS'kernel.numa_balancing_scan_size_mb'
p2352
I256
sS'kernel.sched_domain.cpu10.domain0.idle_idx'
p2353
I1
sS'net.ipv4.conf.lo.shared_media'
p2354
I1
sS'CONFIG_NLS'
p2355
S'y'
sS'kernel.sched_domain.cpu22.domain0.max_interval'
p2356
I48
sS'CONFIG_SECURITY_TOMOYO'
p2357
S'y'
sS'CONFIG_ARCH_HAS_STRICT_MODULE_RWX'
p2358
S'y'
sS'CONFIG_SND_OSSEMUL'
p2359
S'y'
sS'CONFIG_CGROUP_FREEZER'
p2360
S'y'
sS'CONFIG_NET_VENDOR_CHELSIO'
p2361
S'y'
sS'CONFIG_FRAMEBUFFER_CONSOLE_DETECT_PRIMARY'
p2362
S'y'
sS'CONFIG_ASN1'
p2363
S'y'
sS'CONFIG_CRC16'
p2364
S'y'
sS'CONFIG_PCIEASPM'
p2365
S'y'
sS'CONFIG_LDM_PARTITION'
p2366
S'y'
sS'CONFIG_CROSS_MEMORY_ATTACH'
p2367
S'y'
sS'CONFIG_COMPACTION'
p2368
S'y'
sS'kernel.io_delay_type'
p2369
I1
sS'CONFIG_HAVE_KRETPROBES'
p2370
S'y'
sS'CONFIG_CPU_IDLE_GOV_LADDER'
p2371
S'y'
sS'CONFIG_UNISYSSPAR'
p2372
S'y'
sS'net.ipv6.conf.all.autoconf'
p2373
I1
sS'CONFIG_CPU_FREQ_GOV_ONDEMAND'
p2374
S'y'
sS'CONFIG_CROSS_COMPILE'
p2375
S'""'
p2376
sS'CONFIG_ARCH_HAS_SET_MEMORY'
p2377
S'y'
sS'CONFIG_SYSCTL_SYSCALL'
p2378
S'y'
sS'net.ipv4.neigh.ens3.mcast_solicit'
p2379
I3
sS'CONFIG_PRINTK_SAFE_LOG_BUF_SHIFT'
p2380
I13
sS'CONFIG_NET_RX_BUSY_POLL'
p2381
S'y'
sS'CONFIG_GENERIC_TIME_VSYSCALL'
p2382
S'y'
sS'CONFIG_HARDLOCKUP_DETECTOR_PERF'
p2383
S'y'
sS'CONFIG_USB_PHY'
p2384
S'y'
sS'CONFIG_FUNCTION_PROFILER'
p2385
S'y'
sS'kernel.sched_domain.cpu14.domain0.max_newidle_lb_cost'
p2386
I26760
sS'CONFIG_RCU_NEED_SEGCBLIST'
p2387
S'y'
sS'CONFIG_MULTIUSER'
p2388
S'y'
sS'net.ipv4.tcp_wmem'
p2389
S'4096\t16384\t4194304'
p2390
sS'kernel.tainted'
p2391
I0
sS'CONFIG_VMAP_STACK'
p2392
S'y'
sS'kernel.sched_nr_migrate'
p2393
I32
sS'CONFIG_HAVE_KVM_MSI'
p2394
S'y'
sS'CONFIG_X86_PMEM_LEGACY'
p2395
S'y'
sS'kernel.sched_domain.cpu13.domain0.wake_idx'
p2396
I0
sS'kernel.keys.root_maxbytes'
p2397
I25000000
sS'CONFIG_NET_VENDOR_BROADCOM'
p2398
S'y'
sS'CONFIG_PCIEAER'
p2399
S'y'
sS'net.ipv4.conf.ens3.bootp_relay'
p2400
I0
sS'CONFIG_MICROCODE_OLD_INTERFACE'
p2401
S'y'
sS'kernel.cap_last_cap'
p2402
I37
sS'CONFIG_ARCH_USE_QUEUED_RWLOCKS'
p2403
S'y'
sS'CONFIG_ARCH_MIGHT_HAVE_PC_PARPORT'
p2404
S'y'
sS'net.ipv6.conf.lo.max_desync_factor'
p2405
I600
sS'net.ipv4.tcp_available_congestion_control'
p2406
S'cubic reno'
p2407
sS'kernel.sched_domain.cpu8.domain0.newidle_idx'
p2408
I0
sS'CONFIG_CRYPTO_CRC32C_INTEL'
p2409
S'y'
sS'CONFIG_ACPI_BATTERY'
p2410
S'y'
sS'CONFIG_ACPI_PROCESSOR_IDLE'
p2411
S'y'
sS'kernel.sched_domain.cpu13.domain0.flags'
p2412
I4143
sS'kernel.printk'
p2413
S'4\t4\t1\t7'
p2414
sS'CONFIG_PID_NS'
p2415
S'y'
sS'CONFIG_NETFILTER'
p2416
S'y'
sS'user.max_inotify_instances'
p2417
I1024
sS'CONFIG_ACPI_AC'
p2418
S'y'
sS'CONFIG_VM_EVENT_COUNTERS'
p2419
S'y'
sS'CONFIG_BINFMT_SCRIPT'
p2420
S'y'
sS'CONFIG_TMPFS_POSIX_ACL'
p2421
S'y'
sS'net.ipv6.conf.default.max_desync_factor'
p2422
I600
sS'CONFIG_DEFAULT_DEADLINE'
p2423
S'y'
sS'CONFIG_NET_VENDOR_QUALCOMM'
p2424
S'y'
sS'net.ipv4.igmp_max_memberships'
p2425
I20
sS'CONFIG_X86_REROUTE_FOR_BROKEN_BOOT_IRQS'
p2426
S'y'
sS'CONFIG_HAVE_ARCH_TRACEHOOK'
p2427
S'y'
sS'net.ipv6.conf.lo.router_solicitation_interval'
p2428
I4
sS'CONFIG_MODULE_SIG_HASH'
p2429
S'"sha512"'
p2430
sS'net.ipv6.conf.lo.accept_ra_defrtr'
p2431
I1
sS'CONFIG_SOCK_CGROUP_DATA'
p2432
S'y'
sS'debug.exception-trace'
p2433
I1
sS'CONFIG_ACPI_NUMA'
p2434
S'y'
sS'CONFIG_SECURITY_SELINUX_AVC_STATS'
p2435
S'y'
sS'CONFIG_IMA_MEASURE_PCR_IDX'
p2436
I10
sS'CONFIG_MODULE_SRCVERSION_ALL'
p2437
S'y'
sS'CONFIG_X86'
p2438
S'y'
sS'CONFIG_CRC_T10DIF'
p2439
S'y'
sS'net.ipv6.neigh.lo.locktime'
p2440
I0
sS'CONFIG_NET_VENDOR_DLINK'
p2441
S'y'
sS'net.ipv6.conf.all.router_solicitation_delay'
p2442
I1
sS'CONFIG_EARLY_PRINTK_DBGP'
p2443
S'y'
sS'CONFIG_CC_OPTIMIZE_FOR_PERFORMANCE'
p2444
S'y'
sS'kernel.sched_domain.cpu18.domain0.max_interval'
p2445
I48
sS'CONFIG_TREE_SRCU'
p2446
S'y'
sS'CONFIG_PCI_IOV'
p2447
S'y'
sS'CONFIG_ATA_PIIX'
p2448
S'y'
sS'CONFIG_CRYPTO_MD5'
p2449
S'y'
sS'CONFIG_CRYPTO_GF128MUL'
p2450
S'y'
sS'kernel.sched_domain.cpu1.domain0.max_newidle_lb_cost'
p2451
I19864
sS'CONFIG_MFD_TPS65912_I2C'
p2452
S'y'
sS'CONFIG_SND_HDA_INPUT_BEEP'
p2453
S'y'
sS'fs.epoll.max_user_watches'
p2454
I13501132
sS'CONFIG_SERIAL_8250'
p2455
S'y'
sS'net.ipv6.conf.default.temp_prefered_lft'
p2456
I86400
sS'CONFIG_FB_EFI'
p2457
S'y'
sS'kernel.pty.nr'
p2458
I0
sS'net.ipv6.conf.lo.accept_dad'
p2459
S'-1'
p2460
sS'net.ipv6.conf.ens3.router_solicitation_delay'
p2461
I1
sS'net.ipv6.conf.lo.mldv1_unsolicited_report_interval'
p2462
I10000
sS'net.ipv6.conf.ens3.router_solicitation_max_interval'
p2463
I3600
sS'kernel.sched_domain.cpu8.domain0.imbalance_pct'
p2464
I125
sS'net.ipv4.tcp_base_mss'
p2465
I1024
sS'CONFIG_HAVE_PERF_EVENTS_NMI'
p2466
S'y'
sS'CONFIG_ASYMMETRIC_KEY_TYPE'
p2467
S'y'
sS'CONFIG_MFD_WM8350'
p2468
S'y'
sS'kernel.sched_domain.cpu22.domain0.min_interval'
p2469
I24
sS'kernel.sched_domain.cpu9.domain0.max_interval'
p2470
I48
sS'CONFIG_FS_DAX'
p2471
S'y'
sS'CONFIG_IP6_NF_FILTER'
p2472
S'm'
sS'kernel.sched_domain.cpu21.domain0.min_interval'
p2473
I24
sS'CONFIG_COREDUMP'
p2474
S'y'
sS'CONFIG_MFD_TPS65912'
p2475
S'y'
sS'kernel.sched_domain.cpu13.domain0.newidle_idx'
p2476
I0
sS'net.ipv6.neigh.lo.ucast_solicit'
p2477
I3
sS'CONFIG_MTRR_SANITIZER_ENABLE_DEFAULT'
p2478
I1
sS'net.ipv6.conf.lo.drop_unicast_in_l2_multicast'
p2479
I0
sS'CONFIG_NET_FC'
p2480
S'y'
sS'net.ipv6.conf.default.router_solicitation_delay'
p2481
I1
sS'CONFIG_PCI_LOCKLESS_CONFIG'
p2482
S'y'
sS'net.ipv6.neigh.ens3.anycast_delay'
p2483
I100
sS'net.ipv4.conf.lo.drop_gratuitous_arp'
p2484
I0
sS'net.ipv6.neigh.default.app_solicit'
p2485
I0
sS'net.ipv6.conf.ens3.mldv1_unsolicited_report_interval'
p2486
I10000
sS'net.ipv4.conf.lo.ignore_routes_with_linkdown'
p2487
I0
sS'CONFIG_NET_CORE'
p2488
S'y'
sS'kernel.panic_on_unrecovered_nmi'
p2489
I0
sS'CONFIG_HAVE_MEMORY_PRESENT'
p2490
S'y'
sS'net.ipv6.conf.default.keep_addr_on_down'
p2491
I0
sS'vm.panic_on_oom'
p2492
I0
sS'CONFIG_X86_FEATURE_NAMES'
p2493
S'y'
sS'CONFIG_NOP_TRACER'
p2494
S'y'
sS'CONFIG_FUNCTION_TRACER'
p2495
S'y'
sS'CONFIG_CPU_FREQ_STAT'
p2496
S'y'
sS'net.ipv4.neigh.ens3.locktime'
p2497
I100
sS'kernel.sched_domain.cpu14.domain0.wake_idx'
p2498
I0
sS'CONFIG_FANOTIFY_ACCESS_PERMISSIONS'
p2499
S'y'
sS'net.ipv6.neigh.lo.unres_qlen_bytes'
p2500
I212992
sS'CONFIG_POSIX_TIMERS'
p2501
S'y'
sS'CONFIG_LWTUNNEL_BPF'
p2502
S'y'
sS'net.ipv4.conf.default.disable_xfrm'
p2503
I0
sS'kernel.sched_domain.cpu13.domain0.imbalance_pct'
p2504
I125
sS'CONFIG_PHYSICAL_START'
p2505
S'0x1000000'
p2506
sS'CONFIG_COMPAT_OLD_SIGACTION'
p2507
S'y'
sS'net.ipv4.tcp_keepalive_time'
p2508
I7200
sS'kernel.sched_domain.cpu23.domain0.min_interval'
p2509
I24
sS'net.ipv6.conf.ens3.max_addresses'
p2510
I16
sS'CONFIG_EXTCON'
p2511
S'y'
sS'CONFIG_NET_VENDOR_AMD'
p2512
S'y'
sS'net.ipv4.conf.all.accept_source_route'
p2513
I0
sS'CONFIG_X86_PAT'
p2514
S'y'
sS'CONFIG_GENERIC_HWEIGHT'
p2515
S'y'
sS'net.ipv6.conf.default.ndisc_notify'
p2516
I0
sS'CONFIG_X86_CHECK_BIOS_CORRUPTION'
p2517
S'y'
sS'CONFIG_ARCH_HAS_SG_CHAIN'
p2518
S'y'
sS'CONFIG_ARCH_SUPPORTS_ATOMIC_RMW'
p2519
S'y'
sS'net.ipv4.conf.ens3.shared_media'
p2520
I1
sS'CONFIG_RT_MUTEXES'
p2521
S'y'
sS'net.core.rmem_default'
p2522
I212992
sS'vm.min_unmapped_ratio'
p2523
I1
sS'CONFIG_RFKILL_LEDS'
p2524
S'y'
sS'CONFIG_ARCH_USES_HIGH_VMA_FLAGS'
p2525
S'y'
sS'net.ipv4.conf.lo.drop_unicast_in_l2_multicast'
p2526
I0
sS'CONFIG_THIN_ARCHIVES'
p2527
S'y'
sS'net.ipv6.conf.all.regen_max_retry'
p2528
I3
sS'net.ipv6.conf.all.accept_ra_defrtr'
p2529
I1
sS'net.ipv4.conf.all.arp_notify'
p2530
I0
sS'CONFIG_VIRTIO_PCI'
p2531
S'y'
sS'kernel.kexec_load_disabled'
p2532
I0
sS'CONFIG_X86_64'
p2533
S'y'
sS'CONFIG_CRYPTO_MANAGER2'
p2534
S'y'
sS'CONFIG_NUMA'
p2535
S'y'
sS'fs.file-nr'
p2536
S'1275\t0\t6576659'
p2537
sS'CONFIG_OPROFILE_NMI_TIMER'
p2538
S'y'
sS'fs.quota.cache_hits'
p2539
I0
sS'CONFIG_X86_SMAP'
p2540
S'y'
sS'CONFIG_PANIC_TIMEOUT'
p2541
I0
sS'CONFIG_SLUB_CPU_PARTIAL'
p2542
S'y'
sS'kernel.sched_domain.cpu10.domain0.max_interval'
p2543
I48
sS'CONFIG_HAVE_MEMBLOCK_NODE_MAP'
p2544
S'y'
sS'CONFIG_SND_HDA_RECONFIG'
p2545
S'y'
sS'kernel.sched_domain.cpu12.domain0.newidle_idx'
p2546
I0
sS'CONFIG_ARCH_MAY_HAVE_PC_FDC'
p2547
S'y'
sS'net.ipv6.neigh.default.mcast_resolicit'
p2548
I0
sS'kernel.sched_domain.cpu22.domain0.newidle_idx'
p2549
I0
sS'CONFIG_REGULATOR_TPS65217'
p2550
S'y'
sS'CONFIG_HIBERNATE_CALLBACKS'
p2551
S'y'
sS'CONFIG_CLKBLD_I8253'
p2552
S'y'
sS'kernel.sched_domain.cpu4.domain0.wake_idx'
p2553
I0
sS'kernel.perf_event_paranoid'
p2554
I2
sS'kernel.sched_domain.cpu13.domain0.min_interval'
p2555
I24
sS'CONFIG_NAMESPACES'
p2556
S'y'
sS'CONFIG_BPF_JIT'
p2557
S'y'
sS'CONFIG_DEFAULT_CUBIC'
p2558
S'y'
sS'kernel.sched_domain.cpu12.domain0.max_newidle_lb_cost'
p2559
I20313
sS'kernel.numa_balancing'
p2560
I1
sS'kernel.hardlockup_panic'
p2561
I0
sS'CONFIG_MFD_TPS65912_SPI'
p2562
S'y'
sS'CONFIG_PROC_CHILDREN'
p2563
S'y'
sS'CONFIG_PHYS_ADDR_T_64BIT'
p2564
S'y'
sS'net.ipv6.conf.all.accept_ra_rt_info_min_plen'
p2565
I0
sS'CONFIG_GENERIC_PENDING_IRQ'
p2566
S'y'
sS'net.ipv4.neigh.ens3.ucast_solicit'
p2567
I3
sS'CONFIG_KDB_CONTINUE_CATASTROPHIC'
p2568
I0
sS'CONFIG_FB_BOOT_VESA_SUPPORT'
p2569
S'y'
sS'kernel.perf_event_max_contexts_per_stack'
p2570
I8
sS'CONFIG_DYNAMIC_FTRACE'
p2571
S'y'
sS'net.ipv6.conf.ens3.dad_transmits'
p2572
I1
sS'kernel.sched_domain.cpu10.domain0.flags'
p2573
I4143
sS'net.ipv6.conf.lo.mtu'
p2574
I65536
sS'net.ipv6.conf.all.disable_ipv6'
p2575
I0
sS'net.ipv6.conf.ens3.router_solicitations'
p2576
S'-1'
p2577
sS'net.ipv6.conf.lo.keep_addr_on_down'
p2578
I0
sS'CONFIG_USB_EHCI_PCI'
p2579
S'y'
sS'CONFIG_KVM_ASYNC_PF'
p2580
S'y'
sS'net.ipv6.ip6frag_time'
p2581
I60
sS'net.ipv4.conf.all.log_martians'
p2582
I0
sS'fs.aio-max-nr'
p2583
I65536
sS'CONFIG_ARCH_SUPPORTS_INT128'
p2584
S'y'
sS'CONFIG_SECURITY'
p2585
S'y'
sS'CONFIG_SPI'
p2586
S'y'
sS'net.ipv4.tcp_orphan_retries'
p2587
I0
sS'net.ipv4.tcp_fin_timeout'
p2588
I60
sS'CONFIG_IDLE_PAGE_TRACKING'
p2589
S'y'
sS'CONFIG_CRYPTO_CRYPTD'
p2590
S'm'
sS'CONFIG_DEVPORT'
p2591
S'y'
sS'CONFIG_ARCH_PROC_KCORE_TEXT'
p2592
S'y'
sS'CONFIG_SPARSEMEM_VMEMMAP_ENABLE'
p2593
S'y'
sS'net.ipv4.tcp_recovery'
p2594
I1
sS'CONFIG_NET_CADENCE'
p2595
S'y'
sS'kernel.sched_domain.cpu7.domain0.min_interval'
p2596
I24
sS'CONFIG_SERIAL_8250_NR_UARTS'
p2597
I48
sS'net.ipv6.conf.ens3.forwarding'
p2598
I0
sS'CONFIG_NET_VENDOR_MYRI'
p2599
S'y'
sS'CONFIG_ARCH_SUPPORTS_NUMA_BALANCING'
p2600
S'y'
sS'CONFIG_TMPFS_XATTR'
p2601
S'y'
sS'net.ipv4.neigh.ens3.anycast_delay'
p2602
I100
sS'net.ipv6.conf.default.mldv1_unsolicited_report_interval'
p2603
I10000
sS'CONFIG_ARCH_HAS_STRICT_KERNEL_RWX'
p2604
S'y'
sS'CONFIG_TWL6040_CORE'
p2605
S'y'
sS'net.ipv4.tcp_sack'
p2606
I1
sS'CONFIG_BLK_DEV_MD'
p2607
S'y'
sS'kernel.sched_domain.cpu9.domain0.min_interval'
p2608
I24
sS'net.ipv6.conf.ens3.mtu'
p2609
I1500
sS'CONFIG_PCI_DIRECT'
p2610
S'y'
sS'kernel.ns_last_pid'
p2611
I212142
sS'CONFIG_RWSEM_XCHGADD_ALGORITHM'
p2612
S'y'
sS'CONFIG_HAVE_KERNEL_GZIP'
p2613
S'y'
sS'CONFIG_MEGARAID_NEWGEN'
p2614
S'y'
sS'vm.overcommit_ratio'
p2615
I50
sS'CONFIG_MFD_TPS65217'
p2616
S'y'
sS'CONFIG_CRASH_CORE'
p2617
S'y'
sS'kernel.sched_domain.cpu16.domain0.wake_idx'
p2618
I0
sS'CONFIG_ENCRYPTED_KEYS'
p2619
S'y'
sS'kernel.sched_domain.cpu11.domain0.name'
p2620
S'DIE'
p2621
sS'net.ipv6.neigh.ens3.retrans_time_ms'
p2622
I1000
sS'CONFIG_ACPI_PROCESSOR_CSTATE'
p2623
S'y'
sS'CONFIG_BLK_DEBUG_FS'
p2624
S'y'
sS'CONFIG_IPV6_PIMSM_V2'
p2625
S'y'
sS'CONFIG_INITRAMFS_SOURCE'
p2626
S'""'
p2627
sS'kernel.sched_domain.cpu18.domain0.max_newidle_lb_cost'
p2628
I21442
sS'CONFIG_NET_VENDOR_TI'
p2629
S'y'
sS'CONFIG_HPET_MMAP_DEFAULT'
p2630
S'y'
sS'CONFIG_PROCESSOR_SELECT'
p2631
S'y'
sS'CONFIG_MQ_IOSCHED_KYBER'
p2632
S'y'
sS'kernel.sched_domain.cpu3.domain0.max_interval'
p2633
I48
sS'dev.scsi.logging_level'
p2634
I0
sS'CONFIG_SLHC'
p2635
S'y'
sS'CONFIG_PREVENT_FIRMWARE_BUILD'
p2636
S'y'
sS'net.ipv4.conf.default.accept_redirects'
p2637
I1
sS'CONFIG_PWM_CRC'
p2638
S'y'
sS'CONFIG_ARCH_MMAP_RND_COMPAT_BITS_MIN'
p2639
I8
sS'kernel.hung_task_panic'
p2640
I0
sS'net.ipv4.tcp_retrans_collapse'
p2641
I1
sS'CONFIG_HAVE_KPROBES_ON_FTRACE'
p2642
S'y'
sS'fs.quota.writes'
p2643
I0
sS'CONFIG_ARCH_WANT_HUGE_PMD_SHARE'
p2644
S'y'
sS'kernel.sched_domain.cpu2.domain0.flags'
p2645
I4143
sS'CONFIG_PROC_VMCORE'
p2646
S'y'
sS'CONFIG_GDB_SCRIPTS'
p2647
S'y'
sS'kernel.sched_domain.cpu7.domain0.wake_idx'
p2648
I0
sS'CONFIG_HAVE_CMPXCHG_DOUBLE'
p2649
S'y'
sS'CONFIG_FB_CFB_COPYAREA'
p2650
S'y'
sS'CONFIG_GENERIC_NET_UTILS'
p2651
S'y'
sS'CONFIG_SLAB_MERGE_DEFAULT'
p2652
S'y'
sS'CONFIG_MODULES'
p2653
S'y'
sS'CONFIG_PCI_DOMAINS'
p2654
S'y'
sS'CONFIG_HAVE_MMIOTRACE_SUPPORT'
p2655
S'y'
sS'CONFIG_WLAN_VENDOR_TI'
p2656
S'y'
sS'CONFIG_ARCH_CLOCKSOURCE_DATA'
p2657
S'y'
sS'kernel.sched_domain.cpu9.domain0.max_newidle_lb_cost'
p2658
I124692
sS'vm.dirty_background_bytes'
p2659
I0
sS'kernel.hardlockup_all_cpu_backtrace'
p2660
I0
sS'net.ipv6.conf.ens3.accept_source_route'
p2661
I0
sS'net.ipv6.conf.default.router_solicitation_max_interval'
p2662
I3600
sS'CONFIG_MFD_LP8788'
p2663
S'y'
sS'CONFIG_FRONTSWAP'
p2664
S'y'
sS'CONFIG_NET_VENDOR_EMULEX'
p2665
S'y'
sS'kernel.watchdog'
p2666
I1
sS'CONFIG_HYPERVISOR_GUEST'
p2667
S'y'
sS'CONFIG_GART_IOMMU'
p2668
S'y'
sS'CONFIG_NET_VENDOR_3COM'
p2669
S'y'
sS'CONFIG_PCI_MSI'
p2670
S'y'
sS'net.ipv6.conf.ens3.max_desync_factor'
p2671
I600
sS'net.ipv4.icmp_ratelimit'
p2672
I1000
sS'CONFIG_ALLOW_DEV_COREDUMP'
p2673
S'y'
sS'CONFIG_X86_PCC_CPUFREQ'
p2674
S'y'
sS'net.ipv4.neigh.lo.app_solicit'
p2675
I0
sS'CONFIG_ARCH_USES_PG_UNCACHED'
p2676
S'y'
sS'CONFIG_UEVENT_HELPER'
p2677
S'y'
sS'CONFIG_IMA_DEFAULT_HASH_SHA1'
p2678
S'y'
sS'net.ipv6.conf.all.use_oif_addrs_only'
p2679
I0
sS'kernel.sched_tunable_scaling'
p2680
I1
sS'CONFIG_RD_LZMA'
p2681
S'y'
sS'kernel.sched_domain.cpu11.domain0.wake_idx'
p2682
I0
sS'CONFIG_PCI_REALLOC_ENABLE_AUTO'
p2683
S'y'
sS'net.ipv6.conf.lo.mc_forwarding'
p2684
I0
sS'CONFIG_WLAN_VENDOR_ATH'
p2685
S'y'
sS'CONFIG_PM_ADVANCED_DEBUG'
p2686
S'y'
sS'kernel.bootloader_version'
p2687
I2
sS'kernel.sched_domain.cpu13.domain0.max_interval'
p2688
I48
sS'CONFIG_ARCH_MMAP_RND_COMPAT_BITS'
p2689
I8
sS'CONFIG_THERMAL_GOV_USER_SPACE'
p2690
S'y'
sS'net.ipv4.neigh.ens3.gc_stale_time'
p2691
I60
sS'fs.mount-max'
p2692
I100000
sS'net.ipv4.cipso_rbm_optfmt'
p2693
I0
sS'CONFIG_USERFAULTFD'
p2694
S'y'
sS'CONFIG_CHELSIO_T4'
p2695
S'm'
sS'kernel.sched_schedstats'
p2696
I0
sS'CONFIG_ACPI_BGRT'
p2697
S'y'
sS'net.ipv4.neigh.default.gc_thresh1'
p2698
I128
sS'net.ipv4.neigh.default.gc_thresh2'
p2699
I512
sS'net.ipv4.neigh.default.gc_thresh3'
p2700
I1024
sS'kernel.sched_domain.cpu23.domain0.forkexec_idx'
p2701
I0
sS'CONFIG_LZO_COMPRESS'
p2702
S'y'
sS'CONFIG_MOUSE_PS2_FOCALTECH'
p2703
S'y'
sS'net.ipv4.fwmark_reflect'
p2704
I0
sS'CONFIG_IMA'
p2705
S'y'
sS'CONFIG_CPU_IDLE_GOV_MENU'
p2706
S'y'
sS'vm.dirty_background_ratio'
p2707
I10
sS'CONFIG_USB_EHCI_HCD_PLATFORM'
p2708
S'y'
sS'CONFIG_SCHED_OMIT_FRAME_POINTER'
p2709
S'y'
sS'kernel.sched_domain.cpu16.domain0.max_newidle_lb_cost'
p2710
I45685
sS'CONFIG_PINCTRL_AMD'
p2711
S'y'
sS'CONFIG_UIO'
p2712
S'm'
sS'net.ipv4.conf.ens3.drop_unicast_in_l2_multicast'
p2713
I0
sS'kernel.poweroff_cmd'
p2714
S'/sbin/poweroff'
p2715
sS'net.ipv4.conf.lo.promote_secondaries'
p2716
I0
sS'CONFIG_SECTION_MISMATCH_WARN_ONLY'
p2717
S'y'
sS'CONFIG_SRAM'
p2718
S'y'
sS'CONFIG_ARCH_HAVE_NMI_SAFE_CMPXCHG'
p2719
S'y'
sS'vm.min_free_kbytes'
p2720
I225280
sS'CONFIG_RING_BUFFER'
p2721
S'y'
sS'net.ipv4.route.min_pmtu'
p2722
I552
sS'CONFIG_HAVE_ARCH_SOFT_DIRTY'
p2723
S'y'
sS'kernel.perf_cpu_time_max_percent'
p2724
I25
sS'kernel.sched_domain.cpu10.domain0.min_interval'
p2725
I24
sS'CONFIG_PROC_KCORE'
p2726
S'y'
sS'dev.raid.speed_limit_min'
p2727
I1000
sS'CONFIG_SECURITY_TOMOYO_MAX_ACCEPT_ENTRY'
p2728
I2048
sS'net.ipv4.route.gc_min_interval'
p2729
I0
sS'CONFIG_MAGIC_SYSRQ_DEFAULT_ENABLE'
p2730
S'0x1'
p2731
sS'CONFIG_DEVTMPFS_MOUNT'
p2732
S'y'
sS'CONFIG_PANIC_ON_OOPS_VALUE'
p2733
I0
sS'kernel.sched_domain.cpu5.domain0.forkexec_idx'
p2734
I0
sS'CONFIG_PHYLIB'
p2735
S'y'
sS'kernel.sched_domain.cpu15.domain0.name'
p2736
S'DIE'
p2737
sS'net.ipv4.fib_multipath_use_neigh'
p2738
I0
sS'net.ipv4.icmp_msgs_per_sec'
p2739
I1000
sS'kernel.sched_domain.cpu15.domain0.idle_idx'
p2740
I1
sS'net.ipv4.tcp_retries1'
p2741
I3
sS'net.ipv4.tcp_retries2'
p2742
I15
sS'CONFIG_SECURITY_APPARMOR_HASH'
p2743
S'y'
sS'CONFIG_PGTABLE_LEVELS'
p2744
I4
sS'CONFIG_NET_VENDOR_ALACRITECH'
p2745
S'y'
sS'CONFIG_KPROBES_ON_FTRACE'
p2746
S'y'
sS'CONFIG_DNOTIFY'
p2747
S'y'
sS'CONFIG_GPIO_ACPI'
p2748
S'y'
sS'CONFIG_ACPI_TABLE_UPGRADE'
p2749
S'y'
sS'CONFIG_RELAY'
p2750
S'y'
sS'CONFIG_MODULE_SIG'
p2751
S'y'
sS'kernel.domainname'
p2752
S'(none)'
p2753
sS'kernel.sched_domain.cpu4.domain0.forkexec_idx'
p2754
I0
sS'CONFIG_FB_ASILIANT'
p2755
S'y'
sS'CONFIG_SYSV68_PARTITION'
p2756
S'y'
sS'CONFIG_HAVE_FTRACE_MCOUNT_RECORD'
p2757
S'y'
sS'CONFIG_XZ_DEC_ARMTHUMB'
p2758
S'y'
sS'CONFIG_VGA_ARB'
p2759
S'y'
sS'CONFIG_INTEGRITY_TRUSTED_KEYRING'
p2760
S'y'
sS'CONFIG_MFD_TPS65910'
p2761
S'y'
sS'net.ipv4.igmp_max_msf'
p2762
I10
sS'vm.percpu_pagelist_fraction'
p2763
I0
sS'kernel.sched_domain.cpu20.domain0.busy_factor'
p2764
I32
sS'CONFIG_PM_SLEEP_DEBUG'
p2765
S'y'
sS'CONFIG_INLINE_WRITE_UNLOCK_IRQ'
p2766
S'y'
sS'CONFIG_NET_VENDOR_RDC'
p2767
S'y'
sS'CONFIG_MFD_MAX8925'
p2768
S'y'
sS'CONFIG_XZ_DEC_X86'
p2769
S'y'
sS'CONFIG_X86_X32'
p2770
S'y'
sS'fs.dir-notify-enable'
p2771
I1
sS'kernel.msg_next_id'
p2772
S'-1'
p2773
sS'net.ipv4.tcp_allowed_congestion_control'
p2774
S'cubic reno'
p2775
sS'kernel.sched_wakeup_granularity_ns'
p2776
I4000000
sS'net.ipv4.neigh.ens3.mcast_resolicit'
p2777
I0
sS'net.ipv6.conf.lo.disable_policy'
p2778
I0
sS'net.ipv6.conf.lo.addr_gen_mode'
p2779
I0
sS'CONFIG_X86_SPEEDSTEP_CENTRINO'
p2780
S'y'
sS'net.ipv4.route.gc_elasticity'
p2781
I8
sS'CONFIG_HAVE_PCSPKR_PLATFORM'
p2782
S'y'
sS'kernel.sched_domain.cpu23.domain0.max_interval'
p2783
I48
sS'net.ipv4.tcp_syncookies'
p2784
I1
sS'CONFIG_ARCH_WANTS_THP_SWAP'
p2785
S'y'
sS'net.ipv6.neigh.lo.mcast_solicit'
p2786
I3
sS'CONFIG_IO_DELAY_TYPE_NONE'
p2787
I3
sS'kernel.sched_domain.cpu0.domain0.busy_factor'
p2788
I32
sS'CONFIG_EARLY_PRINTK_EFI'
p2789
S'y'
sS'CONFIG_PROBE_EVENTS'
p2790
S'y'
sS'CONFIG_WLAN_VENDOR_CISCO'
p2791
S'y'
sS'CONFIG_USB_DWC2_HOST'
p2792
S'y'
sS'CONFIG_FRAMEBUFFER_CONSOLE_ROTATION'
p2793
S'y'
sS'CONFIG_PROC_EVENTS'
p2794
S'y'
sS'CONFIG_TIMERFD'
p2795
S'y'
sS'net.ipv4.conf.ens3.mc_forwarding'
p2796
I0
sS'net.core.tstamp_allow_data'
p2797
I1
sS'kernel.sched_domain.cpu18.domain0.wake_idx'
p2798
I0
sS'CONFIG_LOCALVERSION'
p2799
S'""'
p2800
sS'CONFIG_PWM'
p2801
S'y'
sS'net.unix.max_dgram_qlen'
p2802
I512
sS'CONFIG_TTY_PRINTK'
p2803
S'y'
sS'kernel.ctrl-alt-del'
p2804
I0
sS'net.ipv4.conf.default.rp_filter'
p2805
I1
sS'kernel.sched_domain.cpu3.domain0.imbalance_pct'
p2806
I125
sS'CONFIG_HAVE_MEMBLOCK'
p2807
S'y'
sS'CONFIG_REGMAP_SPI'
p2808
S'y'
sS'CONFIG_PINMUX'
p2809
S'y'
sS'net.ipv4.conf.lo.force_igmp_version'
p2810
I0
sS'CONFIG_IOMMU_SUPPORT'
p2811
S'y'
sS'CONFIG_TRACE_CLOCK'
p2812
S'y'
sS'CONFIG_SERIAL_EARLYCON'
p2813
S'y'
sg10
g11
sS'CONFIG_NET_VENDOR_CISCO'
p2814
S'y'
sS'CONFIG_BASE_FULL'
p2815
S'y'
sS'CONFIG_STP'
p2816
S'm'
sS'net.ipv4.conf.all.rp_filter'
p2817
I1
sS'CONFIG_ATA'
p2818
S'y'
sS'CONFIG_EVM_ATTR_FSUUID'
p2819
S'y'
sS'CONFIG_CRYPTO_GLUE_HELPER_X86'
p2820
S'm'
sS'CONFIG_NET'
p2821
S'y'
sS'net.ipv4.ip_early_demux'
p2822
I1
sS'CONFIG_BOOTPARAM_HARDLOCKUP_PANIC_VALUE'
p2823
I0
sS'CONFIG_SYSTEM_EXTRA_CERTIFICATE'
p2824
S'y'
sS'CONFIG_SYSTEM_TRUSTED_KEYS'
p2825
S'""'
p2826
sS'kernel.tracepoint_printk'
p2827
I0
sS'CONFIG_HOTPLUG_PCI'
p2828
S'y'
sS'kernel.sched_domain.cpu0.domain0.min_interval'
p2829
I24
sS'CONFIG_SERIAL_MAX310X'
p2830
S'y'
sS'kernel.sched_domain.cpu0.domain0.idle_idx'
p2831
I1
sS'CONFIG_PNPACPI'
p2832
S'y'
sS'CONFIG_I2C_CHARDEV'
p2833
S'y'
sS'CONFIG_INPUT_TOUCHSCREEN'
p2834
S'y'
sS'CONFIG_NLS_CODEPAGE_437'
p2835
S'y'
sS'vm.numa_zonelist_order'
p2836
S'Node'
p2837
sS'kernel.sched_domain.cpu11.domain0.cache_nice_tries'
p2838
I1
sS'CONFIG_FANOTIFY'
p2839
S'y'
sS'vm.memory_failure_recovery'
p2840
I1
sS'CONFIG_ACPI_HED'
p2841
S'y'
sS'net.ipv6.neigh.lo.unres_qlen'
p2842
I101
sS'CONFIG_X86_AMD_PLATFORM_DEVICE'
p2843
S'y'
sS'CONFIG_FONT_8x16'
p2844
S'y'
sS'net.ipv6.mld_max_msf'
p2845
I64
sS'net.ipv4.neigh.default.proxy_delay'
p2846
I80
sS'net.ipv4.conf.default.bootp_relay'
p2847
I0
sS'kernel.seccomp.actions_avail'
p2848
S'kill_process kill_thread trap errno trace log allow'
p2849
sS'CONFIG_USB_XHCI_PCI'
p2850
S'y'
sS'kernel.numa_balancing_scan_period_min_ms'
p2851
I1000
sS'kernel.sched_domain.cpu18.domain0.flags'
p2852
I4143
sS'net.ipv4.tcp_early_retrans'
p2853
I3
sS'kernel.sched_domain.cpu17.domain0.busy_idx'
p2854
I2
sS'CONFIG_NET_VENDOR_SUN'
p2855
S'y'
sS'CONFIG_PSTORE'
p2856
S'y'
sS'kernel.sched_domain.cpu13.domain0.max_newidle_lb_cost'
p2857
I22589
sS'kernel.sched_domain.cpu6.domain0.max_interval'
p2858
I48
sS'CONFIG_DEFAULT_SECURITY'
p2859
S'"apparmor"'
p2860
sS'net.ipv4.conf.ens3.route_localnet'
p2861
I0
sS'net.ipv4.conf.default.igmpv3_unsolicited_report_interval'
p2862
I1000
sS'CONFIG_CRYPTO_AEAD'
p2863
S'y'
sS'net.core.warnings'
p2864
I0
sS'CONFIG_HPET_TIMER'
p2865
S'y'
sS'net.ipv6.conf.default.accept_source_route'
p2866
I0
sS'CONFIG_NETFILTER_INGRESS'
p2867
S'y'
sS'kernel.sched_domain.cpu15.domain0.wake_idx'
p2868
I0
sS'kernel.sched_cfs_bandwidth_slice_us'
p2869
I5000
sS'net.ipv6.conf.lo.mldv2_unsolicited_report_interval'
p2870
I1000
sS'net.ipv6.conf.default.drop_unsolicited_na'
p2871
I0
sS'CONFIG_SECURITY_NETWORK'
p2872
S'y'
sS'kernel.sched_domain.cpu21.domain0.flags'
p2873
I4143
sS'CONFIG_TRACER_SNAPSHOT'
p2874
S'y'
sS'net.core.message_cost'
p2875
I5
sS'net.ipv6.conf.all.router_solicitation_interval'
p2876
I4
sS'net.ipv6.neigh.lo.retrans_time_ms'
p2877
I1000
sS'vm.stat_interval'
p2878
I1
sS'CONFIG_CGROUP_CPUACCT'
p2879
S'y'
sS'CONFIG_INPUT_JOYSTICK'
p2880
S'y'
sS'net.ipv4.conf.all.igmpv2_unsolicited_report_interval'
p2881
I10000
sS'net.ipv4.conf.all.accept_local'
p2882
I0
sS'CONFIG_I8253_LOCK'
p2883
S'y'
sS'CONFIG_MAC_EMUMOUSEBTN'
p2884
S'm'
sS'CONFIG_HIBERNATION'
p2885
S'y'
sS'net.ipv4.udp_mem'
p2886
S'1536714\t2048952\t3073428'
p2887
sS'CONFIG_XPS'
p2888
S'y'
sS'CONFIG_WLAN_VENDOR_BROADCOM'
p2889
S'y'
sS'CONFIG_SND_JACK_INPUT_DEV'
p2890
S'y'
sS'CONFIG_INPUT_MOUSE'
p2891
S'y'
sS'CONFIG_IMA_TRUSTED_KEYRING'
p2892
S'y'
sS'CONFIG_MFD_WM8350_I2C'
p2893
S'y'
sS'net.ipv6.neigh.default.delay_first_probe_time'
p2894
I5
sS'kernel.sched_domain.cpu3.domain0.name'
p2895
S'DIE'
p2896
sS'CONFIG_SND_HDA_PREALLOC_SIZE'
p2897
I64
sS'CONFIG_USB_SUPPORT'
p2898
S'y'
sS'CONFIG_IOSF_MBI_DEBUG'
p2899
S'y'
sS'fs.leases-enable'
p2900
I1
sS'CONFIG_ARCH_MEMORY_PROBE'
p2901
S'y'
sS'net.ipv6.conf.all.temp_prefered_lft'
p2902
I86400
sS'CONFIG_GENERIC_IO'
p2903
S'y'
sS'CONFIG_64BIT'
p2904
S'y'
sS'CONFIG_HAVE_IRQ_TIME_ACCOUNTING'
p2905
S'y'
sS'kernel.sched_domain.cpu4.domain0.cache_nice_tries'
p2906
I1
sS'CONFIG_AUDIT_ARCH'
p2907
S'y'
sS'fs.aio-nr'
p2908
I0
sS'CONFIG_THERMAL_HWMON'
p2909
S'y'
sS'net.ipv4.route.max_size'
p2910
I2147483647
sS'kernel.watchdog_thresh'
p2911
I10
sS'CONFIG_HZ'
p2912
I250
sS'CONFIG_X86_DEBUG_FPU'
p2913
S'y'
sS'CONFIG_MPILIB'
p2914
S'y'
sS'CONFIG_INTEGRITY_AUDIT'
p2915
S'y'
sS'CONFIG_GPIO_SYSFS'
p2916
S'y'
sS'CONFIG_KEXEC_CORE'
p2917
S'y'
sS'CONFIG_EFI'
p2918
S'y'
sS'CONFIG_NET_VENDOR_SMSC'
p2919
S'y'
sS'CONFIG_BALLOON_COMPACTION'
p2920
S'y'
sS'net.ipv6.conf.all.accept_redirects'
p2921
I1
sS'CONFIG_KEYS'
p2922
S'y'
sS'CONFIG_SGI_PARTITION'
p2923
S'y'
sS'CONFIG_KVM_VFIO'
p2924
S'y'
sS'net.ipv4.conf.lo.disable_policy'
p2925
I1
sS'kernel.sched_domain.cpu1.domain0.imbalance_pct'
p2926
I125
sS'CONFIG_MEMORY_HOTREMOVE'
p2927
S'y'
sS'CONFIG_SECURITY_TOMOYO_POLICY_LOADER'
p2928
S'"/sbin/tomoyo-init"'
p2929
sS'CONFIG_BINFMT_ELF'
p2930
S'y'
sS'net.ipv4.tcp_rfc1337'
p2931
I0
sS'kernel.sysrq'
p2932
I176
sS'CONFIG_TASK_IO_ACCOUNTING'
p2933
S'y'
sS'CONFIG_SATA_PMP'
p2934
S'y'
sa(dp2935
g10
g11
sS'fstype'
p2936
S'tmpfs-separate'
p2937
sg3
(lp2938
S'FileSystem'
p2939
ag6
ag14
aS'object'
p2940
asg8
S'FileSystem.host-192.168.123.30.fstype-tmpfs-separate'
p2941
sa(dp2942
S'topDir'
p2943
S'~/vm-scalability/bench/tmp/linux-3.18'
p2944
sS'excludes'
p2945
(lp2946
S'*/.git'
p2947
asg10
g11
sg3
(lp2948
S'PrefetchDir'
p2949
ag6
ag14
aS'object'
p2950
asg8
S'PrefetchDir.topDir-~/vm-scalability/bench/tmp/linux-3.18.host-192.168.123.30'
p2951
sa(dp2952
g8
S'SetCPUs.host-192.168.123.30'
p2953
sS'seq'
p2954
g2954
sg10
g11
sS'hotplug'
p2955
I01
sg3
(lp2956
S'SetCPUs'
p2957
ag6
ag14
aS'object'
p2958
asS'num'
p2959
I24
sa(dp2960
g10
g11
sg3
(lp2961
S'SystemMonitor'
p2962
ag6
ag14
aS'object'
p2963
asg8
S'SystemMonitor.host-192.168.123.30'
p2964
sa(dp2965
S'real'
p2966
F37.782699999999998
sS'time.iowait'
p2967
F0.23000000000000001
sg8
S'GmakeLoad.trial-0.host-192.168.123.30'
p2968
sS'time.real'
p2969
F37.782699999999998
sS'time.idle'
p2970
F126.294
sS'time.sys'
p2971
F113.25
sg3
(lp2972
S'GmakeLoad'
p2973
ag6
aS'ResultsProvider'
p2974
ag14
aS'object'
p2975
asS'objPath'
p2976
S'/tmp/mosbench/tmpfs-separate/0'
p2977
sS'units'
p2978
S'builds'
p2979
sg10
g11
sS'result'
p2980
F1
sS'srcPath'
p2981
g2944
sS'cores'
p2982
I24
sS'time.steal'
p2983
F0.26000000000000001
sS'time.irq'
p2984
F0
sS'time.softirq'
p2985
F0.23000000000000001
sS'time.nice'
p2986
F0
sS'unit'
p2987
S'build'
p2988
sS'time.user'
p2989
F667.24000000000001
sa.