(lp1
(dp2
S'classNames'
p3
(lp4
S'ResultPath'
p5
aS'Task'
p6
aS'object'
p7
asS'name'
p8
g5
sa(dp9
S'host'
p10
S'192.168.123.30'
p11
sg3
(lp12
S'Host'
p13
ag6
aS'SourceFileProvider'
p14
aS'object'
p15
asg8
S'Host.host-192.168.123.30'
p16
sa(dp17
S'CONFIG_USB_OHCI_HCD_PLATFORM'
p18
S'y'
sS'CONFIG_DEFAULT_IO_DELAY_TYPE'
p19
I1
sS'CONFIG_DNS_RESOLVER'
p20
S'y'
sS'net.ipv6.conf.lo.suppress_frag_ndisc'
p21
I1
sS'CONFIG_GENERIC_STRNCPY_FROM_USER'
p22
S'y'
sS'net.netfilter.nf_log_all_netns'
p23
I0
sS'CONFIG_KVM_SCHEDACT'
p24
S'y'
sS'CONFIG_WLAN_VENDOR_RALINK'
p25
S'y'
sS'CONFIG_HAVE_DYNAMIC_FTRACE_WITH_REGS'
p26
S'y'
sS'kernel.sched_domain.cpu5.domain0.newidle_idx'
p27
I0
sS'net.ipv4.conf.all.tag'
p28
I0
sS'CONFIG_EVENT_TRACING'
p29
S'y'
sS'CONFIG_LIVEPATCH'
p30
S'y'
sS'CONFIG_LEDS_TRIGGER_CPU'
p31
S'y'
sS'CONFIG_PCIEPORTBUS'
p32
S'y'
sS'CONFIG_INIT_ENV_ARG_LIMIT'
p33
I32
sS'net.ipv6.conf.default.accept_ra_min_hop_limit'
p34
I1
sS'CONFIG_LEDS_CLASS'
p35
S'y'
sS'kernel.sched_domain.cpu2.domain0.newidle_idx'
p36
I0
sS'net.ipv4.neigh.default.proxy_qlen'
p37
I64
sS'CONFIG_PMC_ATOM'
p38
S'y'
sS'CONFIG_MANDATORY_FILE_LOCKING'
p39
S'y'
sS'fs.quota.free_dquots'
p40
I0
sS'CONFIG_PRINTK_NMI'
p41
S'y'
sS'CONFIG_NETDEVICES'
p42
S'y'
sS'CONFIG_HAVE_DYNAMIC_FTRACE'
p43
S'y'
sS'CONFIG_PINCTRL_SX150X'
p44
S'y'
sS'CONFIG_NET_SCHED'
p45
S'y'
sS'CONFIG_UNIXWARE_DISKLABEL'
p46
S'y'
sS'CONFIG_INLINE_WRITE_UNLOCK'
p47
S'y'
sS'CONFIG_ACPI_REV_OVERRIDE_POSSIBLE'
p48
S'y'
sS'CONFIG_HAVE_ARCH_AUDITSYSCALL'
p49
S'y'
sS'kernel.sched_domain.cpu11.domain0.flags'
p50
I4143
sS'CONFIG_NET_VENDOR_RENESAS'
p51
S'y'
sS'CONFIG_FIRMWARE_EDID'
p52
S'y'
sS'CONFIG_CGROUPS'
p53
S'y'
sS'net.ipv6.conf.ens3.regen_max_retry'
p54
I3
sS'net.ipv4.conf.lo.medium_id'
p55
I0
sS'CONFIG_DEFAULT_MMAP_MIN_ADDR'
p56
I65536
sS'CONFIG_AIO'
p57
S'y'
sS'CONFIG_X86_DEBUGCTLMSR'
p58
S'y'
sS'CONFIG_ARCH_HIBERNATION_HEADER'
p59
S'y'
sS'net.ipv4.tcp_synack_retries'
p60
I5
sS'CONFIG_SECURITY_YAMA'
p61
S'y'
sS'CONFIG_CRYPTO_ECB'
p62
S'y'
sS'CONFIG_ACPI_HOTPLUG_MEMORY'
p63
S'y'
sS'net.ipv4.tcp_notsent_lowat'
p64
I4294967295
sS'CONFIG_HAVE_ARCH_WITHIN_STACK_FRAMES'
p65
S'y'
sS'CONFIG_FS_DAX_PMD'
p66
S'y'
sS'CONFIG_X86_LOCAL_APIC'
p67
S'y'
sS'net.ipv4.conf.lo.forwarding'
p68
I0
sS'CONFIG_GENERIC_CLOCKEVENTS_MIN_ADJUST'
p69
S'y'
sS'net.ipv6.conf.lo.accept_redirects'
p70
I1
sS'CONFIG_TASK_XACCT'
p71
S'y'
sS'CONFIG_KEXEC_BZIMAGE_VERIFY_SIG'
p72
S'y'
sS'CONFIG_EVENTFD'
p73
S'y'
sS'CONFIG_FTRACE_MCOUNT_RECORD'
p74
S'y'
sS'CONFIG_HAVE_PERF_EVENTS'
p75
S'y'
sS'CONFIG_SND_HDA_CORE'
p76
S'm'
sS'CONFIG_ARCH_SUPPORTS_UPROBES'
p77
S'y'
sS'CONFIG_PACKET'
p78
S'y'
sS'net.ipv6.conf.ens3.use_oif_addrs_only'
p79
I0
sS'kernel.sched_domain.cpu10.domain0.name'
p80
S'DIE'
p81
sS'net.ipv6.conf.all.router_solicitation_max_interval'
p82
I3600
sS'net.ipv4.neigh.lo.proxy_delay'
p83
I80
sS'CONFIG_PARPORT_PC'
p84
S'm'
sS'CONFIG_AGP'
p85
S'y'
sS'CONFIG_INPUT_JOYDEV'
p86
S'm'
sS'net.ipv6.conf.default.addr_gen_mode'
p87
I0
sS'net.ipv4.conf.ens3.igmpv2_unsolicited_report_interval'
p88
I10000
sS'CONFIG_INFINIBAND_ADDR_TRANS'
p89
S'y'
sS'CONFIG_CRYPTO_SHA512'
p90
S'y'
sS'CONFIG_WLAN_VENDOR_INTERSIL'
p91
S'y'
sS'CONFIG_CRYPTO_NULL'
p92
S'y'
sS'CONFIG_VIRTIO_BALLOON'
p93
S'y'
sS'CONFIG_INTEGRITY_ASYMMETRIC_KEYS'
p94
S'y'
sS'CONFIG_TWL4030_CORE'
p95
S'y'
sS'CONFIG_FRAME_POINTER_UNWINDER'
p96
S'y'
sS'CONFIG_CRYPTO_HMAC'
p97
S'y'
sS'CONFIG_CRYPTO_AES_NI_INTEL'
p98
S'm'
sS'CONFIG_MOUSE_PS2'
p99
S'm'
sS'CONFIG_EFI_PARTITION'
p100
S'y'
sS'CONFIG_NODES_SPAN_OTHER_NODES'
p101
S'y'
sS'CONFIG_FUNCTION_GRAPH_TRACER'
p102
S'y'
sS'net.ipv6.conf.all.seg6_enabled'
p103
I0
sS'CONFIG_IPV6_MROUTE'
p104
S'y'
sS'kernel.sched_domain.cpu2.domain0.busy_idx'
p105
I2
sS'net.ipv4.conf.default.disable_policy'
p106
I0
sS'CONFIG_FHANDLE'
p107
S'y'
sS'CONFIG_HAVE_FUNCTION_GRAPH_TRACER'
p108
S'y'
sS'CONFIG_FS_IOMAP'
p109
S'y'
sS'CONFIG_CRYPTO_ACOMP2'
p110
S'y'
sS'CONFIG_HAVE_KERNEL_LZMA'
p111
S'y'
sS'CONFIG_ARCH_HAS_DEBUG_VIRTUAL'
p112
S'y'
sS'net.ipv6.neigh.default.unres_qlen_bytes'
p113
I212992
sS'kernel.sem_next_id'
p114
S'-1'
p115
sS'kernel.random.write_wakeup_threshold'
p116
I896
sS'net.ipv6.conf.lo.use_oif_addrs_only'
p117
I0
sS'net.ipv6.conf.ens3.accept_ra_defrtr'
p118
I1
sS'kernel.sched_domain.cpu3.domain0.max_newidle_lb_cost'
p119
I16726
sS'net.ipv6.neigh.lo.proxy_qlen'
p120
I64
sS'net.ipv4.tcp_fastopen'
p121
I1
sS'CONFIG_CRYPTO_CRCT10DIF_PCLMUL'
p122
S'm'
sS'CONFIG_DEFAULT_IOSCHED'
p123
S'"deadline"'
p124
sS'CONFIG_FUSION_LOGGING'
p125
S'y'
sS'CONFIG_NET_PACKET_ENGINE'
p126
S'y'
sS'CONFIG_DQL'
p127
S'y'
sS'net.ipv6.conf.lo.force_tllao'
p128
I0
sS'CONFIG_IP_ADVANCED_ROUTER'
p129
S'y'
sS'CONFIG_SERIAL_SCCNXP_CONSOLE'
p130
S'y'
sS'CONFIG_MINIX_SUBPARTITION'
p131
S'y'
sS'CONFIG_NOP_USB_XCEIV'
p132
S'y'
sS'kernel.print-fatal-signals'
p133
I0
sS'CONFIG_INET'
p134
S'y'
sS'net.ipv4.tcp_probe_interval'
p135
I600
sS'kernel.sched_domain.cpu10.domain0.max_newidle_lb_cost'
p136
I26639
sS'CONFIG_EXTRA_FIRMWARE'
p137
S'""'
p138
sS'CONFIG_I2C_DESIGNWARE_CORE'
p139
S'y'
sS'net.ipv4.conf.lo.arp_accept'
p140
I0
sS'CONFIG_REGMAP_MMIO'
p141
S'y'
sS'CONFIG_SND_HDA_POWER_SAVE_DEFAULT'
p142
I0
sS'kernel.sched_domain.cpu0.domain0.cache_nice_tries'
p143
I1
sS'net.ipv6.conf.lo.forwarding'
p144
I0
sS'CONFIG_NET_VENDOR_SOLARFLARE'
p145
S'y'
sS'CONFIG_FIXED_PHY'
p146
S'y'
sS'net.ipv4.conf.default.shared_media'
p147
I1
sS'CONFIG_NET_VENDOR_TEHUTI'
p148
S'y'
sS'net.ipv6.conf.default.router_solicitations'
p149
S'-1'
p150
sS'CONFIG_MFD_DA9063'
p151
S'y'
sS'CONFIG_CRYPTO'
p152
S'y'
sS'CONFIG_WLAN_VENDOR_ZYDAS'
p153
S'y'
sS'CONFIG_STRICT_KERNEL_RWX'
p154
S'y'
sS'net.ipv6.mld_qrv'
p155
I2
sS'CONFIG_SND_HDA_PATCH_LOADER'
p156
S'y'
sS'net.ipv4.conf.all.disable_policy'
p157
I0
sS'CONFIG_CGROUP_SCHED'
p158
S'y'
sS'CONFIG_COMPAT_FOR_U64_ALIGNMENT'
p159
S'y'
sS'CONFIG_PPP_FILTER'
p160
S'y'
sS'CONFIG_CPU_FREQ'
p161
S'y'
sS'net.core.netdev_tstamp_prequeue'
p162
I1
sS'net.ipv6.conf.all.accept_dad'
p163
I1
sS'CONFIG_DCB'
p164
S'y'
sS'CONFIG_I2C_PIIX4'
p165
S'm'
sS'kernel.panic_on_oops'
p166
I0
sS'CONFIG_MEMORY_HOTPLUG'
p167
S'y'
sS'dev.cdrom.debug'
p168
I0
sS'CONFIG_MOUSE_PS2_SYNAPTICS'
p169
S'y'
sS'CONFIG_SECURITY_SELINUX'
p170
S'y'
sS'net.ipv6.conf.lo.max_addresses'
p171
I16
sS'CONFIG_PCI_PASID'
p172
S'y'
sS'CONFIG_SCSI_LOWLEVEL'
p173
S'y'
sS'CONFIG_GENERIC_MSI_IRQ'
p174
S'y'
sS'kernel.ngroups_max'
p175
I65536
sS'CONFIG_MTRR_SANITIZER'
p176
S'y'
sS'CONFIG_PM_DEVFREQ_EVENT'
p177
S'y'
sS'CONFIG_POWER_RESET_RESTART'
p178
S'y'
sS'kernel.max_lock_depth'
p179
I1024
sS'CONFIG_ZPOOL'
p180
S'y'
sS'CONFIG_PATA_SIS'
p181
S'y'
sS'CONFIG_MFD_TPS65910'
p182
S'y'
sS'CONFIG_ARCH_HAS_UACCESS_FLUSHCACHE'
p183
S'y'
sS'CONFIG_ARCH_WANT_GENERAL_HUGETLB'
p184
S'y'
sS'net.ipv6.conf.default.max_addresses'
p185
I16
sS'CONFIG_ARCH_WANT_OLD_COMPAT_IPC'
p186
S'y'
sS'CONFIG_CGROUP_WRITEBACK'
p187
S'y'
sS'CONFIG_X86_ACPI_CPUFREQ'
p188
S'y'
sS'CONFIG_DUMMY_CONSOLE'
p189
S'y'
sS'CONFIG_RWSEM_SPIN_ON_OWNER'
p190
S'y'
sS'CONFIG_SECURITY_APPARMOR_BOOTPARAM_VALUE'
p191
I1
sS'vm.dirtytime_expire_seconds'
p192
I43200
sS'net.ipv4.tcp_challenge_ack_limit'
p193
I1000
sS'CONFIG_HOTPLUG_PCI_ACPI'
p194
S'y'
sS'CONFIG_KARMA_PARTITION'
p195
S'y'
sS'CONFIG_INFINIBAND_ISER'
p196
S'm'
sS'vm.min_slab_ratio'
p197
I5
sS'CONFIG_CLZ_TAB'
p198
S'y'
sS'CONFIG_MODIFY_LDT_SYSCALL'
p199
S'y'
sS'CONFIG_X86_THERMAL_VECTOR'
p200
S'y'
sS'CONFIG_RCU_CPU_STALL_TIMEOUT'
p201
I60
sS'CONFIG_BACKLIGHT_CLASS_DEVICE'
p202
S'y'
sS'CONFIG_BOOTPARAM_SOFTLOCKUP_PANIC_VALUE'
p203
I0
sS'CONFIG_PM_WAKELOCKS'
p204
S'y'
sS'CONFIG_GPIOLIB_IRQCHIP'
p205
S'y'
sS'kernel.sched_domain.cpu1.domain0.idle_idx'
p206
I1
sS'CONFIG_WLAN'
p207
S'y'
sS'CONFIG_BLK_DEV_INTEGRITY'
p208
S'y'
sS'kernel.sched_domain.cpu11.domain0.busy_idx'
p209
I2
sS'CONFIG_ARCH_HAS_HMM'
p210
S'y'
sS'CONFIG_SQUASHFS_FILE_DIRECT'
p211
S'y'
sS'CONFIG_NETWORK_FILESYSTEMS'
p212
S'y'
sS'CONFIG_SERIAL_8250_RSA'
p213
S'y'
sS'net.ipv4.tcp_min_tso_segs'
p214
I2
sS'CONFIG_SCHED_STACK_END_CHECK'
p215
S'y'
sS'net.ipv4.conf.lo.disable_xfrm'
p216
I1
sS'CONFIG_POWERCAP'
p217
S'y'
sS'CONFIG_UNUSED_SYMBOLS'
p218
S'y'
sS'CONFIG_PM_WAKELOCKS_LIMIT'
p219
I100
sS'CONFIG_INTEGRITY'
p220
S'y'
sS'fs.mqueue.msg_default'
p221
I10
sS'CONFIG_MD_LINEAR'
p222
S'm'
sS'net.ipv4.tcp_max_orphans'
p223
I262144
sS'CONFIG_MFD_MAX77843'
p224
S'y'
sS'CONFIG_CONSOLE_TRANSLATIONS'
p225
S'y'
sS'CONFIG_SLABINFO'
p226
S'y'
sS'kernel.perf_event_max_stack'
p227
I127
sS'CONFIG_PCI'
p228
S'y'
sS'CONFIG_GENERIC_MSI_IRQ_DOMAIN'
p229
S'y'
sS'kernel.sched_domain.cpu4.domain0.name'
p230
S'DIE'
p231
sS'CONFIG_SYSTEM_BLACKLIST_KEYRING'
p232
S'y'
sS'kernel.sched_domain.cpu6.domain0.wake_idx'
p233
I0
sS'CONFIG_IP_ROUTE_MULTIPATH'
p234
S'y'
sS'CONFIG_SCHED_SMT'
p235
S'y'
sS'net.ipv4.tcp_adv_win_scale'
p236
I1
sS'CONFIG_INTEL_IDLE'
p237
S'y'
sS'CONFIG_ASYNC_CORE'
p238
S'm'
sS'net.ipv4.udp_rmem_min'
p239
I4096
sS'CONFIG_FIRMWARE_IN_KERNEL'
p240
S'y'
sS'CONFIG_GPIO_TPS65910'
p241
S'y'
sS'CONFIG_CRC_CCITT'
p242
S'y'
sS'CONFIG_PERSISTENT_KEYRINGS'
p243
S'y'
sS'CONFIG_MOUSE_PS2_LIFEBOOK'
p244
S'y'
sS'CONFIG_ARCH_WANT_COMPAT_IPC_PARSE_VERSION'
p245
S'y'
sS'net.ipv6.conf.all.router_probe_interval'
p246
I60
sS'CONFIG_ACPI_CPPC_LIB'
p247
S'y'
sS'CONFIG_ASYNC_RAID6_RECOV'
p248
S'm'
sS'net.ipv6.conf.default.ignore_routes_with_linkdown'
p249
I0
sS'net.ipv6.conf.lo.accept_ra_from_local'
p250
I0
sS'CONFIG_EXPORTFS'
p251
S'y'
sS'CONFIG_CRYPTO_CRC32_PCLMUL'
p252
S'm'
sS'CONFIG_INPUT'
p253
S'y'
sS'CONFIG_THERMAL_DEFAULT_GOV_STEP_WISE'
p254
S'y'
sS'fs.suid_dumpable'
p255
I2
sS'CONFIG_CPU_FREQ_GOV_PERFORMANCE'
p256
S'y'
sS'CONFIG_SERIAL_8250_DMA'
p257
S'y'
sS'kernel.sched_domain.cpu8.domain0.busy_factor'
p258
I32
sS'CONFIG_SCHED_AUTOGROUP'
p259
S'y'
sS'net.core.optmem_max'
p260
I20480
sS'user.max_inotify_watches'
p261
I8192
sS'vm.nr_overcommit_hugepages'
p262
I0
sS'net.ipv6.conf.default.accept_ra_defrtr'
p263
I1
sS'net.ipv6.conf.default.accept_ra_rt_info_min_plen'
p264
I0
sS'kernel.sched_domain.cpu7.domain0.flags'
p265
I4143
sS'CONFIG_DEBUG_INFO_DWARF4'
p266
S'y'
sS'CONFIG_NET_EMATCH'
p267
S'y'
sS'CONFIG_CPU_SUP_CENTAUR'
p268
S'y'
sS'kernel.sched_domain.cpu3.domain0.cache_nice_tries'
p269
I1
sS'CONFIG_PCI_QUIRKS'
p270
S'y'
sS'CONFIG_SERIAL_NONSTANDARD'
p271
S'y'
sS'user.max_uts_namespaces'
p272
I257513
sS'net.ipv6.route.gc_interval'
p273
I30
sS'CONFIG_VIRT_DRIVERS'
p274
S'y'
sS'net.ipv6.bindv6only'
p275
I0
sS'net.ipv6.conf.ens3.accept_ra_rtr_pref'
p276
I1
sS'CONFIG_SUN_PARTITION'
p277
S'y'
sS'net.ipv4.conf.all.drop_gratuitous_arp'
p278
I0
sS'CONFIG_PINCTRL'
p279
S'y'
sS'CONFIG_THERMAL_GOV_FAIR_SHARE'
p280
S'y'
sS'CONFIG_NET_TULIP'
p281
S'y'
sS'CONFIG_BLK_DEV_SD'
p282
S'y'
sS'net.ipv6.route.gc_min_interval_ms'
p283
I500
sS'CONFIG_IRQ_FORCED_THREADING'
p284
S'y'
sS'CONFIG_MTRR_SANITIZER_SPARE_REG_NR_DEFAULT'
p285
I1
sS'CONFIG_BLK_MQ_PCI'
p286
S'y'
sS'CONFIG_DEBUG_BUGVERBOSE'
p287
S'y'
sS'CONFIG_LSM_MMAP_MIN_ADDR'
p288
I0
sS'CONFIG_FS_MBCACHE'
p289
S'y'
sS'CONFIG_KVM_INTEL'
p290
S'm'
sS'net.ipv6.neigh.ens3.proxy_qlen'
p291
I64
sS'net.ipv6.conf.lo.ndisc_notify'
p292
I0
sS'CONFIG_USB'
p293
S'y'
sS'CONFIG_SND_DYNAMIC_MINORS'
p294
S'y'
sS'CONFIG_MD_RAID1'
p295
S'm'
sS'CONFIG_HAVE_SETUP_PER_CPU_AREA'
p296
S'y'
sS'user.max_net_namespaces'
p297
I257513
sS'CONFIG_LOG_CPU_MAX_BUF_SHIFT'
p298
I12
sS'vm.laptop_mode'
p299
I0
sS'CONFIG_SIGNED_PE_FILE_VERIFICATION'
p300
S'y'
sS'CONFIG_NET_VENDOR_CAVIUM'
p301
S'y'
sS'CONFIG_IMA_NG_TEMPLATE'
p302
S'y'
sS'CONFIG_CRYPTO_GCM'
p303
S'y'
sS'CONFIG_KEXEC'
p304
S'y'
sS'CONFIG_CRYPTO_DEV_PADLOCK'
p305
S'y'
sS'kernel.sched_domain.cpu2.domain0.wake_idx'
p306
I0
sS'net.ipv4.conf.all.secure_redirects'
p307
I1
sS'kernel.sched_domain.cpu5.domain0.cache_nice_tries'
p308
I1
sS'CONFIG_HAVE_REGS_AND_STACK_ACCESS_API'
p309
S'y'
sS'CONFIG_FRAME_POINTER'
p310
S'y'
sS'CONFIG_DEVFREQ_GOV_SIMPLE_ONDEMAND'
p311
S'y'
sS'net.ipv4.conf.lo.igmpv2_unsolicited_report_interval'
p312
I10000
sS'kernel.sched_domain.cpu4.domain0.idle_idx'
p313
I1
sS'CONFIG_VFAT_FS'
p314
S'y'
sS'net.ipv6.conf.ens3.accept_ra_mtu'
p315
I1
sS'CONFIG_INPUT_MISC'
p316
S'y'
sS'CONFIG_PARPORT_1284'
p317
S'y'
sS'net.ipv4.conf.all.force_igmp_version'
p318
I0
sS'CONFIG_UTS_NS'
p319
S'y'
sS'CONFIG_BRIDGE_IGMP_SNOOPING'
p320
S'y'
sS'CONFIG_MFD_MAX14577'
p321
S'y'
sS'net.ipv6.neigh.lo.mcast_resolicit'
p322
I0
sS'CONFIG_PREEMPT_NOTIFIERS'
p323
S'y'
sS'CONFIG_IO_DELAY_0XED'
p324
S'y'
sS'CONFIG_AGP_AMD64'
p325
S'y'
sS'CONFIG_WATCHDOG'
p326
S'y'
sS'CONFIG_MTRR'
p327
S'y'
sS'kernel.overflowgid'
p328
I65534
sS'CONFIG_CRYPTO_RNG_DEFAULT'
p329
S'y'
sS'kernel.sched_domain.cpu7.domain0.busy_idx'
p330
I2
sS'CONFIG_X86_MCE'
p331
S'y'
sS'CONFIG_KALLSYMS_BASE_RELATIVE'
p332
S'y'
sS'CONFIG_ISA_DMA_API'
p333
S'y'
sS'CONFIG_ASYMMETRIC_PUBLIC_KEY_SUBTYPE'
p334
S'y'
sS'CONFIG_ELF_CORE'
p335
S'y'
sS'net.ipv6.neigh.lo.proxy_delay'
p336
I80
sS'net.ipv6.conf.lo.router_solicitations'
p337
S'-1'
p338
sS'kernel.ftrace_dump_on_oops'
p339
I0
sS'net.ipv4.conf.default.arp_filter'
p340
I0
sS'kernel.sched_autogroup_enabled'
p341
I1
sS'CONFIG_ARCH_HAS_PMEM_API'
p342
S'y'
sS'CONFIG_X86_MPPARSE'
p343
S'y'
sS'net.ipv6.neigh.lo.anycast_delay'
p344
I100
sS'CONFIG_USB_DYNAMIC_MINORS'
p345
S'y'
sS'CONFIG_ARCH_HAS_FORTIFY_SOURCE'
p346
S'y'
sS'CONFIG_SUSPEND_FREEZER'
p347
S'y'
sS'net.ipv4.icmp_ratemask'
p348
I6168
sS'CONFIG_SERIAL_8250_EXAR'
p349
S'y'
sS'kernel.hung_task_warnings'
p350
I10
sS'CONFIG_SYSTEM_BLACKLIST_HASH_LIST'
p351
S'""'
p352
sS'CONFIG_ARCH_MMAP_RND_BITS_MIN'
p353
I28
sS'CONFIG_EXPERT'
p354
S'y'
sS'net.ipv4.tcp_abort_on_overflow'
p355
I0
sS'CONFIG_WLAN_VENDOR_ATMEL'
p356
S'y'
sS'CONFIG_HAVE_MIXED_BREAKPOINTS_REGS'
p357
S'y'
sS'CONFIG_ARCH_ENABLE_THP_MIGRATION'
p358
S'y'
sS'CONFIG_SWIOTLB'
p359
S'y'
sS'kernel.sched_domain.cpu9.domain0.busy_factor'
p360
I32
sS'net.ipv4.conf.lo.bootp_relay'
p361
I0
sS'CONFIG_SERIAL_8250_MANY_PORTS'
p362
S'y'
sS'CONFIG_SCSI_PROC_FS'
p363
S'y'
sS'CONFIG_RD_BZIP2'
p364
S'y'
sS'net.ipv6.conf.ens3.accept_ra_rt_info_min_plen'
p365
I0
sS'CONFIG_FDDI'
p366
S'y'
sS'CONFIG_XZ_DEC_SPARC'
p367
S'y'
sS'CONFIG_MMC'
p368
S'y'
sS'CONFIG_ACPI_SYSTEM_POWER_STATES_SUPPORT'
p369
S'y'
sS'CONFIG_MICROCODE_AMD'
p370
S'y'
sS'vm.nr_hugepages_mempolicy'
p371
I0
sS'net.ipv4.conf.all.ignore_routes_with_linkdown'
p372
I0
sS'CONFIG_HPET_EMULATE_RTC'
p373
S'y'
sS'CONFIG_XOR_BLOCKS'
p374
S'm'
sS'kernel.sched_domain.cpu1.domain0.name'
p375
S'DIE'
p376
sS'CONFIG_REGULATOR'
p377
S'y'
sS'CONFIG_MAILBOX'
p378
S'y'
sS'CONFIG_CRYPTO_HW'
p379
S'y'
sS'CONFIG_DECOMPRESS_GZIP'
p380
S'y'
sS'CONFIG_OID_REGISTRY'
p381
S'y'
sS'net.ipv6.conf.lo.regen_max_retry'
p382
I3
sS'net.ipv6.conf.default.proxy_ndp'
p383
I0
sS'CONFIG_MEMTEST'
p384
S'y'
sS'net.ipv4.ip_unprivileged_port_start'
p385
I1024
sS'net.ipv6.neigh.lo.app_solicit'
p386
I0
sS'CONFIG_PCI_BUS_ADDR_T_64BIT'
p387
S'y'
sS'CONFIG_VGA_SWITCHEROO'
p388
S'y'
sS'CONFIG_XZ_DEC_IA64'
p389
S'y'
sS'CONFIG_WLAN_VENDOR_MARVELL'
p390
S'y'
sS'CONFIG_ARCH_USE_QUEUED_SPINLOCKS'
p391
S'y'
sS'CONFIG_IPV6_SUBTREES'
p392
S'y'
sS'CONFIG_NET_EMATCH_STACK'
p393
I32
sS'net.ipv4.tcp_rmem'
p394
S'4096\t87380\t6291456'
p395
sS'CONFIG_CRYPTO_GF128MUL'
p396
S'y'
sS'net.ipv6.conf.lo.enhanced_dad'
p397
I1
sS'CONFIG_GPIOLIB'
p398
S'y'
sS'CONFIG_NET_VENDOR_SIS'
p399
S'y'
sS'vm.panic_on_oom'
p400
I0
sS'CONFIG_USER_STACKTRACE_SUPPORT'
p401
S'y'
sS'net.ipv4.neigh.ens3.app_solicit'
p402
I0
sS'CONFIG_HAVE_KVM_IRQ_BYPASS'
p403
S'y'
sS'CONFIG_ARCH_DISCARD_MEMBLOCK'
p404
S'y'
sS'net.ipv6.conf.default.suppress_frag_ndisc'
p405
I1
sS'fs.inotify.max_user_instances'
p406
I1024
sS'CONFIG_SYSCTL'
p407
S'y'
sS'net.ipv4.icmp_ignore_bogus_error_responses'
p408
I1
sS'CONFIG_HAVE_FENTRY'
p409
S'y'
sS'CONFIG_KRETPROBES'
p410
S'y'
sS'fs.quota.syncs'
p411
I0
sS'CONFIG_SECURITY_SMACK_NETFILTER'
p412
S'y'
sS'net.ipv6.neigh.ens3.delay_first_probe_time'
p413
I5
sS'kernel.stack_tracer_enabled'
p414
I0
sS'net.ipv4.conf.lo.arp_notify'
p415
I0
sS'kernel.sched_domain.cpu0.domain0.flags'
p416
I4143
sS'CONFIG_CRYPTO_DRBG_HMAC'
p417
S'y'
sS'CONFIG_MAC_PARTITION'
p418
S'y'
sS'CONFIG_MISC_FILESYSTEMS'
p419
S'y'
sS'abi.vsyscall32'
p420
I1
sS'net.ipv4.route.error_cost'
p421
I250
sS'CONFIG_CRYPTO_SKEIN'
p422
S'y'
sS'net.ipv6.conf.all.suppress_frag_ndisc'
p423
I1
sS'CONFIG_GENERIC_PCI_IOMAP'
p424
S'y'
sS'CONFIG_SND_HDA_INPUT_BEEP_MODE'
p425
I0
sS'CONFIG_DEBUG_KERNEL'
p426
S'y'
sS'CONFIG_CHELSIO_T4'
p427
S'm'
sS'kernel.version'
p428
S'#3 SMP Tue Mar 13 14:28:42 EDT 2018'
p429
sS'CONFIG_MODULE_SIG_SHA512'
p430
S'y'
sS'CONFIG_CHELSIO_T3'
p431
S'm'
sS'CONFIG_SECTION_MISMATCH_WARN_ONLY'
p432
S'y'
sS'user.max_mnt_namespaces'
p433
I257513
sS'net.core.wmem_max'
p434
I212992
sS'vm.swappiness'
p435
I60
sS'vm.zone_reclaim_mode'
p436
I0
sS'net.ipv4.tcp_l3mdev_accept'
p437
I0
sS'CONFIG_SBITMAP'
p438
S'y'
sS'vm.vfs_cache_pressure'
p439
I100
sS'net.ipv4.ipfrag_low_thresh'
p440
I3145728
sS'net.ipv4.route.mtu_expires'
p441
I600
sS'CONFIG_KPROBE_EVENTS'
p442
S'y'
sS'net.ipv6.conf.default.drop_unicast_in_l2_multicast'
p443
I0
sS'CONFIG_USB_EHCI_TT_NEWSCHED'
p444
S'y'
sS'CONFIG_X86_16BIT'
p445
S'y'
sS'net.ipv6.conf.ens3.force_mld_version'
p446
I0
sS'net.iw_cm.default_backlog'
p447
I256
sS'CONFIG_CRYPTO_CTR'
p448
S'y'
sS'CONFIG_CRC32_SLICEBY8'
p449
S'y'
sS'net.ipv4.tcp_reordering'
p450
I3
sS'CONFIG_NET'
p451
S'y'
sS'CONFIG_BLK_MQ_RDMA'
p452
S'y'
sS'CONFIG_HAS_DMA'
p453
S'y'
sS'kernel.random.uuid'
p454
S'33fa22a8-56df-4ad9-a871-04c26ecdf1c9'
p455
sS'CONFIG_SOUND_OSS_CORE'
p456
S'y'
sS'net.ipv4.conf.lo.secure_redirects'
p457
I1
sS'kernel.sched_domain.cpu10.domain0.forkexec_idx'
p458
I0
sS'fs.overflowgid'
p459
I65534
sS'net.ipv4.tcp_dsack'
p460
I1
sS'CONFIG_CPU_SUP_INTEL'
p461
S'y'
sS'CONFIG_TRANSPARENT_HUGEPAGE'
p462
S'y'
sS'CONFIG_SCSI_ISCSI_ATTRS'
p463
S'm'
sS'CONFIG_MQ_IOSCHED_DEADLINE'
p464
S'y'
sS'CONFIG_HAVE_IRQ_EXIT_ON_IRQ_STACK'
p465
S'y'
sS'CONFIG_EFI'
p466
S'y'
sS'CONFIG_VT_CONSOLE'
p467
S'y'
sS'kernel.acpi_video_flags'
p468
I0
sS'net.ipv6.conf.lo.router_solicitation_max_interval'
p469
I3600
sS'CONFIG_VGA_ARB_MAX_GPUS'
p470
I16
sS'CONFIG_BUILDTIME_EXTABLE_SORT'
p471
S'y'
sS'CONFIG_KEXEC_JUMP'
p472
S'y'
sS'net.ipv4.tcp_autocorking'
p473
I1
sS'kernel.sched_domain.cpu7.domain0.imbalance_pct'
p474
I125
sS'CONFIG_MFD_SEC_CORE'
p475
S'y'
sS'kernel.sched_domain.cpu10.domain0.wake_idx'
p476
I0
sS'dev.cdrom.lock'
p477
I1
sS'CONFIG_HAVE_HW_BREAKPOINT'
p478
S'y'
sS'CONFIG_MACINTOSH_DRIVERS'
p479
S'y'
sS'CONFIG_ISDN'
p480
S'y'
sS'CONFIG_MFD_CORE'
p481
S'y'
sS'CONFIG_ACPI_FAN'
p482
S'y'
sS'kernel.sched_domain.cpu11.domain0.max_newidle_lb_cost'
p483
I51009
sS'net.ipv4.conf.lo.src_valid_mark'
p484
I0
sS'CONFIG_AIX_PARTITION'
p485
S'y'
sS'kernel.sched_domain.cpu1.domain0.cache_nice_tries'
p486
I1
sS'CONFIG_MD_RAID456'
p487
S'm'
sS'net.ipv4.conf.ens3.arp_ignore'
p488
I0
sS'CONFIG_TICK_CPU_ACCOUNTING'
p489
S'y'
sS'CONFIG_MFD_TPS65090'
p490
S'y'
sS'CONFIG_SFI'
p491
S'y'
sS'fs.inode-nr'
p492
S'105129\t517'
p493
sS'CONFIG_NET_SCH_FIFO'
p494
S'y'
sS'net.core.netdev_rss_key'
p495
S'00:00:00:00:00:00:00:00:00:00:00:00:00:00:00:00:00:00:00:00:00:00:00:00:00:00:00:00:00:00:00:00:00:00:00:00:00:00:00:00:00:00:00:00:00:00:00:00:00:00:00:00'
p496
sS'net.ipv4.conf.default.igmpv2_unsolicited_report_interval'
p497
I10000
sS'CONFIG_SYSFS_SYSCALL'
p498
S'y'
sS'CONFIG_RWSEM_XCHGADD_ALGORITHM'
p499
S'y'
sS'CONFIG_SYN_COOKIES'
p500
S'y'
sS'CONFIG_GENERIC_CMOS_UPDATE'
p501
S'y'
sS'net.ipv4.tcp_max_tw_buckets'
p502
I262144
sS'CONFIG_SERIAL_8250_EXTENDED'
p503
S'y'
sS'kernel.sched_domain.cpu0.domain0.max_newidle_lb_cost'
p504
I21707
sS'CONFIG_NET_VENDOR_ADAPTEC'
p505
S'y'
sS'CONFIG_EPOLL'
p506
S'y'
sS'CONFIG_LEGACY_VSYSCALL_EMULATE'
p507
S'y'
sS'kernel.sched_domain.cpu2.domain0.imbalance_pct'
p508
I125
sS'kernel.panic'
p509
I0
sS'CONFIG_FAT_DEFAULT_CODEPAGE'
p510
I437
sS'CONFIG_X86_SUPPORTS_MEMORY_FAILURE'
p511
S'y'
sS'CONFIG_CALGARY_IOMMU_ENABLED_BY_DEFAULT'
p512
S'y'
sS'CONFIG_BLK_DEV_SR'
p513
S'y'
sS'CONFIG_SECURITY_SELINUX_DISABLE'
p514
S'y'
sS'kernel.sched_domain.cpu9.domain0.idle_idx'
p515
I1
sS'CONFIG_NET_VENDOR_REALTEK'
p516
S'y'
sS'CONFIG_FAT_DEFAULT_IOCHARSET'
p517
S'"iso8859-1"'
p518
sS'net.ipv6.route.min_adv_mss'
p519
I1220
sS'CONFIG_IP_ROUTE_VERBOSE'
p520
S'y'
sS'CONFIG_MOUSE_PS2_LOGIPS2PP'
p521
S'y'
sS'net.ipv4.conf.ens3.arp_filter'
p522
I0
sS'CONFIG_USB_OHCI_HCD'
p523
S'y'
sS'CONFIG_VIRTIO_CONSOLE'
p524
S'y'
sS'net.ipv6.ip6frag_low_thresh'
p525
I3145728
sS'CONFIG_BSD_DISKLABEL'
p526
S'y'
sS'net.core.flow_limit_cpu_bitmap'
p527
S'000000,00000000,00000000,00000000,00000000,00000000,00000000,00000000'
p528
sS'CONFIG_SECURITY_WRITABLE_HOOKS'
p529
S'y'
sS'CONFIG_NVM'
p530
S'y'
sS'net.ipv6.conf.ens3.accept_dad'
p531
I1
sS'CONFIG_HAVE_HARDENED_USERCOPY_ALLOCATOR'
p532
S'y'
sS'fs.quota.allocated_dquots'
p533
I0
sS'CONFIG_X509_CERTIFICATE_PARSER'
p534
S'y'
sS'CONFIG_CGROUP_HUGETLB'
p535
S'y'
sS'net.ipv4.ip_forward_use_pmtu'
p536
I0
sS'net.ipv4.conf.lo.send_redirects'
p537
I1
sS'net.ipv6.conf.all.proxy_ndp'
p538
I0
sS'CONFIG_OPTPROBES'
p539
S'y'
sS'net.ipv4.tcp_pacing_ss_ratio'
p540
I200
sS'kernel.keys.persistent_keyring_expiry'
p541
I259200
sS'CONFIG_MD'
p542
S'y'
sS'kernel.sched_domain.cpu7.domain0.forkexec_idx'
p543
I0
sS'CONFIG_DETECT_HUNG_TASK'
p544
S'y'
sS'CONFIG_DMI'
p545
S'y'
sS'CONFIG_INTEL_IOMMU_SVM'
p546
S'y'
sS'CONFIG_FB_CMDLINE'
p547
S'y'
sS'CONFIG_BQL'
p548
S'y'
sS'net.ipv4.tcp_ecn'
p549
I2
sS'CONFIG_RANDOMIZE_BASE'
p550
S'y'
sS'net.ipv6.neigh.default.gc_interval'
p551
I30
sS'kernel.sched_domain.cpu0.domain0.busy_idx'
p552
I2
sS'CONFIG_DUMMY_CONSOLE_ROWS'
p553
I25
sS'CONFIG_HT_IRQ'
p554
S'y'
sS'CONFIG_NET_VENDOR_ATHEROS'
p555
S'y'
sS'net.ipv6.neigh.ens3.unres_qlen_bytes'
p556
I212992
sS'kernel.panic_on_io_nmi'
p557
I0
sS'CONFIG_SERIAL_8250_CONSOLE'
p558
S'y'
sS'CONFIG_HAVE_ARCH_MMAP_RND_COMPAT_BITS'
p559
S'y'
sS'CONFIG_NVDIMM_PFN'
p560
S'y'
sS'net.ipv4.neigh.default.anycast_delay'
p561
I100
sS'kernel.sched_domain.cpu11.domain0.newidle_idx'
p562
I0
sS'kernel.sched_domain.cpu7.domain0.newidle_idx'
p563
I0
sS'CONFIG_SERIAL_CORE'
p564
S'y'
sS'CONFIG_BRIDGE_EBT_T_FILTER'
p565
S'm'
sS'net.ipv6.idgen_delay'
p566
I1
sS'CONFIG_TRACING_EVENTS_GPIO'
p567
S'y'
sS'CONFIG_MMU'
p568
S'y'
sS'net.ipv4.conf.ens3.disable_xfrm'
p569
I0
sS'CONFIG_MFD_DA9052_SPI'
p570
S'y'
sS'kernel.msgmax'
p571
I8192
sS'CONFIG_NET_INGRESS'
p572
S'y'
sS'CONFIG_HAVE_ARCH_KASAN'
p573
S'y'
sS'net.ipv6.conf.ens3.disable_ipv6'
p574
I0
sS'CONFIG_USE_PERCPU_NUMA_NODE_ID'
p575
S'y'
sS'CONFIG_ARCH_ENABLE_HUGEPAGE_MIGRATION'
p576
S'y'
sS'CONFIG_WIRELESS'
p577
S'y'
sS'CONFIG_CHARGER_MANAGER'
p578
S'y'
sS'CONFIG_ARCH_HAS_UBSAN_SANITIZE_ALL'
p579
S'y'
sS'net.ipv4.conf.ens3.medium_id'
p580
I0
sS'CONFIG_SYSVIPC'
p581
S'y'
sS'net.ipv6.neigh.ens3.ucast_solicit'
p582
I3
sS'CONFIG_PARPORT_PC_FIFO'
p583
S'y'
sS'CONFIG_RD_XZ'
p584
S'y'
sS'CONFIG_CONNECTOR'
p585
S'y'
sS'net.ipv4.conf.default.arp_accept'
p586
I0
sS'net.ipv4.udp_early_demux'
p587
I1
sS'CONFIG_MFD_88PM860X'
p588
S'y'
sS'kernel.numa_balancing_scan_period_max_ms'
p589
I60000
sS'CONFIG_MODVERSIONS'
p590
S'y'
sS'kernel.sched_migration_cost_ns'
p591
I500000
sS'CONFIG_HAVE_INTEL_TXT'
p592
S'y'
sS'net.ipv6.conf.lo.drop_unsolicited_na'
p593
I0
sS'CONFIG_OLD_SIGSUSPEND3'
p594
S'y'
sS'net.ipv6.neigh.default.gc_thresh1'
p595
I128
sS'dev.mac_hid.mouse_button2_keycode'
p596
I97
sS'CONFIG_DUMMY_CONSOLE_COLUMNS'
p597
I80
sS'CONFIG_ARCH_HAS_FAST_MULTIPLIER'
p598
S'y'
sS'net.ipv4.route.error_burst'
p599
I1250
sS'CONFIG_NET_VENDOR_ARC'
p600
S'y'
sS'net.ipv6.conf.all.keep_addr_on_down'
p601
I0
sS'CONFIG_BLK_CMDLINE_PARSER'
p602
S'y'
sS'CONFIG_EDAC_ATOMIC_SCRUB'
p603
S'y'
sS'CONFIG_TRUSTED_KEYS'
p604
S'y'
sS'CONFIG_PWM_SYSFS'
p605
S'y'
sS'CONFIG_AUDITSYSCALL'
p606
S'y'
sS'net.ipv6.conf.lo.proxy_ndp'
p607
I0
sS'CONFIG_HAVE_KVM_EVENTFD'
p608
S'y'
sS'CONFIG_HAVE_ARCH_KMEMCHECK'
p609
S'y'
sS'CONFIG_PM_DEVFREQ'
p610
S'y'
sS'CONFIG_UID16'
p611
S'y'
sS'CONFIG_ACPI_SLEEP'
p612
S'y'
sS'CONFIG_KSM'
p613
S'y'
sS'CONFIG_SND_SUPPORT_OLD_API'
p614
S'y'
sS'net.ipv4.conf.lo.accept_redirects'
p615
I1
sS'net.ipv6.conf.all.max_addresses'
p616
I16
sS'CONFIG_SCHED_MC_PRIO'
p617
S'y'
sS'net.ipv6.conf.all.accept_ra_from_local'
p618
I0
sS'CONFIG_RTC_HCTOSYS'
p619
S'y'
sS'kernel.softlockup_panic'
p620
I0
sS'CONFIG_RTC_I2C_AND_SPI'
p621
S'y'
sS'CONFIG_USB_EHCI_HCD'
p622
S'y'
sS'CONFIG_CHROME_PLATFORMS'
p623
S'y'
sS'CONFIG_HAVE_ARCH_KGDB'
p624
S'y'
sS'CONFIG_IO_DELAY_TYPE_0XED'
p625
I1
sS'net.ipv6.conf.ens3.drop_unicast_in_l2_multicast'
p626
I0
sS'net.ipv6.conf.default.force_mld_version'
p627
I0
sS'net.ipv4.ip_no_pmtu_disc'
p628
I0
sS'CONFIG_WLAN_VENDOR_MEDIATEK'
p629
S'y'
sS'vm.dirty_writeback_centisecs'
p630
I500
sS'net.ipv4.conf.all.send_redirects'
p631
I1
sS'CONFIG_SCSI_CXGB3_ISCSI'
p632
S'm'
sS'net.ipv6.conf.lo.accept_ra'
p633
I1
sS'kernel.sched_domain.cpu2.domain0.max_newidle_lb_cost'
p634
I14217
sS'CONFIG_ARCH_SUPPORTS_OPTIMIZED_INLINING'
p635
S'y'
sS'net.ipv4.conf.default.proxy_arp_pvlan'
p636
I0
sS'CONFIG_PM_STD_PARTITION'
p637
S'""'
p638
sS'net.ipv4.conf.ens3.secure_redirects'
p639
I1
sS'CONFIG_ULTRIX_PARTITION'
p640
S'y'
sS'CONFIG_HAVE_NMI'
p641
S'y'
sS'net.ipv6.conf.ens3.seg6_enabled'
p642
I0
sS'fs.mqueue.msgsize_max'
p643
I8192
sS'CONFIG_HAS_IOMEM'
p644
S'y'
sS'CONFIG_HAVE_KERNEL_XZ'
p645
S'y'
sS'net.ipv4.conf.all.forwarding'
p646
I0
sS'CONFIG_USB_DEFAULT_PERSIST'
p647
S'y'
sS'CONFIG_NEW_LEDS'
p648
S'y'
sS'CONFIG_DMI_SCAN_MACHINE_NON_EFI_FALLBACK'
p649
S'y'
sS'kernel.sched_latency_ns'
p650
I24000000
sS'net.ipv4.conf.all.bootp_relay'
p651
I0
sS'net.ipv6.neigh.default.base_reachable_time_ms'
p652
I30000
sS'kernel.perf_event_mlock_kb'
p653
I516
sS'vm.block_dump'
p654
I0
sS'net.ipv4.tcp_keepalive_intvl'
p655
I75
sS'net.ipv4.conf.all.igmpv3_unsolicited_report_interval'
p656
I1000
sS'net.ipv4.conf.default.send_redirects'
p657
I1
sS'net.ipv6.conf.default.disable_ipv6'
p658
I0
sS'CONFIG_MD_RAID0'
p659
S'm'
sS'CONFIG_DW_DMAC_PCI'
p660
S'y'
sS'kernel.sched_domain.cpu0.domain0.imbalance_pct'
p661
I125
sS'net.ipv6.conf.lo.hop_limit'
p662
I64
sS'net.ipv4.conf.all.arp_accept'
p663
I0
sS'CONFIG_BINARY_PRINTF'
p664
S'y'
sS'CONFIG_TRACER_MAX_TRACE'
p665
S'y'
sS'kernel.msgmnb'
p666
I16384
sS'CONFIG_IRQ_BYPASS_MANAGER'
p667
S'm'
sS'CONFIG_IP_PIMSM_V1'
p668
S'y'
sS'CONFIG_IP_PIMSM_V2'
p669
S'y'
sS'kernel.soft_watchdog'
p670
I1
sS'CONFIG_USB_LED_TRIG'
p671
S'y'
sS'kernel.sched_time_avg_ms'
p672
I1000
sS'kernel.sched_domain.cpu8.domain0.cache_nice_tries'
p673
I1
sS'CONFIG_X86_INTEL_MPX'
p674
S'y'
sS'CONFIG_X86_ACPI_CPUFREQ_CPB'
p675
S'y'
sS'net.ipv6.conf.default.mc_forwarding'
p676
I0
sS'kernel.threads-max'
p677
I515027
sS'kernel.overflowuid'
p678
I65534
sS'net.ipv4.conf.default.arp_announce'
p679
I0
sS'CONFIG_ACPI_DOCK'
p680
S'y'
sS'CONFIG_X86_INTEL_MEMORY_PROTECTION_KEYS'
p681
S'y'
sS'net.ipv4.neigh.ens3.base_reachable_time_ms'
p682
I30000
sS'CONFIG_SCHED_MC'
p683
S'y'
sS'CONFIG_ARCH_HAS_MEM_ENCRYPT'
p684
S'y'
sS'CONFIG_BOUNCE'
p685
S'y'
sS'CONFIG_VIRT_TO_BUS'
p686
S'y'
sS'kernel.keys.gc_delay'
p687
I300
sS'CONFIG_HAVE_ARCH_TRANSPARENT_HUGEPAGE_PUD'
p688
S'y'
sS'kernel.hung_task_timeout_secs'
p689
I120
sS'CONFIG_X86_MINIMUM_CPU_FAMILY'
p690
I64
sS'CONFIG_CRYPTO_KPP2'
p691
S'y'
sS'CONFIG_SQUASHFS_ZLIB'
p692
S'y'
sS'CONFIG_X86_PLATFORM_DEVICES'
p693
S'y'
sS'CONFIG_CONTEXT_SWITCH_TRACER'
p694
S'y'
sS'net.ipv4.conf.default.accept_source_route'
p695
I1
sS'kernel.core_pipe_limit'
p696
I0
sS'kernel.timer_migration'
p697
I1
sS'CONFIG_PERF_EVENTS_INTEL_RAPL'
p698
S'y'
sS'CONFIG_HAVE_PERF_USER_STACK_DUMP'
p699
S'y'
sS'CONFIG_SERIAL_SCCNXP'
p700
S'y'
sS'CONFIG_EFI_RUNTIME_MAP'
p701
S'y'
sS'net.ipv6.neigh.lo.base_reachable_time_ms'
p702
I30000
sS'CONFIG_SCHED_HRTICK'
p703
S'y'
sS'kernel.sched_domain.cpu6.domain0.idle_idx'
p704
I1
sS'CONFIG_BPF_SYSCALL'
p705
S'y'
sS'net.ipv6.conf.default.accept_ra_pinfo'
p706
I1
sS'CONFIG_KVM_COMPAT'
p707
S'y'
sS'CONFIG_VIRTIO_PCI_LEGACY'
p708
S'y'
sS'CONFIG_SATA_ZPODD'
p709
S'y'
sS'CONFIG_WLAN_VENDOR_QUANTENNA'
p710
S'y'
sS'CONFIG_CRYPTO_DEV_CCP'
p711
S'y'
sS'CONFIG_HAVE_EFFICIENT_UNALIGNED_ACCESS'
p712
S'y'
sS'CONFIG_USB_ANNOUNCE_NEW_DEVICES'
p713
S'y'
sS'CONFIG_AUTOFS4_FS'
p714
S'm'
sS'CONFIG_STAGING'
p715
S'y'
sS'net.ipv6.conf.default.router_probe_interval'
p716
I60
sS'CONFIG_IPV6_MROUTE_MULTIPLE_TABLES'
p717
S'y'
sS'CONFIG_NET_VENDOR_STMICRO'
p718
S'y'
sS'CONFIG_NUMA_BALANCING_DEFAULT_ENABLED'
p719
S'y'
sS'CONFIG_RD_LZ4'
p720
S'y'
sS'net.ipv6.conf.all.accept_ra_rt_info_max_plen'
p721
I0
sS'CONFIG_X86_DEV_DMA_OPS'
p722
S'y'
sS'CONFIG_PCI_ATS'
p723
S'y'
sS'CONFIG_RD_LZO'
p724
S'y'
sS'net.ipv4.tcp_ecn_fallback'
p725
I1
sS'CONFIG_BLK_DEV'
p726
S'y'
sS'CONFIG_HARDLOCKUP_CHECK_TIMESTAMP'
p727
S'y'
sS'CONFIG_SQUASHFS_XZ'
p728
S'y'
sS'kernel.sched_domain.cpu10.domain0.busy_factor'
p729
I32
sS'CONFIG_MDIO_DEVICE'
p730
S'y'
sS'CONFIG_GPIO_RC5T583'
p731
S'y'
sS'net.ipv4.tcp_moderate_rcvbuf'
p732
I1
sS'CONFIG_ACPI_CONTAINER'
p733
S'y'
sS'CONFIG_ATA_BMDMA'
p734
S'y'
sS'net.ipv4.tcp_min_rtt_wlen'
p735
I300
sS'net.ipv6.fwmark_reflect'
p736
I0
sS'CONFIG_MOUSE_PS2_VMMOUSE'
p737
S'y'
sS'CONFIG_RTC_CLASS'
p738
S'y'
sS'CONFIG_SECURITY_APPARMOR'
p739
S'y'
sS'CONFIG_WATCHDOG_CORE'
p740
S'y'
sS'CONFIG_SERIAL_KGDB_NMI'
p741
S'y'
sS'CONFIG_INSTRUCTION_DECODER'
p742
S'y'
sS'net.ipv6.neigh.ens3.proxy_delay'
p743
I80
sS'CONFIG_SOC_TI'
p744
S'y'
sS'CONFIG_MFD_TPS80031'
p745
S'y'
sS'net.ipv6.conf.lo.router_probe_interval'
p746
I60
sS'CONFIG_MEMCG'
p747
S'y'
sS'net.ipv6.conf.default.accept_redirects'
p748
I1
sS'CONFIG_SCSI_SCAN_ASYNC'
p749
S'y'
sS'net.ipv4.neigh.lo.ucast_solicit'
p750
I3
sS'CONFIG_IOSCHED_CFQ'
p751
S'y'
sS'CONFIG_MEMBARRIER'
p752
S'y'
sS'net.ipv6.conf.all.mldv1_unsolicited_report_interval'
p753
I10000
sS'kernel.sched_domain.cpu2.domain0.idle_idx'
p754
I1
sS'CONFIG_BLK_DEV_DM'
p755
S'y'
sS'CONFIG_DEFAULT_HUNG_TASK_TIMEOUT'
p756
I120
sS'net.ipv6.conf.default.regen_max_retry'
p757
I3
sS'CONFIG_SND_PCI'
p758
S'y'
sS'CONFIG_GENERIC_CPU'
p759
S'y'
sS'net.ipv4.conf.default.accept_local'
p760
I0
sS'net.ipv6.conf.default.forwarding'
p761
I0
sS'net.core.dev_weight_rx_bias'
p762
I1
sS'CONFIG_CPU_SUP_AMD'
p763
S'y'
sS'CONFIG_GENERIC_FIND_FIRST_BIT'
p764
S'y'
sS'CONFIG_HAVE_USER_RETURN_NOTIFIER'
p765
S'y'
sS'kernel.core_pattern'
p766
S'|/usr/share/apport/apport %p %s %c %d %P'
p767
sS'kernel.perf_event_max_sample_rate'
p768
I100000
sS'CONFIG_SCSI'
p769
S'y'
sS'CONFIG_KPROBES'
p770
S'y'
sS'CONFIG_HAVE_GCC_PLUGINS'
p771
S'y'
sS'CONFIG_GENERIC_EARLY_IOREMAP'
p772
S'y'
sS'kernel.random.poolsize'
p773
I4096
sS'CONFIG_GLOB'
p774
S'y'
sS'CONFIG_ZBUD'
p775
S'y'
sS'CONFIG_ARCH_MMAP_RND_BITS_MAX'
p776
I32
sS'net.ipv6.conf.lo.force_mld_version'
p777
I0
sS'CONFIG_NUMA_BALANCING'
p778
S'y'
sS'net.ipv4.conf.ens3.accept_redirects'
p779
I1
sS'kernel.sched_domain.cpu1.domain0.busy_factor'
p780
I32
sS'CONFIG_EDD_OFF'
p781
S'y'
sS'CONFIG_THERMAL'
p782
S'y'
sS'CONFIG_BPF'
p783
S'y'
sS'CONFIG_HUGETLBFS'
p784
S'y'
sS'net.ipv4.tcp_frto'
p785
I2
sS'CONFIG_ETHERNET'
p786
S'y'
sS'net.ipv4.tcp_probe_threshold'
p787
I8
sS'CONFIG_CPU_IDLE'
p788
S'y'
sS'net.ipv4.conf.default.forwarding'
p789
I0
sS'CONFIG_DECOMPRESS_BZIP2'
p790
S'y'
sS'net.ipv6.conf.default.accept_ra_rtr_pref'
p791
I1
sS'net.ipv4.neigh.lo.delay_first_probe_time'
p792
I5
sS'net.ipv6.conf.ens3.force_tllao'
p793
I0
sS'CONFIG_AB3100_CORE'
p794
S'y'
sS'CONFIG_PM'
p795
S'y'
sS'CONFIG_FAIR_GROUP_SCHED'
p796
S'y'
sS'CONFIG_HAVE_ARCH_HUGE_VMAP'
p797
S'y'
sS'net.ipv4.ip_forward'
p798
I0
sS'CONFIG_COMPAT_32'
p799
S'y'
sS'kernel.sched_domain.cpu7.domain0.busy_factor'
p800
I32
sS'kernel.sched_domain.cpu0.domain0.name'
p801
S'DIE'
p802
sS'kernel.sched_domain.cpu3.domain0.busy_idx'
p803
I2
sS'kernel.sched_domain.cpu4.domain0.busy_idx'
p804
I2
sS'CONFIG_SUSPEND'
p805
S'y'
sS'CONFIG_NETFILTER_ADVANCED'
p806
S'y'
sS'CONFIG_RANDOMIZE_MEMORY'
p807
S'y'
sS'net.ipv6.conf.default.accept_ra_from_local'
p808
I0
sS'CONFIG_WLAN_VENDOR_REALTEK'
p809
S'y'
sS'CONFIG_PCIE_PME'
p810
S'y'
sS'net.ipv6.conf.ens3.accept_ra_rt_info_max_plen'
p811
I0
sS'net.core.flow_limit_table_len'
p812
I4096
sS'kernel.sched_domain.cpu9.domain0.flags'
p813
I4143
sS'CONFIG_MFD_TPS65912_I2C'
p814
S'y'
sS'CONFIG_MOUSE_PS2_SYNAPTICS_SMBUS'
p815
S'y'
sS'CONFIG_ZONE_DMA'
p816
S'y'
sS'net.core.max_skb_frags'
p817
I17
sS'CONFIG_DEFCONFIG_LIST'
p818
S'"/lib/modules/$UNAME_RELEASE/.config"'
p819
sS'CONFIG_HAVE_KVM_CPU_RELAX_INTERCEPT'
p820
S'y'
sS'CONFIG_VHOST'
p821
S'm'
sS'kernel.printk_devkmsg'
p822
S'ratelimit'
p823
sS'net.ipv6.neigh.ens3.gc_stale_time'
p824
I60
sS'CONFIG_HAVE_NET_DSA'
p825
S'y'
sS'CONFIG_PCI_LABEL'
p826
S'y'
sS'CONFIG_IOMMU_IOVA'
p827
S'y'
sS'net.ipv6.conf.default.accept_ra'
p828
I1
sS'kernel.sched_domain.cpu6.domain0.max_newidle_lb_cost'
p829
I29842
sS'CONFIG_ISCSI_IBFT_FIND'
p830
S'y'
sS'CONFIG_EVM'
p831
S'y'
sS'CONFIG_PKCS7_MESSAGE_PARSER'
p832
S'y'
sS'net.ipv4.tcp_workaround_signed_windows'
p833
I0
sS'CONFIG_PM_SLEEP'
p834
S'y'
sS'CONFIG_IP_MROUTE'
p835
S'y'
sS'net.ipv4.ipfrag_secret_interval'
p836
I0
sS'CONFIG_ZSTD_DECOMPRESS'
p837
S'm'
sS'net.ipv6.neigh.default.ucast_solicit'
p838
I3
sS'net.ipv6.neigh.default.locktime'
p839
I0
sS'CONFIG_AGP_VIA'
p840
S'y'
sS'net.ipv6.auto_flowlabels'
p841
I1
sS'fs.quota.reads'
p842
I0
sS'kernel.sched_child_runs_first'
p843
I0
sS'CONFIG_NODES_SHIFT'
p844
I6
sS'CONFIG_ELFCORE'
p845
S'y'
sS'CONFIG_BPF_EVENTS'
p846
S'y'
sS'net.ipv4.neigh.lo.mcast_solicit'
p847
I3
sS'CONFIG_BUILD_BIN2C'
p848
S'y'
sS'CONFIG_SND_HDA_GENERIC'
p849
S'm'
sS'net.core.bpf_jit_enable'
p850
I0
sS'CONFIG_SND_HDA'
p851
S'm'
sS'fs.quota.drops'
p852
I0
sS'kernel.acct'
p853
S'4\t2\t30'
p854
sS'kernel.sched_domain.cpu8.domain0.name'
p855
S'DIE'
p856
sS'fs.mqueue.msg_max'
p857
I10
sS'kernel.yama.ptrace_scope'
p858
I1
sS'net.ipv6.conf.default.max_desync_factor'
p859
I600
sS'CONFIG_MAC80211_STA_HASH_MAX_SIZE'
p860
I0
sS'dev.parport.default.timeslice'
p861
I200
sS'net.ipv4.inet_peer_threshold'
p862
I65664
sS'net.ipv6.conf.all.ignore_routes_with_linkdown'
p863
I0
sS'net.core.rps_sock_flow_entries'
p864
I0
sS'CONFIG_ARCH_SELECT_MEMORY_MODEL'
p865
S'y'
sS'CONFIG_FONT_8x8'
p866
S'y'
sS'kernel.sched_domain.cpu1.domain0.min_interval'
p867
I12
sS'net.ipv4.tcp_recovery'
p868
I1
sS'CONFIG_EARLY_PRINTK_USB'
p869
S'y'
sS'net.ipv6.neigh.default.proxy_qlen'
p870
I64
sS'CONFIG_EDD'
p871
S'y'
sS'net.ipv6.route.max_size'
p872
I4096
sS'kernel.sched_domain.cpu5.domain0.imbalance_pct'
p873
I125
sS'net.ipv4.tcp_fwmark_accept'
p874
I0
sS'CONFIG_FTRACE_SYSCALLS'
p875
S'y'
sS'net.ipv6.conf.lo.accept_ra_rt_info_min_plen'
p876
I0
sS'CONFIG_GENERIC_IRQ_MIGRATION'
p877
S'y'
sS'kernel.sched_domain.cpu5.domain0.max_interval'
p878
I24
sS'fs.inode-state'
p879
S'105129\t517\t0\t0\t0\t0\t0'
p880
sS'CONFIG_HTC_I2CPLD'
p881
S'y'
sS'CONFIG_LEDS_TRIGGERS'
p882
S'y'
sS'net.ipv4.ipfrag_max_dist'
p883
I64
sS'kernel.sched_rt_period_us'
p884
I1000000
sS'CONFIG_HAVE_CONTEXT_TRACKING'
p885
S'y'
sS'CONFIG_CRYPTO_DRBG'
p886
S'y'
sS'CONFIG_ADVISE_SYSCALLS'
p887
S'y'
sS'CONFIG_STRICT_MODULE_RWX'
p888
S'y'
sS'kernel.printk_delay'
p889
I0
sS'kernel.sched_domain.cpu8.domain0.forkexec_idx'
p890
I0
sS'CONFIG_GENERIC_ISA_DMA'
p891
S'y'
sS'net.ipv4.neigh.default.retrans_time_ms'
p892
I1000
sS'net.core.wmem_default'
p893
I212992
sS'CONFIG_RATIONAL'
p894
S'y'
sS'CONFIG_ARCH_DMA_ADDR_T_64BIT'
p895
S'y'
sS'CONFIG_IP_NF_FILTER'
p896
S'm'
sS'net.ipv4.conf.default.route_localnet'
p897
I0
sS'net.ipv4.conf.lo.proxy_arp'
p898
I0
sS'CONFIG_PMIC_DA903X'
p899
S'y'
sS'CONFIG_X86_POWERNOW_K8'
p900
S'y'
sS'CONFIG_ACPI_APEI_MEMORY_FAILURE'
p901
S'y'
sS'net.ipv4.ip_local_reserved_ports'
p902
S''
sS'CONFIG_NET_VENDOR_QLOGIC'
p903
S'y'
sS'CONFIG_PCSPKR_PLATFORM'
p904
S'y'
sS'CONFIG_X86_PCC_CPUFREQ'
p905
S'y'
sS'kernel.sysctl_writes_strict'
p906
I1
sS'vm.drop_caches'
p907
I0
sS'CONFIG_I2C_COMPAT'
p908
S'y'
sS'net.ipv6.conf.ens3.temp_valid_lft'
p909
I604800
sS'CONFIG_HAVE_FUNCTION_TRACER'
p910
S'y'
sS'CONFIG_TRACING_SUPPORT'
p911
S'y'
sS'kernel.watchdog_cpumask'
p912
S'0-247'
p913
sS'CONFIG_IMA_APPRAISE'
p914
S'y'
sS'dev.cdrom.info'
p915
S''
sS'CONFIG_NET_VENDOR_AQUANTIA'
p916
S'y'
sS'kernel.sched_domain.cpu9.domain0.wake_idx'
p917
I0
sS'CONFIG_TRANSPARENT_HUGEPAGE_ALWAYS'
p918
S'y'
sg8
S'HostInfo.host-192.168.123.30'
p919
sS'CONFIG_X86_L1_CACHE_SHIFT'
p920
I6
sS'CONFIG_NET_VENDOR_HP'
p921
S'y'
sS'CONFIG_NET_VENDOR_MELLANOX'
p922
S'y'
sS'CONFIG_SHMEM'
p923
S'y'
sS'CONFIG_EFI_RUNTIME_WRAPPERS'
p924
S'y'
sS'net.core.netdev_max_backlog'
p925
I1000
sS'kernel.sched_domain.cpu8.domain0.max_newidle_lb_cost'
p926
I33821
sS'CONFIG_PM_TRACE_RTC'
p927
S'y'
sS'net.ipv6.neigh.ens3.unres_qlen'
p928
I101
sS'CONFIG_ARCH_HIBERNATION_POSSIBLE'
p929
S'y'
sS'kernel.hotplug'
p930
S''
sS'CONFIG_SERIAL_CORE_CONSOLE'
p931
S'y'
sS'kernel.sched_domain.cpu9.domain0.busy_idx'
p932
I2
sS'kernel.ostype'
p933
S'Linux'
p934
sS'CONFIG_PNP'
p935
S'y'
sS'kernel.sched_domain.cpu9.domain0.imbalance_pct'
p936
I125
sS'CONFIG_IPV6'
p937
S'y'
sS'CONFIG_GENERIC_CLOCKEVENTS'
p938
S'y'
sS'CONFIG_MICROCODE_INTEL'
p939
S'y'
sS'CONFIG_PM_CLK'
p940
S'y'
sS'CONFIG_SECURITY_TOMOYO_POLICY_LOADER'
p941
S'"/sbin/tomoyo-init"'
p942
sS'CONFIG_TCG_TPM'
p943
S'y'
sS'CONFIG_I2C_DESIGNWARE_PLATFORM'
p944
S'y'
sS'net.ipv6.conf.ens3.ignore_routes_with_linkdown'
p945
I0
sS'CONFIG_CHECKPOINT_RESTORE'
p946
S'y'
sS'vm.nr_pdflush_threads'
p947
I0
sS'kernel.sched_domain.cpu6.domain0.busy_factor'
p948
I32
sS'kernel.sched_domain.cpu4.domain0.imbalance_pct'
p949
I125
sS'CONFIG_SQUASHFS'
p950
S'y'
sS'CONFIG_WQ_POWER_EFFICIENT_DEFAULT'
p951
S'y'
sS'CONFIG_MFD_MAX77693'
p952
S'y'
sS'kernel.core_uses_pid'
p953
I0
sS'CONFIG_CGROUP_DEVICE'
p954
S'y'
sS'CONFIG_NET_VENDOR_ALTEON'
p955
S'y'
sS'CONFIG_BSD_PROCESS_ACCT_V3'
p956
S'y'
sS'net.ipv4.conf.ens3.tag'
p957
I0
sS'CONFIG_AMD_NB'
p958
S'y'
sS'net.ipv4.conf.default.tag'
p959
I0
sS'net.ipv4.tcp_max_syn_backlog'
p960
I2048
sS'CONFIG_DECOMPRESS_XZ'
p961
S'y'
sS'net.ipv6.conf.all.dad_transmits'
p962
I1
sS'CONFIG_BASE_SMALL'
p963
I0
sS'vm.dirty_expire_centisecs'
p964
I3000
sS'CONFIG_KERNFS'
p965
S'y'
sS'kernel.sched_domain.cpu6.domain0.min_interval'
p966
I12
sS'CONFIG_IP_MULTICAST'
p967
S'y'
sS'CONFIG_PM_WAKELOCKS_GC'
p968
S'y'
sS'kernel.sched_domain.cpu3.domain0.wake_idx'
p969
I0
sS'CONFIG_X86_PMEM_LEGACY'
p970
S'y'
sS'CONFIG_GENERIC_IRQ_SHOW'
p971
S'y'
sS'CONFIG_MFD_WM8400'
p972
S'y'
sS'net.ipv6.conf.all.forwarding'
p973
I0
sS'net.ipv4.conf.default.medium_id'
p974
I0
sS'CONFIG_ARCH_HAS_GIGANTIC_PAGE'
p975
S'y'
sS'vm.oom_dump_tasks'
p976
I1
sS'net.ipv6.ip6frag_secret_interval'
p977
I0
sS'CONFIG_PMIC_ADP5520'
p978
S'y'
sS'CONFIG_USER_NS'
p979
S'y'
sS'net.ipv4.neigh.default.gc_stale_time'
p980
I60
sS'CONFIG_PARPORT'
p981
S'm'
sS'CONFIG_ARCH_WANTS_DYNAMIC_TASK_STRUCT'
p982
S'y'
sS'net.ipv4.conf.ens3.accept_source_route'
p983
I1
sS'CONFIG_SYSTEM_TRUSTED_KEYRING'
p984
S'y'
sS'net.ipv6.icmp.ratelimit'
p985
I1000
sS'net.ipv4.conf.lo.log_martians'
p986
I0
sS'dev.cdrom.check_media'
p987
I0
sS'CONFIG_INTEL_SOC_PMIC'
p988
S'y'
sS'kernel.sched_domain.cpu9.domain0.min_interval'
p989
I12
sS'net.ipv6.conf.ens3.keep_addr_on_down'
p990
I0
sS'net.ipv4.conf.default.mc_forwarding'
p991
I0
sS'net.core.dev_weight_tx_bias'
p992
I1
sS'CONFIG_MDIO'
p993
S'm'
sS'net.ipv6.neigh.default.retrans_time_ms'
p994
I1000
sS'net.ipv6.conf.ens3.drop_unsolicited_na'
p995
I0
sS'kernel.sem'
p996
S'32000\t1024000000\t500\t32000'
p997
sS'net.ipv4.tcp_window_scaling'
p998
I1
sS'net.ipv4.tcp_available_ulp'
p999
S''
sS'CONFIG_NEED_DMA_MAP_STATE'
p1000
S'y'
sS'net.ipv6.conf.lo.temp_prefered_lft'
p1001
I86400
sS'CONFIG_HAVE_ARCH_SECCOMP_FILTER'
p1002
S'y'
sS'CONFIG_INPUT_MOUSEDEV_SCREEN_X'
p1003
I1024
sS'CONFIG_INPUT_MOUSEDEV_SCREEN_Y'
p1004
I768
sS'CONFIG_DMIID'
p1005
S'y'
sS'net.ipv4.conf.default.arp_notify'
p1006
I0
sS'net.ipv6.flowlabel_reflect'
p1007
I0
sS'CONFIG_DAX'
p1008
S'y'
sS'net.ipv4.neigh.ens3.proxy_delay'
p1009
I80
sS'CONFIG_NETLABEL'
p1010
S'y'
sS'CONFIG_ARCH_HAS_ACPI_TABLE_UPGRADE'
p1011
S'y'
sS'CONFIG_IRQ_REMAP'
p1012
S'y'
sS'CONFIG_GENERIC_TRACER'
p1013
S'y'
sS'CONFIG_BE2ISCSI'
p1014
S'm'
sS'CONFIG_NET_VENDOR_DEC'
p1015
S'y'
sS'CONFIG_FUTEX'
p1016
S'y'
sS'net.ipv6.neigh.ens3.app_solicit'
p1017
I0
sS'net.ipv4.inet_peer_maxttl'
p1018
I600
sS'CONFIG_SSB_POSSIBLE'
p1019
S'y'
sS'net.ipv4.conf.default.arp_ignore'
p1020
I0
sS'CONFIG_WLAN_VENDOR_ADMTEK'
p1021
S'y'
sS'kernel.softlockup_all_cpu_backtrace'
p1022
I0
sS'CONFIG_ZSTD_COMPRESS'
p1023
S'm'
sS'CONFIG_HWMON'
p1024
S'y'
sS'kernel.bootloader_type'
p1025
I114
sS'CONFIG_MFD_DA9052_I2C'
p1026
S'y'
sS'CONFIG_LOG_BUF_SHIFT'
p1027
I18
sS'CONFIG_INTEL_IOMMU'
p1028
S'y'
sS'CONFIG_IRQ_DOMAIN_HIERARCHY'
p1029
S'y'
sS'CONFIG_NET_VENDOR_BROCADE'
p1030
S'y'
sS'CONFIG_ACPI_CUSTOM_DSDT_FILE'
p1031
S'""'
p1032
sS'net.ipv6.neigh.default.gc_thresh2'
p1033
I512
sS'net.ipv6.neigh.default.gc_thresh3'
p1034
I1024
sS'net.ipv6.conf.ens3.use_tempaddr'
p1035
I0
sS'vm.nr_hugepages'
p1036
I0
sS'CONFIG_NO_HZ_IDLE'
p1037
S'y'
sS'user.max_ipc_namespaces'
p1038
I257513
sS'CONFIG_COMPAT'
p1039
S'y'
sS'CONFIG_CRYPTO_SHA256'
p1040
S'y'
sS'net.ipv4.neigh.ens3.unres_qlen_bytes'
p1041
I212992
sS'vm.overcommit_memory'
p1042
I0
sS'CONFIG_MODULE_UNLOAD'
p1043
S'y'
sS'CONFIG_NLS_DEFAULT'
p1044
S'"utf8"'
p1045
sS'CONFIG_MFD_RC5T583'
p1046
S'y'
sS'CONFIG_BTRFS_FS_POSIX_ACL'
p1047
S'y'
sS'CONFIG_GENERIC_PHY'
p1048
S'y'
sS'net.ipv6.conf.lo.accept_source_route'
p1049
I0
sS'CONFIG_CHELSIO_LIB'
p1050
S'm'
sS'net.ipv4.neigh.lo.retrans_time_ms'
p1051
I1000
sS'CONFIG_X86_RESERVE_LOW'
p1052
I64
sS'kernel.modules_disabled'
p1053
I0
sS'CONFIG_X86_NUMACHIP'
p1054
S'y'
sS'net.ipv6.ip_nonlocal_bind'
p1055
I0
sS'CONFIG_TCP_CONG_CUBIC'
p1056
S'y'
sS'CONFIG_INOTIFY_USER'
p1057
S'y'
sS'net.core.busy_poll'
p1058
I0
sS'CONFIG_UEFI_CPER'
p1059
S'y'
sS'CONFIG_RTC_DRV_CMOS'
p1060
S'y'
sS'CONFIG_TRANSPARENT_HUGE_PAGECACHE'
p1061
S'y'
sS'net.ipv4.neigh.lo.base_reachable_time_ms'
p1062
I30000
sS'net.ipv4.tcp_tw_reuse'
p1063
I0
sS'CONFIG_MOUSE_PS2_SENTELIC'
p1064
S'y'
sS'CONFIG_LOCKUP_DETECTOR'
p1065
S'y'
sS'CONFIG_ASYNC_MEMCPY'
p1066
S'm'
sS'CONFIG_RAPIDIO'
p1067
S'y'
sS'CONFIG_STAGING_MEDIA'
p1068
S'y'
sS'net.ipv4.conf.ens3.igmpv3_unsolicited_report_interval'
p1069
I1000
sS'net.ipv4.ip_local_port_range'
p1070
S'32768\t60999'
p1071
sS'kernel.sched_domain.cpu2.domain0.min_interval'
p1072
I12
sS'CONFIG_HUGETLB_PAGE'
p1073
S'y'
sS'CONFIG_PERF_EVENTS'
p1074
S'y'
sS'net.ipv4.neigh.lo.locktime'
p1075
I100
sS'CONFIG_SECURITY_TOMOYO_ACTIVATION_TRIGGER'
p1076
S'"/sbin/init"'
p1077
sS'CONFIG_UCS2_STRING'
p1078
S'y'
sS'CONFIG_ARCH_SPARSEMEM_DEFAULT'
p1079
S'y'
sS'CONFIG_IPV6_ROUTE_INFO'
p1080
S'y'
sS'CONFIG_CLKEVT_I8253'
p1081
S'y'
sS'CONFIG_SERIAL_8250_PCI'
p1082
S'y'
sS'CONFIG_PCIEASPM_DEFAULT'
p1083
S'y'
sS'CONFIG_HAVE_EXIT_THREAD'
p1084
S'y'
sS'CONFIG_SND_HDA_HWDEP'
p1085
S'y'
sS'CONFIG_SOFTLOCKUP_DETECTOR'
p1086
S'y'
sS'CONFIG_EARLY_PRINTK'
p1087
S'y'
sS'net.ipv6.conf.ens3.ndisc_notify'
p1088
I0
sS'net.ipv4.conf.all.proxy_arp_pvlan'
p1089
I0
sS'kernel'
p1090
S'4.14.0-rc8-stock'
p1091
sS'user.max_cgroup_namespaces'
p1092
I257513
sS'CONFIG_BACKLIGHT_LCD_SUPPORT'
p1093
S'y'
sS'CONFIG_MOUSE_PS2_ELANTECH'
p1094
S'y'
sS'CONFIG_PCI_MMCONFIG'
p1095
S'y'
sS'CONFIG_KVM_MMIO'
p1096
S'y'
sS'net.ipv4.neigh.default.unres_qlen_bytes'
p1097
I212992
sS'CONFIG_INPUT_UINPUT'
p1098
S'y'
sS'CONFIG_PINCTRL_BAYTRAIL'
p1099
S'y'
sS'net.ipv4.icmp_errors_use_inbound_ifaddr'
p1100
I0
sS'net.ipv6.conf.all.addr_gen_mode'
p1101
I0
sS'CONFIG_HAVE_ACPI_APEI_NMI'
p1102
S'y'
sS'vm.page-cluster'
p1103
I3
sS'CONFIG_MOUSE_PS2_CYPRESS'
p1104
S'y'
sS'kernel.sched_rt_runtime_us'
p1105
I950000
sS'CONFIG_USB_DWC2_PCI'
p1106
S'y'
sS'CONFIG_X86_CMOV'
p1107
S'y'
sS'net.ipv4.tcp_fastopen_blackhole_timeout_sec'
p1108
I3600
sS'CONFIG_SIGNATURE'
p1109
S'y'
sS'net.ipv4.conf.all.mc_forwarding'
p1110
I0
sS'CONFIG_PM_DEBUG'
p1111
S'y'
sS'net.ipv4.neigh.default.ucast_solicit'
p1112
I3
sS'kernel.pty.reserve'
p1113
I1024
sS'CONFIG_SOUND'
p1114
S'm'
sS'kernel.sched_domain.cpu6.domain0.flags'
p1115
I4143
sS'CONFIG_SERIO_I8042'
p1116
S'y'
sS'CONFIG_NET_VENDOR_NETRONOME'
p1117
S'y'
sS'CONFIG_BLK_DEV_LOOP'
p1118
S'y'
sS'vm.mmap_min_addr'
p1119
I65536
sS'CONFIG_CRYPTO_DRBG_CTR'
p1120
S'y'
sS'CONFIG_HAVE_CMPXCHG_LOCAL'
p1121
S'y'
sS'net.ipv6.route.mtu_expires'
p1122
I600
sS'CONFIG_SND_USB'
p1123
S'y'
sS'CONFIG_CMDLINE_PARTITION'
p1124
S'y'
sS'CONFIG_NETWORK_SECMARK'
p1125
S'y'
sS'CONFIG_SND_HDA_INTEL'
p1126
S'm'
sS'net.ipv4.ping_group_range'
p1127
S'1\t0'
p1128
sS'CONFIG_PERF_EVENTS_INTEL_CSTATE'
p1129
S'y'
sS'kernel.sched_domain.cpu5.domain0.max_newidle_lb_cost'
p1130
I11921
sS'net.ipv4.icmp_msgs_burst'
p1131
I50
sS'CONFIG_PPP_MULTILINK'
p1132
S'y'
sS'CONFIG_BLK_DEV_FD'
p1133
S'm'
sS'CONFIG_SND_DRIVERS'
p1134
S'y'
sS'CONFIG_SCSI_CXGB4_ISCSI'
p1135
S'm'
sS'CONFIG_CRASH_DUMP'
p1136
S'y'
sS'vm.watermark_scale_factor'
p1137
I10
sS'CONFIG_HAVE_UID16'
p1138
S'y'
sS'CONFIG_NET_VENDOR_WIZNET'
p1139
S'y'
sS'CONFIG_IPV6_ROUTER_PREF'
p1140
S'y'
sS'dev.parport.default.spintime'
p1141
I500
sS'CONFIG_IOSF_MBI'
p1142
S'y'
sS'net.ipv4.fib_multipath_hash_policy'
p1143
I0
sS'CONFIG_BLK_DEV_BSG'
p1144
S'y'
sS'kernel.sched_domain.cpu5.domain0.flags'
p1145
I4143
sS'CONFIG_CPU_FREQ_GOV_CONSERVATIVE'
p1146
S'y'
sS'CONFIG_MEMORY_HOTPLUG_SPARSE'
p1147
S'y'
sS'CONFIG_ZSWAP'
p1148
S'y'
sS'CONFIG_KVM'
p1149
S'm'
sS'CONFIG_PCIEASPM_DEBUG'
p1150
S'y'
sS'CONFIG_PROC_PID_CPUSET'
p1151
S'y'
sS'CONFIG_MEMORY_BALLOON'
p1152
S'y'
sS'CONFIG_INFINIBAND'
p1153
S'm'
sS'CONFIG_NET_VENDOR_SILAN'
p1154
S'y'
sS'net.ipv4.conf.ens3.log_martians'
p1155
I0
sS'CONFIG_CC_STACKPROTECTOR_STRONG'
p1156
S'y'
sS'CONFIG_HOTPLUG_CPU'
p1157
S'y'
sS'CONFIG_PROC_FS'
p1158
S'y'
sS'net.ipv4.route.redirect_number'
p1159
I9
sS'CONFIG_MOUSE_PS2_ALPS'
p1160
S'y'
sS'kernel.sched_domain.cpu3.domain0.min_interval'
p1161
I12
sS'CONFIG_THERMAL_WRITABLE_TRIPS'
p1162
S'y'
sS'CONFIG_TOUCHSCREEN_PROPERTIES'
p1163
S'y'
sS'vm.lowmem_reserve_ratio'
p1164
S'256\t256\t32\t1'
p1165
sS'CONFIG_BLK_DEV_THROTTLING'
p1166
S'y'
sS'CONFIG_SWAP'
p1167
S'y'
sS'kernel.osrelease'
p1168
S'4.14.0-rc8-stock'
p1169
sS'kernel.sched_domain.cpu8.domain0.busy_idx'
p1170
I2
sS'CONFIG_AMD_IOMMU'
p1171
S'y'
sS'CONFIG_PAGE_COUNTER'
p1172
S'y'
sS'CONFIG_ARCH_MIGHT_HAVE_ACPI_PDC'
p1173
S'y'
sS'CONFIG_MFD_AS3711'
p1174
S'y'
sS'CONFIG_EFI_MIXED'
p1175
S'y'
sS'CONFIG_FILE_LOCKING'
p1176
S'y'
sS'CONFIG_MFD_WM831X_I2C'
p1177
S'y'
sS'CONFIG_ATA_ACPI'
p1178
S'y'
sS'net.ipv4.conf.lo.route_localnet'
p1179
I0
sS'net.ipv6.ip6frag_high_thresh'
p1180
I4194304
sS'CONFIG_ACPI_APEI'
p1181
S'y'
sS'net.ipv6.conf.ens3.mc_forwarding'
p1182
I0
sS'CONFIG_IRQ_DOMAIN'
p1183
S'y'
sS'net.ipv4.udp_wmem_min'
p1184
I4096
sS'net.ipv4.tcp_invalid_ratelimit'
p1185
I500
sS'net.ipv4.neigh.ens3.proxy_qlen'
p1186
I64
sS'CONFIG_NET_VENDOR_AMAZON'
p1187
S'y'
sS'kernel.sched_domain.cpu2.domain0.busy_factor'
p1188
I32
sS'CONFIG_VT'
p1189
S'y'
sS'net.ipv4.conf.lo.arp_announce'
p1190
I0
sS'kernel.msgmni'
p1191
I32000
sS'CONFIG_HAVE_IDE'
p1192
S'y'
sS'kernel.sched_domain.cpu6.domain0.forkexec_idx'
p1193
I0
sS'CONFIG_NET_VENDOR_8390'
p1194
S'y'
sS'CONFIG_SLUB'
p1195
S'y'
sS'fs.mqueue.queues_max'
p1196
I256
sS'net.ipv4.conf.ens3.rp_filter'
p1197
I0
sS'CONFIG_NET_NS'
p1198
S'y'
sS'CONFIG_HAVE_LIVEPATCH'
p1199
S'y'
sS'CONFIG_KGDB_LOW_LEVEL_TRAP'
p1200
S'y'
sS'CONFIG_HAVE_OPROFILE'
p1201
S'y'
sS'CONFIG_NVDIMM_DAX'
p1202
S'y'
sS'CONFIG_IMA_DEFAULT_HASH'
p1203
S'"sha1"'
p1204
sS'CONFIG_ACPI_THERMAL'
p1205
S'y'
sS'CONFIG_BLK_DEV_BSGLIB'
p1206
S'y'
sS'net.ipv4.neigh.default.locktime'
p1207
I100
sS'CONFIG_PINCTRL_CHERRYVIEW'
p1208
S'y'
sS'CONFIG_HPET_MMAP'
p1209
S'y'
sS'CONFIG_SERIAL_8250_RT288X'
p1210
S'y'
sS'CONFIG_CLOCKSOURCE_VALIDATE_LAST_CYCLE'
p1211
S'y'
sS'net.ipv4.conf.lo.rp_filter'
p1212
I0
sS'net.core.busy_read'
p1213
I0
sS'CONFIG_BTRFS_FS'
p1214
S'm'
sS'CONFIG_DCACHE_WORD_ACCESS'
p1215
S'y'
sS'net.ipv6.conf.default.mtu'
p1216
I1280
sS'kernel.sched_domain.cpu7.domain0.idle_idx'
p1217
I1
sS'CONFIG_SPARSEMEM_MANUAL'
p1218
S'y'
sS'net.ipv4.conf.default.drop_gratuitous_arp'
p1219
I0
sS'CONFIG_UPROBES'
p1220
S'y'
sS'CONFIG_NLS_CODEPAGE_437'
p1221
S'y'
sS'CONFIG_ARCH_ENABLE_MEMORY_HOTPLUG'
p1222
S'y'
sS'CONFIG_FIRMWARE_MEMMAP'
p1223
S'y'
sS'CONFIG_FIX_EARLYCON_MEM'
p1224
S'y'
sS'CONFIG_SCHED_DEBUG'
p1225
S'y'
sS'CONFIG_BOOT_PRINTK_DELAY'
p1226
S'y'
sS'CONFIG_TMPFS'
p1227
S'y'
sS'CONFIG_X86_MCE_INTEL'
p1228
S'y'
sS'CONFIG_RTC_INTF_PROC'
p1229
S'y'
sS'kernel.sched_domain.cpu1.domain0.busy_idx'
p1230
I2
sS'CONFIG_MD_AUTODETECT'
p1231
S'y'
sS'net.ipv6.conf.lo.max_desync_factor'
p1232
I600
sS'CONFIG_X86_ESPFIX64'
p1233
S'y'
sS'net.ipv4.neigh.lo.gc_stale_time'
p1234
I60
sS'kernel.traceoff_on_warning'
p1235
I0
sS'net.ipv4.conf.all.proxy_arp'
p1236
I0
sS'CONFIG_ARCH_USE_BUILTIN_BSWAP'
p1237
S'y'
sS'CONFIG_PROC_SYSCTL'
p1238
S'y'
sS'fs.file-max'
p1239
I6576659
sS'CONFIG_ACPI_APEI_GHES'
p1240
S'y'
sS'kernel.sched_domain.cpu11.domain0.busy_factor'
p1241
I32
sS'net.ipv4.tcp_limit_output_bytes'
p1242
I262144
sS'CONFIG_NET_VENDOR_NVIDIA'
p1243
S'y'
sS'net.ipv4.neigh.default.mcast_resolicit'
p1244
I0
sS'CONFIG_ACPI_HOTPLUG_CPU'
p1245
S'y'
sS'kernel.keys.maxkeys'
p1246
I200
sS'CONFIG_FRAME_WARN'
p1247
I1024
sS'net.ipv6.conf.all.enhanced_dad'
p1248
I1
sS'CONFIG_FAT_FS'
p1249
S'y'
sS'CONFIG_IRQ_POLL'
p1250
S'y'
sS'net.ipv6.conf.all.hop_limit'
p1251
I64
sS'CONFIG_VT_CONSOLE_SLEEP'
p1252
S'y'
sS'kernel.random.entropy_avail'
p1253
I853
sS'net.ipv4.conf.default.force_igmp_version'
p1254
I0
sS'net.ipv4.ip_default_ttl'
p1255
I64
sS'CONFIG_CLEANCACHE'
p1256
S'y'
sS'CONFIG_PCI_PRI'
p1257
S'y'
sS'CONFIG_CRYPTO_ALGAPI'
p1258
S'y'
sS'kernel.random.boot_id'
p1259
S'a97ed727-4789-4e94-ac9a-6034a0a169b8'
p1260
sS'net.ipv4.conf.lo.accept_local'
p1261
I0
sS'kernel.sched_domain.cpu2.domain0.max_interval'
p1262
I24
sS'CONFIG_QUOTA'
p1263
S'y'
sS'net.ipv4.neigh.default.app_solicit'
p1264
I0
sS'CONFIG_CPUSETS'
p1265
S'y'
sS'CONFIG_THERMAL_GOV_BANG_BANG'
p1266
S'y'
sS'CONFIG_REGMAP_IRQ'
p1267
S'y'
sS'CONFIG_CMA'
p1268
S'y'
sS'CONFIG_TRACING'
p1269
S'y'
sS'CONFIG_KDB_KEYBOARD'
p1270
S'y'
sS'CONFIG_RADIX_TREE_MULTIORDER'
p1271
S'y'
sS'net.ipv4.conf.all.promote_secondaries'
p1272
I0
sS'CONFIG_LWTUNNEL'
p1273
S'y'
sS'CONFIG_ARCH_MIGHT_HAVE_PC_SERIO'
p1274
S'y'
sS'net.ipv4.neigh.lo.proxy_qlen'
p1275
I64
sS'CONFIG_CC_STACKPROTECTOR'
p1276
S'y'
sS'net.ipv6.conf.lo.router_solicitation_delay'
p1277
I1
sS'CONFIG_FIB_RULES'
p1278
S'y'
sS'net.ipv4.neigh.lo.unres_qlen_bytes'
p1279
I212992
sS'CONFIG_COMPAT_BINFMT_ELF'
p1280
S'y'
sS'kernel.sched_domain.cpu10.domain0.busy_idx'
p1281
I2
sS'CONFIG_HAVE_KPROBES'
p1282
S'y'
sS'net.ipv4.tcp_mem'
p1283
S'768357\t1024476\t1536714'
p1284
sS'CONFIG_VME_BUS'
p1285
S'y'
sS'CONFIG_FW_LOADER'
p1286
S'y'
sS'CONFIG_ATA_VERBOSE_ERROR'
p1287
S'y'
sS'CONFIG_IOSCHED_DEADLINE'
p1288
S'y'
sS'net.ipv6.conf.all.max_desync_factor'
p1289
I600
sS'CONFIG_ARCH_MMAP_RND_COMPAT_BITS_MAX'
p1290
I16
sS'kernel.sched_domain.cpu4.domain0.busy_factor'
p1291
I32
sS'CONFIG_FB_CFB_IMAGEBLIT'
p1292
S'y'
sS'CONFIG_EXT4_USE_FOR_EXT2'
p1293
S'y'
sS'CONFIG_INPUT_MOUSEDEV_PSAUX'
p1294
S'y'
sS'CONFIG_BLOCK_COMPAT'
p1295
S'y'
sS'CONFIG_ATH5K_PCI'
p1296
S'y'
sS'CONFIG_SCSI_LOGGING'
p1297
S'y'
sS'CONFIG_IP_NF_IPTABLES'
p1298
S'm'
sS'CONFIG_NET_CLS'
p1299
S'y'
sS'CONFIG_ACPI_LEGACY_TABLES_LOOKUP'
p1300
S'y'
sS'CONFIG_INPUT_TABLET'
p1301
S'y'
sS'CONFIG_ILLEGAL_POINTER_VALUE'
p1302
S'0xdead000000000000'
p1303
sS'CONFIG_THERMAL_GOV_STEP_WISE'
p1304
S'y'
sS'CONFIG_PRINTK'
p1305
S'y'
sS'net.ipv4.conf.default.promote_secondaries'
p1306
I0
sS'CONFIG_NET_L3_MASTER_DEV'
p1307
S'y'
sS'CONFIG_SND_MAX_CARDS'
p1308
I32
sS'CONFIG_FRAMEBUFFER_CONSOLE'
p1309
S'y'
sS'CONFIG_BRIDGE'
p1310
S'm'
sS'net.ipv6.conf.lo.accept_ra_pinfo'
p1311
I1
sS'CONFIG_NET_VENDOR_AGERE'
p1312
S'y'
sS'CONFIG_ASYNC_XOR'
p1313
S'm'
sS'CONFIG_ACPI_HOTPLUG_IOAPIC'
p1314
S'y'
sS'kernel.sched_domain.cpu1.domain0.flags'
p1315
I4143
sS'CONFIG_TRACE_IRQFLAGS_SUPPORT'
p1316
S'y'
sS'CONFIG_KEYBOARD_ATKBD'
p1317
S'y'
sS'net.core.default_qdisc'
p1318
S'pfifo_fast'
p1319
sS'CONFIG_VIRTIO_MMIO'
p1320
S'y'
sS'CONFIG_SND_PCM'
p1321
S'm'
sS'CONFIG_SND_X86'
p1322
S'y'
sS'CONFIG_INPUT_KEYBOARD'
p1323
S'y'
sS'CONFIG_ARCH_SUPPORTS_DEFERRED_STRUCT_PAGE_INIT'
p1324
S'y'
sS'net.ipv6.conf.all.accept_ra_mtu'
p1325
I1
sS'net.ipv4.ipfrag_high_thresh'
p1326
I4194304
sS'kernel.sched_domain.cpu5.domain0.idle_idx'
p1327
I1
sS'CONFIG_NET_VENDOR_ROCKER'
p1328
S'y'
sS'CONFIG_I2C'
p1329
S'y'
sS'CONFIG_BUG'
p1330
S'y'
sS'CONFIG_CPU_FREQ_GOV_COMMON'
p1331
S'y'
sS'CONFIG_PHYSICAL_ALIGN'
p1332
S'0x1000000'
p1333
sS'kernel.dmesg_restrict'
p1334
I0
sS'CONFIG_HAVE_ARCH_VMAP_STACK'
p1335
S'y'
sS'kernel.sched_domain.cpu9.domain0.name'
p1336
S'DIE'
p1337
sS'CONFIG_PSTORE_ZLIB_COMPRESS'
p1338
S'y'
sS'CONFIG_CRYPTO_BLKCIPHER2'
p1339
S'y'
sS'CONFIG_GENERIC_IRQ_EFFECTIVE_AFF_MASK'
p1340
S'y'
sS'CONFIG_CHR_DEV_SG'
p1341
S'y'
sS'CONFIG_ARCH_HAS_PKEYS'
p1342
S'y'
sS'CONFIG_SIGNALFD'
p1343
S'y'
sS'CONFIG_IMA_LSM_RULES'
p1344
S'y'
sS'CONFIG_MD_MULTIPATH'
p1345
S'm'
sS'net.ipv4.neigh.default.mcast_solicit'
p1346
I3
sS'CONFIG_SYSTEM_DATA_VERIFICATION'
p1347
S'y'
sS'CONFIG_ACPI'
p1348
S'y'
sS'CONFIG_RTC_MC146818_LIB'
p1349
S'y'
sS'kernel.sched_domain.cpu10.domain0.cache_nice_tries'
p1350
I1
sS'CONFIG_STACKTRACE_SUPPORT'
p1351
S'y'
sS'kernel.sched_domain.cpu8.domain0.flags'
p1352
I4143
sS'CONFIG_INTEL_GTT'
p1353
S'y'
sS'CONFIG_THERMAL_EMULATION'
p1354
S'y'
sS'CONFIG_HAVE_DMA_CONTIGUOUS'
p1355
S'y'
sS'net.netfilter.nf_log.5'
p1356
S'NONE'
p1357
sS'net.netfilter.nf_log.4'
p1358
S'NONE'
p1359
sS'net.netfilter.nf_log.7'
p1360
S'NONE'
p1361
sS'net.netfilter.nf_log.6'
p1362
S'NONE'
p1363
sS'net.netfilter.nf_log.1'
p1364
S'NONE'
p1365
sS'net.netfilter.nf_log.0'
p1366
S'NONE'
p1367
sS'net.netfilter.nf_log.3'
p1368
S'NONE'
p1369
sS'net.netfilter.nf_log.2'
p1370
S'NONE'
p1371
sS'CONFIG_INLINE_READ_UNLOCK'
p1372
S'y'
sS'net.netfilter.nf_log.9'
p1373
S'NONE'
p1374
sS'net.netfilter.nf_log.8'
p1375
S'NONE'
p1376
sS'net.ipv4.conf.ens3.arp_announce'
p1377
I0
sS'kernel.real-root-dev'
p1378
I0
sS'vm.user_reserve_kbytes'
p1379
I131072
sS'CONFIG_HAVE_KERNEL_LZO'
p1380
S'y'
sS'dev.raid.speed_limit_max'
p1381
I200000
sS'CONFIG_IP_FIB_TRIE_STATS'
p1382
S'y'
sS'CONFIG_DEVFREQ_GOV_PERFORMANCE'
p1383
S'y'
sS'net.ipv4.conf.all.disable_xfrm'
p1384
I0
sS'CONFIG_IPV6_MULTIPLE_TABLES'
p1385
S'y'
sS'kernel.sched_domain.cpu3.domain0.newidle_idx'
p1386
I0
sS'fs.quota.lookups'
p1387
I0
sS'CONFIG_QUOTACTL'
p1388
S'y'
sS'CONFIG_TWL6040_CORE'
p1389
S'y'
sS'CONFIG_ARCH_WANT_BATCHED_UNMAP_TLB_FLUSH'
p1390
S'y'
sS'CONFIG_SCSI_QLA_ISCSI'
p1391
S'm'
sS'net.ipv6.conf.lo.temp_valid_lft'
p1392
I604800
sS'CONFIG_RTC_LIB'
p1393
S'y'
sS'kernel.pty.max'
p1394
I4096
sS'CONFIG_ISCSI_BOOT_SYSFS'
p1395
S'm'
sS'CONFIG_HAVE_KERNEL_LZ4'
p1396
S'y'
sS'CONFIG_GPIO_PALMAS'
p1397
S'y'
sS'CONFIG_SQUASHFS_XATTR'
p1398
S'y'
sS'CONFIG_NEED_MULTIPLE_NODES'
p1399
S'y'
sS'net.ipv6.conf.default.use_oif_addrs_only'
p1400
I0
sS'CONFIG_KERNEL_GZIP'
p1401
S'y'
sS'vm.extfrag_threshold'
p1402
I500
sS'kernel.sched_domain.cpu0.domain0.newidle_idx'
p1403
I0
sS'CONFIG_ARCH_HAS_GCOV_PROFILE_ALL'
p1404
S'y'
sS'CONFIG_MODULE_SIG_ALL'
p1405
S'y'
sS'CONFIG_CONSOLE_POLL'
p1406
S'y'
sS'CONFIG_VIRTIO_MMIO_CMDLINE_DEVICES'
p1407
S'y'
sS'net.ipv4.cipso_rbm_strictvalid'
p1408
I1
sS'CONFIG_HAVE_CLK_PREPARE'
p1409
S'y'
sS'net.ipv6.conf.ens3.router_solicitation_interval'
p1410
I4
sS'debug.kprobes-optimization'
p1411
I1
sS'CONFIG_HAVE_OPTPROBES'
p1412
S'y'
sS'CONFIG_POSIX_MQUEUE'
p1413
S'y'
sS'CONFIG_MDIO_BUS'
p1414
S'y'
sS'CONFIG_KALLSYMS_ALL'
p1415
S'y'
sS'net.ipv4.conf.lo.igmpv3_unsolicited_report_interval'
p1416
I1000
sS'CONFIG_ANON_INODES'
p1417
S'y'
sS'kernel.shmmni'
p1418
I4096
sS'CONFIG_ATARI_PARTITION'
p1419
S'y'
sS'kernel.sched_domain.cpu8.domain0.min_interval'
p1420
I12
sS'CONFIG_SECURITY_SELINUX_CHECKREQPROT_VALUE'
p1421
I1
sS'net.ipv4.conf.ens3.proxy_arp'
p1422
I0
sS'CONFIG_CRYPTO_CRCT10DIF'
p1423
S'y'
sS'CONFIG_ARCH_HAS_KCOV'
p1424
S'y'
sS'net.ipv6.conf.lo.accept_ra_rtr_pref'
p1425
I1
sS'CONFIG_RAPIDIO_DISC_TIMEOUT'
p1426
I30
sS'kernel.modprobe'
p1427
S'/sbin/modprobe'
p1428
sS'net.ipv6.conf.ens3.enhanced_dad'
p1429
I1
sS'net.ipv6.conf.default.accept_ra_rt_info_max_plen'
p1430
I0
sS'CONFIG_BSD_PROCESS_ACCT'
p1431
S'y'
sS'CONFIG_SPI_MASTER'
p1432
S'y'
sS'kernel.sched_domain.cpu10.domain0.imbalance_pct'
p1433
I125
sS'CONFIG_KALLSYMS_ABSOLUTE_PERCPU'
p1434
S'y'
sS'kernel.sched_domain.cpu6.domain0.name'
p1435
S'DIE'
p1436
sS'net.ipv6.conf.all.temp_valid_lft'
p1437
I604800
sS'CONFIG_LZ4_DECOMPRESS'
p1438
S'y'
sS'CONFIG_CRYPTO_MANAGER'
p1439
S'y'
sS'CONFIG_MESSAGE_LOGLEVEL_DEFAULT'
p1440
I4
sS'net.ipv4.conf.default.drop_unicast_in_l2_multicast'
p1441
I0
sS'CONFIG_SND_PROC_FS'
p1442
S'y'
sS'net.ipv6.conf.ens3.hop_limit'
p1443
I64
sS'CONFIG_VGA_CONSOLE'
p1444
S'y'
sS'CONFIG_RANDOMIZE_MEMORY_PHYSICAL_PADDING'
p1445
S'0xa'
p1446
sS'CONFIG_ECRYPT_FS'
p1447
S'y'
sS'CONFIG_QUOTACTL_COMPAT'
p1448
S'y'
sS'vm.oom_kill_allocating_task'
p1449
I0
sS'kernel.sched_domain.cpu8.domain0.idle_idx'
p1450
I1
sS'CONFIG_X86_MCE_THRESHOLD'
p1451
S'y'
sS'CONFIG_CGROUP_PIDS'
p1452
S'y'
sS'CONFIG_FB_TILEBLITTING'
p1453
S'y'
sS'net.ipv4.conf.ens3.accept_local'
p1454
I0
sS'CONFIG_NLS_ISO8859_1'
p1455
S'y'
sS'CONFIG_SND_TIMER'
p1456
S'm'
sS'CONFIG_SCHED_INFO'
p1457
S'y'
sS'CONFIG_CRYPTO_AES_X86_64'
p1458
S'm'
sS'net.ipv6.neigh.lo.gc_stale_time'
p1459
I60
sS'CONFIG_HID_PID'
p1460
S'y'
sS'CONFIG_SPLIT_PTLOCK_CPUS'
p1461
I4
sS'dev.cdrom.autoclose'
p1462
I1
sS'CONFIG_LIBCRC32C'
p1463
S'm'
sS'CONFIG_EDAC_SUPPORT'
p1464
S'y'
sS'CONFIG_HAVE_ARCH_COMPAT_MMAP_BASES'
p1465
S'y'
sS'CONFIG_TASK_DELAY_ACCT'
p1466
S'y'
sS'net.ipv6.conf.all.force_tllao'
p1467
I0
sS'net.ipv4.route.gc_interval'
p1468
I60
sS'CONFIG_ARCH_SUSPEND_POSSIBLE'
p1469
S'y'
sS'CONFIG_SPARSEMEM_EXTREME'
p1470
S'y'
sS'CONFIG_DMA_ACPI'
p1471
S'y'
sS'kernel.kptr_restrict'
p1472
I1
sS'CONFIG_INPUT_MOUSEDEV'
p1473
S'y'
sS'CONFIG_X86_DIRECT_GBPAGES'
p1474
S'y'
sS'CONFIG_NET_VENDOR_MICROCHIP'
p1475
S'y'
sS'net.ipv6.conf.ens3.accept_redirects'
p1476
I1
sS'vm.compact_unevictable_allowed'
p1477
I1
sS'CONFIG_ZLIB_DEFLATE'
p1478
S'y'
sS'CONFIG_ACPI_CPU_FREQ_PSS'
p1479
S'y'
sS'CONFIG_SYSVIPC_COMPAT'
p1480
S'y'
sS'CONFIG_X86_VSYSCALL_EMULATION'
p1481
S'y'
sS'net.ipv6.conf.all.use_tempaddr'
p1482
I2
sS'net.ipv6.conf.all.accept_ra_rtr_pref'
p1483
I1
sS'CONFIG_I2C_DESIGNWARE_BAYTRAIL'
p1484
S'y'
sS'CONFIG_HOTPLUG_PCI_CPCI'
p1485
S'y'
sS'net.ipv4.conf.ens3.force_igmp_version'
p1486
I0
sS'CONFIG_FTRACE'
p1487
S'y'
sS'CONFIG_GENERIC_IOMAP'
p1488
S'y'
sS'CONFIG_CGROUP_NET_CLASSID'
p1489
S'y'
sS'CONFIG_DEVFREQ_GOV_USERSPACE'
p1490
S'y'
sS'CONFIG_AUDIT_TREE'
p1491
S'y'
sS'CONFIG_MOUSE_PS2_BYD'
p1492
S'y'
sS'CONFIG_USB_OHCI_HCD_PCI'
p1493
S'y'
sS'net.ipv4.route.min_adv_mss'
p1494
I256
sS'CONFIG_ARCH_DEFCONFIG'
p1495
S'"arch/x86/configs/x86_64_defconfig"'
p1496
sS'CONFIG_WAN'
p1497
S'y'
sS'net.ipv4.tcp_thin_linear_timeouts'
p1498
I0
sS'CONFIG_CRYPTO_ALGAPI2'
p1499
S'y'
sS'CONFIG_INTEL_TXT'
p1500
S'y'
sS'CONFIG_MOUSE_PS2_TOUCHKIT'
p1501
S'y'
sS'CONFIG_LLC'
p1502
S'm'
sS'CONFIG_SND_SPI'
p1503
S'y'
sS'CONFIG_USB_UHCI_HCD'
p1504
S'y'
sS'CONFIG_QUEUED_SPINLOCKS'
p1505
S'y'
sS'kernel.sched_domain.cpu11.domain0.min_interval'
p1506
I12
sS'net.ipv4.tcp_congestion_control'
p1507
S'cubic'
p1508
sS'CONFIG_ATA_SFF'
p1509
S'y'
sS'CONFIG_NVMEM'
p1510
S'y'
sS'CONFIG_SERIO_RAW'
p1511
S'm'
sS'CONFIG_HAVE_KVM_IRQ_ROUTING'
p1512
S'y'
sS'dev.mac_hid.mouse_button3_keycode'
p1513
I100
sS'CONFIG_GENERIC_BUG'
p1514
S'y'
sS'CONFIG_BLK_DEV_IO_TRACE'
p1515
S'y'
sS'net.ipv4.conf.ens3.drop_gratuitous_arp'
p1516
I0
sS'CONFIG_MUTEX_SPIN_ON_OWNER'
p1517
S'y'
sS'CONFIG_MEMORY_ISOLATION'
p1518
S'y'
sS'net.ipv6.conf.all.accept_ra_pinfo'
p1519
I1
sS'kernel.shm_next_id'
p1520
S'-1'
p1521
sS'net.ipv6.calipso_cache_bucket_size'
p1522
I10
sS'CONFIG_NET_VENDOR_AURORA'
p1523
S'y'
sS'CONFIG_LOCKDEP_SUPPORT'
p1524
S'y'
sS'net.ipv4.conf.ens3.ignore_routes_with_linkdown'
p1525
I0
sS'CONFIG_GENERIC_CLOCKEVENTS_BROADCAST'
p1526
S'y'
sS'net.ipv6.conf.ens3.accept_ra'
p1527
I1
sS'CONFIG_SYSTEM_EXTRA_CERTIFICATE_SIZE'
p1528
I4096
sS'CONFIG_HAVE_ARCH_JUMP_LABEL'
p1529
S'y'
sS'net.ipv6.conf.all.mtu'
p1530
I1280
sS'kernel.sched_domain.cpu5.domain0.busy_factor'
p1531
I32
sS'net.ipv6.conf.default.mldv2_unsolicited_report_interval'
p1532
I1000
sS'CONFIG_ZONE_DEVICE'
p1533
S'y'
sS'CONFIG_VIRTUALIZATION'
p1534
S'y'
sS'fs.pipe-user-pages-hard'
p1535
I0
sS'net.ipv6.route.gc_min_interval'
p1536
I0
sS'kernel.sched_domain.cpu7.domain0.cache_nice_tries'
p1537
I1
sS'CONFIG_HAVE_VIRT_CPU_ACCOUNTING_GEN'
p1538
S'y'
sS'CONFIG_HAVE_ARCH_TRANSPARENT_HUGEPAGE'
p1539
S'y'
sS'CONFIG_PROC_PAGE_MONITOR'
p1540
S'y'
sS'dev.hpet.max-user-freq'
p1541
I64
sS'net.ipv4.route.gc_thresh'
p1542
S'-1'
p1543
sS'CONFIG_THERMAL_GOV_POWER_ALLOCATOR'
p1544
S'y'
sS'CONFIG_HAVE_CLK'
p1545
S'y'
sS'CONFIG_GENERIC_STRNLEN_USER'
p1546
S'y'
sS'dev.mac_hid.mouse_button_emulation'
p1547
I0
sS'CONFIG_SND_DMA_SGBUF'
p1548
S'y'
sS'CONFIG_ATA_GENERIC'
p1549
S'y'
sS'CONFIG_MOUSE_PS2_TRACKPOINT'
p1550
S'y'
sS'CONFIG_BLK_MQ_VIRTIO'
p1551
S'y'
sS'CONFIG_UNIX98_PTYS'
p1552
S'y'
sS'CONFIG_STRICT_DEVMEM'
p1553
S'y'
sS'CONFIG_ARCH_ENABLE_MEMORY_HOTREMOVE'
p1554
S'y'
sS'net.ipv4.conf.all.medium_id'
p1555
I0
sS'net.ipv6.conf.lo.use_tempaddr'
p1556
S'-1'
p1557
sS'kernel.sched_domain.cpu9.domain0.cache_nice_tries'
p1558
I1
sS'CONFIG_DMA_ENGINE'
p1559
S'y'
sS'net.ipv6.conf.all.mldv2_unsolicited_report_interval'
p1560
I1000
sS'CONFIG_OUTPUT_FORMAT'
p1561
S'"elf64-x86-64"'
p1562
sS'CONFIG_X86_X2APIC'
p1563
S'y'
sS'CONFIG_CGROUP_BPF'
p1564
S'y'
sS'CONFIG_ARCH_ENABLE_SPLIT_PMD_PTLOCK'
p1565
S'y'
sS'CONFIG_NET_CLS_ACT'
p1566
S'y'
sS'CONFIG_DECOMPRESS_LZO'
p1567
S'y'
sS'net.ipv4.conf.default.src_valid_mark'
p1568
I0
sS'CONFIG_NETFILTER_XTABLES'
p1569
S'm'
sS'net.ipv4.conf.lo.proxy_arp_pvlan'
p1570
I0
sS'CONFIG_SCSI_BNX2_ISCSI'
p1571
S'm'
sS'net.ipv4.conf.default.log_martians'
p1572
I0
sS'CONFIG_FREEZER'
p1573
S'y'
sS'CONFIG_QUOTA_NETLINK_INTERFACE'
p1574
S'y'
sS'CONFIG_FB'
p1575
S'y'
sS'CONFIG_MFD_WM831X'
p1576
S'y'
sS'CONFIG_SLUB_DEBUG'
p1577
S'y'
sS'CONFIG_MFD_DA9055'
p1578
S'y'
sS'CONFIG_CGROUP_NET_PRIO'
p1579
S'y'
sS'net.ipv6.neigh.default.mcast_solicit'
p1580
I3
sS'CONFIG_GPIO_LYNXPOINT'
p1581
S'y'
sS'CONFIG_IPC_NS'
p1582
S'y'
sS'CONFIG_PRINTK_TIME'
p1583
S'y'
sS'CONFIG_PCI_MSI_IRQ_DOMAIN'
p1584
S'y'
sS'CONFIG_HAVE_C_RECORDMCOUNT'
p1585
S'y'
sS'net.ipv6.neigh.default.anycast_delay'
p1586
I100
sS'CONFIG_MFD_TPS6586X'
p1587
S'y'
sS'net.ipv6.conf.lo.seg6_enabled'
p1588
I0
sS'net.ipv4.conf.ens3.disable_policy'
p1589
I0
sS'CONFIG_PCC'
p1590
S'y'
sS'CONFIG_REGMAP'
p1591
S'y'
sS'CONFIG_SCHEDSTATS'
p1592
S'y'
sS'CONFIG_CLOCKSOURCE_WATCHDOG'
p1593
S'y'
sS'net.core.message_burst'
p1594
I10
sS'CONFIG_NET_VENDOR_EXAR'
p1595
S'y'
sS'CONFIG_GENERIC_IRQ_PROBE'
p1596
S'y'
sS'CONFIG_BTT'
p1597
S'y'
sS'CONFIG_DECOMPRESS_LZ4'
p1598
S'y'
sS'net.ipv6.conf.lo.ignore_routes_with_linkdown'
p1599
I0
sS'CONFIG_HARDLOCKUP_DETECTOR'
p1600
S'y'
sS'CONFIG_RTC_SYSTOHC'
p1601
S'y'
sS'CONFIG_USB_XHCI_HCD'
p1602
S'y'
sS'CONFIG_SERIO_LIBPS2'
p1603
S'y'
sS'CONFIG_UNIX'
p1604
S'y'
sS'net.ipv4.tcp_fack'
p1605
I0
sS'net.ipv6.conf.ens3.mldv2_unsolicited_report_interval'
p1606
I1000
sS'net.ipv4.neigh.lo.mcast_resolicit'
p1607
I0
sS'uname'
p1608
S'Linux nestedvm 4.14.0-rc8-stock #3 SMP Tue Mar 13 14:28:42 EDT 2018 x86_64 x86_64 x86_64 GNU/Linux'
p1609
sS'CONFIG_DMADEVICES'
p1610
S'y'
sS'CONFIG_DEFAULT_HOSTNAME'
p1611
S'"(none)"'
p1612
sS'CONFIG_CRYPTO_LZO'
p1613
S'y'
sS'CONFIG_HAVE_STACK_VALIDATION'
p1614
S'y'
sS'CONFIG_INTEL_IOMMU_FLOPPY_WA'
p1615
S'y'
sS'CONFIG_HAVE_KVM'
p1616
S'y'
sS'CONFIG_USB_PCI'
p1617
S'y'
sS'CONFIG_ACPI_I2C_OPREGION'
p1618
S'y'
sS'CONFIG_SPARSEMEM_VMEMMAP'
p1619
S'y'
sS'net.core.netdev_budget_usecs'
p1620
I2000
sS'CONFIG_TCP_CONG_ADVANCED'
p1621
S'y'
sS'CONFIG_CPU_FREQ_DEFAULT_GOV_PERFORMANCE'
p1622
S'y'
sS'net.ipv6.conf.all.drop_unsolicited_na'
p1623
I0
sS'CONFIG_FSNOTIFY'
p1624
S'y'
sS'CONFIG_POWER_RESET'
p1625
S'y'
sS'CONFIG_VIRTIO_NET'
p1626
S'y'
sS'CONFIG_RFKILL'
p1627
S'y'
sS'CONFIG_BCMA_POSSIBLE'
p1628
S'y'
sS'CONFIG_OPTIMIZE_INLINING'
p1629
S'y'
sS'net.ipv4.ipfrag_time'
p1630
I30
sS'net.ipv4.conf.default.secure_redirects'
p1631
I1
sS'CONFIG_MOUSE_PS2_SMBUS'
p1632
S'y'
sS'CONFIG_MD_RAID10'
p1633
S'm'
sS'kernel.sched_domain.cpu11.domain0.max_interval'
p1634
I24
sS'CONFIG_PPDEV'
p1635
S'm'
sS'CONFIG_BLK_DEV_INITRD'
p1636
S'y'
sS'CONFIG_CNIC'
p1637
S'm'
sS'CONFIG_DM_UEVENT'
p1638
S'y'
sS'CONFIG_LEGACY_PTYS'
p1639
S'y'
sS'CONFIG_FS_POSIX_ACL'
p1640
S'y'
sS'kernel.auto_msgmni'
p1641
I0
sS'fs.mqueue.msgsize_default'
p1642
I8192
sS'CONFIG_KEXEC_VERIFY_SIG'
p1643
S'y'
sS'fs.inotify.max_user_watches'
p1644
I8192
sS'CONFIG_IMA_APPRAISE_BOOTPARAM'
p1645
S'y'
sS'CONFIG_HPET'
p1646
S'y'
sS'CONFIG_CRYPTO_WORKQUEUE'
p1647
S'y'
sS'CONFIG_INTEGRITY_SIGNATURE'
p1648
S'y'
sS'CONFIG_SPARSE_IRQ'
p1649
S'y'
sS'CONFIG_BLK_SCSI_REQUEST'
p1650
S'y'
sS'CONFIG_BITREVERSE'
p1651
S'y'
sS'CONFIG_HAVE_ARCH_MMAP_RND_BITS'
p1652
S'y'
sS'net.ipv6.conf.lo.accept_ra_rt_info_max_plen'
p1653
I0
sS'CONFIG_NET_VENDOR_MICREL'
p1654
S'y'
sS'CONFIG_MPLS'
p1655
S'y'
sS'CONFIG_DEBUG_INFO'
p1656
S'y'
sS'CONFIG_MAGIC_SYSRQ'
p1657
S'y'
sS'CONFIG_SERIAL_8250_PNP'
p1658
S'y'
sS'CONFIG_CLKDEV_LOOKUP'
p1659
S'y'
sS'kernel.sched_domain.cpu11.domain0.forkexec_idx'
p1660
I0
sS'kernel.keys.maxbytes'
p1661
I20000
sS'CONFIG_BRANCH_PROFILE_NONE'
p1662
S'y'
sS'CONFIG_NO_BOOTMEM'
p1663
S'y'
sS'CONFIG_XXHASH'
p1664
S'm'
sS'vm.dirty_ratio'
p1665
I20
sS'net.ipv6.idgen_retries'
p1666
I3
sS'CONFIG_MAGIC_SYSRQ_SERIAL'
p1667
S'y'
sS'CONFIG_CRYPTO_HASH2'
p1668
S'y'
sS'CONFIG_MEMCG_SWAP'
p1669
S'y'
sS'CONFIG_IOSCHED_NOOP'
p1670
S'y'
sS'CONFIG_USB_COMMON'
p1671
S'y'
sS'kernel.sched_domain.cpu0.domain0.wake_idx'
p1672
I0
sS'CONFIG_SND_VERBOSE_PROCFS'
p1673
S'y'
sS'net.ipv6.conf.ens3.temp_prefered_lft'
p1674
I86400
sS'CONFIG_BRIDGE_NF_EBTABLES'
p1675
S'm'
sS'CONFIG_CRYPTO_JITTERENTROPY'
p1676
S'y'
sS'CONFIG_CRYPTO_DRBG_MENU'
p1677
S'y'
sS'CONFIG_ARCH_USE_CMPXCHG_LOCKREF'
p1678
S'y'
sS'CONFIG_RD_GZIP'
p1679
S'y'
sS'user.max_pid_namespaces'
p1680
I257513
sS'CONFIG_PANIC_ON_OOPS_VALUE'
p1681
I0
sS'CONFIG_USB_EHCI_ROOT_HUB_TT'
p1682
S'y'
sS'kernel.sched_min_granularity_ns'
p1683
I3000000
sS'CONFIG_X86_NEED_RELOCS'
p1684
S'y'
sS'CONFIG_XZ_DEC_ARM'
p1685
S'y'
sS'CONFIG_SCSI_DMA'
p1686
S'y'
sS'kernel.sched_domain.cpu4.domain0.max_interval'
p1687
I24
sS'CONFIG_ARCH_HAS_ZONE_DEVICE'
p1688
S'y'
sS'CONFIG_HVC_DRIVER'
p1689
S'y'
sS'CONFIG_HAVE_RCU_TABLE_FREE'
p1690
S'y'
sS'CONFIG_ZSMALLOC'
p1691
S'y'
sS'CONFIG_HAVE_PERF_REGS'
p1692
S'y'
sS'CONFIG_SND_HWDEP'
p1693
S'm'
sS'CONFIG_CRYPTO_HASH'
p1694
S'y'
sS'kernel.sched_domain.cpu9.domain0.newidle_idx'
p1695
I0
sS'CONFIG_KEYS_COMPAT'
p1696
S'y'
sS'CONFIG_CRYPTO_NULL2'
p1697
S'y'
sS'CONFIG_RCU_STALL_COMMON'
p1698
S'y'
sS'net.ipv6.conf.lo.accept_ra_min_hop_limit'
p1699
I1
sS'net.ipv4.conf.default.proxy_arp'
p1700
I0
sS'kernel.sched_rr_timeslice_ms'
p1701
I100
sS'net.ipv6.conf.lo.disable_ipv6'
p1702
I0
sS'CONFIG_NEED_PER_CPU_PAGE_FIRST_CHUNK'
p1703
S'y'
sS'CONFIG_KGDB_KDB'
p1704
S'y'
sS'net.ipv4.conf.all.src_valid_mark'
p1705
I0
sS'fs.overflowuid'
p1706
I65534
sS'net.ipv4.conf.ens3.arp_accept'
p1707
I0
sS'CONFIG_FB_CFB_FILLRECT'
p1708
S'y'
sS'CONFIG_SECURITYFS'
p1709
S'y'
sS'CONFIG_OSF_PARTITION'
p1710
S'y'
sS'CONFIG_CRYPTO_AKCIPHER'
p1711
S'y'
sS'CONFIG_MAY_USE_DEVLINK'
p1712
S'y'
sS'net.ipv6.conf.default.dad_transmits'
p1713
I1
sS'CONFIG_BNX2'
p1714
S'm'
sS'CONFIG_CMA_AREAS'
p1715
I7
sS'CONFIG_ARM_GIC_MAX_NR'
p1716
I1
sS'net.ipv4.conf.all.accept_redirects'
p1717
I1
sS'vm.max_map_count'
p1718
I65530
sS'CONFIG_HAVE_KVM_IRQFD'
p1719
S'y'
sS'net.ipv6.conf.default.enhanced_dad'
p1720
I1
sS'net.ipv4.conf.lo.arp_ignore'
p1721
I0
sS'CONFIG_HAVE_KVM_IRQCHIP'
p1722
S'y'
sS'CONFIG_PM_SLEEP_SMP'
p1723
S'y'
sS'kernel.sched_domain.cpu7.domain0.max_newidle_lb_cost'
p1724
I34408
sS'net.ipv4.conf.ens3.proxy_arp_pvlan'
p1725
I0
sS'kernel.sched_domain.cpu3.domain0.forkexec_idx'
p1726
I0
sS'CONFIG_DYNAMIC_FTRACE_WITH_REGS'
p1727
S'y'
sS'net.ipv4.conf.ens3.promote_secondaries'
p1728
I0
sS'CONFIG_VT_HW_CONSOLE_BINDING'
p1729
S'y'
sS'CONFIG_MIGRATION'
p1730
S'y'
sS'CONFIG_SYSVIPC_SYSCTL'
p1731
S'y'
sS'CONFIG_HAMRADIO'
p1732
S'y'
sS'CONFIG_KGDB'
p1733
S'y'
sS'CONFIG_EFI_ESRT'
p1734
S'y'
sS'CONFIG_RAS'
p1735
S'y'
sS'CONFIG_GENERIC_PINCONF'
p1736
S'y'
sS'kernel.sched_domain.cpu8.domain0.max_interval'
p1737
I24
sS'CONFIG_HIGH_RES_TIMERS'
p1738
S'y'
sS'CONFIG_PPP'
p1739
S'y'
sS'CONFIG_HAVE_GENERIC_GUP'
p1740
S'y'
sS'CONFIG_NET_VENDOR_HUAWEI'
p1741
S'y'
sS'CONFIG_ZLIB_INFLATE'
p1742
S'y'
sS'CONFIG_CORE_DUMP_DEFAULT_ELF_HEADERS'
p1743
S'y'
sS'CONFIG_POWER_AVS'
p1744
S'y'
sS'CONFIG_MFD_AAT2870_CORE'
p1745
S'y'
sS'CONFIG_QED'
p1746
S'm'
sS'CONFIG_LEGACY_PTY_COUNT'
p1747
I0
sS'CONFIG_GENERIC_CALIBRATE_DELAY'
p1748
S'y'
sS'net.ipv6.conf.default.force_tllao'
p1749
I0
sS'CONFIG_AGP_INTEL'
p1750
S'y'
sS'CONFIG_CRYPTO_CRC32C'
p1751
S'y'
sS'CONFIG_LOCK_SPIN_ON_OWNER'
p1752
S'y'
sS'CONFIG_CRYPTO_GHASH'
p1753
S'y'
sS'kernel.sched_domain.cpu0.domain0.max_interval'
p1754
I24
sS'net.ipv4.inet_peer_minttl'
p1755
I120
sS'net.core.netdev_budget'
p1756
I300
sS'kernel.shmall'
p1757
L18446744073692774399L
sS'CONFIG_ABX500_CORE'
p1758
S'y'
sS'CONFIG_ACPI_APEI_PCIEAER'
p1759
S'y'
sS'CONFIG_CRYPTO_MANAGER_DISABLE_TESTS'
p1760
S'y'
sS'CONFIG_GENERIC_BUG_RELATIVE_POINTERS'
p1761
S'y'
sS'CONFIG_TICK_ONESHOT'
p1762
S'y'
sS'CONFIG_WLAN_VENDOR_INTEL'
p1763
S'y'
sS'net.ipv6.conf.default.seg6_enabled'
p1764
I0
sS'net.ipv4.ip_nonlocal_bind'
p1765
I0
sS'CONFIG_EXT4_FS'
p1766
S'y'
sS'kernel.sched_domain.cpu1.domain0.newidle_idx'
p1767
I0
sS'net.ipv4.neigh.default.base_reachable_time_ms'
p1768
I30000
sS'CONFIG_ASYNC_PQ'
p1769
S'm'
sS'CONFIG_USELIB'
p1770
S'y'
sS'net.ipv4.route.redirect_silence'
p1771
I5120
sS'net.ipv6.conf.default.hop_limit'
p1772
I64
sS'CONFIG_X86_64_SMP'
p1773
S'y'
sS'CONFIG_PM_OPP'
p1774
S'y'
sS'kernel.sched_domain.cpu5.domain0.min_interval'
p1775
I12
sS'CONFIG_TCG_TIS_CORE'
p1776
S'y'
sS'net.ipv6.conf.all.accept_ra'
p1777
I1
sS'CONFIG_X86_64_ACPI_NUMA'
p1778
S'y'
sS'net.ipv4.conf.lo.arp_filter'
p1779
I0
sS'CONFIG_EFIVAR_FS'
p1780
S'y'
sS'CONFIG_SERIAL_8250_SHARE_IRQ'
p1781
S'y'
sS'kernel.sched_domain.cpu2.domain0.forkexec_idx'
p1782
I0
sS'net.ipv6.conf.all.router_solicitations'
p1783
S'-1'
p1784
sS'net.ipv4.udp_l3mdev_accept'
p1785
I0
sS'kernel.sched_domain.cpu1.domain0.imbalance_pct'
p1786
I125
sS'kernel.unprivileged_bpf_disabled'
p1787
I0
sS'CONFIG_FUSION_MAX_SGE'
p1788
I128
sS'CONFIG_HAS_IOPORT_MAP'
p1789
S'y'
sS'CONFIG_MFD_WM831X_SPI'
p1790
S'y'
sS'CONFIG_JUMP_LABEL'
p1791
S'y'
sS'CONFIG_INPUT_LEDS'
p1792
S'm'
sS'net.ipv4.tcp_app_win'
p1793
I31
sS'net.ipv4.cipso_cache_enable'
p1794
I1
sS'CONFIG_EVM_EXTRA_SMACK_XATTRS'
p1795
S'y'
sS'net.ipv6.conf.ens3.autoconf'
p1796
I1
sS'CONFIG_MEMORY'
p1797
S'y'
sS'kernel.numa_balancing_scan_delay_ms'
p1798
I1000
sS'CONFIG_KDB_DEFAULT_ENABLE'
p1799
S'0x1'
p1800
sS'fs.inotify.max_queued_events'
p1801
I16384
sS'CONFIG_SG_POOL'
p1802
S'y'
sS'CONFIG_CRYPTO_RSA'
p1803
S'y'
sS'net.ipv4.tcp_pacing_ca_ratio'
p1804
I120
sS'CONFIG_CPU_FREQ_GOV_POWERSAVE'
p1805
S'y'
sS'CONFIG_HAVE_BOOTMEM_INFO_NODE'
p1806
S'y'
sS'CONFIG_SPARSEMEM_ALLOC_MEM_MAP_TOGETHER'
p1807
S'y'
sS'CONFIG_ARCH_PHYS_ADDR_T_64BIT'
p1808
S'y'
sS'kernel.sched_domain.cpu8.domain0.wake_idx'
p1809
I0
sS'CONFIG_CPU_FREQ_GOV_USERSPACE'
p1810
S'y'
sS'CONFIG_HAVE_UNSTABLE_SCHED_CLOCK'
p1811
S'y'
sS'net.ipv4.igmp_link_local_mcast_reports'
p1812
I1
sS'CONFIG_MEM_SOFT_DIRTY'
p1813
S'y'
sS'CONFIG_MODULES_USE_ELF_RELA'
p1814
S'y'
sS'CONFIG_SECURITY_SMACK'
p1815
S'y'
sS'net.ipv6.anycast_src_echo_reply'
p1816
I0
sS'CONFIG_IO_DELAY_TYPE_UDELAY'
p1817
I2
sS'CONFIG_SGETMASK_SYSCALL'
p1818
S'y'
sS'CONFIG_BLK_DEV_DM_BUILTIN'
p1819
S'y'
sS'net.ipv4.conf.lo.tag'
p1820
I0
sS'CONFIG_SQUASHFS_FRAGMENT_CACHE_SIZE'
p1821
I3
sS'kernel.sched_domain.cpu3.domain0.idle_idx'
p1822
I1
sS'CONFIG_AUDIT'
p1823
S'y'
sS'CONFIG_UPROBE_EVENTS'
p1824
S'y'
sS'CONFIG_ARCH_SUPPORTS_DEBUG_PAGEALLOC'
p1825
S'y'
sS'CONFIG_X86_CMPXCHG64'
p1826
S'y'
sS'CONFIG_NET_FLOW_LIMIT'
p1827
S'y'
sS'CONFIG_ND_CLAIM'
p1828
S'y'
sS'CONFIG_TOUCHSCREEN_ELAN'
p1829
S'y'
sS'kernel.sched_domain.cpu4.domain0.newidle_idx'
p1830
I0
sS'CONFIG_CRYPTO_BLKCIPHER'
p1831
S'y'
sS'net.ipv6.conf.default.accept_ra_mtu'
p1832
I1
sS'fs.dir-notify-enable'
p1833
I1
sS'CONFIG_HAVE_HARDLOCKUP_DETECTOR_PERF'
p1834
S'y'
sS'net.ipv4.tcp_slow_start_after_idle'
p1835
I1
sS'kernel.nmi_watchdog'
p1836
I0
sS'CONFIG_HAVE_COPY_THREAD_TLS'
p1837
S'y'
sS'net.ipv6.route.gc_thresh'
p1838
I1024
sS'CONFIG_ARCH_RANDOM'
p1839
S'y'
sS'net.ipv6.conf.ens3.router_probe_interval'
p1840
I60
sS'CONFIG_X86_EXTENDED_PLATFORM'
p1841
S'y'
sS'CONFIG_PM_TRACE'
p1842
S'y'
sS'CONFIG_SYSCTL_EXCEPTION_TRACE'
p1843
S'y'
sS'CONFIG_X86_INTERNODE_CACHE_SHIFT'
p1844
I6
sS'CONFIG_HAVE_SYSCALL_TRACEPOINTS'
p1845
S'y'
sS'CONFIG_ARCH_SUPPORTS_MEMORY_FAILURE'
p1846
S'y'
sS'CONFIG_CRC32'
p1847
S'y'
sS'CONFIG_FUSION'
p1848
S'y'
sS'net.ipv4.conf.lo.accept_source_route'
p1849
I1
sS'net.ipv6.conf.ens3.suppress_frag_ndisc'
p1850
I1
sS'CONFIG_SWPHY'
p1851
S'y'
sS'CONFIG_FUTEX_PI'
p1852
S'y'
sS'CONFIG_HAVE_IOREMAP_PROT'
p1853
S'y'
sS'net.ipv6.conf.all.mc_forwarding'
p1854
I0
sS'vm.admin_reserve_kbytes'
p1855
I8192
sS'CONFIG_ASYNC_TX_DMA'
p1856
S'y'
sS'CONFIG_DW_DMAC_CORE'
p1857
S'y'
sS'CONFIG_RTC_NVMEM'
p1858
S'y'
sS'kernel.sched_domain.cpu6.domain0.newidle_idx'
p1859
I0
sS'kernel.sched_domain.cpu5.domain0.name'
p1860
S'DIE'
p1861
sS'net.ipv4.tcp_early_demux'
p1862
I1
sS'CONFIG_EXT4_FS_SECURITY'
p1863
S'y'
sS'kernel.sched_domain.cpu9.domain0.forkexec_idx'
p1864
I0
sS'net.ipv4.neigh.default.unres_qlen'
p1865
I101
sS'CONFIG_COMMON_CLK'
p1866
S'y'
sS'CONFIG_MFD_PALMAS'
p1867
S'y'
sS'CONFIG_AUXDISPLAY'
p1868
S'y'
sS'CONFIG_WLAN_VENDOR_ST'
p1869
S'y'
sS'kernel.printk_ratelimit'
p1870
I5
sS'net.ipv4.neigh.default.delay_first_probe_time'
p1871
I5
sS'CONFIG_SECURITY_SELINUX_BOOTPARAM_VALUE'
p1872
I0
sS'fs.lease-break-time'
p1873
I45
sS'CONFIG_SELECT_MEMORY_MODEL'
p1874
S'y'
sS'vm.dirty_bytes'
p1875
I0
sS'net.ipv6.conf.all.disable_policy'
p1876
I0
sS'CONFIG_KVM_GUEST'
p1877
S'y'
sS'net.ipv4.tcp_syn_retries'
p1878
I6
sS'kernel.shm_rmid_forced'
p1879
I0
sS'CONFIG_PERF_EVENTS_INTEL_UNCORE'
p1880
S'y'
sS'kernel.hung_task_check_count'
p1881
I4194304
sS'CONFIG_NET_VENDOR_I825XX'
p1882
S'y'
sS'CONFIG_X86_FAST_FEATURE_TESTS'
p1883
S'y'
sS'CONFIG_FB_NOTIFY'
p1884
S'y'
sS'CONFIG_UEVENT_HELPER_PATH'
p1885
S'""'
p1886
sS'CONFIG_CRYPTO_GHASH_CLMUL_NI_INTEL'
p1887
S'm'
sS'CONFIG_DEVFREQ_GOV_POWERSAVE'
p1888
S'y'
sS'net.ipv6.conf.ens3.accept_ra_from_local'
p1889
I0
sS'net.ipv6.conf.default.router_solicitation_interval'
p1890
I4
sS'net.ipv4.tcp_tso_win_divisor'
p1891
I3
sS'CONFIG_RELOCATABLE'
p1892
S'y'
sS'fs.pipe-max-size'
p1893
I1048576
sS'CONFIG_NO_HZ'
p1894
S'y'
sS'CONFIG_CHELSIO_T4_DCB'
p1895
S'y'
sS'CONFIG_RTC_SYSTOHC_DEVICE'
p1896
S'"rtc0"'
p1897
sS'CONFIG_DEFAULT_SECURITY_APPARMOR'
p1898
S'y'
sS'CONFIG_HAVE_KERNEL_BZIP2'
p1899
S'y'
sS'net.ipv6.conf.ens3.addr_gen_mode'
p1900
I0
sS'CONFIG_QED_SRIOV'
p1901
S'y'
sS'net.ipv4.route.gc_min_interval_ms'
p1902
I500
sS'CONFIG_IOMMU_HELPER'
p1903
S'y'
sS'CONFIG_WLAN_VENDOR_RSI'
p1904
S'y'
sS'CONFIG_VIRTIO_BLK'
p1905
S'y'
sS'CONFIG_HOTPLUG_PCI_PCIE'
p1906
S'y'
sS'net.ipv6.neigh.ens3.mcast_solicit'
p1907
I3
sS'CONFIG_GPIO_SX150X'
p1908
S'y'
sS'CONFIG_IP_MULTIPLE_TABLES'
p1909
S'y'
sS'CONFIG_THP_SWAP'
p1910
S'y'
sS'CONFIG_RFS_ACCEL'
p1911
S'y'
sS'fs.dentry-state'
p1912
S'135335\t101029\t45\t0\t0\t0'
p1913
sS'CONFIG_TRACEPOINTS'
p1914
S'y'
sS'CONFIG_IP6_NF_IPTABLES'
p1915
S'm'
sS'CONFIG_CRYPTO_AKCIPHER2'
p1916
S'y'
sS'CONFIG_ARCH_HAS_ADD_PAGES'
p1917
S'y'
sS'net.ipv6.conf.lo.dad_transmits'
p1918
I1
sS'CONFIG_SECURITY_APPARMOR_HASH_DEFAULT'
p1919
S'y'
sS'CONFIG_SMP'
p1920
S'y'
sS'CONFIG_NEED_PER_CPU_EMBED_FIRST_CHUNK'
p1921
S'y'
sS'kernel.sched_domain.cpu0.domain0.forkexec_idx'
p1922
I0
sS'net.ipv6.conf.default.accept_dad'
p1923
I1
sS'CONFIG_IKCONFIG'
p1924
S'm'
sS'CONFIG_BLK_CGROUP'
p1925
S'y'
sS'CONFIG_PATA_ACPI'
p1926
S'm'
sS'CONFIG_FUNCTION_PROFILER'
p1927
S'y'
sS'CONFIG_ISCSI_TCP'
p1928
S'm'
sS'CONFIG_HAVE_DEBUG_STACKOVERFLOW'
p1929
S'y'
sS'net.ipv6.neigh.default.gc_stale_time'
p1930
I60
sS'CONFIG_TCP_MD5SIG'
p1931
S'y'
sS'net.ipv4.neigh.ens3.unres_qlen'
p1932
I101
sS'CONFIG_MICROCODE'
p1933
S'y'
sS'CONFIG_HAVE_DEBUG_KMEMLEAK'
p1934
S'y'
sS'CONFIG_TUN'
p1935
S'y'
sS'net.ipv6.conf.lo.autoconf'
p1936
I1
sS'net.ipv4.tcp_low_latency'
p1937
I0
sS'net.ipv6.flowlabel_state_ranges'
p1938
I0
sS'CONFIG_VIRTIO'
p1939
S'y'
sS'kernel.randomize_va_space'
p1940
I2
sS'vm.legacy_va_layout'
p1941
I0
sS'CONFIG_PARAVIRT'
p1942
S'y'
sS'CONFIG_XZ_DEC_BCJ'
p1943
S'y'
sS'net.ipv4.icmp_echo_ignore_all'
p1944
I0
sS'net.ipv4.ip_dynaddr'
p1945
I0
sS'CONFIG_SYSFS'
p1946
S'y'
sS'dev.cdrom.autoeject'
p1947
I0
sS'CONFIG_PROFILING'
p1948
S'y'
sS'CONFIG_PINCONF'
p1949
S'y'
sS'CONFIG_THREAD_INFO_IN_TASK'
p1950
S'y'
sS'CONFIG_NET_VENDOR_INTEL'
p1951
S'y'
sS'CONFIG_TASKSTATS'
p1952
S'y'
sS'vm.memory_failure_early_kill'
p1953
I0
sS'net.ipv6.conf.default.use_tempaddr'
p1954
I2
sS'CONFIG_DEVTMPFS'
p1955
S'y'
sS'CONFIG_CFS_BANDWIDTH'
p1956
S'y'
sS'CONFIG_INLINE_READ_UNLOCK_IRQ'
p1957
S'y'
sS'net.ipv6.route.gc_timeout'
p1958
I60
sS'CONFIG_HAVE_MOD_ARCH_SPECIFIC'
p1959
S'y'
sS'net.ipv6.neigh.ens3.base_reachable_time_ms'
p1960
I30000
sS'CONFIG_FB_MODE_HELPERS'
p1961
S'y'
sS'CONFIG_USB_OHCI_LITTLE_ENDIAN'
p1962
S'y'
sS'net.ipv4.conf.default.ignore_routes_with_linkdown'
p1963
I0
sS'net.ipv6.flowlabel_consistency'
p1964
I1
sS'net.ipv4.icmp_echo_ignore_broadcasts'
p1965
I1
sS'CONFIG_IRQ_WORK'
p1966
S'y'
sS'CONFIG_TCG_TIS'
p1967
S'y'
sS'CONFIG_XZ_DEC_POWERPC'
p1968
S'y'
sS'CONFIG_HZ_250'
p1969
S'y'
sS'CONFIG_STACKTRACE'
p1970
S'y'
sS'CONFIG_ACPI_PROCESSOR'
p1971
S'y'
sS'kernel.pid_max'
p1972
I253952
sS'CONFIG_REGMAP_I2C'
p1973
S'y'
sS'net.ipv6.neigh.ens3.locktime'
p1974
I0
sS'net.ipv4.conf.all.arp_filter'
p1975
I0
sS'net.ipv4.route.redirect_load'
p1976
I5
sS'CONFIG_MFD_MAX8998'
p1977
S'y'
sS'CONFIG_MFD_MAX8997'
p1978
S'y'
sS'CONFIG_HAVE_ACPI_APEI'
p1979
S'y'
sS'CONFIG_DDR'
p1980
S'y'
sS'CONFIG_FONT_SUPPORT'
p1981
S'y'
sS'kernel.sched_domain.cpu6.domain0.imbalance_pct'
p1982
I125
sS'CONFIG_X86_PMEM_LEGACY_DEVICE'
p1983
S'y'
sS'CONFIG_MODULE_SIG_KEY'
p1984
S'"certs/signing_key.pem"'
p1985
sS'CONFIG_ASSOCIATIVE_ARRAY'
p1986
S'y'
sS'CONFIG_EZX_PCAP'
p1987
S'y'
sS'CONFIG_SCSI_MOD'
p1988
S'y'
sS'CONFIG_CRYPTO_HASH_INFO'
p1989
S'y'
sS'net.ipv4.conf.all.shared_media'
p1990
I1
sS'CONFIG_IOMMU_API'
p1991
S'y'
sS'CONFIG_INLINE_SPIN_UNLOCK_IRQ'
p1992
S'y'
sS'CONFIG_BLOCK'
p1993
S'y'
sS'CONFIG_MEMORY_FAILURE'
p1994
S'y'
sS'CONFIG_NET_VENDOR_EZCHIP'
p1995
S'y'
sS'kernel.sched_domain.cpu1.domain0.max_interval'
p1996
I24
sS'CONFIG_CPU_RMAP'
p1997
S'y'
sS'net.netfilter.nf_log.11'
p1998
S'NONE'
p1999
sS'net.netfilter.nf_log.10'
p2000
S'NONE'
p2001
sS'net.netfilter.nf_log.12'
p2002
S'NONE'
p2003
sS'net.ipv6.neigh.default.unres_qlen'
p2004
I101
sS'net.ipv6.conf.all.drop_unicast_in_l2_multicast'
p2005
I0
sS'CONFIG_X86_INTEL_LPSS'
p2006
S'y'
sS'net.core.rmem_max'
p2007
I212992
sS'CONFIG_CRYPTO_DRBG_HASH'
p2008
S'y'
sS'CONFIG_SECURITY_PATH'
p2009
S'y'
sS'CONFIG_THERMAL_EMERGENCY_POWEROFF_DELAY_MS'
p2010
I0
sS'CONFIG_DEBUG_FS'
p2011
S'y'
sS'CONFIG_STACK_TRACER'
p2012
S'y'
sS'net.core.dev_weight'
p2013
I64
sS'CONFIG_HAVE_ALIGNED_STRUCT_PAGE'
p2014
S'y'
sS'CONFIG_NET_VENDOR_SYNOPSYS'
p2015
S'y'
sS'CONFIG_NET_FC'
p2016
S'y'
sS'CONFIG_HAVE_CC_STACKPROTECTOR'
p2017
S'y'
sS'CONFIG_NET_VENDOR_MARVELL'
p2018
S'y'
sS'CONFIG_BLK_DEV_LOOP_MIN_COUNT'
p2019
I8
sS'net.ipv6.conf.ens3.proxy_ndp'
p2020
I0
sS'CONFIG_DEFAULT_TCP_CONG'
p2021
S'"cubic"'
p2022
sS'CONFIG_CRYPTO_CBC'
p2023
S'y'
sS'CONFIG_PGTABLE_MAPPING'
p2024
S'y'
sS'CONFIG_NET_VENDOR_NATSEMI'
p2025
S'y'
sS'CONFIG_HAVE_EBPF_JIT'
p2026
S'y'
sS'kernel.shmmax'
p2027
L18446744073692774399L
sS'net.ipv6.conf.all.accept_ra_min_hop_limit'
p2028
I1
sS'CONFIG_PARAVIRT_SPINLOCKS'
p2029
S'y'
sS'CONFIG_FB_SIMPLE'
p2030
S'y'
sS'net.ipv6.neigh.default.proxy_delay'
p2031
I80
sS'CONFIG_QUEUED_RWLOCKS'
p2032
S'y'
sS'CONFIG_USB_DWC2'
p2033
S'y'
sS'CONFIG_RAPIDIO_DMA_ENGINE'
p2034
S'y'
sS'CONFIG_VHOST_NET'
p2035
S'm'
sS'net.ipv4.conf.ens3.forwarding'
p2036
I0
sS'CONFIG_MFD_SYSCON'
p2037
S'y'
sS'kernel.sched_domain.cpu6.domain0.cache_nice_tries'
p2038
I1
sS'net.ipv6.conf.default.autoconf'
p2039
I1
sS'fs.pipe-user-pages-soft'
p2040
I16384
sS'CONFIG_CRYPTO_SIMD'
p2041
S'm'
sS'CONFIG_SND_PCM_TIMER'
p2042
S'y'
sS'CONFIG_X86_INTEL_PSTATE'
p2043
S'y'
sS'net.ipv4.tcp_mtu_probing'
p2044
I0
sS'CONFIG_MFD_TWL4030_AUDIO'
p2045
S'y'
sS'CONFIG_CGROUP_PERF'
p2046
S'y'
sS'CONFIG_WATCHDOG_HANDLE_BOOT_ENABLED'
p2047
S'y'
sS'CONFIG_SOLARIS_X86_PARTITION'
p2048
S'y'
sS'CONFIG_MFD_SMSC'
p2049
S'y'
sS'kernel.sched_domain.cpu11.domain0.idle_idx'
p2050
I1
sS'CONFIG_NEED_SG_DMA_LENGTH'
p2051
S'y'
sS'vm.hugepages_treat_as_movable'
p2052
I0
sS'CONFIG_ARCH_HAS_DEVMEM_IS_ALLOWED'
p2053
S'y'
sS'CONFIG_SND'
p2054
S'm'
sS'CONFIG_LZO_DECOMPRESS'
p2055
S'y'
sS'kernel.ftrace_enabled'
p2056
I1
sS'CONFIG_CRYPTO_RNG'
p2057
S'y'
sS'CONFIG_MODULES_TREE_LOOKUP'
p2058
S'y'
sS'CONFIG_ECRYPT_FS_MESSAGING'
p2059
S'y'
sS'CONFIG_RTC_HCTOSYS_DEVICE'
p2060
S'"rtc0"'
p2061
sS'net.ipv4.conf.ens3.src_valid_mark'
p2062
I0
sS'CONFIG_EFI_VARS'
p2063
S'y'
sS'kernel.numa_balancing_scan_size_mb'
p2064
I256
sS'CONFIG_KEXEC_FILE'
p2065
S'y'
sS'CONFIG_I2C_BOARDINFO'
p2066
S'y'
sS'CONFIG_SECCOMP'
p2067
S'y'
sS'CONFIG_CRYPTO_RNG2'
p2068
S'y'
sS'kernel.sched_domain.cpu10.domain0.newidle_idx'
p2069
I0
sS'CONFIG_ARCH_MMAP_RND_BITS'
p2070
I28
sS'CONFIG_PMIC_DA9052'
p2071
S'y'
sS'CONFIG_KGDB_SERIAL_CONSOLE'
p2072
S'y'
sS'CONFIG_CPU_FREQ_GOV_ATTR_SET'
p2073
S'y'
sS'CONFIG_IMA_DEFAULT_TEMPLATE'
p2074
S'"ima-ng"'
p2075
sS'CONFIG_BOOTPARAM_HUNG_TASK_PANIC_VALUE'
p2076
I0
sS'kernel.sched_domain.cpu6.domain0.busy_idx'
p2077
I2
sS'CONFIG_CRYPTO_SHA1'
p2078
S'y'
sS'CONFIG_MMIOTRACE'
p2079
S'y'
sS'CONFIG_HW_RANDOM'
p2080
S'y'
sS'CONFIG_ARCH_HAS_CPU_RELAX'
p2081
S'y'
sS'net.ipv6.conf.all.accept_source_route'
p2082
I0
sS'CONFIG_PARAVIRT_TIME_ACCOUNTING'
p2083
S'y'
sS'kernel.sched_domain.cpu7.domain0.name'
p2084
S'DIE'
p2085
sS'net.ipv4.neigh.ens3.delay_first_probe_time'
p2086
I5
sS'net.ipv4.neigh.ens3.retrans_time_ms'
p2087
I1000
sS'CONFIG_KALLSYMS'
p2088
S'y'
sS'CONFIG_RFKILL_INPUT'
p2089
S'y'
sS'net.ipv4.route.gc_timeout'
p2090
I300
sS'CONFIG_NET_VENDOR_SAMSUNG'
p2091
S'y'
sS'CONFIG_SPARSEMEM'
p2092
S'y'
sS'CONFIG_ARCH_HAS_ELF_RANDOMIZE'
p2093
S'y'
sS'CONFIG_HAVE_DMA_API_DEBUG'
p2094
S'y'
sS'CONFIG_ACPI_BUTTON'
p2095
S'y'
sS'CONFIG_TTY'
p2096
S'y'
sS'CONFIG_X86_BOOTPARAM_MEMORY_CORRUPTION_CHECK'
p2097
S'y'
sS'CONFIG_XZ_DEC'
p2098
S'y'
sS'CONFIG_X86_PM_TIMER'
p2099
S'y'
sS'net.ipv4.conf.ens3.arp_notify'
p2100
I0
sS'CONFIG_SERIAL_8250_LPSS'
p2101
S'y'
sS'net.ipv4.neigh.lo.anycast_delay'
p2102
I100
sS'CONFIG_RPS'
p2103
S'y'
sS'CONFIG_AUDIT_WATCH'
p2104
S'y'
sS'CONFIG_KVM_GENERIC_DIRTYLOG_READ_PROTECT'
p2105
S'y'
sS'CONFIG_DMAR_TABLE'
p2106
S'y'
sS'CONFIG_GENERIC_SMP_IDLE_THREAD'
p2107
S'y'
sS'net.ipv4.conf.ens3.send_redirects'
p2108
I1
sS'CONFIG_FB_VESA'
p2109
S'y'
sS'CONFIG_PREEMPT_VOLUNTARY'
p2110
S'y'
sS'CONFIG_DEVMEM'
p2111
S'y'
sS'CONFIG_FUSE_FS'
p2112
S'y'
sS'CONFIG_USER_RETURN_NOTIFIER'
p2113
S'y'
sS'kernel.sched_domain.cpu11.domain0.imbalance_pct'
p2114
I125
sS'net.ipv4.tcp_max_reordering'
p2115
I300
sS'net.ipv4.neigh.default.gc_interval'
p2116
I30
sS'kernel.sg-big-buff'
p2117
I32768
sS'net.ipv6.route.gc_elasticity'
p2118
I9
sS'CONFIG_ARCH_SPARSEMEM_ENABLE'
p2119
S'y'
sS'CONFIG_SCHED_TRACER'
p2120
S'y'
sS'CONFIG_SQUASHFS_DECOMP_SINGLE'
p2121
S'y'
sS'CONFIG_X86_IO_APIC'
p2122
S'y'
sS'net.ipv6.conf.default.temp_valid_lft'
p2123
I604800
sS'CONFIG_ZONE_DMA32'
p2124
S'y'
sS'net.ipv6.neigh.default.app_solicit'
p2125
I0
sS'net.ipv4.tcp_timestamps'
p2126
I1
sS'kernel.sched_domain.cpu5.domain0.busy_idx'
p2127
I2
sS'CONFIG_EDAC'
p2128
S'y'
sS'CONFIG_GENERIC_CPU_AUTOPROBE'
p2129
S'y'
sS'CONFIG_NR_CPUS'
p2130
I512
sS'CONFIG_DOUBLEFAULT'
p2131
S'y'
sS'user.max_user_namespaces'
p2132
I257513
sS'CONFIG_BIG_KEYS'
p2133
S'y'
sS'kernel.sched_domain.cpu4.domain0.flags'
p2134
I4143
sS'kernel.keys.root_maxkeys'
p2135
I1000000
sS'CONFIG_POSIX_MQUEUE_SYSCTL'
p2136
S'y'
sS'kernel.sched_domain.cpu4.domain0.min_interval'
p2137
I12
sS'net.ipv6.conf.ens3.disable_policy'
p2138
I0
sS'net.ipv6.neigh.lo.delay_first_probe_time'
p2139
I5
sS'CONFIG_AMD_NUMA'
p2140
S'y'
sS'net.core.somaxconn'
p2141
I128
sS'CONFIG_AMIGA_PARTITION'
p2142
S'y'
sS'CONFIG_CONSOLE_LOGLEVEL_DEFAULT'
p2143
I7
sS'CONFIG_SQUASHFS_LZ4'
p2144
S'y'
sS'net.ipv6.conf.ens3.accept_ra_pinfo'
p2145
I1
sS'CONFIG_SCSI_CONSTANTS'
p2146
S'y'
sS'CONFIG_FB_IMSTT'
p2147
S'y'
sS'CONFIG_CRYPTO_AES'
p2148
S'y'
sS'CONFIG_RTC_INTF_SYSFS'
p2149
S'y'
sS'CONFIG_SECURITY_SELINUX_DEVELOP'
p2150
S'y'
sS'net.ipv4.conf.lo.mc_forwarding'
p2151
I0
sS'net.ipv4.tcp_keepalive_probes'
p2152
I9
sS'CONFIG_TREE_RCU'
p2153
S'y'
sS'vm.hugetlb_shm_group'
p2154
I0
sS'CONFIG_X86_TSC'
p2155
S'y'
sS'CONFIG_SECURITY_SELINUX_BOOTPARAM'
p2156
S'y'
sS'CONFIG_ACPI_PCI_SLOT'
p2157
S'y'
sS'CONFIG_X86_MCE_AMD'
p2158
S'y'
sg3
(lp2159
S'HostInfo'
p2160
ag6
aS'object'
p2161
asS'kernel.random.urandom_min_reseed_secs'
p2162
I60
sS'CONFIG_LIBNVDIMM'
p2163
S'y'
sS'kernel.random.read_wakeup_threshold'
p2164
I64
sS'kernel.sched_domain.cpu1.domain0.wake_idx'
p2165
I0
sS'CONFIG_RESET_CONTROLLER'
p2166
S'y'
sS'net.ipv4.tcp_no_metrics_save'
p2167
I0
sS'CONFIG_I2C_HELPER_AUTO'
p2168
S'y'
sS'CONFIG_JBD2'
p2169
S'y'
sS'kernel.sched_domain.cpu1.domain0.forkexec_idx'
p2170
I0
sS'CONFIG_PARTITION_ADVANCED'
p2171
S'y'
sS'CONFIG_EFI_STUB'
p2172
S'y'
sS'net.ipv6.neigh.ens3.mcast_resolicit'
p2173
I0
sS'net.ipv4.conf.all.arp_announce'
p2174
I0
sS'CONFIG_CRYPTO_AEAD2'
p2175
S'y'
sS'CONFIG_RTC_INTF_DEV'
p2176
S'y'
sS'CONFIG_EXT4_FS_POSIX_ACL'
p2177
S'y'
sS'CONFIG_SRCU'
p2178
S'y'
sS'CONFIG_SND_VMASTER'
p2179
S'y'
sS'CONFIG_INPUT_EVDEV'
p2180
S'y'
sS'net.ipv4.conf.all.arp_ignore'
p2181
I0
sS'CONFIG_GPIO_TPS6586X'
p2182
S'y'
sS'CONFIG_SECCOMP_FILTER'
p2183
S'y'
sS'kernel.sched_domain.cpu3.domain0.flags'
p2184
I4143
sS'CONFIG_SERIO'
p2185
S'y'
sS'net.ipv6.conf.ens3.accept_ra_min_hop_limit'
p2186
I1
sS'CONFIG_ARCH_HAS_CACHE_LINE_SIZE'
p2187
S'y'
sS'CONFIG_SERIAL_8250_RUNTIME_UARTS'
p2188
I32
sS'CONFIG_MMU_NOTIFIER'
p2189
S'y'
sS'CONFIG_HW_CONSOLE'
p2190
S'y'
sS'CONFIG_SQUASHFS_LZO'
p2191
S'y'
sS'net.ipv4.tcp_stdurg'
p2192
I0
sS'CONFIG_SCSI_DH'
p2193
S'y'
sS'CONFIG_USB_ARCH_HAS_HCD'
p2194
S'y'
sS'kernel.unknown_nmi_panic'
p2195
I0
sS'CONFIG_NO_HZ_COMMON'
p2196
S'y'
sS'net.ipv4.conf.all.route_localnet'
p2197
I0
sS'kernel.seccomp.actions_logged'
p2198
S'kill_process kill_thread trap errno trace log'
p2199
sS'net.ipv6.conf.all.force_mld_version'
p2200
I0
sS'CONFIG_MSDOS_PARTITION'
p2201
S'y'
sS'vm.overcommit_kbytes'
p2202
I0
sS'net.ipv4.conf.all.drop_unicast_in_l2_multicast'
p2203
I0
sS'CONFIG_POWER_SUPPLY'
p2204
S'y'
sS'kernel.sched_domain.cpu2.domain0.cache_nice_tries'
p2205
I1
sS'CONFIG_DECOMPRESS_LZMA'
p2206
S'y'
sS'net.ipv6.conf.all.ndisc_notify'
p2207
I0
sS'kernel.sched_domain.cpu7.domain0.max_interval'
p2208
I24
sS'CONFIG_CALGARY_IOMMU'
p2209
S'y'
sS'net.ipv4.neigh.lo.unres_qlen'
p2210
I101
sS'CONFIG_IO_DELAY_TYPE_0X80'
p2211
I0
sS'CONFIG_SND_JACK'
p2212
S'y'
sS'CONFIG_DYNAMIC_DEBUG'
p2213
S'y'
sS'kernel.printk_ratelimit_burst'
p2214
I10
sS'CONFIG_CRYPTO_SEQIV'
p2215
S'y'
sS'CONFIG_NET_VENDOR_OKI'
p2216
S'y'
sS'kernel.sched_domain.cpu3.domain0.busy_factor'
p2217
I32
sS'fs.nr_open'
p2218
I1048576
sS'kernel.sched_domain.cpu5.domain0.wake_idx'
p2219
I0
sS'net.ipv6.conf.lo.accept_ra_mtu'
p2220
I1
sS'CONFIG_RAID6_PQ'
p2221
S'm'
sS'CONFIG_CFQ_GROUP_IOSCHED'
p2222
S'y'
sS'CONFIG_PARAVIRT_CLOCK'
p2223
S'y'
sS'kernel.sched_domain.cpu10.domain0.idle_idx'
p2224
I1
sS'net.ipv4.conf.lo.shared_media'
p2225
I1
sS'CONFIG_NLS'
p2226
S'y'
sS'CONFIG_SECURITY_TOMOYO'
p2227
S'y'
sS'CONFIG_ARCH_HAS_STRICT_MODULE_RWX'
p2228
S'y'
sS'CONFIG_SND_OSSEMUL'
p2229
S'y'
sS'CONFIG_CGROUP_FREEZER'
p2230
S'y'
sS'CONFIG_NET_VENDOR_CHELSIO'
p2231
S'y'
sS'CONFIG_FRAMEBUFFER_CONSOLE_DETECT_PRIMARY'
p2232
S'y'
sS'CONFIG_ASN1'
p2233
S'y'
sS'CONFIG_CRC16'
p2234
S'y'
sS'CONFIG_PCIEASPM'
p2235
S'y'
sS'CONFIG_LDM_PARTITION'
p2236
S'y'
sS'CONFIG_CROSS_MEMORY_ATTACH'
p2237
S'y'
sS'CONFIG_COMPACTION'
p2238
S'y'
sS'kernel.io_delay_type'
p2239
I1
sS'CONFIG_HAVE_KRETPROBES'
p2240
S'y'
sS'CONFIG_CPU_IDLE_GOV_LADDER'
p2241
S'y'
sS'CONFIG_UNISYSSPAR'
p2242
S'y'
sS'net.ipv6.neigh.lo.locktime'
p2243
I0
sS'CONFIG_CPU_FREQ_GOV_ONDEMAND'
p2244
S'y'
sS'CONFIG_CROSS_COMPILE'
p2245
S'""'
p2246
sS'CONFIG_ARCH_HAS_SET_MEMORY'
p2247
S'y'
sS'CONFIG_SYSCTL_SYSCALL'
p2248
S'y'
sS'net.ipv4.neigh.ens3.mcast_solicit'
p2249
I3
sS'CONFIG_PRINTK_SAFE_LOG_BUF_SHIFT'
p2250
I13
sS'CONFIG_NET_RX_BUSY_POLL'
p2251
S'y'
sS'CONFIG_GENERIC_TIME_VSYSCALL'
p2252
S'y'
sS'CONFIG_HARDLOCKUP_DETECTOR_PERF'
p2253
S'y'
sS'CONFIG_USB_PHY'
p2254
S'y'
sS'CONFIG_FANOTIFY_ACCESS_PERMISSIONS'
p2255
S'y'
sS'CONFIG_RCU_NEED_SEGCBLIST'
p2256
S'y'
sS'CONFIG_MULTIUSER'
p2257
S'y'
sS'net.ipv4.tcp_wmem'
p2258
S'4096\t16384\t4194304'
p2259
sS'kernel.tainted'
p2260
I0
sS'CONFIG_VMAP_STACK'
p2261
S'y'
sS'kernel.sched_nr_migrate'
p2262
I32
sS'CONFIG_HAVE_KVM_MSI'
p2263
S'y'
sS'CONFIG_MFD_TPS65912_SPI'
p2264
S'y'
sS'kernel.keys.root_maxbytes'
p2265
I25000000
sS'CONFIG_NET_VENDOR_BROADCOM'
p2266
S'y'
sS'CONFIG_PCIEAER'
p2267
S'y'
sS'net.ipv4.conf.ens3.bootp_relay'
p2268
I0
sS'CONFIG_MICROCODE_OLD_INTERFACE'
p2269
S'y'
sS'kernel.cap_last_cap'
p2270
I37
sS'CONFIG_ARCH_USE_QUEUED_RWLOCKS'
p2271
S'y'
sS'CONFIG_ARCH_MIGHT_HAVE_PC_PARPORT'
p2272
S'y'
sS'net.ipv4.tcp_available_congestion_control'
p2273
S'cubic reno'
p2274
sS'kernel.sched_domain.cpu8.domain0.newidle_idx'
p2275
I0
sS'CONFIG_CRYPTO_CRC32C_INTEL'
p2276
S'y'
sS'CONFIG_ACPI_BATTERY'
p2277
S'y'
sS'CONFIG_ACPI_PROCESSOR_IDLE'
p2278
S'y'
sS'net.ipv6.conf.lo.mc_forwarding'
p2279
I0
sS'kernel.printk'
p2280
S'4\t4\t1\t7'
p2281
sS'CONFIG_PID_NS'
p2282
S'y'
sS'CONFIG_NETFILTER'
p2283
S'y'
sS'user.max_inotify_instances'
p2284
I1024
sS'CONFIG_ACPI_AC'
p2285
S'y'
sS'CONFIG_VM_EVENT_COUNTERS'
p2286
S'y'
sS'CONFIG_BINFMT_SCRIPT'
p2287
S'y'
sS'CONFIG_TMPFS_POSIX_ACL'
p2288
S'y'
sS'CONFIG_NLATTR'
p2289
S'y'
sS'CONFIG_DEFAULT_DEADLINE'
p2290
S'y'
sS'CONFIG_NET_VENDOR_QUALCOMM'
p2291
S'y'
sS'net.ipv4.igmp_max_memberships'
p2292
I20
sS'CONFIG_X86_REROUTE_FOR_BROKEN_BOOT_IRQS'
p2293
S'y'
sS'net.ipv6.conf.lo.router_solicitation_interval'
p2294
I4
sS'CONFIG_MODULE_SIG_HASH'
p2295
S'"sha512"'
p2296
sS'net.ipv6.conf.lo.accept_ra_defrtr'
p2297
I1
sS'CONFIG_SOCK_CGROUP_DATA'
p2298
S'y'
sS'debug.exception-trace'
p2299
I1
sS'CONFIG_ACPI_NUMA'
p2300
S'y'
sS'CONFIG_SECURITY_SELINUX_AVC_STATS'
p2301
S'y'
sS'CONFIG_IMA_MEASURE_PCR_IDX'
p2302
I10
sS'CONFIG_X86'
p2303
S'y'
sS'CONFIG_CRC_T10DIF'
p2304
S'y'
sS'net.ipv6.conf.all.autoconf'
p2305
I1
sS'CONFIG_NET_VENDOR_DLINK'
p2306
S'y'
sS'net.ipv6.conf.all.router_solicitation_delay'
p2307
I1
sS'CONFIG_EARLY_PRINTK_DBGP'
p2308
S'y'
sS'CONFIG_CC_OPTIMIZE_FOR_PERFORMANCE'
p2309
S'y'
sS'CONFIG_TREE_SRCU'
p2310
S'y'
sS'CONFIG_PCI_IOV'
p2311
S'y'
sS'CONFIG_ATA_PIIX'
p2312
S'y'
sS'CONFIG_CRYPTO_MD5'
p2313
S'y'
sS'kernel.panic_on_warn'
p2314
I0
sS'kernel.sched_domain.cpu1.domain0.max_newidle_lb_cost'
p2315
I12386
sS'CONFIG_SND_HDA_INPUT_BEEP'
p2316
S'y'
sS'fs.epoll.max_user_watches'
p2317
I13501132
sS'CONFIG_SERIAL_8250'
p2318
S'y'
sS'net.ipv6.conf.default.temp_prefered_lft'
p2319
I86400
sS'CONFIG_FB_EFI'
p2320
S'y'
sS'kernel.pty.nr'
p2321
I0
sS'net.ipv6.conf.lo.accept_dad'
p2322
S'-1'
p2323
sS'net.ipv6.conf.ens3.router_solicitation_delay'
p2324
I1
sS'net.ipv6.conf.lo.mldv1_unsolicited_report_interval'
p2325
I10000
sS'net.ipv6.conf.ens3.router_solicitation_max_interval'
p2326
I3600
sS'kernel.sched_domain.cpu8.domain0.imbalance_pct'
p2327
I125
sS'net.ipv4.tcp_base_mss'
p2328
I1024
sS'CONFIG_HAVE_PERF_EVENTS_NMI'
p2329
S'y'
sS'CONFIG_ASYMMETRIC_KEY_TYPE'
p2330
S'y'
sS'CONFIG_MFD_WM8350'
p2331
S'y'
sS'kernel.sched_domain.cpu2.domain0.name'
p2332
S'DIE'
p2333
sS'kernel.sched_domain.cpu9.domain0.max_interval'
p2334
I24
sS'CONFIG_FS_DAX'
p2335
S'y'
sS'CONFIG_IP6_NF_FILTER'
p2336
S'm'
sS'CONFIG_MODULE_SRCVERSION_ALL'
p2337
S'y'
sS'CONFIG_COREDUMP'
p2338
S'y'
sS'CONFIG_MFD_TPS65912'
p2339
S'y'
sS'CONFIG_GENERIC_ALLOCATOR'
p2340
S'y'
sS'net.ipv6.neigh.lo.ucast_solicit'
p2341
I3
sS'CONFIG_MTRR_SANITIZER_ENABLE_DEFAULT'
p2342
I1
sS'net.ipv6.conf.lo.drop_unicast_in_l2_multicast'
p2343
I0
sS'net.ipv6.conf.default.router_solicitation_delay'
p2344
I1
sS'CONFIG_PCI_LOCKLESS_CONFIG'
p2345
S'y'
sS'net.ipv6.neigh.ens3.anycast_delay'
p2346
I100
sS'net.ipv4.conf.lo.drop_gratuitous_arp'
p2347
I0
sS'net.ipv6.conf.ens3.mldv1_unsolicited_report_interval'
p2348
I10000
sS'net.ipv4.conf.lo.ignore_routes_with_linkdown'
p2349
I0
sS'CONFIG_NET_CORE'
p2350
S'y'
sS'kernel.panic_on_unrecovered_nmi'
p2351
I0
sS'CONFIG_HAVE_MEMORY_PRESENT'
p2352
S'y'
sS'net.ipv6.conf.default.keep_addr_on_down'
p2353
I0
sS'kernel.sched_domain.cpu4.domain0.max_newidle_lb_cost'
p2354
I34809
sS'CONFIG_X86_FEATURE_NAMES'
p2355
S'y'
sS'CONFIG_NOP_TRACER'
p2356
S'y'
sS'CONFIG_FUNCTION_TRACER'
p2357
S'y'
sS'CONFIG_CPU_FREQ_STAT'
p2358
S'y'
sS'net.ipv4.neigh.ens3.locktime'
p2359
I100
sS'net.ipv6.neigh.lo.unres_qlen_bytes'
p2360
I212992
sS'CONFIG_POSIX_TIMERS'
p2361
S'y'
sS'CONFIG_LWTUNNEL_BPF'
p2362
S'y'
sS'net.ipv4.conf.default.disable_xfrm'
p2363
I0
sS'CONFIG_PHYSICAL_START'
p2364
S'0x1000000'
p2365
sS'CONFIG_COMPAT_OLD_SIGACTION'
p2366
S'y'
sS'net.ipv4.tcp_keepalive_time'
p2367
I7200
sS'net.ipv6.conf.ens3.max_addresses'
p2368
I16
sS'CONFIG_EXTCON'
p2369
S'y'
sS'CONFIG_NET_VENDOR_AMD'
p2370
S'y'
sS'net.ipv4.conf.all.accept_source_route'
p2371
I0
sS'CONFIG_X86_PAT'
p2372
S'y'
sS'CONFIG_GENERIC_HWEIGHT'
p2373
S'y'
sS'net.ipv6.conf.default.ndisc_notify'
p2374
I0
sS'CONFIG_X86_CHECK_BIOS_CORRUPTION'
p2375
S'y'
sS'CONFIG_ARCH_HAS_SG_CHAIN'
p2376
S'y'
sS'CONFIG_ARCH_SUPPORTS_ATOMIC_RMW'
p2377
S'y'
sS'net.ipv4.conf.ens3.shared_media'
p2378
I1
sS'CONFIG_RT_MUTEXES'
p2379
S'y'
sS'net.core.rmem_default'
p2380
I212992
sS'vm.min_unmapped_ratio'
p2381
I1
sS'CONFIG_RFKILL_LEDS'
p2382
S'y'
sS'CONFIG_ARCH_USES_HIGH_VMA_FLAGS'
p2383
S'y'
sS'net.ipv4.conf.lo.drop_unicast_in_l2_multicast'
p2384
I0
sS'CONFIG_THIN_ARCHIVES'
p2385
S'y'
sS'net.ipv6.conf.all.regen_max_retry'
p2386
I3
sS'net.ipv6.conf.all.accept_ra_defrtr'
p2387
I1
sS'net.ipv4.conf.all.arp_notify'
p2388
I0
sS'CONFIG_VIRTIO_PCI'
p2389
S'y'
sS'kernel.kexec_load_disabled'
p2390
I0
sS'CONFIG_X86_64'
p2391
S'y'
sS'CONFIG_CRYPTO_MANAGER2'
p2392
S'y'
sS'CONFIG_NUMA'
p2393
S'y'
sS'fs.file-nr'
p2394
S'847\t0\t6576659'
p2395
sS'CONFIG_OPROFILE_NMI_TIMER'
p2396
S'y'
sS'fs.quota.cache_hits'
p2397
I0
sS'CONFIG_X86_SMAP'
p2398
S'y'
sS'CONFIG_PANIC_TIMEOUT'
p2399
I0
sS'CONFIG_SLUB_CPU_PARTIAL'
p2400
S'y'
sS'kernel.sched_domain.cpu10.domain0.max_interval'
p2401
I24
sS'CONFIG_HAVE_MEMBLOCK_NODE_MAP'
p2402
S'y'
sS'CONFIG_SND_HDA_RECONFIG'
p2403
S'y'
sS'CONFIG_REGMAP_SPI'
p2404
S'y'
sS'CONFIG_ARCH_MAY_HAVE_PC_FDC'
p2405
S'y'
sS'net.ipv6.neigh.default.mcast_resolicit'
p2406
I0
sS'CONFIG_REGULATOR_TPS65217'
p2407
S'y'
sS'CONFIG_HIBERNATE_CALLBACKS'
p2408
S'y'
sS'CONFIG_CLKBLD_I8253'
p2409
S'y'
sS'kernel.sched_domain.cpu4.domain0.wake_idx'
p2410
I0
sS'kernel.perf_event_paranoid'
p2411
I2
sS'CONFIG_NAMESPACES'
p2412
S'y'
sS'CONFIG_BPF_JIT'
p2413
S'y'
sS'CONFIG_DEFAULT_CUBIC'
p2414
S'y'
sS'kernel.numa_balancing'
p2415
I1
sS'kernel.hardlockup_panic'
p2416
I0
sS'CONFIG_NET_VENDOR_VIA'
p2417
S'y'
sS'CONFIG_PROC_CHILDREN'
p2418
S'y'
sS'CONFIG_PHYS_ADDR_T_64BIT'
p2419
S'y'
sS'net.ipv6.conf.all.accept_ra_rt_info_min_plen'
p2420
I0
sS'CONFIG_GENERIC_PENDING_IRQ'
p2421
S'y'
sS'net.ipv4.neigh.ens3.ucast_solicit'
p2422
I3
sS'CONFIG_KDB_CONTINUE_CATASTROPHIC'
p2423
I0
sS'CONFIG_FB_BOOT_VESA_SUPPORT'
p2424
S'y'
sS'kernel.perf_event_max_contexts_per_stack'
p2425
I8
sS'CONFIG_DYNAMIC_FTRACE'
p2426
S'y'
sS'net.ipv6.conf.ens3.dad_transmits'
p2427
I1
sS'kernel.sched_domain.cpu10.domain0.flags'
p2428
I4143
sS'net.ipv6.conf.lo.mtu'
p2429
I65536
sS'net.ipv6.conf.all.disable_ipv6'
p2430
I0
sS'net.ipv6.conf.ens3.router_solicitations'
p2431
S'-1'
p2432
sS'net.ipv6.conf.lo.keep_addr_on_down'
p2433
I0
sS'CONFIG_USB_EHCI_PCI'
p2434
S'y'
sS'CONFIG_KVM_ASYNC_PF'
p2435
S'y'
sS'net.ipv6.ip6frag_time'
p2436
I60
sS'net.ipv4.conf.all.log_martians'
p2437
I0
sS'fs.aio-max-nr'
p2438
I65536
sS'CONFIG_ARCH_SUPPORTS_INT128'
p2439
S'y'
sS'CONFIG_SECURITY'
p2440
S'y'
sS'CONFIG_SPI'
p2441
S'y'
sS'net.ipv4.tcp_orphan_retries'
p2442
I0
sS'net.ipv4.tcp_fin_timeout'
p2443
I60
sS'CONFIG_IDLE_PAGE_TRACKING'
p2444
S'y'
sS'CONFIG_CRYPTO_CRYPTD'
p2445
S'm'
sS'CONFIG_DEVPORT'
p2446
S'y'
sS'CONFIG_ARCH_PROC_KCORE_TEXT'
p2447
S'y'
sS'CONFIG_SPARSEMEM_VMEMMAP_ENABLE'
p2448
S'y'
sS'net.ipv6.conf.default.disable_policy'
p2449
I0
sS'CONFIG_NET_CADENCE'
p2450
S'y'
sS'kernel.sched_domain.cpu7.domain0.min_interval'
p2451
I12
sS'CONFIG_SERIAL_8250_NR_UARTS'
p2452
I48
sS'net.ipv6.conf.ens3.forwarding'
p2453
I0
sS'CONFIG_NET_VENDOR_MYRI'
p2454
S'y'
sS'CONFIG_ARCH_SUPPORTS_NUMA_BALANCING'
p2455
S'y'
sS'CONFIG_TMPFS_XATTR'
p2456
S'y'
sS'net.ipv4.neigh.ens3.anycast_delay'
p2457
I100
sS'net.ipv6.conf.default.mldv1_unsolicited_report_interval'
p2458
I10000
sS'CONFIG_ARCH_HAS_STRICT_KERNEL_RWX'
p2459
S'y'
sS'net.ipv4.tcp_sack'
p2460
I1
sS'CONFIG_BLK_DEV_MD'
p2461
S'y'
sS'kernel.panic_on_rcu_stall'
p2462
I0
sS'net.ipv6.conf.ens3.mtu'
p2463
I1500
sS'CONFIG_PCI_DIRECT'
p2464
S'y'
sS'kernel.ns_last_pid'
p2465
I240766
sS'CONFIG_HAVE_KERNEL_GZIP'
p2466
S'y'
sS'CONFIG_MEGARAID_NEWGEN'
p2467
S'y'
sS'vm.overcommit_ratio'
p2468
I50
sS'CONFIG_MFD_TPS65217'
p2469
S'y'
sS'CONFIG_CRASH_CORE'
p2470
S'y'
sS'CONFIG_ENCRYPTED_KEYS'
p2471
S'y'
sS'kernel.sched_domain.cpu11.domain0.name'
p2472
S'DIE'
p2473
sS'net.ipv6.neigh.ens3.retrans_time_ms'
p2474
I1000
sS'CONFIG_ACPI_PROCESSOR_CSTATE'
p2475
S'y'
sS'CONFIG_BLK_DEBUG_FS'
p2476
S'y'
sS'CONFIG_IPV6_PIMSM_V2'
p2477
S'y'
sS'CONFIG_INITRAMFS_SOURCE'
p2478
S'""'
p2479
sS'kernel.sched_domain.cpu5.domain0.forkexec_idx'
p2480
I0
sS'CONFIG_NET_VENDOR_TI'
p2481
S'y'
sS'CONFIG_HPET_MMAP_DEFAULT'
p2482
S'y'
sS'CONFIG_PROCESSOR_SELECT'
p2483
S'y'
sS'CONFIG_MQ_IOSCHED_KYBER'
p2484
S'y'
sS'kernel.sched_domain.cpu3.domain0.max_interval'
p2485
I24
sS'dev.scsi.logging_level'
p2486
I0
sS'CONFIG_SLHC'
p2487
S'y'
sS'CONFIG_PREVENT_FIRMWARE_BUILD'
p2488
S'y'
sS'net.ipv4.conf.default.accept_redirects'
p2489
I1
sS'CONFIG_PWM_CRC'
p2490
S'y'
sS'CONFIG_ARCH_MMAP_RND_COMPAT_BITS_MIN'
p2491
I8
sS'kernel.hung_task_panic'
p2492
I0
sS'net.ipv4.tcp_retrans_collapse'
p2493
I1
sS'CONFIG_HAVE_KPROBES_ON_FTRACE'
p2494
S'y'
sS'fs.quota.writes'
p2495
I0
sS'CONFIG_ARCH_WANT_HUGE_PMD_SHARE'
p2496
S'y'
sS'kernel.sched_domain.cpu2.domain0.flags'
p2497
I4143
sS'CONFIG_PROC_VMCORE'
p2498
S'y'
sS'CONFIG_GDB_SCRIPTS'
p2499
S'y'
sS'kernel.sched_domain.cpu7.domain0.wake_idx'
p2500
I0
sS'CONFIG_HAVE_CMPXCHG_DOUBLE'
p2501
S'y'
sS'CONFIG_FB_CFB_COPYAREA'
p2502
S'y'
sS'CONFIG_GENERIC_NET_UTILS'
p2503
S'y'
sS'CONFIG_SLAB_MERGE_DEFAULT'
p2504
S'y'
sS'CONFIG_MODULES'
p2505
S'y'
sS'CONFIG_PCI_DOMAINS'
p2506
S'y'
sS'CONFIG_HAVE_MMIOTRACE_SUPPORT'
p2507
S'y'
sS'CONFIG_WLAN_VENDOR_TI'
p2508
S'y'
sS'CONFIG_ARCH_CLOCKSOURCE_DATA'
p2509
S'y'
sS'kernel.sched_domain.cpu9.domain0.max_newidle_lb_cost'
p2510
I14388
sS'vm.dirty_background_bytes'
p2511
I0
sS'kernel.hardlockup_all_cpu_backtrace'
p2512
I0
sS'net.ipv6.conf.ens3.accept_source_route'
p2513
I0
sS'net.ipv6.conf.default.router_solicitation_max_interval'
p2514
I3600
sS'CONFIG_MFD_LP8788'
p2515
S'y'
sS'CONFIG_FRONTSWAP'
p2516
S'y'
sS'CONFIG_NET_VENDOR_EMULEX'
p2517
S'y'
sS'kernel.watchdog'
p2518
I1
sS'CONFIG_HYPERVISOR_GUEST'
p2519
S'y'
sS'CONFIG_GART_IOMMU'
p2520
S'y'
sS'CONFIG_NET_VENDOR_3COM'
p2521
S'y'
sS'CONFIG_PCI_MSI'
p2522
S'y'
sS'net.ipv6.conf.ens3.max_desync_factor'
p2523
I600
sS'net.ipv4.icmp_ratelimit'
p2524
I1000
sS'CONFIG_ALLOW_DEV_COREDUMP'
p2525
S'y'
sS'net.ipv4.neigh.lo.app_solicit'
p2526
I0
sS'CONFIG_ARCH_USES_PG_UNCACHED'
p2527
S'y'
sS'CONFIG_UEVENT_HELPER'
p2528
S'y'
sS'CONFIG_IMA_DEFAULT_HASH_SHA1'
p2529
S'y'
sS'net.ipv6.conf.all.use_oif_addrs_only'
p2530
I0
sS'kernel.sched_tunable_scaling'
p2531
I1
sS'CONFIG_RD_LZMA'
p2532
S'y'
sS'kernel.sched_domain.cpu11.domain0.wake_idx'
p2533
I0
sS'CONFIG_PCI_REALLOC_ENABLE_AUTO'
p2534
S'y'
sS'CONFIG_WLAN_VENDOR_ATH'
p2535
S'y'
sS'CONFIG_PM_ADVANCED_DEBUG'
p2536
S'y'
sS'kernel.bootloader_version'
p2537
I2
sS'CONFIG_ARCH_MMAP_RND_COMPAT_BITS'
p2538
I8
sS'CONFIG_THERMAL_GOV_USER_SPACE'
p2539
S'y'
sS'net.ipv4.neigh.ens3.gc_stale_time'
p2540
I60
sS'fs.mount-max'
p2541
I100000
sS'net.ipv4.cipso_rbm_optfmt'
p2542
I0
sS'CONFIG_USERFAULTFD'
p2543
S'y'
sS'net.ipv4.igmp_qrv'
p2544
I2
sS'kernel.sched_schedstats'
p2545
I0
sS'CONFIG_ACPI_BGRT'
p2546
S'y'
sS'net.ipv4.neigh.default.gc_thresh1'
p2547
I128
sS'net.ipv4.neigh.default.gc_thresh2'
p2548
I512
sS'net.ipv4.neigh.default.gc_thresh3'
p2549
I1024
sS'CONFIG_LZO_COMPRESS'
p2550
S'y'
sS'CONFIG_MOUSE_PS2_FOCALTECH'
p2551
S'y'
sS'net.ipv4.fwmark_reflect'
p2552
I0
sS'CONFIG_IMA'
p2553
S'y'
sS'CONFIG_CPU_IDLE_GOV_MENU'
p2554
S'y'
sS'vm.dirty_background_ratio'
p2555
I10
sS'CONFIG_USB_EHCI_HCD_PLATFORM'
p2556
S'y'
sS'CONFIG_SCHED_OMIT_FRAME_POINTER'
p2557
S'y'
sS'kernel.hostname'
p2558
S'nestedvm'
p2559
sS'CONFIG_PINCTRL_AMD'
p2560
S'y'
sS'CONFIG_UIO'
p2561
S'm'
sS'net.ipv4.conf.ens3.drop_unicast_in_l2_multicast'
p2562
I0
sS'kernel.poweroff_cmd'
p2563
S'/sbin/poweroff'
p2564
sS'net.ipv4.conf.lo.promote_secondaries'
p2565
I0
sS'CONFIG_IA32_EMULATION'
p2566
S'y'
sS'CONFIG_SRAM'
p2567
S'y'
sS'CONFIG_ARCH_HAVE_NMI_SAFE_CMPXCHG'
p2568
S'y'
sS'vm.min_free_kbytes'
p2569
I225280
sS'CONFIG_RING_BUFFER'
p2570
S'y'
sS'net.ipv4.route.min_pmtu'
p2571
I552
sS'CONFIG_HAVE_ARCH_SOFT_DIRTY'
p2572
S'y'
sS'kernel.perf_cpu_time_max_percent'
p2573
I25
sS'kernel.sched_domain.cpu10.domain0.min_interval'
p2574
I12
sS'CONFIG_PROC_KCORE'
p2575
S'y'
sS'dev.raid.speed_limit_min'
p2576
I1000
sS'CONFIG_SECURITY_TOMOYO_MAX_ACCEPT_ENTRY'
p2577
I2048
sS'net.ipv4.route.gc_min_interval'
p2578
I0
sS'CONFIG_MAGIC_SYSRQ_DEFAULT_ENABLE'
p2579
S'0x1'
p2580
sS'CONFIG_DEVTMPFS_MOUNT'
p2581
S'y'
sS'net.ipv6.calipso_cache_enable'
p2582
I1
sS'CONFIG_PHYLIB'
p2583
S'y'
sS'net.ipv4.fib_multipath_use_neigh'
p2584
I0
sS'net.ipv4.icmp_msgs_per_sec'
p2585
I1000
sS'net.ipv4.tcp_retries1'
p2586
I3
sS'net.ipv4.tcp_retries2'
p2587
I15
sS'CONFIG_SECURITY_APPARMOR_HASH'
p2588
S'y'
sS'CONFIG_PGTABLE_LEVELS'
p2589
I4
sS'CONFIG_NET_VENDOR_ALACRITECH'
p2590
S'y'
sS'CONFIG_KPROBES_ON_FTRACE'
p2591
S'y'
sS'CONFIG_DNOTIFY'
p2592
S'y'
sS'CONFIG_GPIO_ACPI'
p2593
S'y'
sS'CONFIG_ACPI_TABLE_UPGRADE'
p2594
S'y'
sS'CONFIG_RELAY'
p2595
S'y'
sS'CONFIG_MODULE_SIG'
p2596
S'y'
sS'kernel.domainname'
p2597
S'(none)'
p2598
sS'kernel.sched_domain.cpu4.domain0.forkexec_idx'
p2599
I0
sS'CONFIG_FB_ASILIANT'
p2600
S'y'
sS'CONFIG_SYSV68_PARTITION'
p2601
S'y'
sS'CONFIG_HAVE_FTRACE_MCOUNT_RECORD'
p2602
S'y'
sS'CONFIG_XZ_DEC_ARMTHUMB'
p2603
S'y'
sS'CONFIG_VGA_ARB'
p2604
S'y'
sS'CONFIG_INTEGRITY_TRUSTED_KEYRING'
p2605
S'y'
sS'net.ipv4.igmp_max_msf'
p2606
I10
sS'vm.percpu_pagelist_fraction'
p2607
I0
sS'CONFIG_PM_SLEEP_DEBUG'
p2608
S'y'
sS'CONFIG_INLINE_WRITE_UNLOCK_IRQ'
p2609
S'y'
sS'CONFIG_NET_VENDOR_RDC'
p2610
S'y'
sS'CONFIG_MFD_MAX8925'
p2611
S'y'
sS'CONFIG_XZ_DEC_X86'
p2612
S'y'
sS'CONFIG_X86_X32'
p2613
S'y'
sS'net.ipv4.cipso_cache_bucket_size'
p2614
I10
sS'kernel.msg_next_id'
p2615
S'-1'
p2616
sS'net.ipv4.tcp_allowed_congestion_control'
p2617
S'cubic reno'
p2618
sS'kernel.sched_wakeup_granularity_ns'
p2619
I4000000
sS'net.ipv4.neigh.ens3.mcast_resolicit'
p2620
I0
sS'net.ipv6.conf.lo.disable_policy'
p2621
I0
sS'net.ipv6.conf.lo.addr_gen_mode'
p2622
I0
sS'CONFIG_X86_SPEEDSTEP_CENTRINO'
p2623
S'y'
sS'net.ipv4.route.gc_elasticity'
p2624
I8
sS'CONFIG_HAVE_PCSPKR_PLATFORM'
p2625
S'y'
sS'CONFIG_NET_VENDOR_SEEQ'
p2626
S'y'
sS'net.ipv4.tcp_syncookies'
p2627
I1
sS'CONFIG_ARCH_WANTS_THP_SWAP'
p2628
S'y'
sS'net.ipv6.neigh.lo.mcast_solicit'
p2629
I3
sS'CONFIG_IO_DELAY_TYPE_NONE'
p2630
I3
sS'kernel.sched_domain.cpu0.domain0.busy_factor'
p2631
I32
sS'CONFIG_EARLY_PRINTK_EFI'
p2632
S'y'
sS'CONFIG_PROBE_EVENTS'
p2633
S'y'
sS'CONFIG_WLAN_VENDOR_CISCO'
p2634
S'y'
sS'CONFIG_USB_DWC2_HOST'
p2635
S'y'
sS'CONFIG_FRAMEBUFFER_CONSOLE_ROTATION'
p2636
S'y'
sS'CONFIG_PROC_EVENTS'
p2637
S'y'
sS'CONFIG_TIMERFD'
p2638
S'y'
sS'net.ipv4.conf.ens3.mc_forwarding'
p2639
I0
sS'net.core.tstamp_allow_data'
p2640
I1
sS'CONFIG_SECURITY_TOMOYO_MAX_AUDIT_LOG'
p2641
I1024
sS'CONFIG_LOCALVERSION'
p2642
S'""'
p2643
sS'CONFIG_PWM'
p2644
S'y'
sS'net.unix.max_dgram_qlen'
p2645
I512
sS'CONFIG_TTY_PRINTK'
p2646
S'y'
sS'kernel.ctrl-alt-del'
p2647
I0
sS'net.ipv4.conf.default.rp_filter'
p2648
I1
sS'kernel.sched_domain.cpu3.domain0.imbalance_pct'
p2649
I125
sS'CONFIG_HAVE_MEMBLOCK'
p2650
S'y'
sS'CONFIG_PINMUX'
p2651
S'y'
sS'net.ipv4.conf.lo.force_igmp_version'
p2652
I0
sS'CONFIG_IOMMU_SUPPORT'
p2653
S'y'
sS'CONFIG_TRACE_CLOCK'
p2654
S'y'
sS'CONFIG_SERIAL_EARLYCON'
p2655
S'y'
sg10
g11
sS'CONFIG_NET_VENDOR_CISCO'
p2656
S'y'
sS'CONFIG_BASE_FULL'
p2657
S'y'
sS'CONFIG_STP'
p2658
S'm'
sS'net.ipv4.conf.all.rp_filter'
p2659
I1
sS'CONFIG_ATA'
p2660
S'y'
sS'CONFIG_EVM_ATTR_FSUUID'
p2661
S'y'
sS'CONFIG_CRYPTO_GLUE_HELPER_X86'
p2662
S'm'
sS'net.ipv4.ip_early_demux'
p2663
I1
sS'CONFIG_BOOTPARAM_HARDLOCKUP_PANIC_VALUE'
p2664
I0
sS'CONFIG_SYSTEM_EXTRA_CERTIFICATE'
p2665
S'y'
sS'CONFIG_SYSTEM_TRUSTED_KEYS'
p2666
S'""'
p2667
sS'kernel.tracepoint_printk'
p2668
I0
sS'CONFIG_HOTPLUG_PCI'
p2669
S'y'
sS'kernel.sched_domain.cpu0.domain0.min_interval'
p2670
I12
sS'CONFIG_SERIAL_MAX310X'
p2671
S'y'
sS'kernel.sched_domain.cpu0.domain0.idle_idx'
p2672
I1
sS'CONFIG_PNPACPI'
p2673
S'y'
sS'CONFIG_I2C_CHARDEV'
p2674
S'y'
sS'CONFIG_INPUT_TOUCHSCREEN'
p2675
S'y'
sS'CONFIG_HAVE_ARCH_TRACEHOOK'
p2676
S'y'
sS'vm.numa_zonelist_order'
p2677
S'Node'
p2678
sS'kernel.sched_domain.cpu11.domain0.cache_nice_tries'
p2679
I1
sS'CONFIG_FANOTIFY'
p2680
S'y'
sS'vm.memory_failure_recovery'
p2681
I1
sS'CONFIG_ACPI_HED'
p2682
S'y'
sS'net.ipv6.neigh.lo.unres_qlen'
p2683
I101
sS'CONFIG_X86_AMD_PLATFORM_DEVICE'
p2684
S'y'
sS'CONFIG_FONT_8x16'
p2685
S'y'
sS'net.ipv6.mld_max_msf'
p2686
I64
sS'net.ipv4.neigh.default.proxy_delay'
p2687
I80
sS'net.ipv4.conf.default.bootp_relay'
p2688
I0
sS'CONFIG_USB_XHCI_PCI'
p2689
S'y'
sS'kernel.numa_balancing_scan_period_min_ms'
p2690
I1000
sS'net.ipv4.tcp_early_retrans'
p2691
I3
sS'CONFIG_NET_VENDOR_SUN'
p2692
S'y'
sS'CONFIG_PSTORE'
p2693
S'y'
sS'kernel.sched_domain.cpu6.domain0.max_interval'
p2694
I24
sS'CONFIG_DEFAULT_SECURITY'
p2695
S'"apparmor"'
p2696
sS'net.ipv4.conf.ens3.route_localnet'
p2697
I0
sS'net.ipv4.conf.default.igmpv3_unsolicited_report_interval'
p2698
I1000
sS'CONFIG_CRYPTO_AEAD'
p2699
S'y'
sS'net.core.warnings'
p2700
I0
sS'CONFIG_HPET_TIMER'
p2701
S'y'
sS'net.ipv6.conf.default.accept_source_route'
p2702
I0
sS'CONFIG_NETFILTER_INGRESS'
p2703
S'y'
sS'kernel.sched_cfs_bandwidth_slice_us'
p2704
I5000
sS'net.ipv6.conf.lo.mldv2_unsolicited_report_interval'
p2705
I1000
sS'net.ipv6.conf.default.drop_unsolicited_na'
p2706
I0
sS'CONFIG_SECURITY_NETWORK'
p2707
S'y'
sS'CONFIG_TRACER_SNAPSHOT'
p2708
S'y'
sS'net.core.message_cost'
p2709
I5
sS'net.ipv6.conf.all.router_solicitation_interval'
p2710
I4
sS'net.ipv6.neigh.lo.retrans_time_ms'
p2711
I1000
sS'vm.stat_interval'
p2712
I1
sS'CONFIG_CGROUP_CPUACCT'
p2713
S'y'
sS'CONFIG_INPUT_JOYSTICK'
p2714
S'y'
sS'net.ipv4.conf.all.igmpv2_unsolicited_report_interval'
p2715
I10000
sS'net.ipv4.conf.all.accept_local'
p2716
I0
sS'CONFIG_I8253_LOCK'
p2717
S'y'
sS'CONFIG_MAC_EMUMOUSEBTN'
p2718
S'm'
sS'CONFIG_HIBERNATION'
p2719
S'y'
sS'net.ipv4.udp_mem'
p2720
S'1536714\t2048952\t3073428'
p2721
sS'CONFIG_XPS'
p2722
S'y'
sS'CONFIG_WLAN_VENDOR_BROADCOM'
p2723
S'y'
sS'CONFIG_SND_JACK_INPUT_DEV'
p2724
S'y'
sS'CONFIG_INPUT_MOUSE'
p2725
S'y'
sS'CONFIG_IMA_TRUSTED_KEYRING'
p2726
S'y'
sS'CONFIG_MFD_WM8350_I2C'
p2727
S'y'
sS'net.ipv6.neigh.default.delay_first_probe_time'
p2728
I5
sS'kernel.sched_domain.cpu3.domain0.name'
p2729
S'DIE'
p2730
sS'CONFIG_SND_HDA_PREALLOC_SIZE'
p2731
I64
sS'CONFIG_USB_SUPPORT'
p2732
S'y'
sS'CONFIG_IOSF_MBI_DEBUG'
p2733
S'y'
sS'fs.leases-enable'
p2734
I1
sS'CONFIG_ARCH_MEMORY_PROBE'
p2735
S'y'
sS'net.ipv6.conf.all.temp_prefered_lft'
p2736
I86400
sS'CONFIG_GENERIC_IO'
p2737
S'y'
sS'CONFIG_64BIT'
p2738
S'y'
sS'CONFIG_HAVE_IRQ_TIME_ACCOUNTING'
p2739
S'y'
sS'kernel.sched_domain.cpu4.domain0.cache_nice_tries'
p2740
I1
sS'CONFIG_AUDIT_ARCH'
p2741
S'y'
sS'fs.aio-nr'
p2742
I0
sS'CONFIG_THERMAL_HWMON'
p2743
S'y'
sS'net.ipv4.route.max_size'
p2744
I2147483647
sS'kernel.watchdog_thresh'
p2745
I10
sS'CONFIG_HZ'
p2746
I250
sS'CONFIG_X86_DEBUG_FPU'
p2747
S'y'
sS'CONFIG_MPILIB'
p2748
S'y'
sS'CONFIG_INTEGRITY_AUDIT'
p2749
S'y'
sS'CONFIG_GPIO_SYSFS'
p2750
S'y'
sS'CONFIG_KEXEC_CORE'
p2751
S'y'
sS'CONFIG_NET_VENDOR_SMSC'
p2752
S'y'
sS'CONFIG_BALLOON_COMPACTION'
p2753
S'y'
sS'net.ipv6.conf.all.accept_redirects'
p2754
I1
sS'CONFIG_KEYS'
p2755
S'y'
sS'CONFIG_SGI_PARTITION'
p2756
S'y'
sS'CONFIG_KVM_VFIO'
p2757
S'y'
sS'net.ipv4.conf.lo.disable_policy'
p2758
I1
sS'kernel.seccomp.actions_avail'
p2759
S'kill_process kill_thread trap errno trace log allow'
p2760
sS'CONFIG_MEMORY_HOTREMOVE'
p2761
S'y'
sS'CONFIG_BINFMT_ELF'
p2762
S'y'
sS'net.ipv4.tcp_rfc1337'
p2763
I0
sS'kernel.sysrq'
p2764
I176
sS'CONFIG_TASK_IO_ACCOUNTING'
p2765
S'y'
sS'CONFIG_SATA_PMP'
p2766
S'y'
sa(dp2767
g10
g11
sS'fstype'
p2768
S'tmpfs-separate'
p2769
sg3
(lp2770
S'FileSystem'
p2771
ag6
ag14
aS'object'
p2772
asg8
S'FileSystem.host-192.168.123.30.fstype-tmpfs-separate'
p2773
sa(dp2774
S'topDir'
p2775
S'~/vm-scalability/bench/tmp/linux-3.18'
p2776
sS'excludes'
p2777
(lp2778
S'*/.git'
p2779
asg10
g11
sg3
(lp2780
S'PrefetchDir'
p2781
ag6
ag14
aS'object'
p2782
asg8
S'PrefetchDir.topDir-~/vm-scalability/bench/tmp/linux-3.18.host-192.168.123.30'
p2783
sa(dp2784
g8
S'SetCPUs.host-192.168.123.30'
p2785
sS'seq'
p2786
g2786
sg10
g11
sS'hotplug'
p2787
I01
sg3
(lp2788
S'SetCPUs'
p2789
ag6
ag14
aS'object'
p2790
asS'num'
p2791
I12
sa(dp2792
g10
g11
sg3
(lp2793
S'SystemMonitor'
p2794
ag6
ag14
aS'object'
p2795
asg8
S'SystemMonitor.host-192.168.123.30'
p2796
sa(dp2797
S'real'
p2798
F63.764499999999998
sS'time.iowait'
p2799
F0.17999999999999999
sg8
S'GmakeLoad.trial-0.host-192.168.123.30'
p2800
sS'time.real'
p2801
F63.764499999999998
sS'time.idle'
p2802
F54.673699999999997
sS'time.sys'
p2803
F100.7
sg3
(lp2804
S'GmakeLoad'
p2805
ag6
aS'ResultsProvider'
p2806
ag14
aS'object'
p2807
asS'objPath'
p2808
S'/tmp/mosbench/tmpfs-separate/0'
p2809
sS'units'
p2810
S'builds'
p2811
sg10
g11
sS'result'
p2812
F1
sS'srcPath'
p2813
g2776
sS'cores'
p2814
I12
sS'time.steal'
p2815
F0.11
sS'time.irq'
p2816
F0
sS'time.softirq'
p2817
F0.040000000000000001
sS'time.nice'
p2818
F0
sS'unit'
p2819
S'build'
p2820
sS'time.user'
p2821
F609.79999999999995
sa.