(lp1
(dp2
S'classNames'
p3
(lp4
S'ResultPath'
p5
aS'Task'
p6
aS'object'
p7
asS'name'
p8
g5
sa(dp9
S'host'
p10
S'192.168.123.30'
p11
sg3
(lp12
S'Host'
p13
ag6
aS'SourceFileProvider'
p14
aS'object'
p15
asg8
S'Host.host-192.168.123.30'
p16
sa(dp17
S'CONFIG_USB_OHCI_HCD_PLATFORM'
p18
S'y'
sS'CONFIG_DEFAULT_IO_DELAY_TYPE'
p19
I1
sS'CONFIG_DNS_RESOLVER'
p20
S'y'
sS'net.ipv6.conf.lo.suppress_frag_ndisc'
p21
I1
sS'CONFIG_GENERIC_STRNCPY_FROM_USER'
p22
S'y'
sS'net.netfilter.nf_log_all_netns'
p23
I0
sS'CONFIG_KVM_SCHEDACT'
p24
S'y'
sS'CONFIG_WLAN_VENDOR_RALINK'
p25
S'y'
sS'CONFIG_HAVE_DYNAMIC_FTRACE_WITH_REGS'
p26
S'y'
sS'kernel.sched_domain.cpu5.domain0.newidle_idx'
p27
I0
sS'net.ipv4.conf.all.tag'
p28
I0
sS'CONFIG_EVENT_TRACING'
p29
S'y'
sS'CONFIG_LIVEPATCH'
p30
S'y'
sS'CONFIG_LEDS_TRIGGER_CPU'
p31
S'y'
sS'CONFIG_PCIEPORTBUS'
p32
S'y'
sS'CONFIG_INIT_ENV_ARG_LIMIT'
p33
I32
sS'net.ipv6.conf.default.accept_ra_min_hop_limit'
p34
I1
sS'CONFIG_LEDS_CLASS'
p35
S'y'
sS'kernel.sched_domain.cpu2.domain0.newidle_idx'
p36
I0
sS'net.ipv4.neigh.default.proxy_qlen'
p37
I64
sS'CONFIG_PMC_ATOM'
p38
S'y'
sS'CONFIG_MANDATORY_FILE_LOCKING'
p39
S'y'
sS'fs.quota.free_dquots'
p40
I0
sS'CONFIG_PRINTK_NMI'
p41
S'y'
sS'CONFIG_NETDEVICES'
p42
S'y'
sS'CONFIG_HAVE_DYNAMIC_FTRACE'
p43
S'y'
sS'CONFIG_PINCTRL_SX150X'
p44
S'y'
sS'CONFIG_NET_SCHED'
p45
S'y'
sS'CONFIG_UNIXWARE_DISKLABEL'
p46
S'y'
sS'CONFIG_INLINE_WRITE_UNLOCK'
p47
S'y'
sS'CONFIG_ACPI_REV_OVERRIDE_POSSIBLE'
p48
S'y'
sS'CONFIG_HAVE_ARCH_AUDITSYSCALL'
p49
S'y'
sS'CONFIG_NET_VENDOR_RENESAS'
p50
S'y'
sS'CONFIG_FIRMWARE_EDID'
p51
S'y'
sS'CONFIG_CGROUPS'
p52
S'y'
sS'net.ipv6.conf.ens3.regen_max_retry'
p53
I3
sS'net.ipv4.conf.lo.medium_id'
p54
I0
sS'CONFIG_DEFAULT_MMAP_MIN_ADDR'
p55
I65536
sS'CONFIG_AIO'
p56
S'y'
sS'CONFIG_X86_DEBUGCTLMSR'
p57
S'y'
sS'CONFIG_ARCH_HIBERNATION_HEADER'
p58
S'y'
sS'net.ipv4.tcp_synack_retries'
p59
I5
sS'CONFIG_SECURITY_YAMA'
p60
S'y'
sS'CONFIG_CRYPTO_ECB'
p61
S'y'
sS'CONFIG_ACPI_HOTPLUG_MEMORY'
p62
S'y'
sS'net.ipv4.tcp_notsent_lowat'
p63
I4294967295
sS'CONFIG_HAVE_ARCH_WITHIN_STACK_FRAMES'
p64
S'y'
sS'CONFIG_FS_DAX_PMD'
p65
S'y'
sS'CONFIG_X86_LOCAL_APIC'
p66
S'y'
sS'net.ipv4.conf.lo.forwarding'
p67
I0
sS'CONFIG_GENERIC_CLOCKEVENTS_MIN_ADJUST'
p68
S'y'
sS'net.ipv6.conf.lo.accept_redirects'
p69
I1
sS'CONFIG_TASK_XACCT'
p70
S'y'
sS'CONFIG_KEXEC_BZIMAGE_VERIFY_SIG'
p71
S'y'
sS'CONFIG_EVENTFD'
p72
S'y'
sS'CONFIG_FTRACE_MCOUNT_RECORD'
p73
S'y'
sS'CONFIG_HAVE_PERF_EVENTS'
p74
S'y'
sS'CONFIG_SND_HDA_CORE'
p75
S'm'
sS'CONFIG_ARCH_SUPPORTS_UPROBES'
p76
S'y'
sS'CONFIG_PACKET'
p77
S'y'
sS'net.ipv6.conf.ens3.use_oif_addrs_only'
p78
I0
sS'net.ipv6.conf.all.router_solicitation_max_interval'
p79
I3600
sS'net.ipv4.neigh.lo.proxy_delay'
p80
I80
sS'CONFIG_PARPORT_PC'
p81
S'm'
sS'CONFIG_AGP'
p82
S'y'
sS'CONFIG_INPUT_JOYDEV'
p83
S'm'
sS'net.ipv6.conf.default.addr_gen_mode'
p84
I0
sS'net.ipv4.conf.ens3.igmpv2_unsolicited_report_interval'
p85
I10000
sS'CONFIG_INFINIBAND_ADDR_TRANS'
p86
S'y'
sS'CONFIG_CRYPTO_SHA512'
p87
S'y'
sS'CONFIG_WLAN_VENDOR_INTERSIL'
p88
S'y'
sS'CONFIG_CRYPTO_NULL'
p89
S'y'
sS'CONFIG_VIRTIO_BALLOON'
p90
S'y'
sS'CONFIG_INTEGRITY_ASYMMETRIC_KEYS'
p91
S'y'
sS'CONFIG_TWL4030_CORE'
p92
S'y'
sS'CONFIG_FRAME_POINTER_UNWINDER'
p93
S'y'
sS'CONFIG_CRYPTO_HMAC'
p94
S'y'
sS'CONFIG_CRYPTO_AES_NI_INTEL'
p95
S'm'
sS'CONFIG_MOUSE_PS2'
p96
S'm'
sS'CONFIG_EFI_PARTITION'
p97
S'y'
sS'CONFIG_NODES_SPAN_OTHER_NODES'
p98
S'y'
sS'CONFIG_FUNCTION_GRAPH_TRACER'
p99
S'y'
sS'net.ipv6.conf.all.seg6_enabled'
p100
I0
sS'CONFIG_IPV6_MROUTE'
p101
S'y'
sS'kernel.sched_domain.cpu2.domain0.busy_idx'
p102
I2
sS'net.ipv4.conf.default.disable_policy'
p103
I0
sS'CONFIG_FHANDLE'
p104
S'y'
sS'CONFIG_HAVE_FUNCTION_GRAPH_TRACER'
p105
S'y'
sS'CONFIG_FS_IOMAP'
p106
S'y'
sS'CONFIG_CRYPTO_ACOMP2'
p107
S'y'
sS'CONFIG_HAVE_KERNEL_LZMA'
p108
S'y'
sS'CONFIG_ARCH_HAS_DEBUG_VIRTUAL'
p109
S'y'
sS'net.ipv6.neigh.default.unres_qlen_bytes'
p110
I212992
sS'kernel.sem_next_id'
p111
S'-1'
p112
sS'kernel.random.write_wakeup_threshold'
p113
I896
sS'net.ipv6.conf.lo.use_oif_addrs_only'
p114
I0
sS'net.ipv6.conf.ens3.accept_ra_defrtr'
p115
I1
sS'kernel.sched_domain.cpu3.domain0.max_newidle_lb_cost'
p116
I31228
sS'net.ipv6.neigh.lo.proxy_qlen'
p117
I64
sS'net.ipv4.tcp_fastopen'
p118
I1
sS'CONFIG_CRYPTO_CRCT10DIF_PCLMUL'
p119
S'm'
sS'CONFIG_DEFAULT_IOSCHED'
p120
S'"deadline"'
p121
sS'CONFIG_FUSION_LOGGING'
p122
S'y'
sS'CONFIG_NET_PACKET_ENGINE'
p123
S'y'
sS'CONFIG_DQL'
p124
S'y'
sS'net.ipv6.conf.lo.force_tllao'
p125
I0
sS'CONFIG_IP_ADVANCED_ROUTER'
p126
S'y'
sS'CONFIG_SERIAL_SCCNXP_CONSOLE'
p127
S'y'
sS'CONFIG_MINIX_SUBPARTITION'
p128
S'y'
sS'CONFIG_NOP_USB_XCEIV'
p129
S'y'
sS'kernel.print-fatal-signals'
p130
I0
sS'CONFIG_INET'
p131
S'y'
sS'net.ipv4.tcp_probe_interval'
p132
I600
sS'CONFIG_EXTRA_FIRMWARE'
p133
S'""'
p134
sS'CONFIG_I2C_DESIGNWARE_CORE'
p135
S'y'
sS'net.ipv4.conf.lo.arp_accept'
p136
I0
sS'CONFIG_REGMAP_MMIO'
p137
S'y'
sS'CONFIG_SND_HDA_POWER_SAVE_DEFAULT'
p138
I0
sS'kernel.sched_domain.cpu0.domain0.cache_nice_tries'
p139
I1
sS'net.ipv6.conf.lo.forwarding'
p140
I0
sS'CONFIG_NET_VENDOR_SOLARFLARE'
p141
S'y'
sS'CONFIG_FIXED_PHY'
p142
S'y'
sS'net.ipv4.conf.default.shared_media'
p143
I1
sS'CONFIG_NET_VENDOR_TEHUTI'
p144
S'y'
sS'net.ipv6.conf.default.router_solicitations'
p145
S'-1'
p146
sS'CONFIG_MFD_DA9063'
p147
S'y'
sS'CONFIG_CRYPTO'
p148
S'y'
sS'CONFIG_WLAN_VENDOR_ZYDAS'
p149
S'y'
sS'CONFIG_STRICT_KERNEL_RWX'
p150
S'y'
sS'net.ipv6.mld_qrv'
p151
I2
sS'CONFIG_SND_HDA_PATCH_LOADER'
p152
S'y'
sS'net.ipv4.conf.all.disable_policy'
p153
I0
sS'CONFIG_CGROUP_SCHED'
p154
S'y'
sS'CONFIG_COMPAT_FOR_U64_ALIGNMENT'
p155
S'y'
sS'CONFIG_PPP_FILTER'
p156
S'y'
sS'CONFIG_CPU_FREQ'
p157
S'y'
sS'net.core.netdev_tstamp_prequeue'
p158
I1
sS'net.ipv6.conf.all.accept_dad'
p159
I1
sS'CONFIG_DCB'
p160
S'y'
sS'CONFIG_I2C_PIIX4'
p161
S'm'
sS'kernel.panic_on_oops'
p162
I0
sS'CONFIG_MEMORY_HOTPLUG'
p163
S'y'
sS'dev.cdrom.debug'
p164
I0
sS'CONFIG_MOUSE_PS2_SYNAPTICS'
p165
S'y'
sS'CONFIG_SECURITY_SELINUX'
p166
S'y'
sS'net.ipv6.conf.lo.max_addresses'
p167
I16
sS'CONFIG_PCI_PASID'
p168
S'y'
sS'CONFIG_SCSI_LOWLEVEL'
p169
S'y'
sS'CONFIG_GENERIC_MSI_IRQ'
p170
S'y'
sS'kernel.ngroups_max'
p171
I65536
sS'CONFIG_MTRR_SANITIZER'
p172
S'y'
sS'CONFIG_PM_DEVFREQ_EVENT'
p173
S'y'
sS'CONFIG_POWER_RESET_RESTART'
p174
S'y'
sS'kernel.max_lock_depth'
p175
I1024
sS'CONFIG_ZPOOL'
p176
S'y'
sS'CONFIG_PATA_SIS'
p177
S'y'
sS'CONFIG_MFD_TPS65910'
p178
S'y'
sS'CONFIG_ARCH_HAS_UACCESS_FLUSHCACHE'
p179
S'y'
sS'CONFIG_ARCH_WANT_GENERAL_HUGETLB'
p180
S'y'
sS'net.ipv6.conf.default.max_addresses'
p181
I16
sS'CONFIG_ARCH_WANT_OLD_COMPAT_IPC'
p182
S'y'
sS'CONFIG_CGROUP_WRITEBACK'
p183
S'y'
sS'CONFIG_X86_ACPI_CPUFREQ'
p184
S'y'
sS'CONFIG_DUMMY_CONSOLE'
p185
S'y'
sS'CONFIG_RWSEM_SPIN_ON_OWNER'
p186
S'y'
sS'CONFIG_SECURITY_APPARMOR_BOOTPARAM_VALUE'
p187
I1
sS'vm.dirtytime_expire_seconds'
p188
I43200
sS'net.ipv4.tcp_challenge_ack_limit'
p189
I1000
sS'CONFIG_HOTPLUG_PCI_ACPI'
p190
S'y'
sS'CONFIG_KARMA_PARTITION'
p191
S'y'
sS'CONFIG_INFINIBAND_ISER'
p192
S'm'
sS'vm.min_slab_ratio'
p193
I5
sS'CONFIG_CLZ_TAB'
p194
S'y'
sS'CONFIG_MODIFY_LDT_SYSCALL'
p195
S'y'
sS'CONFIG_X86_THERMAL_VECTOR'
p196
S'y'
sS'CONFIG_RCU_CPU_STALL_TIMEOUT'
p197
I60
sS'CONFIG_BACKLIGHT_CLASS_DEVICE'
p198
S'y'
sS'CONFIG_BOOTPARAM_SOFTLOCKUP_PANIC_VALUE'
p199
I0
sS'CONFIG_PM_WAKELOCKS'
p200
S'y'
sS'CONFIG_GPIOLIB_IRQCHIP'
p201
S'y'
sS'kernel.sched_domain.cpu1.domain0.idle_idx'
p202
I1
sS'CONFIG_WLAN'
p203
S'y'
sS'CONFIG_BLK_DEV_INTEGRITY'
p204
S'y'
sS'CONFIG_ARCH_HAS_HMM'
p205
S'y'
sS'CONFIG_SQUASHFS_FILE_DIRECT'
p206
S'y'
sS'CONFIG_NETWORK_FILESYSTEMS'
p207
S'y'
sS'CONFIG_SERIAL_8250_RSA'
p208
S'y'
sS'net.ipv4.tcp_min_tso_segs'
p209
I2
sS'CONFIG_SCHED_STACK_END_CHECK'
p210
S'y'
sS'net.ipv4.conf.lo.disable_xfrm'
p211
I1
sS'CONFIG_POWERCAP'
p212
S'y'
sS'CONFIG_UNUSED_SYMBOLS'
p213
S'y'
sS'CONFIG_PM_WAKELOCKS_LIMIT'
p214
I100
sS'CONFIG_INTEGRITY'
p215
S'y'
sS'fs.mqueue.msg_default'
p216
I10
sS'CONFIG_MD_LINEAR'
p217
S'm'
sS'net.ipv4.tcp_max_orphans'
p218
I262144
sS'CONFIG_MFD_MAX77843'
p219
S'y'
sS'CONFIG_CONSOLE_TRANSLATIONS'
p220
S'y'
sS'CONFIG_SLABINFO'
p221
S'y'
sS'kernel.perf_event_max_stack'
p222
I127
sS'CONFIG_PCI'
p223
S'y'
sS'CONFIG_GENERIC_MSI_IRQ_DOMAIN'
p224
S'y'
sS'kernel.sched_domain.cpu4.domain0.name'
p225
S'DIE'
p226
sS'CONFIG_SYSTEM_BLACKLIST_KEYRING'
p227
S'y'
sS'kernel.sched_domain.cpu6.domain0.wake_idx'
p228
I0
sS'CONFIG_IP_ROUTE_MULTIPATH'
p229
S'y'
sS'CONFIG_SCHED_SMT'
p230
S'y'
sS'net.ipv4.tcp_adv_win_scale'
p231
I1
sS'CONFIG_INTEL_IDLE'
p232
S'y'
sS'CONFIG_ASYNC_CORE'
p233
S'm'
sS'net.ipv4.udp_rmem_min'
p234
I4096
sS'CONFIG_FIRMWARE_IN_KERNEL'
p235
S'y'
sS'CONFIG_GPIO_TPS65910'
p236
S'y'
sS'CONFIG_CRC_CCITT'
p237
S'y'
sS'CONFIG_PERSISTENT_KEYRINGS'
p238
S'y'
sS'CONFIG_MOUSE_PS2_LIFEBOOK'
p239
S'y'
sS'CONFIG_ARCH_WANT_COMPAT_IPC_PARSE_VERSION'
p240
S'y'
sS'net.ipv6.conf.all.router_probe_interval'
p241
I60
sS'CONFIG_ACPI_CPPC_LIB'
p242
S'y'
sS'CONFIG_ASYNC_RAID6_RECOV'
p243
S'm'
sS'net.ipv6.conf.default.ignore_routes_with_linkdown'
p244
I0
sS'net.ipv6.conf.lo.accept_ra_from_local'
p245
I0
sS'CONFIG_EXPORTFS'
p246
S'y'
sS'CONFIG_CRYPTO_CRC32_PCLMUL'
p247
S'm'
sS'CONFIG_INPUT'
p248
S'y'
sS'CONFIG_THERMAL_DEFAULT_GOV_STEP_WISE'
p249
S'y'
sS'fs.suid_dumpable'
p250
I2
sS'CONFIG_CPU_FREQ_GOV_PERFORMANCE'
p251
S'y'
sS'CONFIG_SERIAL_8250_DMA'
p252
S'y'
sS'kernel.sched_domain.cpu8.domain0.busy_factor'
p253
I32
sS'CONFIG_SCHED_AUTOGROUP'
p254
S'y'
sS'net.core.optmem_max'
p255
I20480
sS'user.max_inotify_watches'
p256
I8192
sS'vm.nr_overcommit_hugepages'
p257
I0
sS'net.ipv6.conf.default.accept_ra_defrtr'
p258
I1
sS'net.ipv6.conf.default.accept_ra_rt_info_min_plen'
p259
I0
sS'kernel.sched_domain.cpu7.domain0.flags'
p260
I4143
sS'CONFIG_DEBUG_INFO_DWARF4'
p261
S'y'
sS'CONFIG_NET_EMATCH'
p262
S'y'
sS'CONFIG_CPU_SUP_CENTAUR'
p263
S'y'
sS'kernel.sched_domain.cpu3.domain0.cache_nice_tries'
p264
I1
sS'CONFIG_PCI_QUIRKS'
p265
S'y'
sS'CONFIG_SERIAL_NONSTANDARD'
p266
S'y'
sS'user.max_uts_namespaces'
p267
I257592
sS'net.ipv6.route.gc_interval'
p268
I30
sS'CONFIG_VIRT_DRIVERS'
p269
S'y'
sS'net.ipv6.bindv6only'
p270
I0
sS'CONFIG_CNIC'
p271
S'm'
sS'CONFIG_SUN_PARTITION'
p272
S'y'
sS'net.ipv4.conf.all.drop_gratuitous_arp'
p273
I0
sS'CONFIG_PINCTRL'
p274
S'y'
sS'CONFIG_THERMAL_GOV_FAIR_SHARE'
p275
S'y'
sS'CONFIG_BLK_DEV_SD'
p276
S'y'
sS'net.ipv6.route.gc_min_interval_ms'
p277
I500
sS'CONFIG_IRQ_FORCED_THREADING'
p278
S'y'
sS'CONFIG_MTRR_SANITIZER_SPARE_REG_NR_DEFAULT'
p279
I1
sS'CONFIG_BLK_MQ_PCI'
p280
S'y'
sS'CONFIG_DEBUG_BUGVERBOSE'
p281
S'y'
sS'CONFIG_LSM_MMAP_MIN_ADDR'
p282
I0
sS'CONFIG_FS_MBCACHE'
p283
S'y'
sS'CONFIG_KVM_INTEL'
p284
S'm'
sS'net.ipv6.neigh.ens3.proxy_qlen'
p285
I64
sS'net.ipv6.conf.lo.ndisc_notify'
p286
I0
sS'CONFIG_USB'
p287
S'y'
sS'CONFIG_SND_DYNAMIC_MINORS'
p288
S'y'
sS'CONFIG_MD_RAID1'
p289
S'm'
sS'CONFIG_HAVE_SETUP_PER_CPU_AREA'
p290
S'y'
sS'user.max_net_namespaces'
p291
I257592
sS'CONFIG_LOG_CPU_MAX_BUF_SHIFT'
p292
I12
sS'vm.laptop_mode'
p293
I0
sS'CONFIG_SIGNED_PE_FILE_VERIFICATION'
p294
S'y'
sS'CONFIG_NET_VENDOR_CAVIUM'
p295
S'y'
sS'CONFIG_IMA_NG_TEMPLATE'
p296
S'y'
sS'CONFIG_CRYPTO_GCM'
p297
S'y'
sS'CONFIG_KEXEC'
p298
S'y'
sS'CONFIG_CRYPTO_DEV_PADLOCK'
p299
S'y'
sS'kernel.sched_domain.cpu2.domain0.wake_idx'
p300
I0
sS'net.ipv4.conf.all.secure_redirects'
p301
I1
sS'kernel.sched_domain.cpu5.domain0.cache_nice_tries'
p302
I1
sS'CONFIG_HAVE_REGS_AND_STACK_ACCESS_API'
p303
S'y'
sS'CONFIG_FRAME_POINTER'
p304
S'y'
sS'CONFIG_DEVFREQ_GOV_SIMPLE_ONDEMAND'
p305
S'y'
sS'net.ipv4.conf.lo.igmpv2_unsolicited_report_interval'
p306
I10000
sS'kernel.sched_domain.cpu4.domain0.idle_idx'
p307
I1
sS'CONFIG_VFAT_FS'
p308
S'y'
sS'net.ipv6.conf.ens3.accept_ra_mtu'
p309
I1
sS'CONFIG_INPUT_MISC'
p310
S'y'
sS'CONFIG_PARPORT_1284'
p311
S'y'
sS'net.ipv4.conf.all.force_igmp_version'
p312
I0
sS'CONFIG_UTS_NS'
p313
S'y'
sS'CONFIG_BRIDGE_IGMP_SNOOPING'
p314
S'y'
sS'CONFIG_MFD_MAX14577'
p315
S'y'
sS'net.ipv6.neigh.lo.mcast_resolicit'
p316
I0
sS'CONFIG_PREEMPT_NOTIFIERS'
p317
S'y'
sS'CONFIG_IO_DELAY_0XED'
p318
S'y'
sS'CONFIG_AGP_AMD64'
p319
S'y'
sS'CONFIG_WATCHDOG'
p320
S'y'
sS'CONFIG_MTRR'
p321
S'y'
sS'kernel.overflowgid'
p322
I65534
sS'CONFIG_CRYPTO_RNG_DEFAULT'
p323
S'y'
sS'kernel.sched_domain.cpu7.domain0.busy_idx'
p324
I2
sS'CONFIG_X86_MCE'
p325
S'y'
sS'CONFIG_KALLSYMS_BASE_RELATIVE'
p326
S'y'
sS'CONFIG_ISA_DMA_API'
p327
S'y'
sS'CONFIG_ASYMMETRIC_PUBLIC_KEY_SUBTYPE'
p328
S'y'
sS'CONFIG_ELF_CORE'
p329
S'y'
sS'net.ipv6.neigh.lo.proxy_delay'
p330
I80
sS'net.ipv6.conf.lo.router_solicitations'
p331
S'-1'
p332
sS'kernel.ftrace_dump_on_oops'
p333
I0
sS'net.ipv4.conf.default.arp_filter'
p334
I0
sS'kernel.sched_autogroup_enabled'
p335
I1
sS'CONFIG_ARCH_HAS_PMEM_API'
p336
S'y'
sS'CONFIG_X86_MPPARSE'
p337
S'y'
sS'net.ipv6.neigh.lo.anycast_delay'
p338
I100
sS'CONFIG_USB_DYNAMIC_MINORS'
p339
S'y'
sS'CONFIG_ARCH_HAS_FORTIFY_SOURCE'
p340
S'y'
sS'CONFIG_SUSPEND_FREEZER'
p341
S'y'
sS'net.ipv4.icmp_ratemask'
p342
I6168
sS'CONFIG_SERIAL_8250_EXAR'
p343
S'y'
sS'kernel.hung_task_warnings'
p344
I10
sS'CONFIG_SYSTEM_BLACKLIST_HASH_LIST'
p345
S'""'
p346
sS'CONFIG_ARCH_MMAP_RND_BITS_MIN'
p347
I28
sS'CONFIG_EXPERT'
p348
S'y'
sS'net.ipv4.tcp_abort_on_overflow'
p349
I0
sS'CONFIG_WLAN_VENDOR_ATMEL'
p350
S'y'
sS'CONFIG_HAVE_MIXED_BREAKPOINTS_REGS'
p351
S'y'
sS'CONFIG_ARCH_ENABLE_THP_MIGRATION'
p352
S'y'
sS'CONFIG_SWIOTLB'
p353
S'y'
sS'kernel.sched_domain.cpu9.domain0.busy_factor'
p354
I32
sS'net.ipv4.conf.lo.bootp_relay'
p355
I0
sS'net.ipv6.neigh.default.app_solicit'
p356
I0
sS'CONFIG_SCSI_PROC_FS'
p357
S'y'
sS'CONFIG_RD_BZIP2'
p358
S'y'
sS'net.ipv6.conf.ens3.accept_ra_rt_info_min_plen'
p359
I0
sS'CONFIG_FDDI'
p360
S'y'
sS'CONFIG_XZ_DEC_SPARC'
p361
S'y'
sS'CONFIG_ACPI_SYSTEM_POWER_STATES_SUPPORT'
p362
S'y'
sS'CONFIG_MICROCODE_AMD'
p363
S'y'
sS'vm.nr_hugepages_mempolicy'
p364
I0
sS'net.ipv4.conf.all.ignore_routes_with_linkdown'
p365
I0
sS'CONFIG_HPET_EMULATE_RTC'
p366
S'y'
sS'CONFIG_XOR_BLOCKS'
p367
S'm'
sS'kernel.sched_domain.cpu1.domain0.name'
p368
S'DIE'
p369
sS'CONFIG_REGULATOR'
p370
S'y'
sS'CONFIG_MAILBOX'
p371
S'y'
sS'CONFIG_CRYPTO_HW'
p372
S'y'
sS'CONFIG_DECOMPRESS_GZIP'
p373
S'y'
sS'CONFIG_OID_REGISTRY'
p374
S'y'
sS'net.ipv6.conf.lo.regen_max_retry'
p375
I3
sS'net.ipv6.conf.default.proxy_ndp'
p376
I0
sS'CONFIG_MEMTEST'
p377
S'y'
sS'net.ipv4.ip_unprivileged_port_start'
p378
I1024
sS'net.ipv6.neigh.lo.app_solicit'
p379
I0
sS'CONFIG_PCI_BUS_ADDR_T_64BIT'
p380
S'y'
sS'CONFIG_VGA_SWITCHEROO'
p381
S'y'
sS'CONFIG_XZ_DEC_IA64'
p382
S'y'
sS'CONFIG_WLAN_VENDOR_MARVELL'
p383
S'y'
sS'CONFIG_ARCH_USE_QUEUED_SPINLOCKS'
p384
S'y'
sS'CONFIG_IPV6_SUBTREES'
p385
S'y'
sS'CONFIG_NET_EMATCH_STACK'
p386
I32
sS'net.ipv4.tcp_rmem'
p387
S'4096\t87380\t6291456'
p388
sS'CONFIG_CRYPTO_GF128MUL'
p389
S'y'
sS'net.ipv6.conf.lo.enhanced_dad'
p390
I1
sS'CONFIG_GPIOLIB'
p391
S'y'
sS'CONFIG_NET_VENDOR_SIS'
p392
S'y'
sS'vm.panic_on_oom'
p393
I0
sS'CONFIG_USER_STACKTRACE_SUPPORT'
p394
S'y'
sS'net.ipv4.neigh.ens3.app_solicit'
p395
I0
sS'CONFIG_HAVE_KVM_IRQ_BYPASS'
p396
S'y'
sS'CONFIG_ARCH_DISCARD_MEMBLOCK'
p397
S'y'
sS'net.ipv6.conf.default.suppress_frag_ndisc'
p398
I1
sS'fs.inotify.max_user_instances'
p399
I1024
sS'CONFIG_SYSCTL'
p400
S'y'
sS'net.ipv4.icmp_ignore_bogus_error_responses'
p401
I1
sS'CONFIG_HAVE_FENTRY'
p402
S'y'
sS'CONFIG_KRETPROBES'
p403
S'y'
sS'fs.quota.syncs'
p404
I0
sS'CONFIG_SECURITY_SMACK_NETFILTER'
p405
S'y'
sS'net.ipv6.neigh.ens3.delay_first_probe_time'
p406
I5
sS'kernel.stack_tracer_enabled'
p407
I0
sS'net.ipv4.conf.lo.arp_notify'
p408
I0
sS'kernel.sched_domain.cpu0.domain0.flags'
p409
I4143
sS'CONFIG_CRYPTO_DRBG_HMAC'
p410
S'y'
sS'CONFIG_MAC_PARTITION'
p411
S'y'
sS'CONFIG_MISC_FILESYSTEMS'
p412
S'y'
sS'abi.vsyscall32'
p413
I1
sS'net.ipv4.route.error_cost'
p414
I250
sS'CONFIG_CRYPTO_SKEIN'
p415
S'y'
sS'net.ipv6.conf.all.suppress_frag_ndisc'
p416
I1
sS'CONFIG_GENERIC_PCI_IOMAP'
p417
S'y'
sS'CONFIG_SND_HDA_INPUT_BEEP_MODE'
p418
I0
sS'CONFIG_DEBUG_KERNEL'
p419
S'y'
sS'CONFIG_CHELSIO_T4'
p420
S'm'
sS'kernel.version'
p421
S'#3 SMP Tue Mar 13 14:28:42 EDT 2018'
p422
sS'CONFIG_MODULE_SIG_SHA512'
p423
S'y'
sS'CONFIG_CHELSIO_T3'
p424
S'm'
sS'CONFIG_SECTION_MISMATCH_WARN_ONLY'
p425
S'y'
sS'user.max_mnt_namespaces'
p426
I257592
sS'net.core.wmem_max'
p427
I212992
sS'vm.swappiness'
p428
I60
sS'vm.zone_reclaim_mode'
p429
I0
sS'net.ipv4.tcp_l3mdev_accept'
p430
I0
sS'CONFIG_SBITMAP'
p431
S'y'
sS'vm.vfs_cache_pressure'
p432
I100
sS'net.ipv4.ipfrag_low_thresh'
p433
I3145728
sS'net.ipv4.route.mtu_expires'
p434
I600
sS'CONFIG_KPROBE_EVENTS'
p435
S'y'
sS'net.ipv6.conf.default.drop_unicast_in_l2_multicast'
p436
I0
sS'CONFIG_USB_EHCI_TT_NEWSCHED'
p437
S'y'
sS'CONFIG_X86_16BIT'
p438
S'y'
sS'net.ipv6.conf.ens3.force_mld_version'
p439
I0
sS'net.iw_cm.default_backlog'
p440
I256
sS'CONFIG_CRYPTO_CTR'
p441
S'y'
sS'CONFIG_CRC32_SLICEBY8'
p442
S'y'
sS'net.ipv4.tcp_reordering'
p443
I3
sS'CONFIG_NET'
p444
S'y'
sS'CONFIG_BLK_MQ_RDMA'
p445
S'y'
sS'CONFIG_HAS_DMA'
p446
S'y'
sS'kernel.random.uuid'
p447
S'8f79c414-5a77-480c-8085-fbbde8fd079b'
p448
sS'CONFIG_SOUND_OSS_CORE'
p449
S'y'
sS'net.ipv4.conf.lo.secure_redirects'
p450
I1
sS'fs.overflowgid'
p451
I65534
sS'net.ipv4.tcp_dsack'
p452
I1
sS'CONFIG_CPU_SUP_INTEL'
p453
S'y'
sS'CONFIG_TRANSPARENT_HUGEPAGE'
p454
S'y'
sS'CONFIG_SCSI_ISCSI_ATTRS'
p455
S'm'
sS'CONFIG_MQ_IOSCHED_DEADLINE'
p456
S'y'
sS'CONFIG_HAVE_IRQ_EXIT_ON_IRQ_STACK'
p457
S'y'
sS'CONFIG_EFI'
p458
S'y'
sS'CONFIG_VT_CONSOLE'
p459
S'y'
sS'kernel.acpi_video_flags'
p460
I0
sS'net.ipv6.conf.lo.router_solicitation_max_interval'
p461
I3600
sS'CONFIG_VGA_ARB_MAX_GPUS'
p462
I16
sS'CONFIG_BUILDTIME_EXTABLE_SORT'
p463
S'y'
sS'CONFIG_KEXEC_JUMP'
p464
S'y'
sS'net.ipv4.tcp_autocorking'
p465
I1
sS'kernel.sched_domain.cpu7.domain0.imbalance_pct'
p466
I125
sS'CONFIG_MFD_SEC_CORE'
p467
S'y'
sS'dev.cdrom.lock'
p468
I1
sS'CONFIG_HAVE_HW_BREAKPOINT'
p469
S'y'
sS'CONFIG_MACINTOSH_DRIVERS'
p470
S'y'
sS'CONFIG_ISDN'
p471
S'y'
sS'CONFIG_MFD_CORE'
p472
S'y'
sS'CONFIG_ACPI_FAN'
p473
S'y'
sS'net.ipv4.conf.lo.src_valid_mark'
p474
I0
sS'CONFIG_AIX_PARTITION'
p475
S'y'
sS'kernel.sched_domain.cpu1.domain0.cache_nice_tries'
p476
I1
sS'CONFIG_MD_RAID456'
p477
S'm'
sS'net.ipv4.conf.ens3.arp_ignore'
p478
I0
sS'CONFIG_TICK_CPU_ACCOUNTING'
p479
S'y'
sS'CONFIG_MFD_TPS65090'
p480
S'y'
sS'CONFIG_SFI'
p481
S'y'
sS'fs.inode-nr'
p482
S'86600\t512'
p483
sS'CONFIG_NET_SCH_FIFO'
p484
S'y'
sS'net.core.netdev_rss_key'
p485
S'00:00:00:00:00:00:00:00:00:00:00:00:00:00:00:00:00:00:00:00:00:00:00:00:00:00:00:00:00:00:00:00:00:00:00:00:00:00:00:00:00:00:00:00:00:00:00:00:00:00:00:00'
p486
sS'net.ipv4.conf.default.igmpv2_unsolicited_report_interval'
p487
I10000
sS'CONFIG_SYSFS_SYSCALL'
p488
S'y'
sS'CONFIG_RWSEM_XCHGADD_ALGORITHM'
p489
S'y'
sS'CONFIG_SYN_COOKIES'
p490
S'y'
sS'CONFIG_GENERIC_CMOS_UPDATE'
p491
S'y'
sS'net.ipv4.tcp_max_tw_buckets'
p492
I262144
sS'CONFIG_SERIAL_8250_EXTENDED'
p493
S'y'
sS'kernel.sched_domain.cpu0.domain0.max_newidle_lb_cost'
p494
I32360
sS'CONFIG_NET_VENDOR_ADAPTEC'
p495
S'y'
sS'CONFIG_EPOLL'
p496
S'y'
sS'CONFIG_LEGACY_VSYSCALL_EMULATE'
p497
S'y'
sS'kernel.sched_domain.cpu2.domain0.imbalance_pct'
p498
I125
sS'kernel.panic'
p499
I0
sS'CONFIG_FAT_DEFAULT_CODEPAGE'
p500
I437
sS'CONFIG_X86_SUPPORTS_MEMORY_FAILURE'
p501
S'y'
sS'CONFIG_CALGARY_IOMMU_ENABLED_BY_DEFAULT'
p502
S'y'
sS'CONFIG_BLK_DEV_SR'
p503
S'y'
sS'CONFIG_SECURITY_SELINUX_DISABLE'
p504
S'y'
sS'kernel.sched_domain.cpu9.domain0.idle_idx'
p505
I1
sS'CONFIG_NET_VENDOR_REALTEK'
p506
S'y'
sS'CONFIG_FAT_DEFAULT_IOCHARSET'
p507
S'"iso8859-1"'
p508
sS'net.ipv6.route.min_adv_mss'
p509
I1220
sS'CONFIG_IP_ROUTE_VERBOSE'
p510
S'y'
sS'CONFIG_MOUSE_PS2_LOGIPS2PP'
p511
S'y'
sS'net.ipv4.conf.ens3.arp_filter'
p512
I0
sS'CONFIG_USB_OHCI_HCD'
p513
S'y'
sS'CONFIG_VIRTIO_CONSOLE'
p514
S'y'
sS'net.ipv6.ip6frag_low_thresh'
p515
I3145728
sS'CONFIG_BSD_DISKLABEL'
p516
S'y'
sS'net.core.flow_limit_cpu_bitmap'
p517
S'0000000,00000000,00000000,00000000'
p518
sS'CONFIG_SECURITY_WRITABLE_HOOKS'
p519
S'y'
sS'CONFIG_NVM'
p520
S'y'
sS'net.ipv6.conf.ens3.accept_dad'
p521
I1
sS'CONFIG_HAVE_HARDENED_USERCOPY_ALLOCATOR'
p522
S'y'
sS'fs.quota.allocated_dquots'
p523
I0
sS'CONFIG_X509_CERTIFICATE_PARSER'
p524
S'y'
sS'CONFIG_CGROUP_HUGETLB'
p525
S'y'
sS'net.ipv4.ip_forward_use_pmtu'
p526
I0
sS'net.ipv4.conf.lo.send_redirects'
p527
I1
sS'net.ipv6.conf.all.proxy_ndp'
p528
I0
sS'CONFIG_OPTPROBES'
p529
S'y'
sS'net.ipv4.tcp_pacing_ss_ratio'
p530
I200
sS'kernel.keys.persistent_keyring_expiry'
p531
I259200
sS'CONFIG_MD'
p532
S'y'
sS'kernel.sched_domain.cpu7.domain0.forkexec_idx'
p533
I0
sS'CONFIG_DETECT_HUNG_TASK'
p534
S'y'
sS'CONFIG_DMI'
p535
S'y'
sS'CONFIG_INTEL_IOMMU_SVM'
p536
S'y'
sS'CONFIG_FB_CMDLINE'
p537
S'y'
sS'CONFIG_BQL'
p538
S'y'
sS'net.ipv4.tcp_ecn'
p539
I2
sS'CONFIG_RANDOMIZE_BASE'
p540
S'y'
sS'net.ipv6.neigh.default.gc_interval'
p541
I30
sS'kernel.sched_domain.cpu0.domain0.busy_idx'
p542
I2
sS'CONFIG_DUMMY_CONSOLE_ROWS'
p543
I25
sS'CONFIG_HT_IRQ'
p544
S'y'
sS'CONFIG_NET_VENDOR_ATHEROS'
p545
S'y'
sS'net.ipv6.neigh.ens3.unres_qlen_bytes'
p546
I212992
sS'kernel.panic_on_io_nmi'
p547
I0
sS'CONFIG_SERIAL_8250_CONSOLE'
p548
S'y'
sS'CONFIG_HAVE_ARCH_MMAP_RND_COMPAT_BITS'
p549
S'y'
sS'CONFIG_NVDIMM_PFN'
p550
S'y'
sS'net.ipv4.neigh.default.anycast_delay'
p551
I100
sS'CONFIG_MMC'
p552
S'y'
sS'kernel.sched_domain.cpu7.domain0.newidle_idx'
p553
I0
sS'CONFIG_SERIAL_CORE'
p554
S'y'
sS'CONFIG_BRIDGE_EBT_T_FILTER'
p555
S'm'
sS'net.ipv6.idgen_delay'
p556
I1
sS'CONFIG_TRACING_EVENTS_GPIO'
p557
S'y'
sS'CONFIG_MMU'
p558
S'y'
sS'net.ipv4.conf.ens3.disable_xfrm'
p559
I0
sS'CONFIG_MFD_DA9052_SPI'
p560
S'y'
sS'CONFIG_USE_PERCPU_NUMA_NODE_ID'
p561
S'y'
sS'CONFIG_NET_INGRESS'
p562
S'y'
sS'CONFIG_HAVE_ARCH_KASAN'
p563
S'y'
sS'net.ipv6.conf.ens3.disable_ipv6'
p564
I0
sS'kernel.msgmax'
p565
I8192
sS'CONFIG_ARCH_ENABLE_HUGEPAGE_MIGRATION'
p566
S'y'
sS'CONFIG_WIRELESS'
p567
S'y'
sS'CONFIG_CHARGER_MANAGER'
p568
S'y'
sS'CONFIG_ARCH_HAS_UBSAN_SANITIZE_ALL'
p569
S'y'
sS'net.ipv4.conf.ens3.medium_id'
p570
I0
sS'CONFIG_SYSVIPC'
p571
S'y'
sS'net.ipv6.neigh.ens3.ucast_solicit'
p572
I3
sS'CONFIG_PARPORT_PC_FIFO'
p573
S'y'
sS'CONFIG_RD_XZ'
p574
S'y'
sS'CONFIG_CONNECTOR'
p575
S'y'
sS'net.ipv4.conf.default.arp_accept'
p576
I0
sS'net.ipv4.udp_early_demux'
p577
I1
sS'CONFIG_MFD_88PM860X'
p578
S'y'
sS'kernel.numa_balancing_scan_period_max_ms'
p579
I60000
sS'CONFIG_MODVERSIONS'
p580
S'y'
sS'kernel.sched_migration_cost_ns'
p581
I500000
sS'CONFIG_HAVE_INTEL_TXT'
p582
S'y'
sS'net.ipv6.conf.lo.drop_unsolicited_na'
p583
I0
sS'CONFIG_OLD_SIGSUSPEND3'
p584
S'y'
sS'net.ipv6.neigh.default.gc_thresh1'
p585
I128
sS'dev.mac_hid.mouse_button2_keycode'
p586
I97
sS'CONFIG_DUMMY_CONSOLE_COLUMNS'
p587
I80
sS'CONFIG_ARCH_HAS_FAST_MULTIPLIER'
p588
S'y'
sS'net.ipv4.route.error_burst'
p589
I1250
sS'CONFIG_NET_VENDOR_ARC'
p590
S'y'
sS'net.ipv6.conf.all.keep_addr_on_down'
p591
I0
sS'CONFIG_BLK_CMDLINE_PARSER'
p592
S'y'
sS'CONFIG_EDAC_ATOMIC_SCRUB'
p593
S'y'
sS'CONFIG_TRUSTED_KEYS'
p594
S'y'
sS'CONFIG_PWM_SYSFS'
p595
S'y'
sS'CONFIG_AUDITSYSCALL'
p596
S'y'
sS'net.ipv6.conf.lo.proxy_ndp'
p597
I0
sS'CONFIG_HAVE_KVM_EVENTFD'
p598
S'y'
sS'CONFIG_HAVE_ARCH_KMEMCHECK'
p599
S'y'
sS'CONFIG_PM_DEVFREQ'
p600
S'y'
sS'CONFIG_UID16'
p601
S'y'
sS'CONFIG_ACPI_SLEEP'
p602
S'y'
sS'CONFIG_KSM'
p603
S'y'
sS'CONFIG_SND_SUPPORT_OLD_API'
p604
S'y'
sS'net.ipv4.conf.lo.accept_redirects'
p605
I1
sS'net.ipv6.conf.all.max_addresses'
p606
I16
sS'CONFIG_SCHED_MC_PRIO'
p607
S'y'
sS'net.ipv6.conf.all.accept_ra_from_local'
p608
I0
sS'CONFIG_RTC_HCTOSYS'
p609
S'y'
sS'kernel.softlockup_panic'
p610
I0
sS'CONFIG_RTC_I2C_AND_SPI'
p611
S'y'
sS'CONFIG_USB_EHCI_HCD'
p612
S'y'
sS'CONFIG_CHROME_PLATFORMS'
p613
S'y'
sS'CONFIG_HAVE_ARCH_KGDB'
p614
S'y'
sS'CONFIG_IO_DELAY_TYPE_0XED'
p615
I1
sS'net.ipv6.conf.ens3.drop_unicast_in_l2_multicast'
p616
I0
sS'net.ipv6.conf.default.force_mld_version'
p617
I0
sS'net.ipv4.ip_no_pmtu_disc'
p618
I0
sS'CONFIG_WLAN_VENDOR_MEDIATEK'
p619
S'y'
sS'vm.dirty_writeback_centisecs'
p620
I500
sS'net.ipv4.conf.all.send_redirects'
p621
I1
sS'CONFIG_SCSI_CXGB3_ISCSI'
p622
S'm'
sS'net.ipv6.conf.lo.accept_ra'
p623
I1
sS'kernel.sched_domain.cpu2.domain0.max_newidle_lb_cost'
p624
I35513
sS'CONFIG_ARCH_SUPPORTS_OPTIMIZED_INLINING'
p625
S'y'
sS'net.ipv4.conf.default.proxy_arp_pvlan'
p626
I0
sS'CONFIG_PM_STD_PARTITION'
p627
S'""'
p628
sS'net.ipv4.conf.ens3.secure_redirects'
p629
I1
sS'CONFIG_ULTRIX_PARTITION'
p630
S'y'
sS'CONFIG_HAVE_NMI'
p631
S'y'
sS'net.ipv6.conf.ens3.seg6_enabled'
p632
I0
sS'fs.mqueue.msgsize_max'
p633
I8192
sS'CONFIG_HAS_IOMEM'
p634
S'y'
sS'CONFIG_HAVE_KERNEL_XZ'
p635
S'y'
sS'net.ipv4.conf.all.forwarding'
p636
I0
sS'CONFIG_USB_DEFAULT_PERSIST'
p637
S'y'
sS'CONFIG_NEW_LEDS'
p638
S'y'
sS'CONFIG_DMI_SCAN_MACHINE_NON_EFI_FALLBACK'
p639
S'y'
sS'kernel.perf_event_paranoid'
p640
I2
sS'net.ipv4.conf.all.bootp_relay'
p641
I0
sS'net.ipv6.neigh.default.base_reachable_time_ms'
p642
I30000
sS'kernel.perf_event_mlock_kb'
p643
I516
sS'vm.block_dump'
p644
I0
sS'net.ipv4.tcp_keepalive_intvl'
p645
I75
sS'net.ipv4.conf.all.igmpv3_unsolicited_report_interval'
p646
I1000
sS'net.ipv4.conf.default.send_redirects'
p647
I1
sS'net.ipv6.conf.default.disable_ipv6'
p648
I0
sS'CONFIG_MD_RAID0'
p649
S'm'
sS'CONFIG_DW_DMAC_PCI'
p650
S'y'
sS'kernel.sched_domain.cpu0.domain0.imbalance_pct'
p651
I125
sS'net.ipv6.conf.lo.hop_limit'
p652
I64
sS'net.ipv4.conf.all.arp_accept'
p653
I0
sS'CONFIG_BINARY_PRINTF'
p654
S'y'
sS'CONFIG_TRACER_MAX_TRACE'
p655
S'y'
sS'kernel.msgmnb'
p656
I16384
sS'CONFIG_IRQ_BYPASS_MANAGER'
p657
S'm'
sS'CONFIG_IP_PIMSM_V1'
p658
S'y'
sS'CONFIG_IP_PIMSM_V2'
p659
S'y'
sS'kernel.soft_watchdog'
p660
I1
sS'CONFIG_USB_LED_TRIG'
p661
S'y'
sS'CONFIG_QUEUED_SPINLOCKS'
p662
S'y'
sS'kernel.sched_domain.cpu8.domain0.cache_nice_tries'
p663
I1
sS'CONFIG_X86_INTEL_MPX'
p664
S'y'
sS'CONFIG_X86_ACPI_CPUFREQ_CPB'
p665
S'y'
sS'net.ipv6.conf.default.mc_forwarding'
p666
I0
sS'kernel.threads-max'
p667
I515185
sS'kernel.overflowuid'
p668
I65534
sS'net.ipv4.conf.default.arp_announce'
p669
I0
sS'CONFIG_ACPI_DOCK'
p670
S'y'
sS'CONFIG_X86_INTEL_MEMORY_PROTECTION_KEYS'
p671
S'y'
sS'net.ipv4.neigh.ens3.base_reachable_time_ms'
p672
I30000
sS'CONFIG_SCHED_MC'
p673
S'y'
sS'CONFIG_ARCH_HAS_MEM_ENCRYPT'
p674
S'y'
sS'CONFIG_BOUNCE'
p675
S'y'
sS'CONFIG_VIRT_TO_BUS'
p676
S'y'
sS'kernel.keys.gc_delay'
p677
I300
sS'CONFIG_HAVE_ARCH_TRANSPARENT_HUGEPAGE_PUD'
p678
S'y'
sS'kernel.hung_task_timeout_secs'
p679
I120
sS'CONFIG_X86_MINIMUM_CPU_FAMILY'
p680
I64
sS'CONFIG_CRYPTO_KPP2'
p681
S'y'
sS'CONFIG_SQUASHFS_ZLIB'
p682
S'y'
sS'CONFIG_X86_PLATFORM_DEVICES'
p683
S'y'
sS'CONFIG_CONTEXT_SWITCH_TRACER'
p684
S'y'
sS'net.ipv4.conf.default.accept_source_route'
p685
I1
sS'kernel.core_pipe_limit'
p686
I0
sS'kernel.timer_migration'
p687
I1
sS'CONFIG_PERF_EVENTS_INTEL_RAPL'
p688
S'y'
sS'CONFIG_HAVE_PERF_USER_STACK_DUMP'
p689
S'y'
sS'CONFIG_SERIAL_SCCNXP'
p690
S'y'
sS'CONFIG_EFI_RUNTIME_MAP'
p691
S'y'
sS'CONFIG_ARCH_HAS_GCOV_PROFILE_ALL'
p692
S'y'
sS'CONFIG_SCHED_HRTICK'
p693
S'y'
sS'kernel.sched_domain.cpu6.domain0.idle_idx'
p694
I1
sS'CONFIG_BPF_SYSCALL'
p695
S'y'
sS'net.ipv6.conf.default.accept_ra_pinfo'
p696
I1
sS'CONFIG_KVM_COMPAT'
p697
S'y'
sS'CONFIG_VIRTIO_PCI_LEGACY'
p698
S'y'
sS'CONFIG_SATA_ZPODD'
p699
S'y'
sS'CONFIG_WLAN_VENDOR_QUANTENNA'
p700
S'y'
sS'CONFIG_CRYPTO_DEV_CCP'
p701
S'y'
sS'CONFIG_HAVE_EFFICIENT_UNALIGNED_ACCESS'
p702
S'y'
sS'CONFIG_USB_ANNOUNCE_NEW_DEVICES'
p703
S'y'
sS'CONFIG_AUTOFS4_FS'
p704
S'm'
sS'CONFIG_STAGING'
p705
S'y'
sS'net.ipv6.conf.default.router_probe_interval'
p706
I60
sS'CONFIG_IPV6_MROUTE_MULTIPLE_TABLES'
p707
S'y'
sS'CONFIG_NET_VENDOR_STMICRO'
p708
S'y'
sS'CONFIG_NUMA_BALANCING_DEFAULT_ENABLED'
p709
S'y'
sS'CONFIG_RD_LZ4'
p710
S'y'
sS'net.ipv6.conf.all.accept_ra_rt_info_max_plen'
p711
I0
sS'CONFIG_X86_DEV_DMA_OPS'
p712
S'y'
sS'CONFIG_PCI_ATS'
p713
S'y'
sS'CONFIG_RD_LZO'
p714
S'y'
sS'net.ipv4.tcp_ecn_fallback'
p715
I1
sS'CONFIG_BLK_DEV'
p716
S'y'
sS'CONFIG_HARDLOCKUP_CHECK_TIMESTAMP'
p717
S'y'
sS'CONFIG_SQUASHFS_XZ'
p718
S'y'
sS'CONFIG_MDIO_DEVICE'
p719
S'y'
sS'CONFIG_GPIO_RC5T583'
p720
S'y'
sS'net.ipv4.tcp_moderate_rcvbuf'
p721
I1
sS'CONFIG_ACPI_CONTAINER'
p722
S'y'
sS'CONFIG_ATA_BMDMA'
p723
S'y'
sS'net.ipv4.tcp_min_rtt_wlen'
p724
I300
sS'net.ipv6.fwmark_reflect'
p725
I0
sS'CONFIG_MOUSE_PS2_VMMOUSE'
p726
S'y'
sS'CONFIG_RTC_CLASS'
p727
S'y'
sS'CONFIG_SECURITY_APPARMOR'
p728
S'y'
sS'CONFIG_WATCHDOG_CORE'
p729
S'y'
sS'CONFIG_SERIAL_KGDB_NMI'
p730
S'y'
sS'CONFIG_INSTRUCTION_DECODER'
p731
S'y'
sS'net.ipv6.neigh.ens3.proxy_delay'
p732
I80
sS'CONFIG_SOC_TI'
p733
S'y'
sS'CONFIG_MFD_TPS80031'
p734
S'y'
sS'net.ipv6.conf.lo.router_probe_interval'
p735
I60
sS'CONFIG_MEMCG'
p736
S'y'
sS'net.ipv6.conf.default.accept_redirects'
p737
I1
sS'CONFIG_SCSI_SCAN_ASYNC'
p738
S'y'
sS'net.ipv4.neigh.lo.ucast_solicit'
p739
I3
sS'CONFIG_IOSCHED_CFQ'
p740
S'y'
sS'CONFIG_MEMBARRIER'
p741
S'y'
sS'net.ipv6.conf.all.mldv1_unsolicited_report_interval'
p742
I10000
sS'kernel.sched_domain.cpu2.domain0.idle_idx'
p743
I1
sS'CONFIG_BLK_DEV_DM'
p744
S'y'
sS'CONFIG_DEFAULT_HUNG_TASK_TIMEOUT'
p745
I120
sS'net.ipv6.conf.default.regen_max_retry'
p746
I3
sS'CONFIG_SND_PCI'
p747
S'y'
sS'CONFIG_GENERIC_CPU'
p748
S'y'
sS'net.ipv4.conf.default.accept_local'
p749
I0
sS'net.ipv6.conf.default.forwarding'
p750
I0
sS'net.core.dev_weight_rx_bias'
p751
I1
sS'CONFIG_CPU_SUP_AMD'
p752
S'y'
sS'CONFIG_GENERIC_FIND_FIRST_BIT'
p753
S'y'
sS'CONFIG_HAVE_USER_RETURN_NOTIFIER'
p754
S'y'
sS'kernel.core_pattern'
p755
S'|/usr/share/apport/apport %p %s %c %d %P'
p756
sS'kernel.perf_event_max_sample_rate'
p757
I100000
sS'CONFIG_SCSI'
p758
S'y'
sS'CONFIG_KPROBES'
p759
S'y'
sS'CONFIG_HAVE_GCC_PLUGINS'
p760
S'y'
sS'CONFIG_GENERIC_EARLY_IOREMAP'
p761
S'y'
sS'kernel.random.poolsize'
p762
I4096
sS'CONFIG_GLOB'
p763
S'y'
sS'CONFIG_ZBUD'
p764
S'y'
sS'CONFIG_ARCH_MMAP_RND_BITS_MAX'
p765
I32
sS'net.ipv6.conf.lo.force_mld_version'
p766
I0
sS'CONFIG_NUMA_BALANCING'
p767
S'y'
sS'net.ipv4.conf.ens3.accept_redirects'
p768
I1
sS'kernel.sched_domain.cpu1.domain0.busy_factor'
p769
I32
sS'CONFIG_EDD_OFF'
p770
S'y'
sS'CONFIG_THERMAL'
p771
S'y'
sS'CONFIG_BPF'
p772
S'y'
sS'CONFIG_HUGETLBFS'
p773
S'y'
sS'net.ipv4.tcp_frto'
p774
I2
sS'CONFIG_ETHERNET'
p775
S'y'
sS'net.ipv4.tcp_probe_threshold'
p776
I8
sS'CONFIG_CPU_IDLE'
p777
S'y'
sS'net.ipv4.conf.default.forwarding'
p778
I0
sS'CONFIG_DECOMPRESS_BZIP2'
p779
S'y'
sS'net.ipv6.conf.default.accept_ra_rtr_pref'
p780
I1
sS'net.ipv4.neigh.lo.delay_first_probe_time'
p781
I5
sS'net.ipv6.conf.ens3.force_tllao'
p782
I0
sS'CONFIG_AB3100_CORE'
p783
S'y'
sS'CONFIG_PM'
p784
S'y'
sS'CONFIG_FAIR_GROUP_SCHED'
p785
S'y'
sS'CONFIG_HAVE_ARCH_HUGE_VMAP'
p786
S'y'
sS'net.ipv4.ip_forward'
p787
I0
sS'CONFIG_COMPAT_32'
p788
S'y'
sS'kernel.sched_domain.cpu7.domain0.busy_factor'
p789
I32
sS'kernel.sched_domain.cpu0.domain0.name'
p790
S'DIE'
p791
sS'kernel.sched_domain.cpu3.domain0.busy_idx'
p792
I2
sS'kernel.sched_domain.cpu4.domain0.busy_idx'
p793
I2
sS'CONFIG_SUSPEND'
p794
S'y'
sS'CONFIG_NETFILTER_ADVANCED'
p795
S'y'
sS'CONFIG_RANDOMIZE_MEMORY'
p796
S'y'
sS'net.ipv6.conf.default.accept_ra_from_local'
p797
I0
sS'CONFIG_WLAN_VENDOR_REALTEK'
p798
S'y'
sS'CONFIG_PCIE_PME'
p799
S'y'
sS'net.ipv6.conf.ens3.accept_ra_rt_info_max_plen'
p800
I0
sS'net.core.flow_limit_table_len'
p801
I4096
sS'kernel.sched_domain.cpu9.domain0.flags'
p802
I4143
sS'CONFIG_MFD_TPS65912_I2C'
p803
S'y'
sS'CONFIG_MOUSE_PS2_SYNAPTICS_SMBUS'
p804
S'y'
sS'CONFIG_ZONE_DMA'
p805
S'y'
sS'net.core.max_skb_frags'
p806
I17
sS'CONFIG_DEFCONFIG_LIST'
p807
S'"/lib/modules/$UNAME_RELEASE/.config"'
p808
sS'CONFIG_HAVE_KVM_CPU_RELAX_INTERCEPT'
p809
S'y'
sS'CONFIG_VHOST'
p810
S'm'
sS'kernel.printk_devkmsg'
p811
S'ratelimit'
p812
sS'net.ipv6.neigh.ens3.gc_stale_time'
p813
I60
sS'CONFIG_HAVE_NET_DSA'
p814
S'y'
sS'CONFIG_PCI_LABEL'
p815
S'y'
sS'CONFIG_IOMMU_IOVA'
p816
S'y'
sS'net.ipv6.conf.default.accept_ra'
p817
I1
sS'kernel.sched_domain.cpu6.domain0.max_newidle_lb_cost'
p818
I11037
sS'CONFIG_ISCSI_IBFT_FIND'
p819
S'y'
sS'CONFIG_EVM'
p820
S'y'
sS'CONFIG_PKCS7_MESSAGE_PARSER'
p821
S'y'
sS'net.ipv4.tcp_workaround_signed_windows'
p822
I0
sS'CONFIG_PM_SLEEP'
p823
S'y'
sS'CONFIG_IP_MROUTE'
p824
S'y'
sS'net.ipv4.ipfrag_secret_interval'
p825
I0
sS'CONFIG_ZSTD_DECOMPRESS'
p826
S'm'
sS'net.ipv6.neigh.default.ucast_solicit'
p827
I3
sS'net.ipv6.neigh.default.locktime'
p828
I0
sS'CONFIG_AGP_VIA'
p829
S'y'
sS'net.ipv6.auto_flowlabels'
p830
I1
sS'fs.quota.reads'
p831
I0
sS'kernel.sched_child_runs_first'
p832
I0
sS'CONFIG_NODES_SHIFT'
p833
I6
sS'CONFIG_ELFCORE'
p834
S'y'
sS'CONFIG_BPF_EVENTS'
p835
S'y'
sS'net.ipv4.neigh.lo.mcast_solicit'
p836
I3
sS'CONFIG_BUILD_BIN2C'
p837
S'y'
sS'CONFIG_SND_HDA_GENERIC'
p838
S'm'
sS'net.core.bpf_jit_enable'
p839
I0
sS'CONFIG_SND_HDA'
p840
S'm'
sS'fs.quota.drops'
p841
I0
sS'kernel.acct'
p842
S'4\t2\t30'
p843
sS'kernel.sched_domain.cpu8.domain0.name'
p844
S'DIE'
p845
sS'fs.mqueue.msg_max'
p846
I10
sS'kernel.yama.ptrace_scope'
p847
I1
sS'net.ipv6.conf.default.max_desync_factor'
p848
I600
sS'CONFIG_MAC80211_STA_HASH_MAX_SIZE'
p849
I0
sS'dev.parport.default.timeslice'
p850
I200
sS'net.ipv4.inet_peer_threshold'
p851
I65664
sS'net.ipv6.conf.all.ignore_routes_with_linkdown'
p852
I0
sS'net.core.rps_sock_flow_entries'
p853
I0
sS'CONFIG_ARCH_SELECT_MEMORY_MODEL'
p854
S'y'
sS'CONFIG_FONT_8x8'
p855
S'y'
sS'kernel.sched_domain.cpu1.domain0.min_interval'
p856
I10
sS'net.ipv4.tcp_recovery'
p857
I1
sS'CONFIG_EARLY_PRINTK_USB'
p858
S'y'
sS'net.ipv6.neigh.default.proxy_qlen'
p859
I64
sS'CONFIG_EDD'
p860
S'y'
sS'net.ipv6.route.max_size'
p861
I4096
sS'kernel.sched_domain.cpu5.domain0.imbalance_pct'
p862
I125
sS'net.ipv4.tcp_fwmark_accept'
p863
I0
sS'CONFIG_FTRACE_SYSCALLS'
p864
S'y'
sS'net.ipv6.conf.lo.accept_ra_rt_info_min_plen'
p865
I0
sS'CONFIG_GENERIC_IRQ_MIGRATION'
p866
S'y'
sS'kernel.sched_domain.cpu5.domain0.max_interval'
p867
I20
sS'fs.inode-state'
p868
S'86600\t512\t0\t0\t0\t0\t0'
p869
sS'CONFIG_HTC_I2CPLD'
p870
S'y'
sS'CONFIG_LEDS_TRIGGERS'
p871
S'y'
sS'net.ipv4.ipfrag_max_dist'
p872
I64
sS'kernel.sched_rt_period_us'
p873
I1000000
sS'CONFIG_HAVE_CONTEXT_TRACKING'
p874
S'y'
sS'CONFIG_CRYPTO_DRBG'
p875
S'y'
sS'CONFIG_ADVISE_SYSCALLS'
p876
S'y'
sS'CONFIG_STRICT_MODULE_RWX'
p877
S'y'
sS'kernel.printk_delay'
p878
I0
sS'kernel.sched_domain.cpu8.domain0.forkexec_idx'
p879
I0
sS'CONFIG_GENERIC_ISA_DMA'
p880
S'y'
sS'net.ipv4.neigh.default.retrans_time_ms'
p881
I1000
sS'net.core.wmem_default'
p882
I212992
sS'CONFIG_RATIONAL'
p883
S'y'
sS'CONFIG_ARCH_DMA_ADDR_T_64BIT'
p884
S'y'
sS'CONFIG_IP_NF_FILTER'
p885
S'm'
sS'net.ipv4.conf.default.route_localnet'
p886
I0
sS'net.ipv4.conf.lo.proxy_arp'
p887
I0
sS'CONFIG_PMIC_DA903X'
p888
S'y'
sS'CONFIG_X86_POWERNOW_K8'
p889
S'y'
sS'CONFIG_ACPI_APEI_MEMORY_FAILURE'
p890
S'y'
sS'net.ipv4.ip_local_reserved_ports'
p891
S''
sS'CONFIG_NET_VENDOR_QLOGIC'
p892
S'y'
sS'CONFIG_PCSPKR_PLATFORM'
p893
S'y'
sS'CONFIG_X86_PCC_CPUFREQ'
p894
S'y'
sS'kernel.sysctl_writes_strict'
p895
I1
sS'vm.drop_caches'
p896
I0
sS'CONFIG_I2C_COMPAT'
p897
S'y'
sS'net.ipv6.conf.ens3.temp_valid_lft'
p898
I604800
sS'CONFIG_HAVE_FUNCTION_TRACER'
p899
S'y'
sS'CONFIG_TRACING_SUPPORT'
p900
S'y'
sS'kernel.watchdog_cpumask'
p901
S'0-121'
p902
sS'CONFIG_IMA_APPRAISE'
p903
S'y'
sS'dev.cdrom.info'
p904
S''
sS'CONFIG_NET_VENDOR_AQUANTIA'
p905
S'y'
sS'kernel.sched_domain.cpu9.domain0.wake_idx'
p906
I0
sS'CONFIG_TRANSPARENT_HUGEPAGE_ALWAYS'
p907
S'y'
sg8
S'HostInfo.host-192.168.123.30'
p908
sS'CONFIG_X86_L1_CACHE_SHIFT'
p909
I6
sS'CONFIG_NET_VENDOR_HP'
p910
S'y'
sS'CONFIG_NET_VENDOR_MELLANOX'
p911
S'y'
sS'CONFIG_SHMEM'
p912
S'y'
sS'CONFIG_EFI_RUNTIME_WRAPPERS'
p913
S'y'
sS'net.core.netdev_max_backlog'
p914
I1000
sS'kernel.sched_domain.cpu8.domain0.max_newidle_lb_cost'
p915
I19694
sS'CONFIG_PM_TRACE_RTC'
p916
S'y'
sS'net.ipv6.neigh.ens3.unres_qlen'
p917
I101
sS'CONFIG_ARCH_HIBERNATION_POSSIBLE'
p918
S'y'
sS'kernel.hotplug'
p919
S''
sS'CONFIG_SERIAL_CORE_CONSOLE'
p920
S'y'
sS'kernel.sched_domain.cpu9.domain0.busy_idx'
p921
I2
sS'kernel.ostype'
p922
S'Linux'
p923
sS'CONFIG_PNP'
p924
S'y'
sS'kernel.sched_domain.cpu9.domain0.imbalance_pct'
p925
I125
sS'CONFIG_IPV6'
p926
S'y'
sS'CONFIG_GENERIC_CLOCKEVENTS'
p927
S'y'
sS'CONFIG_MICROCODE_INTEL'
p928
S'y'
sS'CONFIG_PM_CLK'
p929
S'y'
sS'CONFIG_SECURITY_TOMOYO_POLICY_LOADER'
p930
S'"/sbin/tomoyo-init"'
p931
sS'CONFIG_TCG_TPM'
p932
S'y'
sS'CONFIG_I2C_DESIGNWARE_PLATFORM'
p933
S'y'
sS'net.ipv6.conf.ens3.ignore_routes_with_linkdown'
p934
I0
sS'CONFIG_CHECKPOINT_RESTORE'
p935
S'y'
sS'vm.nr_pdflush_threads'
p936
I0
sS'kernel.sched_domain.cpu6.domain0.busy_factor'
p937
I32
sS'kernel.sched_domain.cpu4.domain0.imbalance_pct'
p938
I125
sS'CONFIG_SQUASHFS'
p939
S'y'
sS'CONFIG_WQ_POWER_EFFICIENT_DEFAULT'
p940
S'y'
sS'CONFIG_MFD_MAX77693'
p941
S'y'
sS'kernel.core_uses_pid'
p942
I0
sS'CONFIG_CGROUP_DEVICE'
p943
S'y'
sS'CONFIG_NET_VENDOR_ALTEON'
p944
S'y'
sS'CONFIG_BSD_PROCESS_ACCT_V3'
p945
S'y'
sS'net.ipv4.conf.ens3.tag'
p946
I0
sS'CONFIG_AMD_NB'
p947
S'y'
sS'net.ipv4.conf.default.tag'
p948
I0
sS'net.ipv4.tcp_max_syn_backlog'
p949
I2048
sS'CONFIG_DECOMPRESS_XZ'
p950
S'y'
sS'net.ipv6.conf.all.dad_transmits'
p951
I1
sS'CONFIG_BASE_SMALL'
p952
I0
sS'vm.dirty_expire_centisecs'
p953
I3000
sS'CONFIG_KERNFS'
p954
S'y'
sS'kernel.sched_domain.cpu6.domain0.min_interval'
p955
I10
sS'CONFIG_IP_MULTICAST'
p956
S'y'
sS'CONFIG_PM_WAKELOCKS_GC'
p957
S'y'
sS'kernel.sched_domain.cpu3.domain0.wake_idx'
p958
I0
sS'CONFIG_X86_PMEM_LEGACY'
p959
S'y'
sS'CONFIG_GENERIC_IRQ_SHOW'
p960
S'y'
sS'CONFIG_MFD_WM8400'
p961
S'y'
sS'net.ipv6.conf.all.forwarding'
p962
I0
sS'net.ipv4.conf.default.medium_id'
p963
I0
sS'CONFIG_ARCH_HAS_GIGANTIC_PAGE'
p964
S'y'
sS'vm.oom_dump_tasks'
p965
I1
sS'net.ipv6.ip6frag_secret_interval'
p966
I0
sS'CONFIG_PMIC_ADP5520'
p967
S'y'
sS'CONFIG_USER_NS'
p968
S'y'
sS'net.ipv4.neigh.default.gc_stale_time'
p969
I60
sS'CONFIG_PARPORT'
p970
S'm'
sS'CONFIG_ARCH_WANTS_DYNAMIC_TASK_STRUCT'
p971
S'y'
sS'net.ipv4.conf.ens3.accept_source_route'
p972
I1
sS'CONFIG_SYSTEM_TRUSTED_KEYRING'
p973
S'y'
sS'net.ipv6.icmp.ratelimit'
p974
I1000
sS'net.ipv4.conf.lo.log_martians'
p975
I0
sS'dev.cdrom.check_media'
p976
I0
sS'CONFIG_INTEL_SOC_PMIC'
p977
S'y'
sS'kernel.sched_domain.cpu9.domain0.min_interval'
p978
I10
sS'net.ipv6.conf.ens3.keep_addr_on_down'
p979
I0
sS'net.ipv4.conf.default.mc_forwarding'
p980
I0
sS'net.core.dev_weight_tx_bias'
p981
I1
sS'CONFIG_MDIO'
p982
S'm'
sS'net.ipv6.neigh.default.retrans_time_ms'
p983
I1000
sS'net.ipv6.conf.ens3.drop_unsolicited_na'
p984
I0
sS'kernel.sem'
p985
S'32000\t1024000000\t500\t32000'
p986
sS'net.ipv4.tcp_window_scaling'
p987
I1
sS'net.ipv4.tcp_available_ulp'
p988
S''
sS'CONFIG_NEED_DMA_MAP_STATE'
p989
S'y'
sS'net.ipv6.conf.lo.temp_prefered_lft'
p990
I86400
sS'CONFIG_HAVE_ARCH_SECCOMP_FILTER'
p991
S'y'
sS'CONFIG_INPUT_MOUSEDEV_SCREEN_X'
p992
I1024
sS'CONFIG_INPUT_MOUSEDEV_SCREEN_Y'
p993
I768
sS'CONFIG_DMIID'
p994
S'y'
sS'net.ipv4.conf.default.arp_notify'
p995
I0
sS'net.ipv6.flowlabel_reflect'
p996
I0
sS'CONFIG_DAX'
p997
S'y'
sS'net.ipv4.neigh.ens3.proxy_delay'
p998
I80
sS'CONFIG_NETLABEL'
p999
S'y'
sS'CONFIG_ARCH_HAS_ACPI_TABLE_UPGRADE'
p1000
S'y'
sS'CONFIG_IRQ_REMAP'
p1001
S'y'
sS'CONFIG_GENERIC_TRACER'
p1002
S'y'
sS'CONFIG_BE2ISCSI'
p1003
S'm'
sS'CONFIG_NET_VENDOR_DEC'
p1004
S'y'
sS'CONFIG_FUTEX'
p1005
S'y'
sS'net.ipv6.neigh.ens3.app_solicit'
p1006
I0
sS'net.ipv4.inet_peer_maxttl'
p1007
I600
sS'CONFIG_SSB_POSSIBLE'
p1008
S'y'
sS'net.ipv4.conf.default.arp_ignore'
p1009
I0
sS'CONFIG_WLAN_VENDOR_ADMTEK'
p1010
S'y'
sS'kernel.softlockup_all_cpu_backtrace'
p1011
I0
sS'CONFIG_ZSTD_COMPRESS'
p1012
S'm'
sS'CONFIG_HWMON'
p1013
S'y'
sS'kernel.bootloader_type'
p1014
I114
sS'CONFIG_MFD_DA9052_I2C'
p1015
S'y'
sS'CONFIG_LOG_BUF_SHIFT'
p1016
I18
sS'CONFIG_INTEL_IOMMU'
p1017
S'y'
sS'CONFIG_IRQ_DOMAIN_HIERARCHY'
p1018
S'y'
sS'CONFIG_NET_VENDOR_BROCADE'
p1019
S'y'
sS'CONFIG_ACPI_CUSTOM_DSDT_FILE'
p1020
S'""'
p1021
sS'net.ipv6.neigh.default.gc_thresh2'
p1022
I512
sS'net.ipv6.neigh.default.gc_thresh3'
p1023
I1024
sS'net.ipv6.conf.ens3.use_tempaddr'
p1024
I0
sS'vm.nr_hugepages'
p1025
I0
sS'CONFIG_NO_HZ_IDLE'
p1026
S'y'
sS'user.max_ipc_namespaces'
p1027
I257592
sS'CONFIG_COMPAT'
p1028
S'y'
sS'CONFIG_CRYPTO_SHA256'
p1029
S'y'
sS'net.ipv4.neigh.ens3.unres_qlen_bytes'
p1030
I212992
sS'vm.overcommit_memory'
p1031
I0
sS'CONFIG_MODULE_UNLOAD'
p1032
S'y'
sS'CONFIG_NLS_DEFAULT'
p1033
S'"utf8"'
p1034
sS'CONFIG_MFD_RC5T583'
p1035
S'y'
sS'CONFIG_BTRFS_FS_POSIX_ACL'
p1036
S'y'
sS'CONFIG_GENERIC_PHY'
p1037
S'y'
sS'net.ipv6.conf.lo.accept_source_route'
p1038
I0
sS'CONFIG_CHELSIO_LIB'
p1039
S'm'
sS'net.ipv4.neigh.lo.retrans_time_ms'
p1040
I1000
sS'CONFIG_X86_RESERVE_LOW'
p1041
I64
sS'kernel.modules_disabled'
p1042
I0
sS'CONFIG_X86_NUMACHIP'
p1043
S'y'
sS'net.ipv6.ip_nonlocal_bind'
p1044
I0
sS'CONFIG_TCP_CONG_CUBIC'
p1045
S'y'
sS'CONFIG_INOTIFY_USER'
p1046
S'y'
sS'net.core.busy_poll'
p1047
I0
sS'CONFIG_UEFI_CPER'
p1048
S'y'
sS'CONFIG_RTC_DRV_CMOS'
p1049
S'y'
sS'CONFIG_TRANSPARENT_HUGE_PAGECACHE'
p1050
S'y'
sS'net.ipv4.neigh.lo.base_reachable_time_ms'
p1051
I30000
sS'net.ipv4.tcp_tw_reuse'
p1052
I0
sS'CONFIG_MOUSE_PS2_SENTELIC'
p1053
S'y'
sS'CONFIG_LOCKUP_DETECTOR'
p1054
S'y'
sS'CONFIG_ASYNC_MEMCPY'
p1055
S'm'
sS'CONFIG_RAPIDIO'
p1056
S'y'
sS'CONFIG_STAGING_MEDIA'
p1057
S'y'
sS'net.ipv4.conf.ens3.igmpv3_unsolicited_report_interval'
p1058
I1000
sS'net.ipv4.ip_local_port_range'
p1059
S'32768\t60999'
p1060
sS'kernel.sched_domain.cpu2.domain0.min_interval'
p1061
I10
sS'CONFIG_HUGETLB_PAGE'
p1062
S'y'
sS'CONFIG_PERF_EVENTS'
p1063
S'y'
sS'net.ipv4.neigh.lo.locktime'
p1064
I100
sS'CONFIG_SECURITY_TOMOYO_ACTIVATION_TRIGGER'
p1065
S'"/sbin/init"'
p1066
sS'CONFIG_UCS2_STRING'
p1067
S'y'
sS'CONFIG_ARCH_SPARSEMEM_DEFAULT'
p1068
S'y'
sS'CONFIG_IPV6_ROUTE_INFO'
p1069
S'y'
sS'CONFIG_CLKEVT_I8253'
p1070
S'y'
sS'CONFIG_SERIAL_8250_PCI'
p1071
S'y'
sS'CONFIG_PCIEASPM_DEFAULT'
p1072
S'y'
sS'CONFIG_HAVE_EXIT_THREAD'
p1073
S'y'
sS'CONFIG_SND_HDA_HWDEP'
p1074
S'y'
sS'CONFIG_SOFTLOCKUP_DETECTOR'
p1075
S'y'
sS'CONFIG_EARLY_PRINTK'
p1076
S'y'
sS'net.ipv6.conf.ens3.ndisc_notify'
p1077
I0
sS'net.ipv4.conf.all.proxy_arp_pvlan'
p1078
I0
sS'kernel'
p1079
S'4.14.0-rc8-stock'
p1080
sS'user.max_cgroup_namespaces'
p1081
I257592
sS'CONFIG_BACKLIGHT_LCD_SUPPORT'
p1082
S'y'
sS'CONFIG_MOUSE_PS2_ELANTECH'
p1083
S'y'
sS'CONFIG_PCI_MMCONFIG'
p1084
S'y'
sS'CONFIG_KVM_MMIO'
p1085
S'y'
sS'net.ipv4.neigh.default.unres_qlen_bytes'
p1086
I212992
sS'CONFIG_INPUT_UINPUT'
p1087
S'y'
sS'CONFIG_PINCTRL_BAYTRAIL'
p1088
S'y'
sS'net.ipv4.icmp_errors_use_inbound_ifaddr'
p1089
I0
sS'net.ipv6.conf.all.addr_gen_mode'
p1090
I0
sS'CONFIG_HAVE_ACPI_APEI_NMI'
p1091
S'y'
sS'vm.page-cluster'
p1092
I3
sS'CONFIG_MOUSE_PS2_CYPRESS'
p1093
S'y'
sS'kernel.sched_rt_runtime_us'
p1094
I950000
sS'CONFIG_USB_DWC2_PCI'
p1095
S'y'
sS'CONFIG_X86_CMOV'
p1096
S'y'
sS'net.ipv4.tcp_fastopen_blackhole_timeout_sec'
p1097
I3600
sS'CONFIG_SIGNATURE'
p1098
S'y'
sS'net.ipv4.conf.all.mc_forwarding'
p1099
I0
sS'CONFIG_PM_DEBUG'
p1100
S'y'
sS'net.ipv4.neigh.default.ucast_solicit'
p1101
I3
sS'kernel.pty.reserve'
p1102
I1024
sS'CONFIG_SOUND'
p1103
S'm'
sS'kernel.sched_domain.cpu6.domain0.flags'
p1104
I4143
sS'CONFIG_SERIO_I8042'
p1105
S'y'
sS'CONFIG_NET_VENDOR_NETRONOME'
p1106
S'y'
sS'CONFIG_BLK_DEV_LOOP'
p1107
S'y'
sS'vm.mmap_min_addr'
p1108
I65536
sS'CONFIG_CRYPTO_DRBG_CTR'
p1109
S'y'
sS'CONFIG_HAVE_CMPXCHG_LOCAL'
p1110
S'y'
sS'net.ipv6.route.mtu_expires'
p1111
I600
sS'CONFIG_SND_USB'
p1112
S'y'
sS'CONFIG_CMDLINE_PARTITION'
p1113
S'y'
sS'CONFIG_NETWORK_SECMARK'
p1114
S'y'
sS'CONFIG_SND_HDA_INTEL'
p1115
S'm'
sS'net.ipv4.ping_group_range'
p1116
S'1\t0'
p1117
sS'CONFIG_PERF_EVENTS_INTEL_CSTATE'
p1118
S'y'
sS'kernel.sched_domain.cpu5.domain0.max_newidle_lb_cost'
p1119
I22070
sS'net.ipv4.icmp_msgs_burst'
p1120
I50
sS'CONFIG_PPP_MULTILINK'
p1121
S'y'
sS'CONFIG_BLK_DEV_FD'
p1122
S'm'
sS'CONFIG_SND_DRIVERS'
p1123
S'y'
sS'CONFIG_SCSI_CXGB4_ISCSI'
p1124
S'm'
sS'CONFIG_CRASH_DUMP'
p1125
S'y'
sS'vm.watermark_scale_factor'
p1126
I10
sS'CONFIG_HAVE_UID16'
p1127
S'y'
sS'CONFIG_NET_VENDOR_WIZNET'
p1128
S'y'
sS'CONFIG_IPV6_ROUTER_PREF'
p1129
S'y'
sS'dev.parport.default.spintime'
p1130
I500
sS'CONFIG_IOSF_MBI'
p1131
S'y'
sS'net.ipv4.fib_multipath_hash_policy'
p1132
I0
sS'CONFIG_BLK_DEV_BSG'
p1133
S'y'
sS'kernel.sched_domain.cpu5.domain0.flags'
p1134
I4143
sS'CONFIG_CPU_FREQ_GOV_CONSERVATIVE'
p1135
S'y'
sS'CONFIG_MEMORY_HOTPLUG_SPARSE'
p1136
S'y'
sS'CONFIG_ZSWAP'
p1137
S'y'
sS'CONFIG_KVM'
p1138
S'm'
sS'CONFIG_PCIEASPM_DEBUG'
p1139
S'y'
sS'CONFIG_PROC_PID_CPUSET'
p1140
S'y'
sS'CONFIG_MEMORY_BALLOON'
p1141
S'y'
sS'CONFIG_INFINIBAND'
p1142
S'm'
sS'CONFIG_NET_VENDOR_SILAN'
p1143
S'y'
sS'net.ipv4.conf.ens3.log_martians'
p1144
I0
sS'CONFIG_CC_STACKPROTECTOR_STRONG'
p1145
S'y'
sS'CONFIG_HOTPLUG_CPU'
p1146
S'y'
sS'CONFIG_PROC_FS'
p1147
S'y'
sS'net.ipv4.route.redirect_number'
p1148
I9
sS'CONFIG_MOUSE_PS2_ALPS'
p1149
S'y'
sS'kernel.sched_domain.cpu3.domain0.min_interval'
p1150
I10
sS'CONFIG_THERMAL_WRITABLE_TRIPS'
p1151
S'y'
sS'CONFIG_TOUCHSCREEN_PROPERTIES'
p1152
S'y'
sS'vm.lowmem_reserve_ratio'
p1153
S'256\t256\t32\t1'
p1154
sS'CONFIG_BLK_DEV_THROTTLING'
p1155
S'y'
sS'CONFIG_SWAP'
p1156
S'y'
sS'kernel.osrelease'
p1157
S'4.14.0-rc8-stock'
p1158
sS'kernel.sched_domain.cpu8.domain0.busy_idx'
p1159
I2
sS'CONFIG_AMD_IOMMU'
p1160
S'y'
sS'CONFIG_PAGE_COUNTER'
p1161
S'y'
sS'CONFIG_ARCH_MIGHT_HAVE_ACPI_PDC'
p1162
S'y'
sS'CONFIG_MFD_AS3711'
p1163
S'y'
sS'CONFIG_EFI_MIXED'
p1164
S'y'
sS'CONFIG_FILE_LOCKING'
p1165
S'y'
sS'CONFIG_MFD_WM831X_I2C'
p1166
S'y'
sS'CONFIG_ATA_ACPI'
p1167
S'y'
sS'net.ipv4.conf.lo.route_localnet'
p1168
I0
sS'net.ipv6.ip6frag_high_thresh'
p1169
I4194304
sS'CONFIG_ACPI_APEI'
p1170
S'y'
sS'net.ipv6.conf.ens3.mc_forwarding'
p1171
I0
sS'CONFIG_IRQ_DOMAIN'
p1172
S'y'
sS'net.ipv4.udp_wmem_min'
p1173
I4096
sS'net.ipv4.tcp_invalid_ratelimit'
p1174
I500
sS'net.ipv4.neigh.ens3.proxy_qlen'
p1175
I64
sS'CONFIG_NET_VENDOR_AMAZON'
p1176
S'y'
sS'kernel.sched_domain.cpu2.domain0.busy_factor'
p1177
I32
sS'CONFIG_VT'
p1178
S'y'
sS'net.ipv4.conf.lo.arp_announce'
p1179
I0
sS'kernel.msgmni'
p1180
I32000
sS'CONFIG_HAVE_IDE'
p1181
S'y'
sS'kernel.sched_domain.cpu6.domain0.forkexec_idx'
p1182
I0
sS'CONFIG_NET_VENDOR_8390'
p1183
S'y'
sS'CONFIG_SLUB'
p1184
S'y'
sS'fs.mqueue.queues_max'
p1185
I256
sS'net.ipv4.conf.ens3.rp_filter'
p1186
I1
sS'CONFIG_NET_NS'
p1187
S'y'
sS'CONFIG_HAVE_LIVEPATCH'
p1188
S'y'
sS'CONFIG_KGDB_LOW_LEVEL_TRAP'
p1189
S'y'
sS'CONFIG_HAVE_OPROFILE'
p1190
S'y'
sS'CONFIG_NVDIMM_DAX'
p1191
S'y'
sS'CONFIG_IMA_DEFAULT_HASH'
p1192
S'"sha1"'
p1193
sS'CONFIG_ACPI_THERMAL'
p1194
S'y'
sS'CONFIG_BLK_DEV_BSGLIB'
p1195
S'y'
sS'net.ipv4.neigh.default.locktime'
p1196
I100
sS'CONFIG_PINCTRL_CHERRYVIEW'
p1197
S'y'
sS'CONFIG_HPET_MMAP'
p1198
S'y'
sS'CONFIG_SERIAL_8250_RT288X'
p1199
S'y'
sS'CONFIG_CLOCKSOURCE_VALIDATE_LAST_CYCLE'
p1200
S'y'
sS'net.ipv4.conf.lo.rp_filter'
p1201
I0
sS'net.core.busy_read'
p1202
I0
sS'CONFIG_BTRFS_FS'
p1203
S'm'
sS'CONFIG_DCACHE_WORD_ACCESS'
p1204
S'y'
sS'net.ipv6.conf.default.mtu'
p1205
I1280
sS'kernel.sched_domain.cpu7.domain0.idle_idx'
p1206
I1
sS'CONFIG_SPARSEMEM_MANUAL'
p1207
S'y'
sS'net.ipv4.conf.default.drop_gratuitous_arp'
p1208
I0
sS'CONFIG_UPROBES'
p1209
S'y'
sS'CONFIG_NLS_CODEPAGE_437'
p1210
S'y'
sS'CONFIG_ARCH_ENABLE_MEMORY_HOTPLUG'
p1211
S'y'
sS'CONFIG_FIRMWARE_MEMMAP'
p1212
S'y'
sS'CONFIG_FIX_EARLYCON_MEM'
p1213
S'y'
sS'CONFIG_SCHED_DEBUG'
p1214
S'y'
sS'CONFIG_BOOT_PRINTK_DELAY'
p1215
S'y'
sS'CONFIG_TMPFS'
p1216
S'y'
sS'CONFIG_X86_MCE_INTEL'
p1217
S'y'
sS'CONFIG_RTC_INTF_PROC'
p1218
S'y'
sS'kernel.sched_domain.cpu1.domain0.busy_idx'
p1219
I2
sS'CONFIG_MD_AUTODETECT'
p1220
S'y'
sS'net.ipv6.conf.lo.max_desync_factor'
p1221
I600
sS'CONFIG_X86_ESPFIX64'
p1222
S'y'
sS'net.ipv4.neigh.lo.gc_stale_time'
p1223
I60
sS'kernel.traceoff_on_warning'
p1224
I0
sS'net.ipv4.conf.all.proxy_arp'
p1225
I0
sS'CONFIG_ARCH_USE_BUILTIN_BSWAP'
p1226
S'y'
sS'CONFIG_PROC_SYSCTL'
p1227
S'y'
sS'fs.file-max'
p1228
I6578986
sS'debug.kprobes-optimization'
p1229
I1
sS'CONFIG_ACPI_APEI_GHES'
p1230
S'y'
sS'net.ipv4.tcp_limit_output_bytes'
p1231
I262144
sS'CONFIG_NET_VENDOR_NVIDIA'
p1232
S'y'
sS'net.ipv4.neigh.default.mcast_resolicit'
p1233
I0
sS'CONFIG_ACPI_HOTPLUG_CPU'
p1234
S'y'
sS'kernel.keys.maxkeys'
p1235
I200
sS'CONFIG_FRAME_WARN'
p1236
I1024
sS'net.ipv6.conf.all.enhanced_dad'
p1237
I1
sS'CONFIG_FAT_FS'
p1238
S'y'
sS'CONFIG_IRQ_POLL'
p1239
S'y'
sS'net.ipv6.conf.all.hop_limit'
p1240
I64
sS'CONFIG_VT_CONSOLE_SLEEP'
p1241
S'y'
sS'kernel.random.entropy_avail'
p1242
I533
sS'net.ipv4.conf.default.force_igmp_version'
p1243
I0
sS'net.ipv4.ip_default_ttl'
p1244
I64
sS'CONFIG_CLEANCACHE'
p1245
S'y'
sS'CONFIG_PCI_PRI'
p1246
S'y'
sS'CONFIG_CRYPTO_ALGAPI'
p1247
S'y'
sS'kernel.random.boot_id'
p1248
S'165a1b16-34d0-4c85-8958-f0e4e4b80661'
p1249
sS'net.ipv4.conf.lo.accept_local'
p1250
I0
sS'kernel.sched_domain.cpu2.domain0.max_interval'
p1251
I20
sS'CONFIG_QUOTA'
p1252
S'y'
sS'net.ipv4.neigh.default.app_solicit'
p1253
I0
sS'CONFIG_CPUSETS'
p1254
S'y'
sS'CONFIG_THERMAL_GOV_BANG_BANG'
p1255
S'y'
sS'CONFIG_REGMAP_IRQ'
p1256
S'y'
sS'CONFIG_CMA'
p1257
S'y'
sS'CONFIG_TRACING'
p1258
S'y'
sS'CONFIG_KDB_KEYBOARD'
p1259
S'y'
sS'CONFIG_RADIX_TREE_MULTIORDER'
p1260
S'y'
sS'net.ipv4.conf.all.promote_secondaries'
p1261
I0
sS'CONFIG_LWTUNNEL'
p1262
S'y'
sS'CONFIG_ARCH_MIGHT_HAVE_PC_SERIO'
p1263
S'y'
sS'net.ipv4.neigh.lo.proxy_qlen'
p1264
I64
sS'CONFIG_CC_STACKPROTECTOR'
p1265
S'y'
sS'net.ipv6.conf.lo.router_solicitation_delay'
p1266
I1
sS'CONFIG_FIB_RULES'
p1267
S'y'
sS'net.ipv4.neigh.lo.unres_qlen_bytes'
p1268
I212992
sS'CONFIG_COMPAT_BINFMT_ELF'
p1269
S'y'
sS'CONFIG_HAVE_KPROBES'
p1270
S'y'
sS'net.ipv4.tcp_mem'
p1271
S'768591\t1024791\t1537182'
p1272
sS'CONFIG_VME_BUS'
p1273
S'y'
sS'CONFIG_FW_LOADER'
p1274
S'y'
sS'CONFIG_ATA_VERBOSE_ERROR'
p1275
S'y'
sS'CONFIG_IOSCHED_DEADLINE'
p1276
S'y'
sS'net.ipv6.conf.all.max_desync_factor'
p1277
I600
sS'CONFIG_ARCH_MMAP_RND_COMPAT_BITS_MAX'
p1278
I16
sS'kernel.sched_domain.cpu4.domain0.busy_factor'
p1279
I32
sS'CONFIG_FB_CFB_IMAGEBLIT'
p1280
S'y'
sS'CONFIG_EXT4_USE_FOR_EXT2'
p1281
S'y'
sS'CONFIG_INPUT_MOUSEDEV_PSAUX'
p1282
S'y'
sS'CONFIG_BLOCK_COMPAT'
p1283
S'y'
sS'CONFIG_ATH5K_PCI'
p1284
S'y'
sS'CONFIG_SCSI_LOGGING'
p1285
S'y'
sS'CONFIG_IP_NF_IPTABLES'
p1286
S'm'
sS'CONFIG_NET_CLS'
p1287
S'y'
sS'CONFIG_ACPI_LEGACY_TABLES_LOOKUP'
p1288
S'y'
sS'CONFIG_INPUT_TABLET'
p1289
S'y'
sS'CONFIG_ILLEGAL_POINTER_VALUE'
p1290
S'0xdead000000000000'
p1291
sS'CONFIG_THERMAL_GOV_STEP_WISE'
p1292
S'y'
sS'CONFIG_PRINTK'
p1293
S'y'
sS'net.ipv4.conf.default.promote_secondaries'
p1294
I0
sS'CONFIG_NET_L3_MASTER_DEV'
p1295
S'y'
sS'CONFIG_SND_MAX_CARDS'
p1296
I32
sS'CONFIG_FRAMEBUFFER_CONSOLE'
p1297
S'y'
sS'CONFIG_BRIDGE'
p1298
S'm'
sS'net.ipv6.conf.lo.accept_ra_pinfo'
p1299
I1
sS'CONFIG_NET_VENDOR_AGERE'
p1300
S'y'
sS'CONFIG_ASYNC_XOR'
p1301
S'm'
sS'CONFIG_ACPI_HOTPLUG_IOAPIC'
p1302
S'y'
sS'kernel.sched_domain.cpu1.domain0.flags'
p1303
I4143
sS'CONFIG_TRACE_IRQFLAGS_SUPPORT'
p1304
S'y'
sS'CONFIG_KEYBOARD_ATKBD'
p1305
S'y'
sS'net.core.default_qdisc'
p1306
S'pfifo_fast'
p1307
sS'CONFIG_VIRTIO_MMIO'
p1308
S'y'
sS'CONFIG_SND_PCM'
p1309
S'm'
sS'CONFIG_SND_X86'
p1310
S'y'
sS'CONFIG_INPUT_KEYBOARD'
p1311
S'y'
sS'CONFIG_ARCH_SUPPORTS_DEFERRED_STRUCT_PAGE_INIT'
p1312
S'y'
sS'net.ipv6.conf.all.accept_ra_mtu'
p1313
I1
sS'net.ipv4.ipfrag_high_thresh'
p1314
I4194304
sS'kernel.sched_domain.cpu5.domain0.idle_idx'
p1315
I1
sS'CONFIG_NET_VENDOR_ROCKER'
p1316
S'y'
sS'CONFIG_I2C'
p1317
S'y'
sS'CONFIG_BUG'
p1318
S'y'
sS'CONFIG_CPU_FREQ_GOV_COMMON'
p1319
S'y'
sS'CONFIG_PHYSICAL_ALIGN'
p1320
S'0x1000000'
p1321
sS'kernel.dmesg_restrict'
p1322
I0
sS'CONFIG_HAVE_ARCH_VMAP_STACK'
p1323
S'y'
sS'kernel.sched_domain.cpu9.domain0.name'
p1324
S'DIE'
p1325
sS'CONFIG_PSTORE_ZLIB_COMPRESS'
p1326
S'y'
sS'CONFIG_CRYPTO_BLKCIPHER2'
p1327
S'y'
sS'CONFIG_GENERIC_IRQ_EFFECTIVE_AFF_MASK'
p1328
S'y'
sS'CONFIG_CHR_DEV_SG'
p1329
S'y'
sS'CONFIG_ARCH_HAS_PKEYS'
p1330
S'y'
sS'CONFIG_SIGNALFD'
p1331
S'y'
sS'CONFIG_IMA_LSM_RULES'
p1332
S'y'
sS'CONFIG_MD_MULTIPATH'
p1333
S'm'
sS'net.ipv4.neigh.default.mcast_solicit'
p1334
I3
sS'CONFIG_SYSTEM_DATA_VERIFICATION'
p1335
S'y'
sS'CONFIG_ACPI'
p1336
S'y'
sS'CONFIG_RTC_MC146818_LIB'
p1337
S'y'
sS'kernel.sched_domain.cpu5.domain0.forkexec_idx'
p1338
I0
sS'CONFIG_STACKTRACE_SUPPORT'
p1339
S'y'
sS'kernel.sched_domain.cpu8.domain0.flags'
p1340
I4143
sS'CONFIG_INTEL_GTT'
p1341
S'y'
sS'CONFIG_THERMAL_EMULATION'
p1342
S'y'
sS'CONFIG_HAVE_DMA_CONTIGUOUS'
p1343
S'y'
sS'net.netfilter.nf_log.5'
p1344
S'NONE'
p1345
sS'net.netfilter.nf_log.4'
p1346
S'NONE'
p1347
sS'net.netfilter.nf_log.7'
p1348
S'NONE'
p1349
sS'net.netfilter.nf_log.6'
p1350
S'NONE'
p1351
sS'net.netfilter.nf_log.1'
p1352
S'NONE'
p1353
sS'net.netfilter.nf_log.0'
p1354
S'NONE'
p1355
sS'net.netfilter.nf_log.3'
p1356
S'NONE'
p1357
sS'net.netfilter.nf_log.2'
p1358
S'NONE'
p1359
sS'CONFIG_INLINE_READ_UNLOCK'
p1360
S'y'
sS'net.netfilter.nf_log.9'
p1361
S'NONE'
p1362
sS'net.netfilter.nf_log.8'
p1363
S'NONE'
p1364
sS'net.ipv4.conf.ens3.arp_announce'
p1365
I0
sS'kernel.real-root-dev'
p1366
I0
sS'vm.user_reserve_kbytes'
p1367
I131072
sS'CONFIG_HAVE_KERNEL_LZO'
p1368
S'y'
sS'dev.raid.speed_limit_max'
p1369
I200000
sS'CONFIG_IP_FIB_TRIE_STATS'
p1370
S'y'
sS'CONFIG_DEVFREQ_GOV_PERFORMANCE'
p1371
S'y'
sS'net.ipv4.conf.all.disable_xfrm'
p1372
I0
sS'CONFIG_IPV6_MULTIPLE_TABLES'
p1373
S'y'
sS'kernel.sched_domain.cpu3.domain0.newidle_idx'
p1374
I0
sS'fs.quota.lookups'
p1375
I0
sS'CONFIG_QUOTACTL'
p1376
S'y'
sS'CONFIG_TWL6040_CORE'
p1377
S'y'
sS'CONFIG_ARCH_WANT_BATCHED_UNMAP_TLB_FLUSH'
p1378
S'y'
sS'CONFIG_SCSI_QLA_ISCSI'
p1379
S'm'
sS'net.ipv6.conf.lo.temp_valid_lft'
p1380
I604800
sS'CONFIG_RTC_LIB'
p1381
S'y'
sS'kernel.pty.max'
p1382
I4096
sS'CONFIG_ISCSI_BOOT_SYSFS'
p1383
S'm'
sS'CONFIG_HAVE_KERNEL_LZ4'
p1384
S'y'
sS'CONFIG_GPIO_PALMAS'
p1385
S'y'
sS'CONFIG_SQUASHFS_XATTR'
p1386
S'y'
sS'CONFIG_NEED_MULTIPLE_NODES'
p1387
S'y'
sS'net.ipv6.conf.default.use_oif_addrs_only'
p1388
I0
sS'CONFIG_KERNEL_GZIP'
p1389
S'y'
sS'vm.extfrag_threshold'
p1390
I500
sS'kernel.sched_domain.cpu0.domain0.newidle_idx'
p1391
I0
sS'net.ipv6.neigh.lo.base_reachable_time_ms'
p1392
I30000
sS'CONFIG_MODULE_SIG_ALL'
p1393
S'y'
sS'CONFIG_CONSOLE_POLL'
p1394
S'y'
sS'CONFIG_VIRTIO_MMIO_CMDLINE_DEVICES'
p1395
S'y'
sS'net.ipv4.cipso_rbm_strictvalid'
p1396
I1
sS'CONFIG_HAVE_CLK_PREPARE'
p1397
S'y'
sS'net.ipv6.conf.ens3.router_solicitation_interval'
p1398
I4
sS'CONFIG_NET_TULIP'
p1399
S'y'
sS'CONFIG_HAVE_OPTPROBES'
p1400
S'y'
sS'CONFIG_POSIX_MQUEUE'
p1401
S'y'
sS'CONFIG_MDIO_BUS'
p1402
S'y'
sS'CONFIG_KALLSYMS_ALL'
p1403
S'y'
sS'net.ipv4.conf.lo.igmpv3_unsolicited_report_interval'
p1404
I1000
sS'CONFIG_ANON_INODES'
p1405
S'y'
sS'kernel.shmmni'
p1406
I4096
sS'CONFIG_ATARI_PARTITION'
p1407
S'y'
sS'kernel.sched_domain.cpu8.domain0.min_interval'
p1408
I10
sS'CONFIG_SECURITY_SELINUX_CHECKREQPROT_VALUE'
p1409
I1
sS'net.ipv4.conf.ens3.proxy_arp'
p1410
I0
sS'CONFIG_CRYPTO_CRCT10DIF'
p1411
S'y'
sS'CONFIG_ARCH_HAS_KCOV'
p1412
S'y'
sS'net.ipv6.conf.lo.accept_ra_rtr_pref'
p1413
I1
sS'CONFIG_RAPIDIO_DISC_TIMEOUT'
p1414
I30
sS'kernel.modprobe'
p1415
S'/sbin/modprobe'
p1416
sS'net.ipv6.conf.ens3.enhanced_dad'
p1417
I1
sS'net.ipv6.conf.default.accept_ra_rt_info_max_plen'
p1418
I0
sS'CONFIG_BSD_PROCESS_ACCT'
p1419
S'y'
sS'CONFIG_SPI_MASTER'
p1420
S'y'
sS'CONFIG_KALLSYMS_ABSOLUTE_PERCPU'
p1421
S'y'
sS'kernel.sched_domain.cpu6.domain0.name'
p1422
S'DIE'
p1423
sS'net.ipv6.conf.all.temp_valid_lft'
p1424
I604800
sS'CONFIG_LZ4_DECOMPRESS'
p1425
S'y'
sS'CONFIG_CRYPTO_MANAGER'
p1426
S'y'
sS'CONFIG_MESSAGE_LOGLEVEL_DEFAULT'
p1427
I4
sS'net.ipv4.conf.default.drop_unicast_in_l2_multicast'
p1428
I0
sS'CONFIG_SND_PROC_FS'
p1429
S'y'
sS'net.ipv6.conf.ens3.hop_limit'
p1430
I64
sS'CONFIG_VGA_CONSOLE'
p1431
S'y'
sS'CONFIG_RANDOMIZE_MEMORY_PHYSICAL_PADDING'
p1432
S'0xa'
p1433
sS'CONFIG_ECRYPT_FS'
p1434
S'y'
sS'CONFIG_QUOTACTL_COMPAT'
p1435
S'y'
sS'vm.oom_kill_allocating_task'
p1436
I0
sS'kernel.sched_domain.cpu8.domain0.idle_idx'
p1437
I1
sS'CONFIG_X86_MCE_THRESHOLD'
p1438
S'y'
sS'CONFIG_CGROUP_PIDS'
p1439
S'y'
sS'CONFIG_FB_TILEBLITTING'
p1440
S'y'
sS'net.ipv4.conf.ens3.accept_local'
p1441
I0
sS'CONFIG_NLS_ISO8859_1'
p1442
S'y'
sS'CONFIG_SND_TIMER'
p1443
S'm'
sS'CONFIG_SCHED_INFO'
p1444
S'y'
sS'CONFIG_CRYPTO_AES_X86_64'
p1445
S'm'
sS'net.ipv6.neigh.lo.gc_stale_time'
p1446
I60
sS'CONFIG_HID_PID'
p1447
S'y'
sS'CONFIG_SPLIT_PTLOCK_CPUS'
p1448
I4
sS'dev.cdrom.autoclose'
p1449
I1
sS'CONFIG_LIBCRC32C'
p1450
S'm'
sS'CONFIG_EDAC_SUPPORT'
p1451
S'y'
sS'CONFIG_HAVE_ARCH_COMPAT_MMAP_BASES'
p1452
S'y'
sS'CONFIG_TASK_DELAY_ACCT'
p1453
S'y'
sS'net.ipv6.conf.all.force_tllao'
p1454
I0
sS'net.ipv4.route.gc_interval'
p1455
I60
sS'CONFIG_ARCH_SUSPEND_POSSIBLE'
p1456
S'y'
sS'CONFIG_SPARSEMEM_EXTREME'
p1457
S'y'
sS'CONFIG_DMA_ACPI'
p1458
S'y'
sS'kernel.kptr_restrict'
p1459
I1
sS'CONFIG_INPUT_MOUSEDEV'
p1460
S'y'
sS'CONFIG_X86_DIRECT_GBPAGES'
p1461
S'y'
sS'CONFIG_NET_VENDOR_MICROCHIP'
p1462
S'y'
sS'net.ipv6.conf.ens3.accept_redirects'
p1463
I1
sS'vm.compact_unevictable_allowed'
p1464
I1
sS'CONFIG_ZLIB_DEFLATE'
p1465
S'y'
sS'CONFIG_ACPI_CPU_FREQ_PSS'
p1466
S'y'
sS'CONFIG_SYSVIPC_COMPAT'
p1467
S'y'
sS'CONFIG_X86_VSYSCALL_EMULATION'
p1468
S'y'
sS'net.ipv6.conf.all.use_tempaddr'
p1469
I2
sS'net.ipv6.conf.all.accept_ra_rtr_pref'
p1470
I1
sS'CONFIG_I2C_DESIGNWARE_BAYTRAIL'
p1471
S'y'
sS'CONFIG_HOTPLUG_PCI_CPCI'
p1472
S'y'
sS'net.ipv4.conf.ens3.force_igmp_version'
p1473
I0
sS'CONFIG_FTRACE'
p1474
S'y'
sS'CONFIG_GENERIC_IOMAP'
p1475
S'y'
sS'CONFIG_CGROUP_NET_CLASSID'
p1476
S'y'
sS'CONFIG_DEVFREQ_GOV_USERSPACE'
p1477
S'y'
sS'CONFIG_AUDIT_TREE'
p1478
S'y'
sS'CONFIG_MOUSE_PS2_BYD'
p1479
S'y'
sS'CONFIG_USB_OHCI_HCD_PCI'
p1480
S'y'
sS'net.ipv4.route.min_adv_mss'
p1481
I256
sS'CONFIG_ARCH_DEFCONFIG'
p1482
S'"arch/x86/configs/x86_64_defconfig"'
p1483
sS'CONFIG_WAN'
p1484
S'y'
sS'net.ipv4.tcp_thin_linear_timeouts'
p1485
I0
sS'CONFIG_CRYPTO_ALGAPI2'
p1486
S'y'
sS'CONFIG_INTEL_TXT'
p1487
S'y'
sS'CONFIG_MOUSE_PS2_TOUCHKIT'
p1488
S'y'
sS'CONFIG_LLC'
p1489
S'm'
sS'CONFIG_SND_SPI'
p1490
S'y'
sS'CONFIG_USB_UHCI_HCD'
p1491
S'y'
sS'net.ipv4.tcp_congestion_control'
p1492
S'cubic'
p1493
sS'CONFIG_ATA_SFF'
p1494
S'y'
sS'CONFIG_NVMEM'
p1495
S'y'
sS'CONFIG_SERIO_RAW'
p1496
S'm'
sS'CONFIG_HAVE_KVM_IRQ_ROUTING'
p1497
S'y'
sS'dev.mac_hid.mouse_button3_keycode'
p1498
I100
sS'CONFIG_GENERIC_BUG'
p1499
S'y'
sS'CONFIG_BLK_DEV_IO_TRACE'
p1500
S'y'
sS'net.ipv4.conf.ens3.drop_gratuitous_arp'
p1501
I0
sS'CONFIG_MUTEX_SPIN_ON_OWNER'
p1502
S'y'
sS'CONFIG_MEMORY_ISOLATION'
p1503
S'y'
sS'net.ipv6.conf.all.accept_ra_pinfo'
p1504
I1
sS'kernel.shm_next_id'
p1505
S'-1'
p1506
sS'net.ipv6.calipso_cache_bucket_size'
p1507
I10
sS'CONFIG_NET_VENDOR_AURORA'
p1508
S'y'
sS'CONFIG_LOCKDEP_SUPPORT'
p1509
S'y'
sS'net.ipv4.conf.ens3.ignore_routes_with_linkdown'
p1510
I0
sS'CONFIG_GENERIC_CLOCKEVENTS_BROADCAST'
p1511
S'y'
sS'net.ipv6.conf.ens3.accept_ra'
p1512
I1
sS'CONFIG_SYSTEM_EXTRA_CERTIFICATE_SIZE'
p1513
I4096
sS'CONFIG_HAVE_ARCH_JUMP_LABEL'
p1514
S'y'
sS'net.ipv6.conf.all.mtu'
p1515
I1280
sS'kernel.sched_domain.cpu5.domain0.busy_factor'
p1516
I32
sS'net.ipv6.conf.default.mldv2_unsolicited_report_interval'
p1517
I1000
sS'CONFIG_ZONE_DEVICE'
p1518
S'y'
sS'CONFIG_VIRTUALIZATION'
p1519
S'y'
sS'fs.pipe-user-pages-hard'
p1520
I0
sS'net.ipv6.route.gc_min_interval'
p1521
I0
sS'kernel.sched_domain.cpu7.domain0.cache_nice_tries'
p1522
I1
sS'CONFIG_HAVE_VIRT_CPU_ACCOUNTING_GEN'
p1523
S'y'
sS'CONFIG_HAVE_ARCH_TRANSPARENT_HUGEPAGE'
p1524
S'y'
sS'CONFIG_PROC_PAGE_MONITOR'
p1525
S'y'
sS'dev.hpet.max-user-freq'
p1526
I64
sS'net.ipv4.route.gc_thresh'
p1527
S'-1'
p1528
sS'CONFIG_THERMAL_GOV_POWER_ALLOCATOR'
p1529
S'y'
sS'CONFIG_HAVE_CLK'
p1530
S'y'
sS'CONFIG_GENERIC_STRNLEN_USER'
p1531
S'y'
sS'dev.mac_hid.mouse_button_emulation'
p1532
I0
sS'CONFIG_SND_DMA_SGBUF'
p1533
S'y'
sS'CONFIG_ATA_GENERIC'
p1534
S'y'
sS'CONFIG_MOUSE_PS2_TRACKPOINT'
p1535
S'y'
sS'CONFIG_BLK_MQ_VIRTIO'
p1536
S'y'
sS'CONFIG_UNIX98_PTYS'
p1537
S'y'
sS'CONFIG_STRICT_DEVMEM'
p1538
S'y'
sS'CONFIG_ARCH_ENABLE_MEMORY_HOTREMOVE'
p1539
S'y'
sS'net.ipv4.conf.all.medium_id'
p1540
I0
sS'net.ipv6.conf.lo.use_tempaddr'
p1541
S'-1'
p1542
sS'kernel.sched_domain.cpu9.domain0.cache_nice_tries'
p1543
I1
sS'CONFIG_DMA_ENGINE'
p1544
S'y'
sS'net.ipv6.conf.all.mldv2_unsolicited_report_interval'
p1545
I1000
sS'CONFIG_OUTPUT_FORMAT'
p1546
S'"elf64-x86-64"'
p1547
sS'CONFIG_X86_X2APIC'
p1548
S'y'
sS'CONFIG_CGROUP_BPF'
p1549
S'y'
sS'CONFIG_ARCH_ENABLE_SPLIT_PMD_PTLOCK'
p1550
S'y'
sS'CONFIG_NET_CLS_ACT'
p1551
S'y'
sS'CONFIG_DECOMPRESS_LZO'
p1552
S'y'
sS'net.ipv4.conf.default.src_valid_mark'
p1553
I0
sS'CONFIG_NETFILTER_XTABLES'
p1554
S'm'
sS'net.ipv4.conf.lo.proxy_arp_pvlan'
p1555
I0
sS'CONFIG_SCSI_BNX2_ISCSI'
p1556
S'm'
sS'net.ipv4.conf.default.log_martians'
p1557
I0
sS'CONFIG_FREEZER'
p1558
S'y'
sS'CONFIG_QUOTA_NETLINK_INTERFACE'
p1559
S'y'
sS'CONFIG_FB'
p1560
S'y'
sS'CONFIG_MFD_WM831X'
p1561
S'y'
sS'CONFIG_SLUB_DEBUG'
p1562
S'y'
sS'CONFIG_MFD_DA9055'
p1563
S'y'
sS'CONFIG_CGROUP_NET_PRIO'
p1564
S'y'
sS'net.ipv6.neigh.default.mcast_solicit'
p1565
I3
sS'CONFIG_GPIO_LYNXPOINT'
p1566
S'y'
sS'CONFIG_IPC_NS'
p1567
S'y'
sS'CONFIG_PRINTK_TIME'
p1568
S'y'
sS'CONFIG_PCI_MSI_IRQ_DOMAIN'
p1569
S'y'
sS'CONFIG_HAVE_C_RECORDMCOUNT'
p1570
S'y'
sS'net.ipv6.neigh.default.anycast_delay'
p1571
I100
sS'CONFIG_MFD_TPS6586X'
p1572
S'y'
sS'net.ipv6.conf.lo.seg6_enabled'
p1573
I0
sS'net.ipv4.conf.ens3.disable_policy'
p1574
I0
sS'CONFIG_PCC'
p1575
S'y'
sS'CONFIG_REGMAP'
p1576
S'y'
sS'CONFIG_SCHEDSTATS'
p1577
S'y'
sS'CONFIG_CLOCKSOURCE_WATCHDOG'
p1578
S'y'
sS'net.core.message_burst'
p1579
I10
sS'CONFIG_NET_VENDOR_EXAR'
p1580
S'y'
sS'CONFIG_GENERIC_IRQ_PROBE'
p1581
S'y'
sS'CONFIG_BTT'
p1582
S'y'
sS'CONFIG_DECOMPRESS_LZ4'
p1583
S'y'
sS'net.ipv6.conf.lo.ignore_routes_with_linkdown'
p1584
I0
sS'CONFIG_HARDLOCKUP_DETECTOR'
p1585
S'y'
sS'CONFIG_RTC_SYSTOHC'
p1586
S'y'
sS'CONFIG_USB_XHCI_HCD'
p1587
S'y'
sS'CONFIG_SERIO_LIBPS2'
p1588
S'y'
sS'CONFIG_UNIX'
p1589
S'y'
sS'net.ipv4.tcp_fack'
p1590
I0
sS'net.ipv6.conf.ens3.mldv2_unsolicited_report_interval'
p1591
I1000
sS'net.ipv4.neigh.lo.mcast_resolicit'
p1592
I0
sS'uname'
p1593
S'Linux nestedvm 4.14.0-rc8-stock #3 SMP Tue Mar 13 14:28:42 EDT 2018 x86_64 x86_64 x86_64 GNU/Linux'
p1594
sS'CONFIG_DMADEVICES'
p1595
S'y'
sS'CONFIG_DEFAULT_HOSTNAME'
p1596
S'"(none)"'
p1597
sS'CONFIG_CRYPTO_LZO'
p1598
S'y'
sS'CONFIG_HAVE_STACK_VALIDATION'
p1599
S'y'
sS'CONFIG_INTEL_IOMMU_FLOPPY_WA'
p1600
S'y'
sS'CONFIG_HAVE_KVM'
p1601
S'y'
sS'CONFIG_USB_PCI'
p1602
S'y'
sS'CONFIG_ACPI_I2C_OPREGION'
p1603
S'y'
sS'CONFIG_SPARSEMEM_VMEMMAP'
p1604
S'y'
sS'net.core.netdev_budget_usecs'
p1605
I2000
sS'CONFIG_TCP_CONG_ADVANCED'
p1606
S'y'
sS'CONFIG_CPU_FREQ_DEFAULT_GOV_PERFORMANCE'
p1607
S'y'
sS'net.ipv6.conf.all.drop_unsolicited_na'
p1608
I0
sS'CONFIG_FSNOTIFY'
p1609
S'y'
sS'CONFIG_POWER_RESET'
p1610
S'y'
sS'CONFIG_VIRTIO_NET'
p1611
S'y'
sS'CONFIG_RFKILL'
p1612
S'y'
sS'CONFIG_BCMA_POSSIBLE'
p1613
S'y'
sS'CONFIG_OPTIMIZE_INLINING'
p1614
S'y'
sS'net.ipv4.ipfrag_time'
p1615
I30
sS'net.ipv4.conf.default.secure_redirects'
p1616
I1
sS'CONFIG_MOUSE_PS2_SMBUS'
p1617
S'y'
sS'CONFIG_RAS'
p1618
S'y'
sS'CONFIG_PPDEV'
p1619
S'm'
sS'CONFIG_BLK_DEV_INITRD'
p1620
S'y'
sS'net.ipv6.conf.ens3.accept_ra_rtr_pref'
p1621
I1
sS'CONFIG_DM_UEVENT'
p1622
S'y'
sS'CONFIG_LEGACY_PTYS'
p1623
S'y'
sS'CONFIG_FS_POSIX_ACL'
p1624
S'y'
sS'kernel.auto_msgmni'
p1625
I0
sS'fs.mqueue.msgsize_default'
p1626
I8192
sS'CONFIG_KEXEC_VERIFY_SIG'
p1627
S'y'
sS'fs.inotify.max_user_watches'
p1628
I8192
sS'CONFIG_IMA_APPRAISE_BOOTPARAM'
p1629
S'y'
sS'CONFIG_HPET'
p1630
S'y'
sS'CONFIG_CRYPTO_WORKQUEUE'
p1631
S'y'
sS'CONFIG_INTEGRITY_SIGNATURE'
p1632
S'y'
sS'CONFIG_SPARSE_IRQ'
p1633
S'y'
sS'CONFIG_BLK_SCSI_REQUEST'
p1634
S'y'
sS'CONFIG_BITREVERSE'
p1635
S'y'
sS'CONFIG_HAVE_ARCH_MMAP_RND_BITS'
p1636
S'y'
sS'net.ipv6.conf.lo.accept_ra_rt_info_max_plen'
p1637
I0
sS'CONFIG_NET_VENDOR_MICREL'
p1638
S'y'
sS'CONFIG_MPLS'
p1639
S'y'
sS'CONFIG_DEBUG_INFO'
p1640
S'y'
sS'CONFIG_MAGIC_SYSRQ'
p1641
S'y'
sS'CONFIG_SERIAL_8250_PNP'
p1642
S'y'
sS'CONFIG_CLKDEV_LOOKUP'
p1643
S'y'
sS'kernel.keys.maxbytes'
p1644
I20000
sS'CONFIG_BRANCH_PROFILE_NONE'
p1645
S'y'
sS'CONFIG_NO_BOOTMEM'
p1646
S'y'
sS'CONFIG_XXHASH'
p1647
S'm'
sS'vm.dirty_ratio'
p1648
I20
sS'net.ipv6.idgen_retries'
p1649
I3
sS'CONFIG_MAGIC_SYSRQ_SERIAL'
p1650
S'y'
sS'CONFIG_CRYPTO_HASH2'
p1651
S'y'
sS'CONFIG_MEMCG_SWAP'
p1652
S'y'
sS'CONFIG_IOSCHED_NOOP'
p1653
S'y'
sS'CONFIG_USB_COMMON'
p1654
S'y'
sS'kernel.sched_domain.cpu0.domain0.wake_idx'
p1655
I0
sS'CONFIG_SND_VERBOSE_PROCFS'
p1656
S'y'
sS'net.ipv6.conf.ens3.temp_prefered_lft'
p1657
I86400
sS'CONFIG_BRIDGE_NF_EBTABLES'
p1658
S'm'
sS'CONFIG_CRYPTO_JITTERENTROPY'
p1659
S'y'
sS'CONFIG_CRYPTO_DRBG_MENU'
p1660
S'y'
sS'CONFIG_ARCH_USE_CMPXCHG_LOCKREF'
p1661
S'y'
sS'CONFIG_RD_GZIP'
p1662
S'y'
sS'user.max_pid_namespaces'
p1663
I257592
sS'CONFIG_PANIC_ON_OOPS_VALUE'
p1664
I0
sS'CONFIG_USB_EHCI_ROOT_HUB_TT'
p1665
S'y'
sS'kernel.sched_min_granularity_ns'
p1666
I3000000
sS'CONFIG_X86_NEED_RELOCS'
p1667
S'y'
sS'CONFIG_XZ_DEC_ARM'
p1668
S'y'
sS'CONFIG_SCSI_DMA'
p1669
S'y'
sS'kernel.sched_domain.cpu4.domain0.max_interval'
p1670
I20
sS'CONFIG_ARCH_HAS_ZONE_DEVICE'
p1671
S'y'
sS'CONFIG_HVC_DRIVER'
p1672
S'y'
sS'CONFIG_HAVE_RCU_TABLE_FREE'
p1673
S'y'
sS'CONFIG_ZSMALLOC'
p1674
S'y'
sS'CONFIG_HAVE_PERF_REGS'
p1675
S'y'
sS'CONFIG_SND_HWDEP'
p1676
S'm'
sS'CONFIG_CRYPTO_HASH'
p1677
S'y'
sS'kernel.sched_domain.cpu9.domain0.newidle_idx'
p1678
I0
sS'CONFIG_KEYS_COMPAT'
p1679
S'y'
sS'CONFIG_CRYPTO_NULL2'
p1680
S'y'
sS'CONFIG_RCU_STALL_COMMON'
p1681
S'y'
sS'net.ipv6.conf.lo.accept_ra_min_hop_limit'
p1682
I1
sS'net.ipv4.conf.default.proxy_arp'
p1683
I0
sS'kernel.sched_rr_timeslice_ms'
p1684
I100
sS'net.ipv6.conf.lo.disable_ipv6'
p1685
I0
sS'CONFIG_NEED_PER_CPU_PAGE_FIRST_CHUNK'
p1686
S'y'
sS'CONFIG_KGDB_KDB'
p1687
S'y'
sS'net.ipv4.conf.all.src_valid_mark'
p1688
I0
sS'fs.overflowuid'
p1689
I65534
sS'net.ipv4.conf.ens3.arp_accept'
p1690
I0
sS'CONFIG_FB_CFB_FILLRECT'
p1691
S'y'
sS'CONFIG_SECURITYFS'
p1692
S'y'
sS'CONFIG_OSF_PARTITION'
p1693
S'y'
sS'CONFIG_CRYPTO_AKCIPHER'
p1694
S'y'
sS'CONFIG_MAY_USE_DEVLINK'
p1695
S'y'
sS'net.ipv6.conf.default.dad_transmits'
p1696
I1
sS'CONFIG_BNX2'
p1697
S'm'
sS'CONFIG_CMA_AREAS'
p1698
I7
sS'CONFIG_ARM_GIC_MAX_NR'
p1699
I1
sS'net.ipv4.conf.all.accept_redirects'
p1700
I1
sS'vm.max_map_count'
p1701
I65530
sS'CONFIG_HAVE_KVM_IRQFD'
p1702
S'y'
sS'net.ipv6.conf.default.enhanced_dad'
p1703
I1
sS'net.ipv4.conf.lo.arp_ignore'
p1704
I0
sS'CONFIG_HAVE_KVM_IRQCHIP'
p1705
S'y'
sS'CONFIG_PM_SLEEP_SMP'
p1706
S'y'
sS'kernel.sched_domain.cpu7.domain0.max_newidle_lb_cost'
p1707
I26395
sS'net.ipv4.conf.ens3.proxy_arp_pvlan'
p1708
I0
sS'kernel.sched_domain.cpu3.domain0.forkexec_idx'
p1709
I0
sS'CONFIG_DYNAMIC_FTRACE_WITH_REGS'
p1710
S'y'
sS'net.ipv4.conf.ens3.promote_secondaries'
p1711
I0
sS'CONFIG_VT_HW_CONSOLE_BINDING'
p1712
S'y'
sS'CONFIG_MIGRATION'
p1713
S'y'
sS'CONFIG_SYSVIPC_SYSCTL'
p1714
S'y'
sS'CONFIG_HAMRADIO'
p1715
S'y'
sS'CONFIG_KGDB'
p1716
S'y'
sS'CONFIG_EFI_ESRT'
p1717
S'y'
sS'CONFIG_GENERIC_PINCONF'
p1718
S'y'
sS'kernel.sched_domain.cpu8.domain0.max_interval'
p1719
I20
sS'CONFIG_HIGH_RES_TIMERS'
p1720
S'y'
sS'CONFIG_PPP'
p1721
S'y'
sS'CONFIG_HAVE_GENERIC_GUP'
p1722
S'y'
sS'CONFIG_NET_VENDOR_HUAWEI'
p1723
S'y'
sS'CONFIG_ZLIB_INFLATE'
p1724
S'y'
sS'CONFIG_CORE_DUMP_DEFAULT_ELF_HEADERS'
p1725
S'y'
sS'CONFIG_POWER_AVS'
p1726
S'y'
sS'CONFIG_MFD_AAT2870_CORE'
p1727
S'y'
sS'CONFIG_QED'
p1728
S'm'
sS'CONFIG_LEGACY_PTY_COUNT'
p1729
I0
sS'CONFIG_GENERIC_CALIBRATE_DELAY'
p1730
S'y'
sS'net.ipv6.conf.default.force_tllao'
p1731
I0
sS'CONFIG_AGP_INTEL'
p1732
S'y'
sS'CONFIG_CRYPTO_CRC32C'
p1733
S'y'
sS'CONFIG_LOCK_SPIN_ON_OWNER'
p1734
S'y'
sS'CONFIG_CRYPTO_GHASH'
p1735
S'y'
sS'kernel.sched_domain.cpu0.domain0.max_interval'
p1736
I20
sS'net.ipv4.inet_peer_minttl'
p1737
I120
sS'net.core.netdev_budget'
p1738
I300
sS'kernel.shmall'
p1739
L18446744073692774399L
sS'CONFIG_ABX500_CORE'
p1740
S'y'
sS'CONFIG_ACPI_APEI_PCIEAER'
p1741
S'y'
sS'CONFIG_CRYPTO_MANAGER_DISABLE_TESTS'
p1742
S'y'
sS'CONFIG_GENERIC_BUG_RELATIVE_POINTERS'
p1743
S'y'
sS'CONFIG_TICK_ONESHOT'
p1744
S'y'
sS'CONFIG_WLAN_VENDOR_INTEL'
p1745
S'y'
sS'net.ipv6.conf.default.seg6_enabled'
p1746
I0
sS'net.ipv4.ip_nonlocal_bind'
p1747
I0
sS'CONFIG_EXT4_FS'
p1748
S'y'
sS'kernel.sched_domain.cpu1.domain0.newidle_idx'
p1749
I0
sS'net.ipv4.neigh.default.base_reachable_time_ms'
p1750
I30000
sS'CONFIG_ASYNC_PQ'
p1751
S'm'
sS'CONFIG_USELIB'
p1752
S'y'
sS'net.ipv4.route.redirect_silence'
p1753
I5120
sS'net.ipv6.conf.default.hop_limit'
p1754
I64
sS'CONFIG_X86_64_SMP'
p1755
S'y'
sS'CONFIG_PM_OPP'
p1756
S'y'
sS'kernel.sched_domain.cpu5.domain0.min_interval'
p1757
I10
sS'CONFIG_TCG_TIS_CORE'
p1758
S'y'
sS'net.ipv6.conf.all.accept_ra'
p1759
I1
sS'CONFIG_X86_64_ACPI_NUMA'
p1760
S'y'
sS'net.ipv4.conf.lo.arp_filter'
p1761
I0
sS'CONFIG_EFIVAR_FS'
p1762
S'y'
sS'CONFIG_SERIAL_8250_SHARE_IRQ'
p1763
S'y'
sS'kernel.sched_domain.cpu2.domain0.forkexec_idx'
p1764
I0
sS'net.ipv6.conf.all.router_solicitations'
p1765
S'-1'
p1766
sS'net.ipv4.udp_l3mdev_accept'
p1767
I0
sS'kernel.sched_domain.cpu1.domain0.imbalance_pct'
p1768
I125
sS'kernel.unprivileged_bpf_disabled'
p1769
I0
sS'CONFIG_FUSION_MAX_SGE'
p1770
I128
sS'CONFIG_HAS_IOPORT_MAP'
p1771
S'y'
sS'CONFIG_MFD_WM831X_SPI'
p1772
S'y'
sS'CONFIG_JUMP_LABEL'
p1773
S'y'
sS'CONFIG_INPUT_LEDS'
p1774
S'm'
sS'net.ipv4.tcp_app_win'
p1775
I31
sS'net.ipv4.cipso_cache_enable'
p1776
I1
sS'CONFIG_EVM_EXTRA_SMACK_XATTRS'
p1777
S'y'
sS'net.ipv6.conf.ens3.autoconf'
p1778
I1
sS'CONFIG_MEMORY'
p1779
S'y'
sS'kernel.numa_balancing_scan_delay_ms'
p1780
I1000
sS'CONFIG_KDB_DEFAULT_ENABLE'
p1781
S'0x1'
p1782
sS'fs.inotify.max_queued_events'
p1783
I16384
sS'CONFIG_SG_POOL'
p1784
S'y'
sS'CONFIG_CRYPTO_RSA'
p1785
S'y'
sS'net.ipv4.tcp_pacing_ca_ratio'
p1786
I120
sS'CONFIG_CPU_FREQ_GOV_POWERSAVE'
p1787
S'y'
sS'CONFIG_HAVE_BOOTMEM_INFO_NODE'
p1788
S'y'
sS'CONFIG_SPARSEMEM_ALLOC_MEM_MAP_TOGETHER'
p1789
S'y'
sS'CONFIG_ARCH_PHYS_ADDR_T_64BIT'
p1790
S'y'
sS'kernel.sched_domain.cpu8.domain0.wake_idx'
p1791
I0
sS'CONFIG_CPU_FREQ_GOV_USERSPACE'
p1792
S'y'
sS'CONFIG_HAVE_UNSTABLE_SCHED_CLOCK'
p1793
S'y'
sS'net.ipv4.igmp_link_local_mcast_reports'
p1794
I1
sS'CONFIG_MEM_SOFT_DIRTY'
p1795
S'y'
sS'CONFIG_MODULES_USE_ELF_RELA'
p1796
S'y'
sS'CONFIG_SECURITY_SMACK'
p1797
S'y'
sS'net.ipv6.anycast_src_echo_reply'
p1798
I0
sS'CONFIG_IO_DELAY_TYPE_UDELAY'
p1799
I2
sS'CONFIG_SGETMASK_SYSCALL'
p1800
S'y'
sS'CONFIG_BLK_DEV_DM_BUILTIN'
p1801
S'y'
sS'net.ipv4.conf.lo.tag'
p1802
I0
sS'CONFIG_SQUASHFS_FRAGMENT_CACHE_SIZE'
p1803
I3
sS'kernel.sched_domain.cpu3.domain0.idle_idx'
p1804
I1
sS'CONFIG_AUDIT'
p1805
S'y'
sS'CONFIG_UPROBE_EVENTS'
p1806
S'y'
sS'CONFIG_ARCH_SUPPORTS_DEBUG_PAGEALLOC'
p1807
S'y'
sS'CONFIG_X86_CMPXCHG64'
p1808
S'y'
sS'CONFIG_NET_FLOW_LIMIT'
p1809
S'y'
sS'CONFIG_ND_CLAIM'
p1810
S'y'
sS'CONFIG_TOUCHSCREEN_ELAN'
p1811
S'y'
sS'kernel.sched_domain.cpu4.domain0.newidle_idx'
p1812
I0
sS'CONFIG_CRYPTO_BLKCIPHER'
p1813
S'y'
sS'net.ipv6.conf.default.accept_ra_mtu'
p1814
I1
sS'fs.dir-notify-enable'
p1815
I1
sS'CONFIG_HAVE_HARDLOCKUP_DETECTOR_PERF'
p1816
S'y'
sS'net.ipv4.tcp_slow_start_after_idle'
p1817
I1
sS'kernel.nmi_watchdog'
p1818
I0
sS'CONFIG_HAVE_COPY_THREAD_TLS'
p1819
S'y'
sS'net.ipv6.route.gc_thresh'
p1820
I1024
sS'CONFIG_ARCH_RANDOM'
p1821
S'y'
sS'net.ipv6.conf.ens3.router_probe_interval'
p1822
I60
sS'CONFIG_X86_EXTENDED_PLATFORM'
p1823
S'y'
sS'CONFIG_PM_TRACE'
p1824
S'y'
sS'CONFIG_SYSCTL_EXCEPTION_TRACE'
p1825
S'y'
sS'CONFIG_X86_INTERNODE_CACHE_SHIFT'
p1826
I6
sS'CONFIG_HAVE_SYSCALL_TRACEPOINTS'
p1827
S'y'
sS'CONFIG_ARCH_SUPPORTS_MEMORY_FAILURE'
p1828
S'y'
sS'CONFIG_CRC32'
p1829
S'y'
sS'CONFIG_FUSION'
p1830
S'y'
sS'net.ipv4.conf.lo.accept_source_route'
p1831
I1
sS'net.ipv6.conf.ens3.suppress_frag_ndisc'
p1832
I1
sS'CONFIG_SWPHY'
p1833
S'y'
sS'CONFIG_FUTEX_PI'
p1834
S'y'
sS'CONFIG_HAVE_IOREMAP_PROT'
p1835
S'y'
sS'net.ipv6.conf.all.mc_forwarding'
p1836
I0
sS'vm.admin_reserve_kbytes'
p1837
I8192
sS'CONFIG_ASYNC_TX_DMA'
p1838
S'y'
sS'CONFIG_DW_DMAC_CORE'
p1839
S'y'
sS'CONFIG_RTC_NVMEM'
p1840
S'y'
sS'kernel.sched_domain.cpu6.domain0.newidle_idx'
p1841
I0
sS'kernel.sched_domain.cpu5.domain0.name'
p1842
S'DIE'
p1843
sS'net.ipv4.tcp_early_demux'
p1844
I1
sS'CONFIG_EXT4_FS_SECURITY'
p1845
S'y'
sS'kernel.sched_domain.cpu9.domain0.forkexec_idx'
p1846
I0
sS'net.ipv4.neigh.default.unres_qlen'
p1847
I101
sS'CONFIG_COMMON_CLK'
p1848
S'y'
sS'CONFIG_MFD_PALMAS'
p1849
S'y'
sS'CONFIG_AUXDISPLAY'
p1850
S'y'
sS'CONFIG_WLAN_VENDOR_ST'
p1851
S'y'
sS'kernel.printk_ratelimit'
p1852
I5
sS'net.ipv4.neigh.default.delay_first_probe_time'
p1853
I5
sS'CONFIG_SECURITY_SELINUX_BOOTPARAM_VALUE'
p1854
I0
sS'fs.lease-break-time'
p1855
I45
sS'CONFIG_SELECT_MEMORY_MODEL'
p1856
S'y'
sS'vm.dirty_bytes'
p1857
I0
sS'net.ipv6.conf.all.disable_policy'
p1858
I0
sS'CONFIG_KVM_GUEST'
p1859
S'y'
sS'net.ipv4.tcp_syn_retries'
p1860
I6
sS'kernel.shm_rmid_forced'
p1861
I0
sS'CONFIG_PERF_EVENTS_INTEL_UNCORE'
p1862
S'y'
sS'kernel.hung_task_check_count'
p1863
I4194304
sS'CONFIG_NET_VENDOR_I825XX'
p1864
S'y'
sS'CONFIG_X86_FAST_FEATURE_TESTS'
p1865
S'y'
sS'CONFIG_FB_NOTIFY'
p1866
S'y'
sS'CONFIG_UEVENT_HELPER_PATH'
p1867
S'""'
p1868
sS'CONFIG_CRYPTO_GHASH_CLMUL_NI_INTEL'
p1869
S'm'
sS'CONFIG_DEVFREQ_GOV_POWERSAVE'
p1870
S'y'
sS'net.ipv6.conf.ens3.accept_ra_from_local'
p1871
I0
sS'net.ipv6.conf.default.router_solicitation_interval'
p1872
I4
sS'net.ipv4.tcp_tso_win_divisor'
p1873
I3
sS'CONFIG_RELOCATABLE'
p1874
S'y'
sS'fs.pipe-max-size'
p1875
I1048576
sS'CONFIG_NO_HZ'
p1876
S'y'
sS'CONFIG_CHELSIO_T4_DCB'
p1877
S'y'
sS'CONFIG_RTC_SYSTOHC_DEVICE'
p1878
S'"rtc0"'
p1879
sS'CONFIG_DEFAULT_SECURITY_APPARMOR'
p1880
S'y'
sS'CONFIG_HAVE_KERNEL_BZIP2'
p1881
S'y'
sS'net.ipv6.conf.ens3.addr_gen_mode'
p1882
I0
sS'CONFIG_QED_SRIOV'
p1883
S'y'
sS'net.ipv4.route.gc_min_interval_ms'
p1884
I500
sS'CONFIG_IOMMU_HELPER'
p1885
S'y'
sS'CONFIG_WLAN_VENDOR_RSI'
p1886
S'y'
sS'CONFIG_VIRTIO_BLK'
p1887
S'y'
sS'CONFIG_HOTPLUG_PCI_PCIE'
p1888
S'y'
sS'net.ipv6.neigh.ens3.mcast_solicit'
p1889
I3
sS'CONFIG_GPIO_SX150X'
p1890
S'y'
sS'CONFIG_IP_MULTIPLE_TABLES'
p1891
S'y'
sS'CONFIG_THP_SWAP'
p1892
S'y'
sS'CONFIG_RFS_ACCEL'
p1893
S'y'
sS'fs.dentry-state'
p1894
S'112429\t95069\t45\t0\t0\t0'
p1895
sS'CONFIG_TRACEPOINTS'
p1896
S'y'
sS'CONFIG_IP6_NF_IPTABLES'
p1897
S'm'
sS'CONFIG_CRYPTO_AKCIPHER2'
p1898
S'y'
sS'CONFIG_ARCH_HAS_ADD_PAGES'
p1899
S'y'
sS'net.ipv6.conf.lo.dad_transmits'
p1900
I1
sS'CONFIG_SECURITY_APPARMOR_HASH_DEFAULT'
p1901
S'y'
sS'CONFIG_SMP'
p1902
S'y'
sS'CONFIG_NEED_PER_CPU_EMBED_FIRST_CHUNK'
p1903
S'y'
sS'kernel.sched_domain.cpu0.domain0.forkexec_idx'
p1904
I0
sS'net.ipv6.conf.default.accept_dad'
p1905
I1
sS'CONFIG_IKCONFIG'
p1906
S'm'
sS'CONFIG_BLK_CGROUP'
p1907
S'y'
sS'CONFIG_PATA_ACPI'
p1908
S'm'
sS'CONFIG_FUNCTION_PROFILER'
p1909
S'y'
sS'CONFIG_ISCSI_TCP'
p1910
S'm'
sS'CONFIG_HAVE_DEBUG_STACKOVERFLOW'
p1911
S'y'
sS'net.ipv6.neigh.default.gc_stale_time'
p1912
I60
sS'CONFIG_TCP_MD5SIG'
p1913
S'y'
sS'net.ipv4.neigh.ens3.unres_qlen'
p1914
I101
sS'CONFIG_MICROCODE'
p1915
S'y'
sS'CONFIG_HAVE_DEBUG_KMEMLEAK'
p1916
S'y'
sS'CONFIG_TUN'
p1917
S'y'
sS'net.ipv6.conf.lo.autoconf'
p1918
I1
sS'net.ipv4.tcp_low_latency'
p1919
I0
sS'net.ipv6.flowlabel_state_ranges'
p1920
I0
sS'CONFIG_VIRTIO'
p1921
S'y'
sS'kernel.randomize_va_space'
p1922
I2
sS'vm.legacy_va_layout'
p1923
I0
sS'CONFIG_PARAVIRT'
p1924
S'y'
sS'CONFIG_XZ_DEC_BCJ'
p1925
S'y'
sS'net.ipv4.icmp_echo_ignore_all'
p1926
I0
sS'net.ipv4.ip_dynaddr'
p1927
I0
sS'CONFIG_SYSFS'
p1928
S'y'
sS'dev.cdrom.autoeject'
p1929
I0
sS'CONFIG_PROFILING'
p1930
S'y'
sS'CONFIG_PINCONF'
p1931
S'y'
sS'CONFIG_THREAD_INFO_IN_TASK'
p1932
S'y'
sS'CONFIG_NET_VENDOR_INTEL'
p1933
S'y'
sS'CONFIG_TASKSTATS'
p1934
S'y'
sS'vm.memory_failure_early_kill'
p1935
I0
sS'net.ipv6.conf.default.use_tempaddr'
p1936
I2
sS'CONFIG_DEVTMPFS'
p1937
S'y'
sS'CONFIG_CFS_BANDWIDTH'
p1938
S'y'
sS'CONFIG_INLINE_READ_UNLOCK_IRQ'
p1939
S'y'
sS'net.ipv6.route.gc_timeout'
p1940
I60
sS'CONFIG_HAVE_MOD_ARCH_SPECIFIC'
p1941
S'y'
sS'net.ipv6.neigh.ens3.base_reachable_time_ms'
p1942
I30000
sS'CONFIG_FB_MODE_HELPERS'
p1943
S'y'
sS'CONFIG_USB_OHCI_LITTLE_ENDIAN'
p1944
S'y'
sS'net.ipv4.conf.default.ignore_routes_with_linkdown'
p1945
I0
sS'net.ipv6.flowlabel_consistency'
p1946
I1
sS'net.ipv4.icmp_echo_ignore_broadcasts'
p1947
I1
sS'CONFIG_IRQ_WORK'
p1948
S'y'
sS'CONFIG_TCG_TIS'
p1949
S'y'
sS'CONFIG_XZ_DEC_POWERPC'
p1950
S'y'
sS'CONFIG_HZ_250'
p1951
S'y'
sS'CONFIG_STACKTRACE'
p1952
S'y'
sS'CONFIG_ACPI_PROCESSOR'
p1953
S'y'
sS'kernel.pid_max'
p1954
I124928
sS'CONFIG_REGMAP_I2C'
p1955
S'y'
sS'net.ipv6.neigh.ens3.locktime'
p1956
I0
sS'net.ipv4.conf.all.arp_filter'
p1957
I0
sS'net.ipv4.route.redirect_load'
p1958
I5
sS'CONFIG_MFD_MAX8998'
p1959
S'y'
sS'CONFIG_MFD_MAX8997'
p1960
S'y'
sS'CONFIG_HAVE_ACPI_APEI'
p1961
S'y'
sS'CONFIG_DDR'
p1962
S'y'
sS'CONFIG_FONT_SUPPORT'
p1963
S'y'
sS'kernel.sched_domain.cpu6.domain0.imbalance_pct'
p1964
I125
sS'CONFIG_X86_PMEM_LEGACY_DEVICE'
p1965
S'y'
sS'CONFIG_MODULE_SIG_KEY'
p1966
S'"certs/signing_key.pem"'
p1967
sS'CONFIG_ASSOCIATIVE_ARRAY'
p1968
S'y'
sS'CONFIG_EZX_PCAP'
p1969
S'y'
sS'CONFIG_SCSI_MOD'
p1970
S'y'
sS'CONFIG_CRYPTO_HASH_INFO'
p1971
S'y'
sS'net.ipv4.conf.all.shared_media'
p1972
I1
sS'CONFIG_IOMMU_API'
p1973
S'y'
sS'CONFIG_INLINE_SPIN_UNLOCK_IRQ'
p1974
S'y'
sS'CONFIG_BLOCK'
p1975
S'y'
sS'CONFIG_MEMORY_FAILURE'
p1976
S'y'
sS'CONFIG_NET_VENDOR_EZCHIP'
p1977
S'y'
sS'kernel.sched_domain.cpu1.domain0.max_interval'
p1978
I20
sS'CONFIG_CPU_RMAP'
p1979
S'y'
sS'net.netfilter.nf_log.11'
p1980
S'NONE'
p1981
sS'net.netfilter.nf_log.10'
p1982
S'NONE'
p1983
sS'net.netfilter.nf_log.12'
p1984
S'NONE'
p1985
sS'net.ipv6.neigh.default.unres_qlen'
p1986
I101
sS'net.ipv6.conf.all.drop_unicast_in_l2_multicast'
p1987
I0
sS'CONFIG_X86_INTEL_LPSS'
p1988
S'y'
sS'net.core.rmem_max'
p1989
I212992
sS'CONFIG_CRYPTO_DRBG_HASH'
p1990
S'y'
sS'CONFIG_SECURITY_PATH'
p1991
S'y'
sS'CONFIG_THERMAL_EMERGENCY_POWEROFF_DELAY_MS'
p1992
I0
sS'CONFIG_DEBUG_FS'
p1993
S'y'
sS'CONFIG_STACK_TRACER'
p1994
S'y'
sS'net.core.dev_weight'
p1995
I64
sS'CONFIG_HAVE_ALIGNED_STRUCT_PAGE'
p1996
S'y'
sS'CONFIG_NET_VENDOR_SYNOPSYS'
p1997
S'y'
sS'CONFIG_NET_FC'
p1998
S'y'
sS'CONFIG_HAVE_CC_STACKPROTECTOR'
p1999
S'y'
sS'CONFIG_NET_VENDOR_MARVELL'
p2000
S'y'
sS'CONFIG_BLK_DEV_LOOP_MIN_COUNT'
p2001
I8
sS'net.ipv6.conf.ens3.proxy_ndp'
p2002
I0
sS'CONFIG_DEFAULT_TCP_CONG'
p2003
S'"cubic"'
p2004
sS'CONFIG_CRYPTO_CBC'
p2005
S'y'
sS'CONFIG_PGTABLE_MAPPING'
p2006
S'y'
sS'CONFIG_NET_VENDOR_NATSEMI'
p2007
S'y'
sS'CONFIG_HAVE_EBPF_JIT'
p2008
S'y'
sS'kernel.shmmax'
p2009
L18446744073692774399L
sS'net.ipv6.conf.all.accept_ra_min_hop_limit'
p2010
I1
sS'CONFIG_PARAVIRT_SPINLOCKS'
p2011
S'y'
sS'CONFIG_FB_SIMPLE'
p2012
S'y'
sS'net.ipv6.neigh.default.proxy_delay'
p2013
I80
sS'CONFIG_QUEUED_RWLOCKS'
p2014
S'y'
sS'CONFIG_USB_DWC2'
p2015
S'y'
sS'CONFIG_RAPIDIO_DMA_ENGINE'
p2016
S'y'
sS'CONFIG_VHOST_NET'
p2017
S'm'
sS'net.ipv4.conf.ens3.forwarding'
p2018
I0
sS'CONFIG_MFD_SYSCON'
p2019
S'y'
sS'kernel.sched_domain.cpu6.domain0.cache_nice_tries'
p2020
I1
sS'net.ipv6.conf.default.autoconf'
p2021
I1
sS'fs.pipe-user-pages-soft'
p2022
I16384
sS'CONFIG_CRYPTO_SIMD'
p2023
S'm'
sS'CONFIG_SND_PCM_TIMER'
p2024
S'y'
sS'CONFIG_X86_INTEL_PSTATE'
p2025
S'y'
sS'net.ipv4.tcp_mtu_probing'
p2026
I0
sS'CONFIG_MFD_TWL4030_AUDIO'
p2027
S'y'
sS'CONFIG_CGROUP_PERF'
p2028
S'y'
sS'CONFIG_WATCHDOG_HANDLE_BOOT_ENABLED'
p2029
S'y'
sS'CONFIG_SOLARIS_X86_PARTITION'
p2030
S'y'
sS'CONFIG_MFD_SMSC'
p2031
S'y'
sS'CONFIG_NEED_SG_DMA_LENGTH'
p2032
S'y'
sS'vm.hugepages_treat_as_movable'
p2033
I0
sS'CONFIG_ARCH_HAS_DEVMEM_IS_ALLOWED'
p2034
S'y'
sS'CONFIG_SND'
p2035
S'm'
sS'CONFIG_LZO_DECOMPRESS'
p2036
S'y'
sS'kernel.ftrace_enabled'
p2037
I1
sS'CONFIG_CRYPTO_RNG'
p2038
S'y'
sS'CONFIG_MODULES_TREE_LOOKUP'
p2039
S'y'
sS'CONFIG_ECRYPT_FS_MESSAGING'
p2040
S'y'
sS'CONFIG_RTC_HCTOSYS_DEVICE'
p2041
S'"rtc0"'
p2042
sS'net.ipv4.conf.ens3.src_valid_mark'
p2043
I0
sS'CONFIG_EFI_VARS'
p2044
S'y'
sS'kernel.numa_balancing_scan_size_mb'
p2045
I256
sS'CONFIG_KEXEC_FILE'
p2046
S'y'
sS'CONFIG_I2C_BOARDINFO'
p2047
S'y'
sS'CONFIG_SECCOMP'
p2048
S'y'
sS'CONFIG_CRYPTO_RNG2'
p2049
S'y'
sS'CONFIG_ARCH_MMAP_RND_BITS'
p2050
I28
sS'CONFIG_PMIC_DA9052'
p2051
S'y'
sS'CONFIG_KGDB_SERIAL_CONSOLE'
p2052
S'y'
sS'CONFIG_CPU_FREQ_GOV_ATTR_SET'
p2053
S'y'
sS'CONFIG_IMA_DEFAULT_TEMPLATE'
p2054
S'"ima-ng"'
p2055
sS'CONFIG_BOOTPARAM_HUNG_TASK_PANIC_VALUE'
p2056
I0
sS'kernel.sched_domain.cpu6.domain0.busy_idx'
p2057
I2
sS'CONFIG_CRYPTO_SHA1'
p2058
S'y'
sS'CONFIG_MMIOTRACE'
p2059
S'y'
sS'CONFIG_HW_RANDOM'
p2060
S'y'
sS'CONFIG_ARCH_HAS_CPU_RELAX'
p2061
S'y'
sS'net.ipv6.conf.all.accept_source_route'
p2062
I0
sS'CONFIG_PARAVIRT_TIME_ACCOUNTING'
p2063
S'y'
sS'kernel.sched_domain.cpu7.domain0.name'
p2064
S'DIE'
p2065
sS'net.ipv4.neigh.ens3.delay_first_probe_time'
p2066
I5
sS'net.ipv4.neigh.ens3.retrans_time_ms'
p2067
I1000
sS'CONFIG_KALLSYMS'
p2068
S'y'
sS'CONFIG_RFKILL_INPUT'
p2069
S'y'
sS'net.ipv4.route.gc_timeout'
p2070
I300
sS'CONFIG_NET_VENDOR_SAMSUNG'
p2071
S'y'
sS'CONFIG_SPARSEMEM'
p2072
S'y'
sS'CONFIG_ARCH_HAS_ELF_RANDOMIZE'
p2073
S'y'
sS'CONFIG_HAVE_DMA_API_DEBUG'
p2074
S'y'
sS'CONFIG_ACPI_BUTTON'
p2075
S'y'
sS'CONFIG_TTY'
p2076
S'y'
sS'CONFIG_X86_BOOTPARAM_MEMORY_CORRUPTION_CHECK'
p2077
S'y'
sS'CONFIG_XZ_DEC'
p2078
S'y'
sS'CONFIG_X86_PM_TIMER'
p2079
S'y'
sS'net.ipv4.conf.ens3.arp_notify'
p2080
I0
sS'CONFIG_SERIAL_8250_LPSS'
p2081
S'y'
sS'net.ipv4.neigh.lo.anycast_delay'
p2082
I100
sS'CONFIG_RPS'
p2083
S'y'
sS'CONFIG_AUDIT_WATCH'
p2084
S'y'
sS'CONFIG_KVM_GENERIC_DIRTYLOG_READ_PROTECT'
p2085
S'y'
sS'CONFIG_DMAR_TABLE'
p2086
S'y'
sS'CONFIG_GENERIC_SMP_IDLE_THREAD'
p2087
S'y'
sS'net.ipv4.conf.ens3.send_redirects'
p2088
I1
sS'CONFIG_FB_VESA'
p2089
S'y'
sS'CONFIG_PREEMPT_VOLUNTARY'
p2090
S'y'
sS'CONFIG_DEVMEM'
p2091
S'y'
sS'CONFIG_FUSE_FS'
p2092
S'y'
sS'CONFIG_USER_RETURN_NOTIFIER'
p2093
S'y'
sS'net.ipv4.tcp_max_reordering'
p2094
I300
sS'net.ipv4.neigh.default.gc_interval'
p2095
I30
sS'kernel.sg-big-buff'
p2096
I32768
sS'net.ipv6.route.gc_elasticity'
p2097
I9
sS'CONFIG_ARCH_SPARSEMEM_ENABLE'
p2098
S'y'
sS'CONFIG_SCHED_TRACER'
p2099
S'y'
sS'CONFIG_SQUASHFS_DECOMP_SINGLE'
p2100
S'y'
sS'CONFIG_X86_IO_APIC'
p2101
S'y'
sS'net.ipv6.conf.default.temp_valid_lft'
p2102
I604800
sS'CONFIG_ZONE_DMA32'
p2103
S'y'
sS'CONFIG_SERIAL_8250_MANY_PORTS'
p2104
S'y'
sS'net.ipv4.tcp_timestamps'
p2105
I1
sS'kernel.sched_domain.cpu5.domain0.busy_idx'
p2106
I2
sS'CONFIG_EDAC'
p2107
S'y'
sS'CONFIG_GENERIC_CPU_AUTOPROBE'
p2108
S'y'
sS'CONFIG_NR_CPUS'
p2109
I512
sS'CONFIG_DOUBLEFAULT'
p2110
S'y'
sS'user.max_user_namespaces'
p2111
I257592
sS'CONFIG_BIG_KEYS'
p2112
S'y'
sS'kernel.sched_domain.cpu4.domain0.flags'
p2113
I4143
sS'kernel.keys.root_maxkeys'
p2114
I1000000
sS'CONFIG_POSIX_MQUEUE_SYSCTL'
p2115
S'y'
sS'kernel.sched_domain.cpu4.domain0.min_interval'
p2116
I10
sS'net.ipv6.conf.ens3.disable_policy'
p2117
I0
sS'net.ipv6.neigh.lo.delay_first_probe_time'
p2118
I5
sS'CONFIG_AMD_NUMA'
p2119
S'y'
sS'net.core.somaxconn'
p2120
I128
sS'CONFIG_AMIGA_PARTITION'
p2121
S'y'
sS'CONFIG_CONSOLE_LOGLEVEL_DEFAULT'
p2122
I7
sS'CONFIG_SQUASHFS_LZ4'
p2123
S'y'
sS'net.ipv6.conf.ens3.accept_ra_pinfo'
p2124
I1
sS'CONFIG_SCSI_CONSTANTS'
p2125
S'y'
sS'CONFIG_FB_IMSTT'
p2126
S'y'
sS'CONFIG_CRYPTO_AES'
p2127
S'y'
sS'CONFIG_RTC_INTF_SYSFS'
p2128
S'y'
sS'CONFIG_SECURITY_SELINUX_DEVELOP'
p2129
S'y'
sS'net.ipv4.conf.lo.mc_forwarding'
p2130
I0
sS'net.ipv4.tcp_keepalive_probes'
p2131
I9
sS'CONFIG_TREE_RCU'
p2132
S'y'
sS'vm.hugetlb_shm_group'
p2133
I0
sS'CONFIG_X86_TSC'
p2134
S'y'
sS'CONFIG_SECURITY_SELINUX_BOOTPARAM'
p2135
S'y'
sS'CONFIG_ACPI_PCI_SLOT'
p2136
S'y'
sS'CONFIG_X86_MCE_AMD'
p2137
S'y'
sg3
(lp2138
S'HostInfo'
p2139
ag6
aS'object'
p2140
asS'kernel.random.urandom_min_reseed_secs'
p2141
I60
sS'CONFIG_LIBNVDIMM'
p2142
S'y'
sS'kernel.random.read_wakeup_threshold'
p2143
I64
sS'kernel.sched_domain.cpu1.domain0.wake_idx'
p2144
I0
sS'CONFIG_RESET_CONTROLLER'
p2145
S'y'
sS'net.ipv4.tcp_no_metrics_save'
p2146
I0
sS'CONFIG_I2C_HELPER_AUTO'
p2147
S'y'
sS'CONFIG_JBD2'
p2148
S'y'
sS'kernel.sched_domain.cpu1.domain0.forkexec_idx'
p2149
I0
sS'CONFIG_PARTITION_ADVANCED'
p2150
S'y'
sS'CONFIG_EFI_STUB'
p2151
S'y'
sS'net.ipv6.neigh.ens3.mcast_resolicit'
p2152
I0
sS'net.ipv4.conf.all.arp_announce'
p2153
I0
sS'CONFIG_CRYPTO_AEAD2'
p2154
S'y'
sS'CONFIG_RTC_INTF_DEV'
p2155
S'y'
sS'CONFIG_EXT4_FS_POSIX_ACL'
p2156
S'y'
sS'CONFIG_SRCU'
p2157
S'y'
sS'CONFIG_INPUT_EVDEV'
p2158
S'y'
sS'net.ipv4.conf.all.arp_ignore'
p2159
I0
sS'CONFIG_GPIO_TPS6586X'
p2160
S'y'
sS'CONFIG_SECCOMP_FILTER'
p2161
S'y'
sS'kernel.sched_domain.cpu3.domain0.flags'
p2162
I4143
sS'CONFIG_SERIO'
p2163
S'y'
sS'net.ipv6.conf.ens3.accept_ra_min_hop_limit'
p2164
I1
sS'CONFIG_ARCH_HAS_CACHE_LINE_SIZE'
p2165
S'y'
sS'CONFIG_SERIAL_8250_RUNTIME_UARTS'
p2166
I32
sS'CONFIG_MMU_NOTIFIER'
p2167
S'y'
sS'CONFIG_HW_CONSOLE'
p2168
S'y'
sS'CONFIG_SQUASHFS_LZO'
p2169
S'y'
sS'net.ipv4.tcp_stdurg'
p2170
I0
sS'CONFIG_SCSI_DH'
p2171
S'y'
sS'CONFIG_USB_ARCH_HAS_HCD'
p2172
S'y'
sS'kernel.unknown_nmi_panic'
p2173
I0
sS'CONFIG_NO_HZ_COMMON'
p2174
S'y'
sS'net.ipv4.conf.all.route_localnet'
p2175
I0
sS'kernel.seccomp.actions_logged'
p2176
S'kill_process kill_thread trap errno trace log'
p2177
sS'net.ipv6.conf.all.force_mld_version'
p2178
I0
sS'CONFIG_MSDOS_PARTITION'
p2179
S'y'
sS'vm.overcommit_kbytes'
p2180
I0
sS'net.ipv4.conf.all.drop_unicast_in_l2_multicast'
p2181
I0
sS'CONFIG_POWER_SUPPLY'
p2182
S'y'
sS'kernel.sched_domain.cpu2.domain0.cache_nice_tries'
p2183
I1
sS'CONFIG_DECOMPRESS_LZMA'
p2184
S'y'
sS'net.ipv6.conf.all.ndisc_notify'
p2185
I0
sS'kernel.sched_domain.cpu7.domain0.max_interval'
p2186
I20
sS'CONFIG_CALGARY_IOMMU'
p2187
S'y'
sS'net.ipv4.neigh.lo.unres_qlen'
p2188
I101
sS'CONFIG_IO_DELAY_TYPE_0X80'
p2189
I0
sS'CONFIG_SND_JACK'
p2190
S'y'
sS'CONFIG_DYNAMIC_DEBUG'
p2191
S'y'
sS'kernel.printk_ratelimit_burst'
p2192
I10
sS'CONFIG_CRYPTO_SEQIV'
p2193
S'y'
sS'CONFIG_NET_VENDOR_OKI'
p2194
S'y'
sS'kernel.sched_domain.cpu3.domain0.busy_factor'
p2195
I32
sS'fs.nr_open'
p2196
I1048576
sS'kernel.sched_domain.cpu5.domain0.wake_idx'
p2197
I0
sS'net.ipv6.conf.lo.accept_ra_mtu'
p2198
I1
sS'CONFIG_RAID6_PQ'
p2199
S'm'
sS'CONFIG_CFQ_GROUP_IOSCHED'
p2200
S'y'
sS'CONFIG_PARAVIRT_CLOCK'
p2201
S'y'
sS'CONFIG_SND_VMASTER'
p2202
S'y'
sS'net.ipv4.conf.lo.shared_media'
p2203
I1
sS'CONFIG_NLS'
p2204
S'y'
sS'CONFIG_SECURITY_TOMOYO'
p2205
S'y'
sS'CONFIG_ARCH_HAS_STRICT_MODULE_RWX'
p2206
S'y'
sS'CONFIG_SND_OSSEMUL'
p2207
S'y'
sS'CONFIG_CGROUP_FREEZER'
p2208
S'y'
sS'CONFIG_NET_VENDOR_CHELSIO'
p2209
S'y'
sS'CONFIG_FRAMEBUFFER_CONSOLE_DETECT_PRIMARY'
p2210
S'y'
sS'CONFIG_ASN1'
p2211
S'y'
sS'CONFIG_CRC16'
p2212
S'y'
sS'CONFIG_PCIEASPM'
p2213
S'y'
sS'CONFIG_LDM_PARTITION'
p2214
S'y'
sS'CONFIG_CROSS_MEMORY_ATTACH'
p2215
S'y'
sS'CONFIG_COMPACTION'
p2216
S'y'
sS'kernel.io_delay_type'
p2217
I1
sS'CONFIG_HAVE_KRETPROBES'
p2218
S'y'
sS'CONFIG_CPU_IDLE_GOV_LADDER'
p2219
S'y'
sS'CONFIG_UNISYSSPAR'
p2220
S'y'
sS'net.ipv6.neigh.lo.locktime'
p2221
I0
sS'CONFIG_CPU_FREQ_GOV_ONDEMAND'
p2222
S'y'
sS'CONFIG_CROSS_COMPILE'
p2223
S'""'
p2224
sS'CONFIG_ARCH_HAS_SET_MEMORY'
p2225
S'y'
sS'CONFIG_SYSCTL_SYSCALL'
p2226
S'y'
sS'net.ipv4.neigh.ens3.mcast_solicit'
p2227
I3
sS'CONFIG_PRINTK_SAFE_LOG_BUF_SHIFT'
p2228
I13
sS'CONFIG_NET_RX_BUSY_POLL'
p2229
S'y'
sS'CONFIG_GENERIC_TIME_VSYSCALL'
p2230
S'y'
sS'CONFIG_HARDLOCKUP_DETECTOR_PERF'
p2231
S'y'
sS'CONFIG_USB_PHY'
p2232
S'y'
sS'CONFIG_FANOTIFY_ACCESS_PERMISSIONS'
p2233
S'y'
sS'CONFIG_RCU_NEED_SEGCBLIST'
p2234
S'y'
sS'CONFIG_MULTIUSER'
p2235
S'y'
sS'net.ipv4.tcp_wmem'
p2236
S'4096\t16384\t4194304'
p2237
sS'kernel.tainted'
p2238
I0
sS'CONFIG_VMAP_STACK'
p2239
S'y'
sS'kernel.sched_nr_migrate'
p2240
I32
sS'CONFIG_HAVE_KVM_MSI'
p2241
S'y'
sS'CONFIG_MFD_TPS65912_SPI'
p2242
S'y'
sS'kernel.keys.root_maxbytes'
p2243
I25000000
sS'CONFIG_NET_VENDOR_BROADCOM'
p2244
S'y'
sS'CONFIG_PCIEAER'
p2245
S'y'
sS'net.ipv4.conf.ens3.bootp_relay'
p2246
I0
sS'CONFIG_MICROCODE_OLD_INTERFACE'
p2247
S'y'
sS'kernel.cap_last_cap'
p2248
I37
sS'CONFIG_ARCH_USE_QUEUED_RWLOCKS'
p2249
S'y'
sS'CONFIG_ARCH_MIGHT_HAVE_PC_PARPORT'
p2250
S'y'
sS'net.ipv4.tcp_available_congestion_control'
p2251
S'cubic reno'
p2252
sS'kernel.sched_domain.cpu8.domain0.newidle_idx'
p2253
I0
sS'CONFIG_CRYPTO_CRC32C_INTEL'
p2254
S'y'
sS'CONFIG_ACPI_BATTERY'
p2255
S'y'
sS'CONFIG_ACPI_PROCESSOR_IDLE'
p2256
S'y'
sS'net.ipv6.conf.lo.mc_forwarding'
p2257
I0
sS'kernel.printk'
p2258
S'4\t4\t1\t7'
p2259
sS'CONFIG_PID_NS'
p2260
S'y'
sS'CONFIG_NETFILTER'
p2261
S'y'
sS'user.max_inotify_instances'
p2262
I1024
sS'CONFIG_ACPI_AC'
p2263
S'y'
sS'CONFIG_VM_EVENT_COUNTERS'
p2264
S'y'
sS'CONFIG_BINFMT_SCRIPT'
p2265
S'y'
sS'CONFIG_TMPFS_POSIX_ACL'
p2266
S'y'
sS'CONFIG_NLATTR'
p2267
S'y'
sS'CONFIG_DEFAULT_DEADLINE'
p2268
S'y'
sS'CONFIG_NET_VENDOR_QUALCOMM'
p2269
S'y'
sS'net.ipv4.igmp_max_memberships'
p2270
I20
sS'CONFIG_X86_REROUTE_FOR_BROKEN_BOOT_IRQS'
p2271
S'y'
sS'net.ipv6.conf.lo.router_solicitation_interval'
p2272
I4
sS'CONFIG_MODULE_SIG_HASH'
p2273
S'"sha512"'
p2274
sS'net.ipv6.conf.lo.accept_ra_defrtr'
p2275
I1
sS'CONFIG_SOCK_CGROUP_DATA'
p2276
S'y'
sS'debug.exception-trace'
p2277
I1
sS'CONFIG_ACPI_NUMA'
p2278
S'y'
sS'CONFIG_SECURITY_SELINUX_AVC_STATS'
p2279
S'y'
sS'CONFIG_IMA_MEASURE_PCR_IDX'
p2280
I10
sS'CONFIG_X86'
p2281
S'y'
sS'CONFIG_CRC_T10DIF'
p2282
S'y'
sS'net.ipv6.conf.all.autoconf'
p2283
I1
sS'CONFIG_NET_VENDOR_DLINK'
p2284
S'y'
sS'net.ipv6.conf.all.router_solicitation_delay'
p2285
I1
sS'CONFIG_EARLY_PRINTK_DBGP'
p2286
S'y'
sS'CONFIG_CC_OPTIMIZE_FOR_PERFORMANCE'
p2287
S'y'
sS'CONFIG_TREE_SRCU'
p2288
S'y'
sS'CONFIG_PCI_IOV'
p2289
S'y'
sS'CONFIG_ATA_PIIX'
p2290
S'y'
sS'CONFIG_CRYPTO_MD5'
p2291
S'y'
sS'kernel.panic_on_warn'
p2292
I0
sS'kernel.sched_domain.cpu1.domain0.max_newidle_lb_cost'
p2293
I14528
sS'CONFIG_SND_HDA_INPUT_BEEP'
p2294
S'y'
sS'fs.epoll.max_user_watches'
p2295
I13505269
sS'CONFIG_SERIAL_8250'
p2296
S'y'
sS'net.ipv6.conf.default.temp_prefered_lft'
p2297
I86400
sS'CONFIG_FB_EFI'
p2298
S'y'
sS'kernel.pty.nr'
p2299
I0
sS'net.ipv6.conf.lo.accept_dad'
p2300
S'-1'
p2301
sS'net.ipv6.conf.ens3.router_solicitation_delay'
p2302
I1
sS'net.ipv6.conf.lo.mldv1_unsolicited_report_interval'
p2303
I10000
sS'net.ipv6.conf.ens3.router_solicitation_max_interval'
p2304
I3600
sS'kernel.sched_domain.cpu8.domain0.imbalance_pct'
p2305
I125
sS'net.ipv4.tcp_base_mss'
p2306
I1024
sS'CONFIG_HAVE_PERF_EVENTS_NMI'
p2307
S'y'
sS'CONFIG_ASYMMETRIC_KEY_TYPE'
p2308
S'y'
sS'CONFIG_MFD_WM8350'
p2309
S'y'
sS'kernel.sched_domain.cpu2.domain0.name'
p2310
S'DIE'
p2311
sS'kernel.sched_domain.cpu9.domain0.max_interval'
p2312
I20
sS'CONFIG_FS_DAX'
p2313
S'y'
sS'CONFIG_IP6_NF_FILTER'
p2314
S'm'
sS'CONFIG_MODULE_SRCVERSION_ALL'
p2315
S'y'
sS'CONFIG_COREDUMP'
p2316
S'y'
sS'CONFIG_MFD_TPS65912'
p2317
S'y'
sS'CONFIG_GENERIC_ALLOCATOR'
p2318
S'y'
sS'net.ipv6.neigh.lo.ucast_solicit'
p2319
I3
sS'CONFIG_MTRR_SANITIZER_ENABLE_DEFAULT'
p2320
I1
sS'net.ipv6.conf.lo.drop_unicast_in_l2_multicast'
p2321
I0
sS'net.ipv6.conf.default.router_solicitation_delay'
p2322
I1
sS'CONFIG_PCI_LOCKLESS_CONFIG'
p2323
S'y'
sS'net.ipv6.neigh.ens3.anycast_delay'
p2324
I100
sS'net.ipv4.conf.lo.drop_gratuitous_arp'
p2325
I0
sS'net.ipv6.conf.ens3.mldv1_unsolicited_report_interval'
p2326
I10000
sS'net.ipv4.conf.lo.ignore_routes_with_linkdown'
p2327
I0
sS'CONFIG_NET_CORE'
p2328
S'y'
sS'kernel.panic_on_unrecovered_nmi'
p2329
I0
sS'CONFIG_HAVE_MEMORY_PRESENT'
p2330
S'y'
sS'net.ipv6.conf.default.keep_addr_on_down'
p2331
I0
sS'kernel.sched_domain.cpu4.domain0.max_newidle_lb_cost'
p2332
I15702
sS'CONFIG_X86_FEATURE_NAMES'
p2333
S'y'
sS'CONFIG_NOP_TRACER'
p2334
S'y'
sS'CONFIG_FUNCTION_TRACER'
p2335
S'y'
sS'CONFIG_CPU_FREQ_STAT'
p2336
S'y'
sS'net.ipv4.neigh.ens3.locktime'
p2337
I100
sS'net.ipv6.neigh.lo.unres_qlen_bytes'
p2338
I212992
sS'CONFIG_POSIX_TIMERS'
p2339
S'y'
sS'CONFIG_LWTUNNEL_BPF'
p2340
S'y'
sS'net.ipv4.conf.default.disable_xfrm'
p2341
I0
sS'CONFIG_PHYSICAL_START'
p2342
S'0x1000000'
p2343
sS'CONFIG_COMPAT_OLD_SIGACTION'
p2344
S'y'
sS'net.ipv4.tcp_keepalive_time'
p2345
I7200
sS'net.ipv6.conf.ens3.max_addresses'
p2346
I16
sS'CONFIG_EXTCON'
p2347
S'y'
sS'CONFIG_NET_VENDOR_AMD'
p2348
S'y'
sS'net.ipv4.conf.all.accept_source_route'
p2349
I0
sS'CONFIG_X86_PAT'
p2350
S'y'
sS'CONFIG_GENERIC_HWEIGHT'
p2351
S'y'
sS'net.ipv6.conf.default.ndisc_notify'
p2352
I0
sS'CONFIG_X86_CHECK_BIOS_CORRUPTION'
p2353
S'y'
sS'CONFIG_ARCH_HAS_SG_CHAIN'
p2354
S'y'
sS'CONFIG_ARCH_SUPPORTS_ATOMIC_RMW'
p2355
S'y'
sS'net.ipv4.conf.ens3.shared_media'
p2356
I1
sS'CONFIG_RT_MUTEXES'
p2357
S'y'
sS'net.core.rmem_default'
p2358
I212992
sS'vm.min_unmapped_ratio'
p2359
I1
sS'CONFIG_RFKILL_LEDS'
p2360
S'y'
sS'CONFIG_ARCH_USES_HIGH_VMA_FLAGS'
p2361
S'y'
sS'net.ipv4.conf.lo.drop_unicast_in_l2_multicast'
p2362
I0
sS'CONFIG_THIN_ARCHIVES'
p2363
S'y'
sS'net.ipv6.conf.all.regen_max_retry'
p2364
I3
sS'net.ipv6.conf.all.accept_ra_defrtr'
p2365
I1
sS'net.ipv4.conf.all.arp_notify'
p2366
I0
sS'CONFIG_VIRTIO_PCI'
p2367
S'y'
sS'kernel.kexec_load_disabled'
p2368
I0
sS'CONFIG_X86_64'
p2369
S'y'
sS'CONFIG_CRYPTO_MANAGER2'
p2370
S'y'
sS'CONFIG_NUMA'
p2371
S'y'
sS'fs.file-nr'
p2372
S'808\t0\t6578986'
p2373
sS'CONFIG_OPROFILE_NMI_TIMER'
p2374
S'y'
sS'fs.quota.cache_hits'
p2375
I0
sS'CONFIG_X86_SMAP'
p2376
S'y'
sS'CONFIG_PANIC_TIMEOUT'
p2377
I0
sS'CONFIG_SLUB_CPU_PARTIAL'
p2378
S'y'
sS'CONFIG_HAVE_MEMBLOCK_NODE_MAP'
p2379
S'y'
sS'CONFIG_SND_HDA_RECONFIG'
p2380
S'y'
sS'CONFIG_REGMAP_SPI'
p2381
S'y'
sS'CONFIG_ARCH_MAY_HAVE_PC_FDC'
p2382
S'y'
sS'net.ipv6.neigh.default.mcast_resolicit'
p2383
I0
sS'CONFIG_REGULATOR_TPS65217'
p2384
S'y'
sS'CONFIG_HIBERNATE_CALLBACKS'
p2385
S'y'
sS'CONFIG_CLKBLD_I8253'
p2386
S'y'
sS'kernel.sched_domain.cpu4.domain0.wake_idx'
p2387
I0
sS'kernel.sched_latency_ns'
p2388
I24000000
sS'CONFIG_NAMESPACES'
p2389
S'y'
sS'CONFIG_BPF_JIT'
p2390
S'y'
sS'CONFIG_DEFAULT_CUBIC'
p2391
S'y'
sS'kernel.numa_balancing'
p2392
I1
sS'kernel.hardlockup_panic'
p2393
I0
sS'CONFIG_NET_VENDOR_VIA'
p2394
S'y'
sS'CONFIG_PROC_CHILDREN'
p2395
S'y'
sS'CONFIG_PHYS_ADDR_T_64BIT'
p2396
S'y'
sS'net.ipv6.conf.all.accept_ra_rt_info_min_plen'
p2397
I0
sS'CONFIG_GENERIC_PENDING_IRQ'
p2398
S'y'
sS'net.ipv4.neigh.ens3.ucast_solicit'
p2399
I3
sS'CONFIG_KDB_CONTINUE_CATASTROPHIC'
p2400
I0
sS'CONFIG_FB_BOOT_VESA_SUPPORT'
p2401
S'y'
sS'kernel.perf_event_max_contexts_per_stack'
p2402
I8
sS'CONFIG_DYNAMIC_FTRACE'
p2403
S'y'
sS'net.ipv6.conf.ens3.dad_transmits'
p2404
I1
sS'net.ipv6.conf.lo.mtu'
p2405
I65536
sS'net.ipv6.conf.all.disable_ipv6'
p2406
I0
sS'net.ipv6.conf.ens3.router_solicitations'
p2407
S'-1'
p2408
sS'net.ipv6.conf.lo.keep_addr_on_down'
p2409
I0
sS'CONFIG_USB_EHCI_PCI'
p2410
S'y'
sS'CONFIG_KVM_ASYNC_PF'
p2411
S'y'
sS'net.ipv6.ip6frag_time'
p2412
I60
sS'net.ipv4.conf.all.log_martians'
p2413
I0
sS'fs.aio-max-nr'
p2414
I65536
sS'CONFIG_ARCH_SUPPORTS_INT128'
p2415
S'y'
sS'CONFIG_SECURITY'
p2416
S'y'
sS'CONFIG_SPI'
p2417
S'y'
sS'net.ipv4.tcp_orphan_retries'
p2418
I0
sS'net.ipv4.tcp_fin_timeout'
p2419
I60
sS'CONFIG_IDLE_PAGE_TRACKING'
p2420
S'y'
sS'CONFIG_CRYPTO_CRYPTD'
p2421
S'm'
sS'CONFIG_DEVPORT'
p2422
S'y'
sS'CONFIG_ARCH_PROC_KCORE_TEXT'
p2423
S'y'
sS'CONFIG_SPARSEMEM_VMEMMAP_ENABLE'
p2424
S'y'
sS'net.ipv6.conf.default.disable_policy'
p2425
I0
sS'CONFIG_NET_CADENCE'
p2426
S'y'
sS'kernel.sched_domain.cpu7.domain0.min_interval'
p2427
I10
sS'CONFIG_SERIAL_8250_NR_UARTS'
p2428
I48
sS'net.ipv6.conf.ens3.forwarding'
p2429
I0
sS'CONFIG_NET_VENDOR_MYRI'
p2430
S'y'
sS'CONFIG_ARCH_SUPPORTS_NUMA_BALANCING'
p2431
S'y'
sS'CONFIG_TMPFS_XATTR'
p2432
S'y'
sS'net.ipv4.neigh.ens3.anycast_delay'
p2433
I100
sS'net.ipv6.conf.default.mldv1_unsolicited_report_interval'
p2434
I10000
sS'CONFIG_ARCH_HAS_STRICT_KERNEL_RWX'
p2435
S'y'
sS'net.ipv4.tcp_sack'
p2436
I1
sS'CONFIG_BLK_DEV_MD'
p2437
S'y'
sS'kernel.panic_on_rcu_stall'
p2438
I0
sS'net.ipv6.conf.ens3.mtu'
p2439
I1500
sS'CONFIG_PCI_DIRECT'
p2440
S'y'
sS'kernel.ns_last_pid'
p2441
I105266
sS'CONFIG_HAVE_KERNEL_GZIP'
p2442
S'y'
sS'CONFIG_MEGARAID_NEWGEN'
p2443
S'y'
sS'vm.overcommit_ratio'
p2444
I50
sS'CONFIG_MFD_TPS65217'
p2445
S'y'
sS'CONFIG_CRASH_CORE'
p2446
S'y'
sS'CONFIG_ENCRYPTED_KEYS'
p2447
S'y'
sS'net.ipv6.neigh.ens3.retrans_time_ms'
p2448
I1000
sS'CONFIG_ACPI_PROCESSOR_CSTATE'
p2449
S'y'
sS'CONFIG_BLK_DEBUG_FS'
p2450
S'y'
sS'CONFIG_IPV6_PIMSM_V2'
p2451
S'y'
sS'CONFIG_INITRAMFS_SOURCE'
p2452
S'""'
p2453
sS'CONFIG_NET_VENDOR_TI'
p2454
S'y'
sS'CONFIG_HPET_MMAP_DEFAULT'
p2455
S'y'
sS'CONFIG_PROCESSOR_SELECT'
p2456
S'y'
sS'CONFIG_MQ_IOSCHED_KYBER'
p2457
S'y'
sS'kernel.sched_domain.cpu3.domain0.max_interval'
p2458
I20
sS'dev.scsi.logging_level'
p2459
I0
sS'CONFIG_SLHC'
p2460
S'y'
sS'CONFIG_PREVENT_FIRMWARE_BUILD'
p2461
S'y'
sS'net.ipv4.conf.default.accept_redirects'
p2462
I1
sS'CONFIG_PWM_CRC'
p2463
S'y'
sS'CONFIG_ARCH_MMAP_RND_COMPAT_BITS_MIN'
p2464
I8
sS'kernel.hung_task_panic'
p2465
I0
sS'net.ipv4.tcp_retrans_collapse'
p2466
I1
sS'CONFIG_HAVE_KPROBES_ON_FTRACE'
p2467
S'y'
sS'fs.quota.writes'
p2468
I0
sS'CONFIG_ARCH_WANT_HUGE_PMD_SHARE'
p2469
S'y'
sS'kernel.sched_domain.cpu2.domain0.flags'
p2470
I4143
sS'CONFIG_PROC_VMCORE'
p2471
S'y'
sS'CONFIG_GDB_SCRIPTS'
p2472
S'y'
sS'kernel.sched_domain.cpu7.domain0.wake_idx'
p2473
I0
sS'CONFIG_HAVE_CMPXCHG_DOUBLE'
p2474
S'y'
sS'CONFIG_FB_CFB_COPYAREA'
p2475
S'y'
sS'CONFIG_GENERIC_NET_UTILS'
p2476
S'y'
sS'CONFIG_SLAB_MERGE_DEFAULT'
p2477
S'y'
sS'CONFIG_MODULES'
p2478
S'y'
sS'CONFIG_PCI_DOMAINS'
p2479
S'y'
sS'CONFIG_HAVE_MMIOTRACE_SUPPORT'
p2480
S'y'
sS'CONFIG_WLAN_VENDOR_TI'
p2481
S'y'
sS'CONFIG_ARCH_CLOCKSOURCE_DATA'
p2482
S'y'
sS'kernel.sched_domain.cpu9.domain0.max_newidle_lb_cost'
p2483
I21154
sS'vm.dirty_background_bytes'
p2484
I0
sS'kernel.hardlockup_all_cpu_backtrace'
p2485
I0
sS'net.ipv6.conf.ens3.accept_source_route'
p2486
I0
sS'net.ipv6.conf.default.router_solicitation_max_interval'
p2487
I3600
sS'CONFIG_MFD_LP8788'
p2488
S'y'
sS'CONFIG_FRONTSWAP'
p2489
S'y'
sS'CONFIG_NET_VENDOR_EMULEX'
p2490
S'y'
sS'kernel.watchdog'
p2491
I1
sS'CONFIG_HYPERVISOR_GUEST'
p2492
S'y'
sS'CONFIG_GART_IOMMU'
p2493
S'y'
sS'CONFIG_NET_VENDOR_3COM'
p2494
S'y'
sS'CONFIG_PCI_MSI'
p2495
S'y'
sS'net.ipv6.conf.ens3.max_desync_factor'
p2496
I600
sS'net.ipv4.icmp_ratelimit'
p2497
I1000
sS'CONFIG_ALLOW_DEV_COREDUMP'
p2498
S'y'
sS'net.ipv4.neigh.lo.app_solicit'
p2499
I0
sS'CONFIG_ARCH_USES_PG_UNCACHED'
p2500
S'y'
sS'CONFIG_UEVENT_HELPER'
p2501
S'y'
sS'CONFIG_IMA_DEFAULT_HASH_SHA1'
p2502
S'y'
sS'net.ipv6.conf.all.use_oif_addrs_only'
p2503
I0
sS'kernel.sched_tunable_scaling'
p2504
I1
sS'CONFIG_RD_LZMA'
p2505
S'y'
sS'CONFIG_PCI_REALLOC_ENABLE_AUTO'
p2506
S'y'
sS'CONFIG_WLAN_VENDOR_ATH'
p2507
S'y'
sS'CONFIG_PM_ADVANCED_DEBUG'
p2508
S'y'
sS'kernel.bootloader_version'
p2509
I2
sS'CONFIG_ARCH_MMAP_RND_COMPAT_BITS'
p2510
I8
sS'CONFIG_THERMAL_GOV_USER_SPACE'
p2511
S'y'
sS'net.ipv4.neigh.ens3.gc_stale_time'
p2512
I60
sS'fs.mount-max'
p2513
I100000
sS'net.ipv4.cipso_rbm_optfmt'
p2514
I0
sS'CONFIG_USERFAULTFD'
p2515
S'y'
sS'net.ipv4.igmp_qrv'
p2516
I2
sS'kernel.sched_schedstats'
p2517
I0
sS'CONFIG_ACPI_BGRT'
p2518
S'y'
sS'net.ipv4.neigh.default.gc_thresh1'
p2519
I128
sS'net.ipv4.neigh.default.gc_thresh2'
p2520
I512
sS'net.ipv4.neigh.default.gc_thresh3'
p2521
I1024
sS'CONFIG_LZO_COMPRESS'
p2522
S'y'
sS'CONFIG_MOUSE_PS2_FOCALTECH'
p2523
S'y'
sS'net.ipv4.fwmark_reflect'
p2524
I0
sS'CONFIG_IMA'
p2525
S'y'
sS'CONFIG_CPU_IDLE_GOV_MENU'
p2526
S'y'
sS'vm.dirty_background_ratio'
p2527
I10
sS'CONFIG_USB_EHCI_HCD_PLATFORM'
p2528
S'y'
sS'CONFIG_SCHED_OMIT_FRAME_POINTER'
p2529
S'y'
sS'kernel.hostname'
p2530
S'nestedvm'
p2531
sS'CONFIG_PINCTRL_AMD'
p2532
S'y'
sS'CONFIG_UIO'
p2533
S'm'
sS'net.ipv4.conf.ens3.drop_unicast_in_l2_multicast'
p2534
I0
sS'kernel.poweroff_cmd'
p2535
S'/sbin/poweroff'
p2536
sS'net.ipv4.conf.lo.promote_secondaries'
p2537
I0
sS'CONFIG_IA32_EMULATION'
p2538
S'y'
sS'CONFIG_SRAM'
p2539
S'y'
sS'CONFIG_ARCH_HAVE_NMI_SAFE_CMPXCHG'
p2540
S'y'
sS'vm.min_free_kbytes'
p2541
I225280
sS'CONFIG_RING_BUFFER'
p2542
S'y'
sS'net.ipv4.route.min_pmtu'
p2543
I552
sS'CONFIG_HAVE_ARCH_SOFT_DIRTY'
p2544
S'y'
sS'kernel.perf_cpu_time_max_percent'
p2545
I25
sS'CONFIG_MD_RAID10'
p2546
S'm'
sS'CONFIG_PROC_KCORE'
p2547
S'y'
sS'dev.raid.speed_limit_min'
p2548
I1000
sS'kernel.sched_time_avg_ms'
p2549
I1000
sS'CONFIG_SECURITY_TOMOYO_MAX_ACCEPT_ENTRY'
p2550
I2048
sS'net.ipv4.route.gc_min_interval'
p2551
I0
sS'CONFIG_MAGIC_SYSRQ_DEFAULT_ENABLE'
p2552
S'0x1'
p2553
sS'CONFIG_DEVTMPFS_MOUNT'
p2554
S'y'
sS'net.ipv6.calipso_cache_enable'
p2555
I1
sS'CONFIG_PHYLIB'
p2556
S'y'
sS'net.ipv4.fib_multipath_use_neigh'
p2557
I0
sS'net.ipv4.icmp_msgs_per_sec'
p2558
I1000
sS'net.ipv4.tcp_retries1'
p2559
I3
sS'net.ipv4.tcp_retries2'
p2560
I15
sS'CONFIG_SECURITY_APPARMOR_HASH'
p2561
S'y'
sS'CONFIG_PGTABLE_LEVELS'
p2562
I4
sS'CONFIG_NET_VENDOR_ALACRITECH'
p2563
S'y'
sS'CONFIG_KPROBES_ON_FTRACE'
p2564
S'y'
sS'CONFIG_DNOTIFY'
p2565
S'y'
sS'CONFIG_GPIO_ACPI'
p2566
S'y'
sS'CONFIG_ACPI_TABLE_UPGRADE'
p2567
S'y'
sS'CONFIG_RELAY'
p2568
S'y'
sS'CONFIG_MODULE_SIG'
p2569
S'y'
sS'kernel.domainname'
p2570
S'(none)'
p2571
sS'kernel.sched_domain.cpu4.domain0.forkexec_idx'
p2572
I0
sS'CONFIG_FB_ASILIANT'
p2573
S'y'
sS'CONFIG_SYSV68_PARTITION'
p2574
S'y'
sS'CONFIG_HAVE_FTRACE_MCOUNT_RECORD'
p2575
S'y'
sS'CONFIG_XZ_DEC_ARMTHUMB'
p2576
S'y'
sS'CONFIG_VGA_ARB'
p2577
S'y'
sS'CONFIG_INTEGRITY_TRUSTED_KEYRING'
p2578
S'y'
sS'net.ipv4.igmp_max_msf'
p2579
I10
sS'vm.percpu_pagelist_fraction'
p2580
I0
sS'CONFIG_PM_SLEEP_DEBUG'
p2581
S'y'
sS'CONFIG_INLINE_WRITE_UNLOCK_IRQ'
p2582
S'y'
sS'CONFIG_NET_VENDOR_RDC'
p2583
S'y'
sS'CONFIG_MFD_MAX8925'
p2584
S'y'
sS'CONFIG_XZ_DEC_X86'
p2585
S'y'
sS'CONFIG_X86_X32'
p2586
S'y'
sS'net.ipv4.cipso_cache_bucket_size'
p2587
I10
sS'kernel.msg_next_id'
p2588
S'-1'
p2589
sS'net.ipv4.tcp_allowed_congestion_control'
p2590
S'cubic reno'
p2591
sS'kernel.sched_wakeup_granularity_ns'
p2592
I4000000
sS'net.ipv4.neigh.ens3.mcast_resolicit'
p2593
I0
sS'net.ipv6.conf.lo.disable_policy'
p2594
I0
sS'net.ipv6.conf.lo.addr_gen_mode'
p2595
I0
sS'CONFIG_X86_SPEEDSTEP_CENTRINO'
p2596
S'y'
sS'net.ipv4.route.gc_elasticity'
p2597
I8
sS'CONFIG_HAVE_PCSPKR_PLATFORM'
p2598
S'y'
sS'CONFIG_NET_VENDOR_SEEQ'
p2599
S'y'
sS'net.ipv4.tcp_syncookies'
p2600
I1
sS'CONFIG_ARCH_WANTS_THP_SWAP'
p2601
S'y'
sS'net.ipv6.neigh.lo.mcast_solicit'
p2602
I3
sS'CONFIG_IO_DELAY_TYPE_NONE'
p2603
I3
sS'kernel.sched_domain.cpu0.domain0.busy_factor'
p2604
I32
sS'CONFIG_EARLY_PRINTK_EFI'
p2605
S'y'
sS'CONFIG_PROBE_EVENTS'
p2606
S'y'
sS'CONFIG_WLAN_VENDOR_CISCO'
p2607
S'y'
sS'CONFIG_USB_DWC2_HOST'
p2608
S'y'
sS'CONFIG_FRAMEBUFFER_CONSOLE_ROTATION'
p2609
S'y'
sS'CONFIG_PROC_EVENTS'
p2610
S'y'
sS'CONFIG_TIMERFD'
p2611
S'y'
sS'net.ipv4.conf.ens3.mc_forwarding'
p2612
I0
sS'net.core.tstamp_allow_data'
p2613
I1
sS'CONFIG_SECURITY_TOMOYO_MAX_AUDIT_LOG'
p2614
I1024
sS'CONFIG_LOCALVERSION'
p2615
S'""'
p2616
sS'CONFIG_PWM'
p2617
S'y'
sS'net.unix.max_dgram_qlen'
p2618
I512
sS'CONFIG_TTY_PRINTK'
p2619
S'y'
sS'kernel.ctrl-alt-del'
p2620
I0
sS'net.ipv4.conf.default.rp_filter'
p2621
I1
sS'kernel.sched_domain.cpu3.domain0.imbalance_pct'
p2622
I125
sS'CONFIG_HAVE_MEMBLOCK'
p2623
S'y'
sS'CONFIG_PINMUX'
p2624
S'y'
sS'net.ipv4.conf.lo.force_igmp_version'
p2625
I0
sS'CONFIG_IOMMU_SUPPORT'
p2626
S'y'
sS'CONFIG_TRACE_CLOCK'
p2627
S'y'
sS'CONFIG_SERIAL_EARLYCON'
p2628
S'y'
sg10
g11
sS'CONFIG_NET_VENDOR_CISCO'
p2629
S'y'
sS'CONFIG_BASE_FULL'
p2630
S'y'
sS'CONFIG_STP'
p2631
S'm'
sS'net.ipv4.conf.all.rp_filter'
p2632
I1
sS'CONFIG_ATA'
p2633
S'y'
sS'CONFIG_EVM_ATTR_FSUUID'
p2634
S'y'
sS'CONFIG_CRYPTO_GLUE_HELPER_X86'
p2635
S'm'
sS'net.ipv4.ip_early_demux'
p2636
I1
sS'CONFIG_BOOTPARAM_HARDLOCKUP_PANIC_VALUE'
p2637
I0
sS'CONFIG_SYSTEM_EXTRA_CERTIFICATE'
p2638
S'y'
sS'CONFIG_SYSTEM_TRUSTED_KEYS'
p2639
S'""'
p2640
sS'kernel.tracepoint_printk'
p2641
I0
sS'CONFIG_HOTPLUG_PCI'
p2642
S'y'
sS'kernel.sched_domain.cpu0.domain0.min_interval'
p2643
I10
sS'CONFIG_SERIAL_MAX310X'
p2644
S'y'
sS'kernel.sched_domain.cpu0.domain0.idle_idx'
p2645
I1
sS'CONFIG_PNPACPI'
p2646
S'y'
sS'CONFIG_I2C_CHARDEV'
p2647
S'y'
sS'CONFIG_INPUT_TOUCHSCREEN'
p2648
S'y'
sS'CONFIG_HAVE_ARCH_TRACEHOOK'
p2649
S'y'
sS'vm.numa_zonelist_order'
p2650
S'Node'
p2651
sS'CONFIG_FANOTIFY'
p2652
S'y'
sS'vm.memory_failure_recovery'
p2653
I1
sS'CONFIG_ACPI_HED'
p2654
S'y'
sS'net.ipv6.neigh.lo.unres_qlen'
p2655
I101
sS'CONFIG_X86_AMD_PLATFORM_DEVICE'
p2656
S'y'
sS'CONFIG_FONT_8x16'
p2657
S'y'
sS'net.ipv6.mld_max_msf'
p2658
I64
sS'net.ipv4.neigh.default.proxy_delay'
p2659
I80
sS'net.ipv4.conf.default.bootp_relay'
p2660
I0
sS'CONFIG_USB_XHCI_PCI'
p2661
S'y'
sS'kernel.numa_balancing_scan_period_min_ms'
p2662
I1000
sS'net.ipv4.tcp_early_retrans'
p2663
I3
sS'CONFIG_NET_VENDOR_SUN'
p2664
S'y'
sS'CONFIG_PSTORE'
p2665
S'y'
sS'kernel.sched_domain.cpu6.domain0.max_interval'
p2666
I20
sS'CONFIG_DEFAULT_SECURITY'
p2667
S'"apparmor"'
p2668
sS'net.ipv4.conf.ens3.route_localnet'
p2669
I0
sS'net.ipv4.conf.default.igmpv3_unsolicited_report_interval'
p2670
I1000
sS'CONFIG_CRYPTO_AEAD'
p2671
S'y'
sS'net.core.warnings'
p2672
I0
sS'CONFIG_HPET_TIMER'
p2673
S'y'
sS'net.ipv6.conf.default.accept_source_route'
p2674
I0
sS'CONFIG_NETFILTER_INGRESS'
p2675
S'y'
sS'kernel.sched_cfs_bandwidth_slice_us'
p2676
I5000
sS'net.ipv6.conf.lo.mldv2_unsolicited_report_interval'
p2677
I1000
sS'net.ipv6.conf.default.drop_unsolicited_na'
p2678
I0
sS'CONFIG_SECURITY_NETWORK'
p2679
S'y'
sS'CONFIG_TRACER_SNAPSHOT'
p2680
S'y'
sS'net.core.message_cost'
p2681
I5
sS'net.ipv6.conf.all.router_solicitation_interval'
p2682
I4
sS'net.ipv6.neigh.lo.retrans_time_ms'
p2683
I1000
sS'vm.stat_interval'
p2684
I1
sS'CONFIG_CGROUP_CPUACCT'
p2685
S'y'
sS'CONFIG_INPUT_JOYSTICK'
p2686
S'y'
sS'net.ipv4.conf.all.igmpv2_unsolicited_report_interval'
p2687
I10000
sS'net.ipv4.conf.all.accept_local'
p2688
I0
sS'CONFIG_I8253_LOCK'
p2689
S'y'
sS'CONFIG_MAC_EMUMOUSEBTN'
p2690
S'm'
sS'CONFIG_HIBERNATION'
p2691
S'y'
sS'net.ipv4.udp_mem'
p2692
S'1537185\t2049582\t3074370'
p2693
sS'CONFIG_XPS'
p2694
S'y'
sS'CONFIG_WLAN_VENDOR_BROADCOM'
p2695
S'y'
sS'CONFIG_SND_JACK_INPUT_DEV'
p2696
S'y'
sS'CONFIG_INPUT_MOUSE'
p2697
S'y'
sS'CONFIG_IMA_TRUSTED_KEYRING'
p2698
S'y'
sS'CONFIG_MFD_WM8350_I2C'
p2699
S'y'
sS'net.ipv6.neigh.default.delay_first_probe_time'
p2700
I5
sS'kernel.sched_domain.cpu3.domain0.name'
p2701
S'DIE'
p2702
sS'CONFIG_SND_HDA_PREALLOC_SIZE'
p2703
I64
sS'CONFIG_USB_SUPPORT'
p2704
S'y'
sS'CONFIG_IOSF_MBI_DEBUG'
p2705
S'y'
sS'fs.leases-enable'
p2706
I1
sS'CONFIG_ARCH_MEMORY_PROBE'
p2707
S'y'
sS'net.ipv6.conf.all.temp_prefered_lft'
p2708
I86400
sS'CONFIG_GENERIC_IO'
p2709
S'y'
sS'CONFIG_64BIT'
p2710
S'y'
sS'CONFIG_HAVE_IRQ_TIME_ACCOUNTING'
p2711
S'y'
sS'kernel.sched_domain.cpu4.domain0.cache_nice_tries'
p2712
I1
sS'CONFIG_AUDIT_ARCH'
p2713
S'y'
sS'fs.aio-nr'
p2714
I0
sS'CONFIG_THERMAL_HWMON'
p2715
S'y'
sS'net.ipv4.route.max_size'
p2716
I2147483647
sS'kernel.watchdog_thresh'
p2717
I10
sS'CONFIG_HZ'
p2718
I250
sS'CONFIG_X86_DEBUG_FPU'
p2719
S'y'
sS'CONFIG_MPILIB'
p2720
S'y'
sS'CONFIG_INTEGRITY_AUDIT'
p2721
S'y'
sS'CONFIG_GPIO_SYSFS'
p2722
S'y'
sS'CONFIG_KEXEC_CORE'
p2723
S'y'
sS'CONFIG_NET_VENDOR_SMSC'
p2724
S'y'
sS'CONFIG_BALLOON_COMPACTION'
p2725
S'y'
sS'net.ipv6.conf.all.accept_redirects'
p2726
I1
sS'CONFIG_KEYS'
p2727
S'y'
sS'CONFIG_SGI_PARTITION'
p2728
S'y'
sS'CONFIG_KVM_VFIO'
p2729
S'y'
sS'net.ipv4.conf.lo.disable_policy'
p2730
I1
sS'kernel.seccomp.actions_avail'
p2731
S'kill_process kill_thread trap errno trace log allow'
p2732
sS'CONFIG_MEMORY_HOTREMOVE'
p2733
S'y'
sS'CONFIG_BINFMT_ELF'
p2734
S'y'
sS'net.ipv4.tcp_rfc1337'
p2735
I0
sS'kernel.sysrq'
p2736
I176
sS'CONFIG_TASK_IO_ACCOUNTING'
p2737
S'y'
sS'CONFIG_SATA_PMP'
p2738
S'y'
sa(dp2739
g10
g11
sS'fstype'
p2740
S'tmpfs-separate'
p2741
sg3
(lp2742
S'FileSystem'
p2743
ag6
ag14
aS'object'
p2744
asg8
S'FileSystem.host-192.168.123.30.fstype-tmpfs-separate'
p2745
sa(dp2746
S'topDir'
p2747
S'~/vm-scalability/bench/tmp/linux-3.18'
p2748
sS'excludes'
p2749
(lp2750
S'*/.git'
p2751
asg10
g11
sg3
(lp2752
S'PrefetchDir'
p2753
ag6
ag14
aS'object'
p2754
asg8
S'PrefetchDir.topDir-~/vm-scalability/bench/tmp/linux-3.18.host-192.168.123.30'
p2755
sa(dp2756
g8
S'SetCPUs.host-192.168.123.30'
p2757
sS'seq'
p2758
g2758
sg10
g11
sS'hotplug'
p2759
I01
sg3
(lp2760
S'SetCPUs'
p2761
ag6
ag14
aS'object'
p2762
asS'num'
p2763
I10
sa(dp2764
g10
g11
sg3
(lp2765
S'SystemMonitor'
p2766
ag6
ag14
aS'object'
p2767
asg8
S'SystemMonitor.host-192.168.123.30'
p2768
sa(dp2769
S'real'
p2770
F101.005
sS'time.iowait'
p2771
F0.56999999999999995
sg8
S'GmakeLoad.trial-0.host-192.168.123.30'
p2772
sS'time.real'
p2773
F101.005
sS'time.idle'
p2774
F65.111699999999999
sS'time.sys'
p2775
F112.39
sg3
(lp2776
S'GmakeLoad'
p2777
ag6
aS'ResultsProvider'
p2778
ag14
aS'object'
p2779
asS'objPath'
p2780
S'/tmp/mosbench/tmpfs-separate/0'
p2781
sS'units'
p2782
S'builds'
p2783
sg10
g11
sS'result'
p2784
F1
sS'srcPath'
p2785
g2748
sS'cores'
p2786
I10
sS'time.steal'
p2787
F0.40000000000000002
sS'time.irq'
p2788
F0
sS'time.softirq'
p2789
F0.01
sS'time.nice'
p2790
F0
sS'unit'
p2791
S'build'
p2792
sS'time.user'
p2793
F832.54999999999995
sa.