(lp1
(dp2
S'classNames'
p3
(lp4
S'ResultPath'
p5
aS'Task'
p6
aS'object'
p7
asS'name'
p8
g5
sa(dp9
S'host'
p10
S'192.168.123.30'
p11
sg3
(lp12
S'Host'
p13
ag6
aS'SourceFileProvider'
p14
aS'object'
p15
asg8
S'Host.host-192.168.123.30'
p16
sa(dp17
S'CONFIG_USB_OHCI_HCD_PLATFORM'
p18
S'y'
sS'CONFIG_DEFAULT_IO_DELAY_TYPE'
p19
I1
sS'kernel.sched_domain.cpu57.domain0.wake_idx'
p20
I0
sS'CONFIG_DNS_RESOLVER'
p21
S'y'
sS'net.ipv6.conf.lo.suppress_frag_ndisc'
p22
I1
sS'CONFIG_IDLE_PAGE_TRACKING'
p23
S'y'
sS'kernel.sched_domain.cpu38.domain1.imbalance_pct'
p24
I125
sS'CONFIG_GENERIC_STRNCPY_FROM_USER'
p25
S'y'
sS'net.netfilter.nf_log_all_netns'
p26
I0
sS'kernel.sched_domain.cpu1.domain1.forkexec_idx'
p27
I0
sS'CONFIG_KVM_SCHEDACT'
p28
S'y'
sS'CONFIG_WLAN_VENDOR_RALINK'
p29
S'y'
sS'CONFIG_HAVE_DYNAMIC_FTRACE_WITH_REGS'
p30
S'y'
sS'kernel.sched_domain.cpu5.domain0.newidle_idx'
p31
I0
sS'net.ipv4.conf.all.tag'
p32
I0
sS'CONFIG_TOUCHSCREEN_ELAN'
p33
S'y'
sS'kernel.sched_domain.cpu34.domain1.min_interval'
p34
I60
sS'CONFIG_EVENT_TRACING'
p35
S'y'
sS'CONFIG_LIVEPATCH'
p36
S'y'
sS'CONFIG_LEDS_TRIGGER_CPU'
p37
S'y'
sS'CONFIG_PCIEPORTBUS'
p38
S'y'
sS'CONFIG_INIT_ENV_ARG_LIMIT'
p39
I32
sS'net.ipv6.conf.default.accept_ra_min_hop_limit'
p40
I1
sS'CONFIG_LEDS_CLASS'
p41
S'y'
sS'kernel.sched_domain.cpu2.domain0.newidle_idx'
p42
I0
sS'net.ipv4.neigh.default.proxy_qlen'
p43
I64
sS'CONFIG_PMC_ATOM'
p44
S'y'
sS'CONFIG_MANDATORY_FILE_LOCKING'
p45
S'y'
sS'kernel.sched_domain.cpu37.domain1.imbalance_pct'
p46
I125
sS'CONFIG_NLS_CODEPAGE_437'
p47
S'y'
sS'fs.quota.free_dquots'
p48
I0
sS'CONFIG_PRINTK_NMI'
p49
S'y'
sS'CONFIG_NETDEVICES'
p50
S'y'
sS'CONFIG_HAVE_DYNAMIC_FTRACE'
p51
S'y'
sS'CONFIG_PINCTRL_SX150X'
p52
S'y'
sS'CONFIG_NET_SCHED'
p53
S'y'
sS'kernel.sched_domain.cpu48.domain1.wake_idx'
p54
I0
sS'CONFIG_KGDB'
p55
S'y'
sS'CONFIG_UNIXWARE_DISKLABEL'
p56
S'y'
sS'kernel.sched_domain.cpu43.domain1.forkexec_idx'
p57
I0
sS'CONFIG_INLINE_WRITE_UNLOCK'
p58
S'y'
sS'kernel.sched_domain.cpu51.domain1.imbalance_pct'
p59
I125
sS'CONFIG_ACPI_REV_OVERRIDE_POSSIBLE'
p60
S'y'
sS'CONFIG_HAVE_ARCH_AUDITSYSCALL'
p61
S'y'
sS'kernel.sched_domain.cpu39.domain1.max_newidle_lb_cost'
p62
I17460
sS'kernel.sched_domain.cpu11.domain0.flags'
p63
I4143
sS'CONFIG_NET_VENDOR_RENESAS'
p64
S'y'
sS'CONFIG_FIRMWARE_EDID'
p65
S'y'
sS'CONFIG_CGROUPS'
p66
S'y'
sS'kernel.sched_domain.cpu45.domain0.busy_factor'
p67
I32
sS'net.ipv4.tcp_autocorking'
p68
I1
sS'net.ipv4.conf.lo.medium_id'
p69
I0
sS'CONFIG_DEFAULT_MMAP_MIN_ADDR'
p70
I65536
sS'kernel.sched_domain.cpu30.domain0.busy_factor'
p71
I32
sS'CONFIG_X86_DEBUGCTLMSR'
p72
S'y'
sS'CONFIG_ARCH_HIBERNATION_HEADER'
p73
S'y'
sS'net.ipv4.tcp_synack_retries'
p74
I5
sS'net.ipv6.conf.ens3.accept_ra_rt_info_max_plen'
p75
I0
sS'CONFIG_SECURITY_YAMA'
p76
S'y'
sS'kernel.sched_domain.cpu18.domain0.idle_idx'
p77
I1
sS'CONFIG_CRYPTO_ECB'
p78
S'y'
sS'CONFIG_ACPI_HOTPLUG_MEMORY'
p79
S'y'
sS'kernel.sched_domain.cpu39.domain0.name'
p80
S'DIE'
p81
sS'CONFIG_SELECT_MEMORY_MODEL'
p82
S'y'
sS'kernel.sched_domain.cpu56.domain1.busy_idx'
p83
I3
sS'net.ipv4.tcp_notsent_lowat'
p84
I4294967295
sS'kernel.sched_domain.cpu17.domain0.name'
p85
S'DIE'
p86
sS'kernel.sched_domain.cpu57.domain0.busy_idx'
p87
I2
sS'kernel.sched_domain.cpu16.domain1.busy_factor'
p88
I32
sS'CONFIG_GENERIC_SMP_IDLE_THREAD'
p89
S'y'
sS'kernel.sched_domain.cpu18.domain0.imbalance_pct'
p90
I125
sS'CONFIG_GENERIC_CLOCKEVENTS_MIN_ADJUST'
p91
S'y'
sS'net.ipv6.conf.all.disable_policy'
p92
I0
sS'kernel.sched_domain.cpu58.domain1.forkexec_idx'
p93
I0
sS'kernel.sched_domain.cpu27.domain1.forkexec_idx'
p94
I0
sS'kernel.sched_domain.cpu33.domain1.flags'
p95
I25647
sS'kernel.sched_domain.cpu43.domain1.min_interval'
p96
I60
sS'kernel.sched_domain.cpu36.domain0.cache_nice_tries'
p97
I1
sS'CONFIG_TASK_XACCT'
p98
S'y'
sS'CONFIG_KEXEC_BZIMAGE_VERIFY_SIG'
p99
S'y'
sS'CONFIG_EVENTFD'
p100
S'y'
sS'CONFIG_FTRACE_MCOUNT_RECORD'
p101
S'y'
sS'CONFIG_HAVE_PERF_EVENTS'
p102
S'y'
sS'kernel.sched_domain.cpu51.domain0.idle_idx'
p103
I1
sS'CONFIG_CHECKPOINT_RESTORE'
p104
S'y'
sS'CONFIG_PACKET'
p105
S'y'
sS'kernel.sched_domain.cpu28.domain0.min_interval'
p106
I10
sS'net.ipv6.conf.ens3.use_oif_addrs_only'
p107
I0
sS'kernel.sched_domain.cpu10.domain0.name'
p108
S'DIE'
p109
sS'kernel.sched_domain.cpu45.domain0.flags'
p110
I4143
sS'net.ipv6.conf.all.router_solicitation_max_interval'
p111
I3600
sS'CONFIG_IMA_LSM_RULES'
p112
S'y'
sS'net.ipv4.neigh.lo.proxy_delay'
p113
I80
sS'CONFIG_PARPORT_PC'
p114
S'm'
sS'kernel.sched_domain.cpu25.domain1.cache_nice_tries'
p115
I2
sS'kernel.sched_domain.cpu39.domain0.busy_idx'
p116
I2
sS'kernel.sched_domain.cpu41.domain0.min_interval'
p117
I10
sS'kernel.sched_domain.cpu30.domain0.imbalance_pct'
p118
I125
sS'CONFIG_ARCH_HAS_GCOV_PROFILE_ALL'
p119
S'y'
sS'net.ipv6.conf.default.addr_gen_mode'
p120
I0
sS'kernel.hung_task_check_count'
p121
I4194304
sS'CONFIG_INFINIBAND_ADDR_TRANS'
p122
S'y'
sS'CONFIG_CRYPTO_SHA512'
p123
S'y'
sS'CONFIG_WLAN_VENDOR_INTERSIL'
p124
S'y'
sS'CONFIG_CRYPTO_NULL'
p125
S'y'
sS'kernel.sched_domain.cpu48.domain1.flags'
p126
I25647
sS'net.ipv6.conf.ens3.force_mld_version'
p127
I0
sS'CONFIG_INTEGRITY_ASYMMETRIC_KEYS'
p128
S'y'
sS'CONFIG_BLK_MQ_RDMA'
p129
S'y'
sS'CONFIG_FRAME_POINTER_UNWINDER'
p130
S'y'
sS'kernel.sched_domain.cpu58.domain0.max_newidle_lb_cost'
p131
I13636
sS'CONFIG_HAVE_IRQ_EXIT_ON_IRQ_STACK'
p132
S'y'
sS'CONFIG_CRYPTO_AES_NI_INTEL'
p133
S'm'
sS'CONFIG_MOUSE_PS2'
p134
S'm'
sS'CONFIG_EFI_PARTITION'
p135
S'y'
sS'kernel.sched_domain.cpu13.domain1.busy_factor'
p136
I32
sS'CONFIG_NODES_SPAN_OTHER_NODES'
p137
S'y'
sS'kernel.sched_domain.cpu46.domain0.wake_idx'
p138
I0
sS'CONFIG_FUNCTION_GRAPH_TRACER'
p139
S'y'
sS'net.ipv6.conf.all.seg6_enabled'
p140
I0
sS'kernel.sched_domain.cpu57.domain1.imbalance_pct'
p141
I125
sS'kernel.sched_domain.cpu2.domain0.busy_idx'
p142
I2
sS'kernel.sched_domain.cpu21.domain0.idle_idx'
p143
I1
sS'kernel.sched_domain.cpu40.domain0.name'
p144
S'DIE'
p145
sS'CONFIG_FHANDLE'
p146
S'y'
sS'CONFIG_HAVE_FUNCTION_GRAPH_TRACER'
p147
S'y'
sS'kernel.sched_domain.cpu41.domain1.wake_idx'
p148
I0
sS'CONFIG_FS_IOMAP'
p149
S'y'
sS'kernel.sched_domain.cpu17.domain0.flags'
p150
I4143
sS'CONFIG_CRYPTO_ACOMP2'
p151
S'y'
sS'CONFIG_HAVE_KERNEL_LZMA'
p152
S'y'
sS'CONFIG_ARCH_HAS_DEBUG_VIRTUAL'
p153
S'y'
sS'kernel.sched_domain.cpu52.domain0.idle_idx'
p154
I1
sS'net.ipv6.neigh.default.unres_qlen_bytes'
p155
I212992
sS'kernel.sem_next_id'
p156
S'-1'
p157
sS'kernel.random.write_wakeup_threshold'
p158
I896
sS'net.ipv6.conf.lo.use_oif_addrs_only'
p159
I0
sS'kernel.sched_domain.cpu37.domain0.busy_idx'
p160
I2
sS'net.ipv6.conf.ens3.accept_ra_defrtr'
p161
I1
sS'kernel.sched_domain.cpu11.domain0.max_newidle_lb_cost'
p162
I148685
sS'kernel.sched_domain.cpu3.domain0.max_newidle_lb_cost'
p163
I15504
sS'kernel.sched_domain.cpu52.domain0.flags'
p164
I4143
sS'net.ipv4.neigh.ens3.proxy_delay'
p165
I80
sS'kernel.sched_domain.cpu37.domain1.max_newidle_lb_cost'
p166
I104841
sS'kernel.sched_domain.cpu24.domain0.idle_idx'
p167
I1
sS'CONFIG_ASYMMETRIC_KEY_TYPE'
p168
S'y'
sS'kernel.sched_domain.cpu50.domain1.newidle_idx'
p169
I0
sS'kernel.sched_domain.cpu4.domain0.busy_idx'
p170
I2
sS'CONFIG_DEFAULT_IOSCHED'
p171
S'"deadline"'
p172
sS'kernel.sched_domain.cpu22.domain0.flags'
p173
I4143
sS'CONFIG_FUSION_LOGGING'
p174
S'y'
sS'kernel.sched_domain.cpu17.domain1.idle_idx'
p175
I2
sS'kernel.sched_domain.cpu13.domain1.wake_idx'
p176
I0
sS'CONFIG_NET_PACKET_ENGINE'
p177
S'y'
sS'CONFIG_DQL'
p178
S'y'
sS'kernel.sched_domain.cpu22.domain0.min_interval'
p179
I10
sS'net.ipv6.conf.lo.force_tllao'
p180
I0
sS'kernel.sched_domain.cpu7.domain1.busy_idx'
p181
I3
sS'CONFIG_IP_ADVANCED_ROUTER'
p182
S'y'
sS'CONFIG_SERIAL_SCCNXP_CONSOLE'
p183
S'y'
sS'kernel.modprobe'
p184
S'/sbin/modprobe'
p185
sS'CONFIG_NOP_USB_XCEIV'
p186
S'y'
sS'kernel.sched_domain.cpu16.domain1.max_interval'
p187
I120
sS'kernel.sched_domain.cpu53.domain0.min_interval'
p188
I10
sS'kernel.sched_domain.cpu40.domain0.max_interval'
p189
I20
sS'kernel.print-fatal-signals'
p190
I0
sS'CONFIG_INET'
p191
S'y'
sS'net.ipv4.tcp_probe_interval'
p192
I600
sS'kernel.sched_domain.cpu10.domain0.max_newidle_lb_cost'
p193
I18320
sS'CONFIG_EXTRA_FIRMWARE'
p194
S'""'
p195
sS'CONFIG_I2C_DESIGNWARE_CORE'
p196
S'y'
sS'net.ipv4.conf.lo.arp_accept'
p197
I0
sS'CONFIG_REGMAP_MMIO'
p198
S'y'
sS'CONFIG_MFD_TPS65090'
p199
S'y'
sS'kernel.sched_domain.cpu3.domain1.flags'
p200
I25647
sS'CONFIG_SND_HDA_POWER_SAVE_DEFAULT'
p201
I0
sS'kernel.sched_domain.cpu19.domain1.wake_idx'
p202
I0
sS'CONFIG_SFI'
p203
S'y'
sS'kernel.sched_domain.cpu0.domain0.cache_nice_tries'
p204
I1
sS'net.ipv6.conf.lo.forwarding'
p205
I0
sS'CONFIG_NET_VENDOR_SOLARFLARE'
p206
S'y'
sS'CONFIG_FIXED_PHY'
p207
S'y'
sS'kernel.sched_domain.cpu35.domain1.forkexec_idx'
p208
I0
sS'net.ipv4.conf.default.shared_media'
p209
I1
sS'CONFIG_NET_VENDOR_TEHUTI'
p210
S'y'
sS'net.ipv6.conf.default.router_solicitations'
p211
S'-1'
p212
sS'CONFIG_MFD_DA9063'
p213
S'y'
sS'CONFIG_CRYPTO'
p214
S'y'
sS'CONFIG_WLAN_VENDOR_ZYDAS'
p215
S'y'
sS'CONFIG_STRICT_KERNEL_RWX'
p216
S'y'
sS'net.ipv6.mld_qrv'
p217
I2
sS'CONFIG_SND_HDA_PATCH_LOADER'
p218
S'y'
sS'net.ipv4.conf.all.disable_policy'
p219
I0
sS'kernel.sched_domain.cpu3.domain1.cache_nice_tries'
p220
I2
sS'kernel.sched_domain.cpu40.domain0.imbalance_pct'
p221
I125
sS'CONFIG_PPP_FILTER'
p222
S'y'
sS'CONFIG_CPU_FREQ'
p223
S'y'
sS'net.core.netdev_tstamp_prequeue'
p224
I1
sS'kernel.sched_domain.cpu37.domain1.name'
p225
S'NUMA'
p226
sS'kernel.sched_domain.cpu18.domain0.forkexec_idx'
p227
I0
sS'net.ipv6.conf.all.accept_dad'
p228
I1
sS'CONFIG_MAC_EMUMOUSEBTN'
p229
S'm'
sS'kernel.sched_domain.cpu15.domain1.busy_idx'
p230
I3
sS'CONFIG_DCB'
p231
S'y'
sS'kernel.sched_domain.cpu4.domain1.max_newidle_lb_cost'
p232
I29452
sS'kernel.panic_on_oops'
p233
I0
sS'kernel.sched_domain.cpu10.domain0.imbalance_pct'
p234
I125
sS'kernel.sched_domain.cpu21.domain0.max_interval'
p235
I20
sS'CONFIG_MEMORY_HOTPLUG'
p236
S'y'
sS'dev.cdrom.debug'
p237
I0
sS'CONFIG_CRYPTO_GHASH_CLMUL_NI_INTEL'
p238
S'm'
sS'CONFIG_SUSPEND'
p239
S'y'
sS'kernel.sched_domain.cpu15.domain0.forkexec_idx'
p240
I0
sS'kernel.sched_domain.cpu18.domain1.wake_idx'
p241
I0
sS'kernel.sched_domain.cpu29.domain0.busy_idx'
p242
I2
sS'CONFIG_UNIX98_PTYS'
p243
S'y'
sS'CONFIG_MOUSE_PS2_SYNAPTICS'
p244
S'y'
sS'kernel.sched_domain.cpu23.domain0.wake_idx'
p245
I0
sS'CONFIG_SECURITY_SELINUX'
p246
S'y'
sS'kernel.sched_domain.cpu22.domain1.flags'
p247
I25647
sS'kernel.sched_domain.cpu58.domain1.cache_nice_tries'
p248
I2
sS'kernel.sched_domain.cpu30.domain1.busy_factor'
p249
I32
sS'CONFIG_SCSI_LOWLEVEL'
p250
S'y'
sS'net.ipv6.conf.all.dad_transmits'
p251
I1
sS'CONFIG_GENERIC_MSI_IRQ'
p252
S'y'
sS'kernel.ngroups_max'
p253
I65536
sS'kernel.sched_domain.cpu40.domain1.newidle_idx'
p254
I0
sS'kernel.sched_domain.cpu37.domain0.newidle_idx'
p255
I0
sS'CONFIG_EXTCON'
p256
S'y'
sS'CONFIG_PM_DEVFREQ_EVENT'
p257
S'y'
sS'CONFIG_POWER_RESET_RESTART'
p258
S'y'
sS'kernel.sched_domain.cpu28.domain1.name'
p259
S'NUMA'
p260
sS'kernel.max_lock_depth'
p261
I1024
sS'kernel.sched_domain.cpu40.domain1.min_interval'
p262
I60
sS'CONFIG_NEED_MULTIPLE_NODES'
p263
S'y'
sS'kernel.sched_domain.cpu33.domain0.cache_nice_tries'
p264
I1
sS'kernel.sched_domain.cpu5.domain1.flags'
p265
I25647
sS'CONFIG_ZPOOL'
p266
S'y'
sS'CONFIG_PATA_SIS'
p267
S'y'
sS'CONFIG_GENERIC_ALLOCATOR'
p268
S'y'
sS'kernel.sched_domain.cpu18.domain1.forkexec_idx'
p269
I0
sS'kernel.sched_domain.cpu0.domain1.max_interval'
p270
I120
sS'kernel.sched_domain.cpu36.domain0.max_interval'
p271
I20
sS'CONFIG_MESSAGE_LOGLEVEL_DEFAULT'
p272
I4
sS'kernel.sched_domain.cpu38.domain0.flags'
p273
I4143
sS'CONFIG_ARCH_HAS_UACCESS_FLUSHCACHE'
p274
S'y'
sS'CONFIG_SYN_COOKIES'
p275
S'y'
sS'net.ipv6.conf.default.max_addresses'
p276
I16
sS'net.ipv4.inet_peer_maxttl'
p277
I600
sS'CONFIG_CGROUP_WRITEBACK'
p278
S'y'
sS'CONFIG_X86_ACPI_CPUFREQ'
p279
S'y'
sS'CONFIG_DUMMY_CONSOLE'
p280
S'y'
sS'kernel.sched_domain.cpu7.domain1.max_newidle_lb_cost'
p281
I38122
sS'kernel.sched_domain.cpu58.domain0.max_interval'
p282
I20
sS'kernel.sched_domain.cpu23.domain0.name'
p283
S'DIE'
p284
sS'CONFIG_RWSEM_SPIN_ON_OWNER'
p285
S'y'
sS'CONFIG_SECURITY_APPARMOR_BOOTPARAM_VALUE'
p286
I1
sS'vm.dirtytime_expire_seconds'
p287
I43200
sS'net.ipv4.tcp_challenge_ack_limit'
p288
I1000
sS'CONFIG_HOTPLUG_PCI_ACPI'
p289
S'y'
sS'CONFIG_RANDOMIZE_MEMORY_PHYSICAL_PADDING'
p290
S'0xa'
p291
sS'CONFIG_INFINIBAND_ISER'
p292
S'm'
sS'kernel.sched_domain.cpu35.domain1.cache_nice_tries'
p293
I2
sS'vm.min_slab_ratio'
p294
I5
sS'kernel.sched_domain.cpu40.domain0.min_interval'
p295
I10
sS'CONFIG_CLZ_TAB'
p296
S'y'
sS'kernel.sched_domain.cpu21.domain1.min_interval'
p297
I60
sS'kernel.sched_domain.cpu40.domain1.busy_idx'
p298
I3
sS'CONFIG_X86_THERMAL_VECTOR'
p299
S'y'
sS'CONFIG_RCU_CPU_STALL_TIMEOUT'
p300
I60
sS'kernel.sched_domain.cpu23.domain1.min_interval'
p301
I60
sS'CONFIG_BOOTPARAM_SOFTLOCKUP_PANIC_VALUE'
p302
I0
sS'CONFIG_PM_WAKELOCKS'
p303
S'y'
sS'CONFIG_GPIOLIB_IRQCHIP'
p304
S'y'
sS'kernel.sched_domain.cpu1.domain0.idle_idx'
p305
I1
sS'CONFIG_MTRR_SANITIZER_ENABLE_DEFAULT'
p306
I1
sS'CONFIG_BLK_DEV_INTEGRITY'
p307
S'y'
sS'CONFIG_DEVTMPFS_MOUNT'
p308
S'y'
sS'kernel.sched_domain.cpu11.domain0.busy_idx'
p309
I2
sS'CONFIG_ARCH_HAS_HMM'
p310
S'y'
sS'kernel.sched_domain.cpu49.domain1.busy_factor'
p311
I32
sS'CONFIG_SQUASHFS_FILE_DIRECT'
p312
S'y'
sS'CONFIG_MODULE_SIG_KEY'
p313
S'"certs/signing_key.pem"'
p314
sS'CONFIG_NETWORK_FILESYSTEMS'
p315
S'y'
sS'CONFIG_SERIAL_8250_RSA'
p316
S'y'
sS'kernel.sched_domain.cpu47.domain1.busy_factor'
p317
I32
sS'CONFIG_SCHED_STACK_END_CHECK'
p318
S'y'
sS'CONFIG_LEGACY_VSYSCALL_EMULATE'
p319
S'y'
sS'CONFIG_POWERCAP'
p320
S'y'
sS'CONFIG_UNUSED_SYMBOLS'
p321
S'y'
sS'kernel.sched_domain.cpu43.domain1.busy_idx'
p322
I3
sS'CONFIG_FB_TILEBLITTING'
p323
S'y'
sS'kernel.sched_domain.cpu15.domain1.max_newidle_lb_cost'
p324
I28860
sS'CONFIG_INTEGRITY'
p325
S'y'
sS'kernel.sched_domain.cpu6.domain1.cache_nice_tries'
p326
I2
sS'kernel.sched_domain.cpu47.domain1.max_newidle_lb_cost'
p327
I77415
sS'kernel.sched_domain.cpu46.domain0.cache_nice_tries'
p328
I1
sS'kernel.sched_domain.cpu41.domain0.imbalance_pct'
p329
I125
sS'kernel.sched_domain.cpu24.domain0.name'
p330
S'DIE'
p331
sS'kernel.sched_domain.cpu38.domain0.max_interval'
p332
I20
sS'kernel.sched_domain.cpu2.domain0.imbalance_pct'
p333
I125
sS'fs.mqueue.msg_default'
p334
I10
sS'CONFIG_MD_LINEAR'
p335
S'm'
sS'kernel.sched_domain.cpu58.domain0.forkexec_idx'
p336
I0
sS'kernel.sched_domain.cpu52.domain1.wake_idx'
p337
I0
sS'kernel.sched_domain.cpu48.domain0.newidle_idx'
p338
I0
sS'net.ipv4.tcp_max_orphans'
p339
I262144
sS'kernel.sched_domain.cpu6.domain1.flags'
p340
I25647
sS'kernel.sched_domain.cpu15.domain1.cache_nice_tries'
p341
I2
sS'CONFIG_MFD_MAX77843'
p342
S'y'
sS'CONFIG_CONSOLE_TRANSLATIONS'
p343
S'y'
sS'CONFIG_SLABINFO'
p344
S'y'
sS'kernel.perf_event_max_stack'
p345
I127
sS'CONFIG_PCI'
p346
S'y'
sS'CONFIG_GENERIC_MSI_IRQ_DOMAIN'
p347
S'y'
sS'kernel.sched_domain.cpu4.domain0.name'
p348
S'DIE'
p349
sS'kernel.sched_domain.cpu33.domain0.busy_idx'
p350
I2
sS'CONFIG_SYSTEM_BLACKLIST_KEYRING'
p351
S'y'
sS'kernel.sched_domain.cpu58.domain1.newidle_idx'
p352
I0
sS'CONFIG_GENERIC_IRQ_SHOW'
p353
S'y'
sS'CONFIG_IP_ROUTE_MULTIPATH'
p354
S'y'
sS'CONFIG_SCHED_SMT'
p355
S'y'
sS'kernel.sched_domain.cpu29.domain0.max_interval'
p356
I20
sS'CONFIG_BCMA_POSSIBLE'
p357
S'y'
sS'net.ipv4.tcp_adv_win_scale'
p358
I1
sS'CONFIG_INTEL_IDLE'
p359
S'y'
sS'CONFIG_ASYNC_CORE'
p360
S'm'
sS'net.ipv4.udp_rmem_min'
p361
I4096
sS'kernel.sched_domain.cpu48.domain1.cache_nice_tries'
p362
I2
sS'CONFIG_FIRMWARE_IN_KERNEL'
p363
S'y'
sS'CONFIG_IP6_NF_FILTER'
p364
S'm'
sS'CONFIG_SCHED_INFO'
p365
S'y'
sS'CONFIG_GPIO_TPS65910'
p366
S'y'
sS'kernel.sched_domain.cpu39.domain0.imbalance_pct'
p367
I125
sS'CONFIG_CRC_CCITT'
p368
S'y'
sS'CONFIG_PERSISTENT_KEYRINGS'
p369
S'y'
sS'CONFIG_THERMAL_GOV_STEP_WISE'
p370
S'y'
sS'CONFIG_MOUSE_PS2_LIFEBOOK'
p371
S'y'
sS'CONFIG_ARCH_WANT_COMPAT_IPC_PARSE_VERSION'
p372
S'y'
sS'kernel.sched_domain.cpu55.domain0.flags'
p373
I4143
sS'kernel.sched_domain.cpu11.domain1.imbalance_pct'
p374
I125
sS'kernel.sched_domain.cpu0.domain1.busy_factor'
p375
I32
sS'kernel.sched_domain.cpu7.domain1.min_interval'
p376
I60
sS'kernel.sched_domain.cpu37.domain1.cache_nice_tries'
p377
I2
sS'kernel.sched_domain.cpu35.domain0.max_interval'
p378
I20
sS'CONFIG_ASYNC_RAID6_RECOV'
p379
S'm'
sS'net.ipv6.conf.default.ignore_routes_with_linkdown'
p380
I0
sS'kernel.sched_domain.cpu57.domain1.max_interval'
p381
I120
sS'kernel.sched_domain.cpu8.domain1.imbalance_pct'
p382
I125
sS'CONFIG_BLK_DEV_SR'
p383
S'y'
sS'kernel.sched_domain.cpu10.domain1.imbalance_pct'
p384
I125
sS'net.ipv6.conf.lo.accept_ra_from_local'
p385
I0
sS'CONFIG_EXPORTFS'
p386
S'y'
sS'CONFIG_CRYPTO_CRC32_PCLMUL'
p387
S'm'
sS'CONFIG_INPUT'
p388
S'y'
sS'CONFIG_THERMAL_DEFAULT_GOV_STEP_WISE'
p389
S'y'
sS'fs.suid_dumpable'
p390
I2
sS'kernel.sched_domain.cpu51.domain1.busy_idx'
p391
I3
sS'kernel.sched_domain.cpu16.domain1.wake_idx'
p392
I0
sS'kernel.sched_domain.cpu33.domain1.name'
p393
S'NUMA'
p394
sS'CONFIG_SERIAL_8250_DMA'
p395
S'y'
sS'kernel.sched_domain.cpu8.domain0.busy_factor'
p396
I32
sS'CONFIG_SCHED_AUTOGROUP'
p397
S'y'
sS'kernel.sched_domain.cpu20.domain1.max_newidle_lb_cost'
p398
I16903
sS'net.core.optmem_max'
p399
I20480
sS'kernel.sched_domain.cpu54.domain1.cache_nice_tries'
p400
I2
sS'user.max_inotify_watches'
p401
I8192
sS'vm.nr_overcommit_hugepages'
p402
I0
sS'net.ipv6.conf.default.accept_ra_defrtr'
p403
I1
sS'net.ipv6.conf.default.accept_ra_rt_info_min_plen'
p404
I0
sS'kernel.sched_domain.cpu59.domain0.idle_idx'
p405
I1
sS'kernel.sched_domain.cpu7.domain0.flags'
p406
I4143
sS'kernel.sched_domain.cpu45.domain1.imbalance_pct'
p407
I125
sS'kernel.sched_domain.cpu40.domain1.forkexec_idx'
p408
I0
sS'kernel.sched_domain.cpu29.domain1.max_newidle_lb_cost'
p409
I137229
sS'CONFIG_NET_EMATCH'
p410
S'y'
sS'kernel.sched_domain.cpu16.domain1.cache_nice_tries'
p411
I2
sS'CONFIG_CPU_SUP_CENTAUR'
p412
S'y'
sS'kernel.sched_domain.cpu3.domain0.cache_nice_tries'
p413
I1
sS'kernel.sched_domain.cpu58.domain1.name'
p414
S'NUMA'
p415
sS'kernel.sched_domain.cpu20.domain1.imbalance_pct'
p416
I125
sS'net.core.message_burst'
p417
I10
sS'CONFIG_SERIAL_NONSTANDARD'
p418
S'y'
sS'kernel.sched_domain.cpu14.domain0.idle_idx'
p419
I1
sS'user.max_uts_namespaces'
p420
I257592
sS'net.ipv4.neigh.default.gc_stale_time'
p421
I60
sS'kernel.sched_domain.cpu39.domain1.flags'
p422
I25647
sS'CONFIG_VIRT_DRIVERS'
p423
S'y'
sS'net.ipv6.bindv6only'
p424
I0
sS'kernel.sched_domain.cpu23.domain0.idle_idx'
p425
I1
sS'kernel.sched_domain.cpu31.domain0.cache_nice_tries'
p426
I1
sS'net.ipv6.conf.ens3.accept_ra_rtr_pref'
p427
I1
sS'CONFIG_SUN_PARTITION'
p428
S'y'
sS'CONFIG_PANIC_ON_OOPS_VALUE'
p429
I0
sS'kernel.sched_domain.cpu35.domain1.newidle_idx'
p430
I0
sS'kernel.sched_domain.cpu32.domain0.busy_factor'
p431
I32
sS'kernel.sched_domain.cpu30.domain0.busy_idx'
p432
I2
sS'net.ipv4.conf.all.drop_gratuitous_arp'
p433
I0
sS'kernel.sched_domain.cpu34.domain1.max_newidle_lb_cost'
p434
I33441
sS'CONFIG_PINCTRL'
p435
S'y'
sS'CONFIG_THERMAL_GOV_FAIR_SHARE'
p436
S'y'
sS'CONFIG_NET_TULIP'
p437
S'y'
sS'kernel.sched_domain.cpu21.domain1.newidle_idx'
p438
I0
sS'kernel.sched_domain.cpu5.domain1.forkexec_idx'
p439
I0
sS'CONFIG_MOUSE_PS2_LOGIPS2PP'
p440
S'y'
sS'kernel.sched_domain.cpu36.domain0.min_interval'
p441
I10
sS'net.ipv6.route.gc_min_interval_ms'
p442
I500
sS'CONFIG_IRQ_FORCED_THREADING'
p443
S'y'
sS'CONFIG_MTRR_SANITIZER_SPARE_REG_NR_DEFAULT'
p444
I1
sS'CONFIG_BLK_MQ_PCI'
p445
S'y'
sS'CONFIG_DEBUG_BUGVERBOSE'
p446
S'y'
sS'kernel.sched_domain.cpu38.domain1.idle_idx'
p447
I2
sS'CONFIG_LSM_MMAP_MIN_ADDR'
p448
I0
sS'kernel.sched_domain.cpu36.domain1.wake_idx'
p449
I0
sS'CONFIG_KVM_INTEL'
p450
S'm'
sS'net.ipv6.neigh.ens3.proxy_qlen'
p451
I64
sS'net.ipv6.conf.lo.ndisc_notify'
p452
I0
sS'kernel.sched_domain.cpu25.domain1.forkexec_idx'
p453
I0
sS'kernel.sched_domain.cpu31.domain1.imbalance_pct'
p454
I125
sS'kernel.sched_domain.cpu33.domain0.min_interval'
p455
I10
sS'kernel.sched_domain.cpu8.domain1.busy_idx'
p456
I3
sS'kernel.sched_domain.cpu32.domain1.max_interval'
p457
I120
sS'CONFIG_SND_DYNAMIC_MINORS'
p458
S'y'
sS'CONFIG_MD_RAID1'
p459
S'm'
sS'CONFIG_VIRTIO_CONSOLE'
p460
S'y'
sS'CONFIG_HAVE_SETUP_PER_CPU_AREA'
p461
S'y'
sS'kernel.sched_domain.cpu49.domain0.name'
p462
S'DIE'
p463
sS'CONFIG_RTC_SYSTOHC'
p464
S'y'
sS'kernel.sched_domain.cpu12.domain0.max_interval'
p465
I20
sS'vm.laptop_mode'
p466
I0
sS'CONFIG_SIGNED_PE_FILE_VERIFICATION'
p467
S'y'
sS'CONFIG_NET_VENDOR_CAVIUM'
p468
S'y'
sS'CONFIG_IMA_NG_TEMPLATE'
p469
S'y'
sS'CONFIG_X86_FEATURE_NAMES'
p470
S'y'
sS'net.ipv6.ip6frag_low_thresh'
p471
I3145728
sS'CONFIG_KEXEC'
p472
S'y'
sS'CONFIG_CRYPTO_DEV_PADLOCK'
p473
S'y'
sS'kernel.sched_domain.cpu45.domain0.max_interval'
p474
I20
sS'kernel.sched_domain.cpu2.domain0.wake_idx'
p475
I0
sS'kernel.sched_domain.cpu47.domain1.idle_idx'
p476
I2
sS'net.ipv4.conf.all.secure_redirects'
p477
I1
sS'kernel.sched_domain.cpu5.domain0.cache_nice_tries'
p478
I1
sS'CONFIG_HAVE_REGS_AND_STACK_ACCESS_API'
p479
S'y'
sS'kernel.sched_domain.cpu21.domain0.wake_idx'
p480
I0
sS'CONFIG_ZLIB_INFLATE'
p481
S'y'
sS'kernel.sched_domain.cpu22.domain1.max_interval'
p482
I120
sS'CONFIG_DEVFREQ_GOV_SIMPLE_ONDEMAND'
p483
S'y'
sS'net.ipv4.conf.lo.igmpv2_unsolicited_report_interval'
p484
I10000
sS'kernel.sched_domain.cpu4.domain0.idle_idx'
p485
I1
sS'kernel.sched_domain.cpu29.domain0.wake_idx'
p486
I0
sS'CONFIG_INPUT_JOYDEV'
p487
S'm'
sS'net.ipv6.conf.ens3.accept_ra_mtu'
p488
I1
sS'kernel.sched_domain.cpu37.domain1.busy_idx'
p489
I3
sS'CONFIG_INPUT_MISC'
p490
S'y'
sS'kernel.sched_domain.cpu37.domain0.cache_nice_tries'
p491
I1
sS'net.ipv4.conf.all.force_igmp_version'
p492
I0
sS'CONFIG_RFS_ACCEL'
p493
S'y'
sS'CONFIG_UTS_NS'
p494
S'y'
sS'kernel.sched_domain.cpu21.domain0.name'
p495
S'DIE'
p496
sS'kernel.sched_domain.cpu11.domain1.name'
p497
S'NUMA'
p498
sS'CONFIG_X86_LOCAL_APIC'
p499
S'y'
sS'CONFIG_MFD_MAX14577'
p500
S'y'
sS'kernel.sched_domain.cpu41.domain0.max_interval'
p501
I20
sS'CONFIG_CPU_FREQ_GOV_PERFORMANCE'
p502
S'y'
sS'net.ipv6.neigh.lo.mcast_resolicit'
p503
I0
sS'CONFIG_PREEMPT_NOTIFIERS'
p504
S'y'
sS'CONFIG_IO_DELAY_0XED'
p505
S'y'
sS'kernel.sched_domain.cpu31.domain0.busy_factor'
p506
I32
sS'CONFIG_AGP_AMD64'
p507
S'y'
sS'kernel.sched_domain.cpu19.domain0.flags'
p508
I4143
sS'kernel.sched_domain.cpu49.domain0.cache_nice_tries'
p509
I1
sS'kernel.sched_domain.cpu28.domain1.idle_idx'
p510
I2
sS'kernel.overflowgid'
p511
I65534
sS'CONFIG_CRYPTO_RNG_DEFAULT'
p512
S'y'
sS'kernel.sched_domain.cpu18.domain1.newidle_idx'
p513
I0
sS'CONFIG_X86_MCE'
p514
S'y'
sS'CONFIG_KALLSYMS_BASE_RELATIVE'
p515
S'y'
sS'kernel.sched_domain.cpu56.domain1.busy_factor'
p516
I32
sS'CONFIG_ASYMMETRIC_PUBLIC_KEY_SUBTYPE'
p517
S'y'
sS'kernel.sched_domain.cpu15.domain1.name'
p518
S'NUMA'
p519
sS'CONFIG_HAVE_FENTRY'
p520
S'y'
sS'kernel.sched_domain.cpu50.domain0.flags'
p521
I4143
sS'kernel.sched_domain.cpu49.domain1.idle_idx'
p522
I2
sS'CONFIG_ELF_CORE'
p523
S'y'
sS'net.ipv6.conf.lo.router_solicitations'
p524
S'-1'
p525
sS'kernel.ftrace_dump_on_oops'
p526
I0
sS'net.ipv4.conf.default.arp_filter'
p527
I0
sS'kernel.sched_domain.cpu14.domain1.busy_idx'
p528
I3
sS'kernel.sched_autogroup_enabled'
p529
I1
sS'net.ipv6.neigh.default.unres_qlen'
p530
I101
sS'kernel.sched_domain.cpu14.domain0.cache_nice_tries'
p531
I1
sS'kernel.sched_domain.cpu53.domain0.cache_nice_tries'
p532
I1
sS'net.ipv6.neigh.lo.anycast_delay'
p533
I100
sS'CONFIG_USB_DYNAMIC_MINORS'
p534
S'y'
sS'CONFIG_ARCH_HAS_FORTIFY_SOURCE'
p535
S'y'
sS'kernel.sched_domain.cpu12.domain1.busy_factor'
p536
I32
sS'kernel.sched_domain.cpu50.domain0.cache_nice_tries'
p537
I1
sS'kernel.sched_domain.cpu51.domain1.name'
p538
S'NUMA'
p539
sS'net.ipv4.icmp_ratemask'
p540
I6168
sS'net.ipv6.conf.ens3.accept_dad'
p541
I1
sS'CONFIG_SERIAL_8250_EXAR'
p542
S'y'
sS'kernel.hung_task_warnings'
p543
I10
sS'CONFIG_PARPORT_1284'
p544
S'y'
sS'CONFIG_SYSTEM_BLACKLIST_HASH_LIST'
p545
S'""'
p546
sS'CONFIG_ARCH_MMAP_RND_BITS_MIN'
p547
I28
sS'CONFIG_EXPERT'
p548
S'y'
sS'net.ipv4.tcp_abort_on_overflow'
p549
I0
sS'CONFIG_WLAN_VENDOR_ATMEL'
p550
S'y'
sS'kernel.sched_domain.cpu55.domain1.forkexec_idx'
p551
I0
sS'CONFIG_HAVE_MIXED_BREAKPOINTS_REGS'
p552
S'y'
sS'kernel.sched_domain.cpu29.domain1.busy_idx'
p553
I3
sS'kernel.sched_domain.cpu48.domain0.wake_idx'
p554
I0
sS'CONFIG_NEED_PER_CPU_EMBED_FIRST_CHUNK'
p555
S'y'
sS'kernel.sched_domain.cpu28.domain0.cache_nice_tries'
p556
I1
sS'net.ipv4.conf.lo.bootp_relay'
p557
I0
sS'kernel.sched_domain.cpu59.domain1.flags'
p558
I25647
sS'CONFIG_ZLIB_DEFLATE'
p559
S'y'
sS'kernel.sched_domain.cpu28.domain0.name'
p560
S'DIE'
p561
sS'kernel.sched_domain.cpu18.domain0.busy_idx'
p562
I2
sS'CONFIG_SCSI_PROC_FS'
p563
S'y'
sS'kernel.sched_domain.cpu58.domain0.min_interval'
p564
I10
sS'CONFIG_MFD_LP8788'
p565
S'y'
sS'CONFIG_CGROUP_HUGETLB'
p566
S'y'
sS'net.ipv6.conf.ens3.accept_ra_rt_info_min_plen'
p567
I0
sS'CONFIG_FDDI'
p568
S'y'
sS'kernel.sched_domain.cpu32.domain0.wake_idx'
p569
I0
sS'kernel.sched_domain.cpu38.domain0.max_newidle_lb_cost'
p570
I12477
sS'CONFIG_MMC'
p571
S'y'
sS'kernel.sched_domain.cpu20.domain0.min_interval'
p572
I10
sS'net.ipv4.tcp_keepalive_time'
p573
I7200
sS'vm.nr_hugepages_mempolicy'
p574
I0
sS'net.ipv4.conf.all.ignore_routes_with_linkdown'
p575
I0
sS'kernel.sched_domain.cpu29.domain0.min_interval'
p576
I10
sS'kernel.sched_domain.cpu30.domain0.newidle_idx'
p577
I0
sS'CONFIG_XOR_BLOCKS'
p578
S'm'
sS'CONFIG_SND_HDA_CORE'
p579
S'm'
sS'kernel.sched_domain.cpu1.domain0.name'
p580
S'DIE'
p581
sS'kernel.sched_domain.cpu38.domain1.name'
p582
S'NUMA'
p583
sS'CONFIG_MAILBOX'
p584
S'y'
sS'kernel.sched_domain.cpu5.domain1.min_interval'
p585
I60
sS'kernel.sched_domain.cpu26.domain0.min_interval'
p586
I10
sS'kernel.sched_domain.cpu5.domain0.wake_idx'
p587
I0
sS'kernel.sched_domain.cpu10.domain0.idle_idx'
p588
I1
sS'kernel.sched_domain.cpu23.domain0.min_interval'
p589
I10
sS'kernel.sched_domain.cpu35.domain1.idle_idx'
p590
I2
sS'net.ipv6.conf.default.proxy_ndp'
p591
I0
sS'kernel.sched_domain.cpu44.domain0.forkexec_idx'
p592
I0
sS'kernel.sched_domain.cpu56.domain0.name'
p593
S'DIE'
p594
sS'net.ipv4.ip_unprivileged_port_start'
p595
I1024
sS'net.ipv6.neigh.lo.app_solicit'
p596
I0
sS'kernel.sched_domain.cpu43.domain0.imbalance_pct'
p597
I125
sS'CONFIG_PCI_BUS_ADDR_T_64BIT'
p598
S'y'
sS'CONFIG_VM_EVENT_COUNTERS'
p599
S'y'
sS'kernel.sched_domain.cpu25.domain0.cache_nice_tries'
p600
I1
sS'kernel.sched_domain.cpu27.domain1.min_interval'
p601
I60
sS'kernel.sched_domain.cpu59.domain0.wake_idx'
p602
I0
sS'CONFIG_VGA_SWITCHEROO'
p603
S'y'
sS'CONFIG_XZ_DEC_IA64'
p604
S'y'
sS'kernel.sched_domain.cpu18.domain1.min_interval'
p605
I60
sS'CONFIG_CRYPTO_CRCT10DIF_PCLMUL'
p606
S'm'
sS'CONFIG_ARCH_USE_QUEUED_SPINLOCKS'
p607
S'y'
sS'kernel.sched_domain.cpu3.domain1.wake_idx'
p608
I0
sS'kernel.sched_domain.cpu39.domain1.forkexec_idx'
p609
I0
sS'kernel.sched_domain.cpu42.domain1.wake_idx'
p610
I0
sS'CONFIG_NET_EMATCH_STACK'
p611
I32
sS'kernel.sched_domain.cpu35.domain0.newidle_idx'
p612
I0
sS'kernel.sched_domain.cpu1.domain1.min_interval'
p613
I60
sS'kernel.panic_on_warn'
p614
I0
sS'net.ipv6.conf.lo.enhanced_dad'
p615
I1
sS'CONFIG_GPIOLIB'
p616
S'y'
sS'kernel.sched_domain.cpu31.domain1.cache_nice_tries'
p617
I2
sS'kernel.sched_domain.cpu38.domain0.cache_nice_tries'
p618
I1
sS'kernel.sched_domain.cpu16.domain0.name'
p619
S'DIE'
p620
sS'CONFIG_GPIO_PALMAS'
p621
S'y'
sS'kernel.sched_domain.cpu42.domain0.flags'
p622
I4143
sS'CONFIG_UEVENT_HELPER'
p623
S'y'
sS'CONFIG_HOTPLUG_PCI_CPCI'
p624
S'y'
sS'kernel.sched_domain.cpu20.domain0.newidle_idx'
p625
I0
sS'vm.panic_on_oom'
p626
I0
sS'CONFIG_NET_VENDOR_AMD'
p627
S'y'
sS'kernel.sched_domain.cpu16.domain1.newidle_idx'
p628
I0
sS'CONFIG_COREDUMP'
p629
S'y'
sS'net.ipv4.neigh.ens3.app_solicit'
p630
I0
sS'CONFIG_HAVE_KVM_IRQ_BYPASS'
p631
S'y'
sS'CONFIG_CRASH_CORE'
p632
S'y'
sS'kernel.sched_domain.cpu29.domain1.idle_idx'
p633
I2
sS'kernel.sched_domain.cpu30.domain1.busy_idx'
p634
I3
sS'fs.inotify.max_user_instances'
p635
I1024
sS'CONFIG_SYSCTL'
p636
S'y'
sS'CONFIG_MD_RAID0'
p637
S'm'
sS'net.ipv4.icmp_ignore_bogus_error_responses'
p638
I1
sS'kernel.sched_domain.cpu47.domain1.cache_nice_tries'
p639
I2
sS'kernel.sched_domain.cpu20.domain0.max_interval'
p640
I20
sS'kernel.sched_domain.cpu37.domain1.forkexec_idx'
p641
I0
sS'fs.quota.syncs'
p642
I0
sS'CONFIG_SECURITY_SMACK_NETFILTER'
p643
S'y'
sS'kernel.sched_domain.cpu27.domain1.idle_idx'
p644
I2
sS'kernel.sched_domain.cpu2.domain1.busy_idx'
p645
I3
sS'net.ipv6.neigh.ens3.delay_first_probe_time'
p646
I5
sS'CONFIG_AGP'
p647
S'y'
sS'kernel.stack_tracer_enabled'
p648
I0
sS'kernel.sched_domain.cpu47.domain1.flags'
p649
I25647
sS'kernel.sched_domain.cpu50.domain0.busy_idx'
p650
I2
sS'kernel.sched_domain.cpu0.domain0.flags'
p651
I4143
sS'CONFIG_CRYPTO_DRBG_HMAC'
p652
S'y'
sS'CONFIG_MAC_PARTITION'
p653
S'y'
sS'CONFIG_FS_DAX_PMD'
p654
S'y'
sS'CONFIG_MISC_FILESYSTEMS'
p655
S'y'
sS'kernel.sched_domain.cpu53.domain0.imbalance_pct'
p656
I125
sS'abi.vsyscall32'
p657
I1
sS'net.ipv4.route.error_cost'
p658
I250
sS'kernel.sched_domain.cpu51.domain1.newidle_idx'
p659
I0
sS'CONFIG_CRYPTO_SKEIN'
p660
S'y'
sS'kernel.sched_domain.cpu37.domain1.flags'
p661
I25647
sS'kernel.sched_domain.cpu32.domain1.busy_idx'
p662
I3
sS'CONFIG_GENERIC_PCI_IOMAP'
p663
S'y'
sS'kernel.sched_domain.cpu39.domain1.idle_idx'
p664
I2
sS'CONFIG_DEBUG_KERNEL'
p665
S'y'
sS'net.ipv4.igmp_qrv'
p666
I2
sS'CONFIG_PSTORE'
p667
S'y'
sS'CONFIG_RANDOMIZE_BASE'
p668
S'y'
sS'kernel.sched_domain.cpu51.domain0.name'
p669
S'DIE'
p670
sS'CONFIG_CHELSIO_T3'
p671
S'm'
sS'kernel.sched_domain.cpu23.domain0.flags'
p672
I4143
sS'user.max_mnt_namespaces'
p673
I257592
sS'net.core.wmem_max'
p674
I212992
sS'vm.swappiness'
p675
I60
sS'kernel.sched_domain.cpu9.domain1.forkexec_idx'
p676
I0
sS'kernel.sched_domain.cpu52.domain1.flags'
p677
I25647
sS'kernel.sched_domain.cpu5.domain1.busy_factor'
p678
I32
sS'net.ipv4.conf.ens3.shared_media'
p679
I1
sS'kernel.sched_domain.cpu49.domain1.name'
p680
S'NUMA'
p681
sS'CONFIG_SBITMAP'
p682
S'y'
sS'kernel.sched_domain.cpu49.domain1.max_interval'
p683
I120
sS'kernel.sched_domain.cpu52.domain0.min_interval'
p684
I10
sS'net.ipv4.ipfrag_low_thresh'
p685
I3145728
sS'kernel.sched_domain.cpu15.domain1.flags'
p686
I25647
sS'net.ipv4.route.mtu_expires'
p687
I600
sS'CONFIG_KPROBE_EVENTS'
p688
S'y'
sS'net.ipv6.conf.default.drop_unicast_in_l2_multicast'
p689
I0
sS'CONFIG_USB_EHCI_TT_NEWSCHED'
p690
S'y'
sS'CONFIG_X86_16BIT'
p691
S'y'
sS'kernel.sched_domain.cpu40.domain0.wake_idx'
p692
I0
sS'net.iw_cm.default_backlog'
p693
I256
sS'CONFIG_CRYPTO_CTR'
p694
S'y'
sS'kernel.sched_domain.cpu24.domain1.forkexec_idx'
p695
I0
sS'kernel.sched_domain.cpu55.domain1.min_interval'
p696
I60
sS'kernel.sched_domain.cpu44.domain1.newidle_idx'
p697
I0
sS'CONFIG_NET'
p698
S'y'
sS'CONFIG_TWL4030_CORE'
p699
S'y'
sS'kernel.sched_domain.cpu18.domain1.name'
p700
S'NUMA'
p701
sS'CONFIG_HAS_DMA'
p702
S'y'
sS'kernel.random.uuid'
p703
S'42b38cda-de93-4e6f-9ac4-ecc6b906ba5a'
p704
sS'net.ipv6.conf.ens3.mc_forwarding'
p705
I0
sS'net.ipv4.conf.lo.secure_redirects'
p706
I1
sS'kernel.sched_domain.cpu10.domain0.forkexec_idx'
p707
I0
sS'fs.overflowgid'
p708
I65534
sS'kernel.sched_domain.cpu38.domain0.busy_factor'
p709
I32
sS'net.ipv4.tcp_dsack'
p710
I1
sS'CONFIG_CPU_SUP_INTEL'
p711
S'y'
sS'CONFIG_USER_STACKTRACE_SUPPORT'
p712
S'y'
sS'CONFIG_TRANSPARENT_HUGEPAGE'
p713
S'y'
sS'CONFIG_SGI_PARTITION'
p714
S'y'
sS'kernel.sched_domain.cpu52.domain1.max_newidle_lb_cost'
p715
I59512
sS'kernel.sched_domain.cpu41.domain0.busy_idx'
p716
I2
sS'CONFIG_MQ_IOSCHED_DEADLINE'
p717
S'y'
sS'CONFIG_CRYPTO_HMAC'
p718
S'y'
sS'kernel.sched_domain.cpu12.domain0.imbalance_pct'
p719
I125
sS'CONFIG_VT_CONSOLE'
p720
S'y'
sS'kernel.acpi_video_flags'
p721
I0
sS'CONFIG_WAN'
p722
S'y'
sS'kernel.sched_domain.cpu9.domain1.imbalance_pct'
p723
I125
sS'CONFIG_VGA_ARB_MAX_GPUS'
p724
I16
sS'CONFIG_BUILDTIME_EXTABLE_SORT'
p725
S'y'
sS'kernel.sched_domain.cpu17.domain1.newidle_idx'
p726
I0
sS'CONFIG_KEXEC_JUMP'
p727
S'y'
sS'kernel.sched_domain.cpu33.domain0.newidle_idx'
p728
I0
sS'kernel.sched_domain.cpu7.domain0.imbalance_pct'
p729
I125
sS'kernel.sched_domain.cpu56.domain1.max_interval'
p730
I120
sS'net.ipv4.conf.lo.forwarding'
p731
I0
sS'kernel.sched_domain.cpu17.domain0.forkexec_idx'
p732
I0
sS'kernel.sched_domain.cpu8.domain1.name'
p733
S'NUMA'
p734
sS'kernel.sched_domain.cpu10.domain0.wake_idx'
p735
I0
sS'dev.cdrom.lock'
p736
I1
sS'CONFIG_HAVE_HW_BREAKPOINT'
p737
S'y'
sS'CONFIG_MACINTOSH_DRIVERS'
p738
S'y'
sS'CONFIG_HAVE_DEBUG_KMEMLEAK'
p739
S'y'
sS'CONFIG_ISDN'
p740
S'y'
sS'CONFIG_MFD_CORE'
p741
S'y'
sS'CONFIG_ACPI_FAN'
p742
S'y'
sS'kernel.sched_domain.cpu58.domain0.newidle_idx'
p743
I0
sS'kernel.sched_domain.cpu40.domain1.cache_nice_tries'
p744
I2
sS'net.ipv4.conf.lo.src_valid_mark'
p745
I0
sS'CONFIG_AIX_PARTITION'
p746
S'y'
sS'kernel.sched_domain.cpu16.domain0.cache_nice_tries'
p747
I1
sS'kernel.sched_domain.cpu1.domain0.cache_nice_tries'
p748
I1
sS'CONFIG_MD_RAID456'
p749
S'm'
sS'net.ipv4.conf.ens3.arp_ignore'
p750
I0
sS'CONFIG_TICK_CPU_ACCOUNTING'
p751
S'y'
sS'kernel.sched_domain.cpu39.domain0.wake_idx'
p752
I0
sS'kernel.sched_domain.cpu31.domain1.flags'
p753
I25647
sS'kernel.sched_domain.cpu42.domain1.busy_idx'
p754
I3
sS'fs.inode-nr'
p755
S'86780\t512'
p756
sS'CONFIG_NET_SCH_FIFO'
p757
S'y'
sS'net.core.netdev_rss_key'
p758
S'00:00:00:00:00:00:00:00:00:00:00:00:00:00:00:00:00:00:00:00:00:00:00:00:00:00:00:00:00:00:00:00:00:00:00:00:00:00:00:00:00:00:00:00:00:00:00:00:00:00:00:00'
p759
sS'kernel.sched_domain.cpu49.domain1.newidle_idx'
p760
I0
sS'kernel.sched_domain.cpu18.domain1.max_newidle_lb_cost'
p761
I266959
sS'net.ipv4.conf.default.igmpv2_unsolicited_report_interval'
p762
I10000
sS'CONFIG_X86_64_ACPI_NUMA'
p763
S'y'
sS'CONFIG_SYSFS_SYSCALL'
p764
S'y'
sS'kernel.sched_domain.cpu38.domain1.wake_idx'
p765
I0
sS'kernel.sched_domain.cpu12.domain0.busy_factor'
p766
I32
sS'CONFIG_ARCH_WANT_GENERAL_HUGETLB'
p767
S'y'
sS'CONFIG_XPS'
p768
S'y'
sS'CONFIG_GENERIC_CMOS_UPDATE'
p769
S'y'
sS'net.ipv4.tcp_max_tw_buckets'
p770
I262144
sS'CONFIG_SERIAL_8250_EXTENDED'
p771
S'y'
sS'kernel.sched_domain.cpu0.domain0.max_newidle_lb_cost'
p772
I13257
sS'CONFIG_IPV6_MROUTE'
p773
S'y'
sS'CONFIG_EPOLL'
p774
S'y'
sS'net.ipv4.conf.lo.disable_xfrm'
p775
I1
sS'kernel.sched_domain.cpu20.domain0.cache_nice_tries'
p776
I1
sS'kernel.sched_domain.cpu23.domain0.max_newidle_lb_cost'
p777
I166993
sS'kernel.panic'
p778
I0
sS'CONFIG_FAT_DEFAULT_CODEPAGE'
p779
I437
sS'CONFIG_X86_SUPPORTS_MEMORY_FAILURE'
p780
S'y'
sS'CONFIG_SND_OSSEMUL'
p781
S'y'
sS'CONFIG_MMU'
p782
S'y'
sS'kernel.sched_domain.cpu11.domain0.newidle_idx'
p783
I0
sS'kernel.sched_domain.cpu0.domain1.forkexec_idx'
p784
I0
sS'CONFIG_SCHED_HRTICK'
p785
S'y'
sS'CONFIG_SECURITY_SELINUX_DISABLE'
p786
S'y'
sS'kernel.sched_domain.cpu41.domain1.name'
p787
S'NUMA'
p788
sS'kernel.sched_domain.cpu48.domain0.busy_idx'
p789
I2
sS'kernel.sched_domain.cpu9.domain0.idle_idx'
p790
I1
sS'CONFIG_NET_VENDOR_REALTEK'
p791
S'y'
sS'CONFIG_FAT_DEFAULT_IOCHARSET'
p792
S'"iso8859-1"'
p793
sS'net.ipv6.route.min_adv_mss'
p794
I1220
sS'kernel.sched_domain.cpu40.domain1.busy_factor'
p795
I32
sS'CONFIG_BLK_DEV_SD'
p796
S'y'
sS'kernel.sched_domain.cpu50.domain0.forkexec_idx'
p797
I0
sS'CONFIG_USB_OHCI_HCD'
p798
S'y'
sS'kernel.sched_domain.cpu48.domain0.min_interval'
p799
I10
sS'kernel.sched_domain.cpu56.domain0.cache_nice_tries'
p800
I1
sS'kernel.sched_domain.cpu31.domain0.newidle_idx'
p801
I0
sS'kernel.sched_domain.cpu5.domain1.wake_idx'
p802
I0
sS'CONFIG_USB_UHCI_HCD'
p803
S'y'
sS'CONFIG_BSD_DISKLABEL'
p804
S'y'
sS'kernel.sched_domain.cpu28.domain0.max_interval'
p805
I20
sS'kernel.sched_domain.cpu19.domain0.min_interval'
p806
I10
sS'net.core.flow_limit_cpu_bitmap'
p807
S'0000000,00000000,00000000,00000000'
p808
sS'CONFIG_SECURITY_WRITABLE_HOOKS'
p809
S'y'
sS'kernel.sched_domain.cpu51.domain1.flags'
p810
I25647
sS'CONFIG_NVM'
p811
S'y'
sS'kernel.sched_domain.cpu54.domain1.imbalance_pct'
p812
I125
sS'kernel.sched_domain.cpu33.domain1.max_newidle_lb_cost'
p813
I34081
sS'CONFIG_TRACING_EVENTS_GPIO'
p814
S'y'
sS'kernel.sched_domain.cpu56.domain0.flags'
p815
I4143
sS'kernel.sched_domain.cpu23.domain1.max_interval'
p816
I120
sS'fs.quota.allocated_dquots'
p817
I0
sS'CONFIG_X509_CERTIFICATE_PARSER'
p818
S'y'
sS'kernel.sched_domain.cpu11.domain1.idle_idx'
p819
I2
sS'net.ipv6.neigh.lo.proxy_delay'
p820
I80
sS'kernel.sched_domain.cpu23.domain1.wake_idx'
p821
I0
sS'CONFIG_WLAN_VENDOR_ADMTEK'
p822
S'y'
sS'net.ipv4.conf.lo.send_redirects'
p823
I1
sS'kernel.sched_domain.cpu30.domain0.flags'
p824
I4143
sS'kernel.sched_domain.cpu16.domain0.max_interval'
p825
I20
sS'net.ipv6.conf.all.proxy_ndp'
p826
I0
sS'CONFIG_OPTPROBES'
p827
S'y'
sS'net.ipv4.tcp_pacing_ss_ratio'
p828
I200
sS'kernel.keys.persistent_keyring_expiry'
p829
I259200
sS'CONFIG_MD'
p830
S'y'
sS'kernel.sched_domain.cpu7.domain0.forkexec_idx'
p831
I0
sS'kernel.sched_domain.cpu11.domain1.max_newidle_lb_cost'
p832
I56676
sS'CONFIG_DETECT_HUNG_TASK'
p833
S'y'
sS'CONFIG_DMI'
p834
S'y'
sS'kernel.sched_domain.cpu47.domain1.min_interval'
p835
I60
sS'net.ipv4.conf.lo.arp_notify'
p836
I0
sS'CONFIG_BQL'
p837
S'y'
sS'kernel.softlockup_all_cpu_backtrace'
p838
I0
sS'kernel.sched_domain.cpu57.domain0.newidle_idx'
p839
I0
sS'kernel.sched_domain.cpu17.domain0.min_interval'
p840
I10
sS'kernel.version'
p841
S'#3 SMP Tue Mar 13 14:28:42 EDT 2018'
p842
sS'net.ipv6.neigh.default.gc_interval'
p843
I30
sS'kernel.sched_domain.cpu36.domain1.imbalance_pct'
p844
I125
sS'kernel.sched_domain.cpu38.domain0.idle_idx'
p845
I1
sS'kernel.sched_domain.cpu52.domain1.forkexec_idx'
p846
I0
sS'kernel.sched_domain.cpu0.domain0.busy_idx'
p847
I2
sS'CONFIG_CGROUP_SCHED'
p848
S'y'
sS'CONFIG_HT_IRQ'
p849
S'y'
sS'CONFIG_NET_VENDOR_ATHEROS'
p850
S'y'
sS'net.ipv6.neigh.ens3.unres_qlen_bytes'
p851
I212992
sS'kernel.panic_on_io_nmi'
p852
I0
sS'net.ipv4.tcp_congestion_control'
p853
S'cubic'
p854
sS'CONFIG_HAVE_ARCH_MMAP_RND_COMPAT_BITS'
p855
S'y'
sS'kernel.sched_domain.cpu31.domain1.max_interval'
p856
I120
sS'CONFIG_PANIC_TIMEOUT'
p857
I0
sS'kernel.bootloader_type'
p858
I114
sS'kernel.sched_domain.cpu39.domain1.cache_nice_tries'
p859
I2
sS'kernel.sched_domain.cpu7.domain0.newidle_idx'
p860
I0
sS'CONFIG_SERIAL_CORE'
p861
S'y'
sS'kernel.sched_domain.cpu47.domain0.max_interval'
p862
I20
sS'net.ipv6.idgen_delay'
p863
I1
sS'CONFIG_HAVE_HARDENED_USERCOPY_ALLOCATOR'
p864
S'y'
sS'kernel.sched_domain.cpu37.domain1.min_interval'
p865
I60
sS'kernel.sched_domain.cpu49.domain0.newidle_idx'
p866
I0
sS'net.ipv6.conf.ens3.disable_ipv6'
p867
I0
sS'kernel.sched_domain.cpu48.domain1.min_interval'
p868
I60
sS'net.ipv4.conf.ens3.disable_xfrm'
p869
I0
sS'CONFIG_MEMTEST'
p870
S'y'
sS'CONFIG_MFD_DA9052_SPI'
p871
S'y'
sS'kernel.sched_domain.cpu49.domain1.min_interval'
p872
I60
sS'CONFIG_NET_INGRESS'
p873
S'y'
sS'kernel.sched_domain.cpu19.domain1.name'
p874
S'NUMA'
p875
sS'kernel.sched_domain.cpu28.domain1.max_interval'
p876
I120
sS'kernel.msgmax'
p877
I8192
sS'kernel.sched_domain.cpu55.domain1.wake_idx'
p878
I0
sS'CONFIG_ARCH_ENABLE_HUGEPAGE_MIGRATION'
p879
S'y'
sS'kernel.sched_domain.cpu28.domain1.max_newidle_lb_cost'
p880
I48312
sS'kernel.sched_domain.cpu21.domain0.cache_nice_tries'
p881
I1
sS'CONFIG_XZ_DEC_BCJ'
p882
S'y'
sS'kernel.sched_domain.cpu31.domain1.idle_idx'
p883
I2
sS'CONFIG_CHARGER_MANAGER'
p884
S'y'
sS'net.ipv6.conf.lo.drop_unsolicited_na'
p885
I0
sS'net.ipv4.conf.ens3.medium_id'
p886
I0
sS'kernel.sched_domain.cpu19.domain1.busy_idx'
p887
I3
sS'CONFIG_SYSVIPC'
p888
S'y'
sS'kernel.sched_domain.cpu47.domain1.newidle_idx'
p889
I0
sS'net.ipv6.neigh.ens3.ucast_solicit'
p890
I3
sS'CONFIG_PARPORT_PC_FIFO'
p891
S'y'
sS'CONFIG_WIRELESS'
p892
S'y'
sS'CONFIG_FANOTIFY_ACCESS_PERMISSIONS'
p893
S'y'
sS'kernel.sched_domain.cpu52.domain0.newidle_idx'
p894
I0
sS'kernel.sched_domain.cpu49.domain0.idle_idx'
p895
I1
sS'CONFIG_DAX'
p896
S'y'
sS'CONFIG_RD_XZ'
p897
S'y'
sS'kernel.sched_domain.cpu17.domain0.busy_factor'
p898
I32
sS'kernel.sched_domain.cpu17.domain1.wake_idx'
p899
I0
sS'CONFIG_CONNECTOR'
p900
S'y'
sS'net.ipv4.conf.default.arp_accept'
p901
I0
sS'kernel.sched_domain.cpu44.domain1.wake_idx'
p902
I0
sS'kernel.sched_domain.cpu34.domain1.busy_factor'
p903
I32
sS'net.ipv4.udp_early_demux'
p904
I1
sS'CONFIG_MFD_88PM860X'
p905
S'y'
sS'kernel.sched_domain.cpu6.domain0.min_interval'
p906
I10
sS'kernel.sched_domain.cpu55.domain0.cache_nice_tries'
p907
I1
sS'CONFIG_MODVERSIONS'
p908
S'y'
sS'kernel.sched_migration_cost_ns'
p909
I500000
sS'CONFIG_HAVE_INTEL_TXT'
p910
S'y'
sS'CONFIG_ARCH_HAS_UBSAN_SANITIZE_ALL'
p911
S'y'
sS'kernel.sched_domain.cpu20.domain0.forkexec_idx'
p912
I0
sS'CONFIG_OLD_SIGSUSPEND3'
p913
S'y'
sS'kernel.sched_domain.cpu44.domain0.imbalance_pct'
p914
I125
sS'net.ipv6.conf.ens3.use_tempaddr'
p915
I0
sS'dev.mac_hid.mouse_button2_keycode'
p916
I97
sS'net.ipv6.neigh.lo.proxy_qlen'
p917
I64
sS'kernel.sched_domain.cpu27.domain1.max_interval'
p918
I120
sS'net.ipv6.conf.default.router_probe_interval'
p919
I60
sS'kernel.sched_domain.cpu14.domain1.busy_factor'
p920
I32
sS'net.ipv4.route.error_burst'
p921
I1250
sS'CONFIG_NET_VENDOR_ARC'
p922
S'y'
sS'net.ipv6.conf.all.keep_addr_on_down'
p923
I0
sS'kernel.sched_domain.cpu16.domain1.forkexec_idx'
p924
I0
sS'CONFIG_EDAC_ATOMIC_SCRUB'
p925
S'y'
sS'kernel.sched_domain.cpu50.domain1.max_interval'
p926
I120
sS'CONFIG_TRUSTED_KEYS'
p927
S'y'
sS'kernel.sched_domain.cpu53.domain1.cache_nice_tries'
p928
I2
sS'kernel.sched_domain.cpu47.domain0.forkexec_idx'
p929
I0
sS'net.ipv4.tcp_fastopen'
p930
I1
sS'net.ipv6.conf.lo.proxy_ndp'
p931
I0
sS'CONFIG_HAVE_KVM_EVENTFD'
p932
S'y'
sS'CONFIG_HAVE_ARCH_KMEMCHECK'
p933
S'y'
sS'CONFIG_PM_DEVFREQ'
p934
S'y'
sS'CONFIG_UID16'
p935
S'y'
sS'kernel.sched_domain.cpu41.domain1.imbalance_pct'
p936
I125
sS'net.ipv6.calipso_cache_bucket_size'
p937
I10
sS'CONFIG_ACPI_SLEEP'
p938
S'y'
sS'kernel.watchdog_cpumask'
p939
S'0-121'
p940
sS'CONFIG_SND_SUPPORT_OLD_API'
p941
S'y'
sS'kernel.sched_domain.cpu39.domain0.newidle_idx'
p942
I0
sS'CONFIG_NVDIMM_PFN'
p943
S'y'
sS'kernel.sched_domain.cpu50.domain1.max_newidle_lb_cost'
p944
I55039
sS'net.ipv6.conf.all.max_addresses'
p945
I16
sS'kernel.sched_domain.cpu45.domain1.forkexec_idx'
p946
I0
sS'kernel.sched_domain.cpu32.domain0.name'
p947
S'DIE'
p948
sS'kernel.sched_child_runs_first'
p949
I0
sS'net.ipv6.conf.all.accept_ra_from_local'
p950
I0
sS'CONFIG_PINCONF'
p951
S'y'
sS'kernel.sched_domain.cpu48.domain0.imbalance_pct'
p952
I125
sS'CONFIG_CRYPTO_GCM'
p953
S'y'
sS'kernel.sched_domain.cpu31.domain0.forkexec_idx'
p954
I0
sS'kernel.softlockup_panic'
p955
I0
sS'kernel.sched_domain.cpu54.domain1.flags'
p956
I25647
sS'kernel.sched_domain.cpu18.domain1.imbalance_pct'
p957
I125
sS'kernel.sched_domain.cpu25.domain0.max_interval'
p958
I20
sS'CONFIG_RTC_I2C_AND_SPI'
p959
S'y'
sS'CONFIG_USB_EHCI_HCD'
p960
S'y'
sS'kernel.sched_domain.cpu36.domain1.forkexec_idx'
p961
I0
sS'CONFIG_CHROME_PLATFORMS'
p962
S'y'
sS'kernel.sched_domain.cpu7.domain1.max_interval'
p963
I120
sS'CONFIG_HAVE_ARCH_KGDB'
p964
S'y'
sS'CONFIG_IO_DELAY_TYPE_0XED'
p965
I1
sS'net.ipv6.conf.ens3.drop_unicast_in_l2_multicast'
p966
I0
sS'net.ipv6.conf.default.force_mld_version'
p967
I0
sS'kernel.sched_domain.cpu35.domain0.min_interval'
p968
I10
sS'net.ipv4.ip_no_pmtu_disc'
p969
I0
sS'CONFIG_GENERIC_CLOCKEVENTS_BROADCAST'
p970
S'y'
sS'CONFIG_WLAN_VENDOR_MEDIATEK'
p971
S'y'
sS'vm.dirty_writeback_centisecs'
p972
I500
sS'net.ipv4.conf.all.send_redirects'
p973
I1
sS'CONFIG_SCSI_CXGB3_ISCSI'
p974
S'm'
sS'net.ipv6.conf.lo.accept_ra'
p975
I1
sS'kernel.sched_domain.cpu2.domain0.max_newidle_lb_cost'
p976
I71567
sS'CONFIG_ARCH_SUPPORTS_OPTIMIZED_INLINING'
p977
S'y'
sS'net.ipv4.conf.default.proxy_arp_pvlan'
p978
I0
sS'kernel.sched_domain.cpu27.domain0.max_newidle_lb_cost'
p979
I19985
sS'kernel.sched_domain.cpu33.domain1.idle_idx'
p980
I2
sS'CONFIG_PM_STD_PARTITION'
p981
S'""'
p982
sS'net.ipv4.conf.ens3.secure_redirects'
p983
I1
sS'kernel.sched_domain.cpu27.domain1.name'
p984
S'NUMA'
p985
sS'CONFIG_ULTRIX_PARTITION'
p986
S'y'
sS'kernel.sched_domain.cpu53.domain1.wake_idx'
p987
I0
sS'CONFIG_HAVE_NMI'
p988
S'y'
sS'kernel.sched_domain.cpu19.domain1.busy_factor'
p989
I32
sS'CONFIG_NET_VENDOR_3COM'
p990
S'y'
sS'kernel.sched_domain.cpu16.domain1.name'
p991
S'NUMA'
p992
sS'net.ipv6.conf.ens3.seg6_enabled'
p993
I0
sS'kernel.sched_domain.cpu13.domain1.idle_idx'
p994
I2
sS'fs.mqueue.msgsize_max'
p995
I8192
sS'kernel.sched_domain.cpu45.domain1.flags'
p996
I25647
sS'kernel.sched_domain.cpu13.domain0.name'
p997
S'DIE'
p998
sS'kernel.sched_domain.cpu53.domain0.max_interval'
p999
I20
sS'CONFIG_HAVE_KERNEL_XZ'
p1000
S'y'
sS'net.ipv4.conf.all.forwarding'
p1001
I0
sS'CONFIG_USB_DEFAULT_PERSIST'
p1002
S'y'
sS'CONFIG_NEW_LEDS'
p1003
S'y'
sS'kernel.sched_domain.cpu28.domain0.flags'
p1004
I4143
sS'kernel.perf_event_paranoid'
p1005
I2
sS'net.ipv4.conf.all.bootp_relay'
p1006
I0
sS'net.ipv6.neigh.default.base_reachable_time_ms'
p1007
I30000
sS'kernel.sched_domain.cpu24.domain1.flags'
p1008
I25647
sS'kernel.perf_event_mlock_kb'
p1009
I516
sS'vm.block_dump'
p1010
I0
sS'kernel.sched_domain.cpu16.domain0.busy_factor'
p1011
I32
sS'CONFIG_PHYLIB'
p1012
S'y'
sS'kernel.sched_domain.cpu59.domain1.cache_nice_tries'
p1013
I2
sS'net.ipv4.tcp_keepalive_intvl'
p1014
I75
sS'net.ipv4.conf.all.igmpv3_unsolicited_report_interval'
p1015
I1000
sS'CONFIG_PCI_MSI'
p1016
S'y'
sS'net.ipv4.conf.default.send_redirects'
p1017
I1
sS'net.ipv6.conf.default.disable_ipv6'
p1018
I0
sS'kernel.sched_domain.cpu26.domain1.min_interval'
p1019
I60
sS'kernel.sched_domain.cpu20.domain1.newidle_idx'
p1020
I0
sS'kernel.sched_domain.cpu35.domain0.idle_idx'
p1021
I1
sS'fs.pipe-user-pages-hard'
p1022
I0
sS'net.ipv4.route.redirect_number'
p1023
I9
sS'net.ipv6.conf.lo.hop_limit'
p1024
I64
sS'kernel.sched_domain.cpu53.domain1.newidle_idx'
p1025
I0
sS'net.ipv4.conf.all.arp_accept'
p1026
I0
sS'kernel.sched_domain.cpu36.domain1.busy_factor'
p1027
I32
sS'CONFIG_BINARY_PRINTF'
p1028
S'y'
sS'kernel.numa_balancing_scan_period_max_ms'
p1029
I60000
sS'kernel.msgmnb'
p1030
I16384
sS'kernel.sched_domain.cpu57.domain0.idle_idx'
p1031
I1
sS'kernel.sched_domain.cpu34.domain0.imbalance_pct'
p1032
I125
sS'kernel.msgmni'
p1033
I32000
sS'CONFIG_SLUB'
p1034
S'y'
sS'kernel.soft_watchdog'
p1035
I1
sS'kernel.sched_domain.cpu40.domain0.cache_nice_tries'
p1036
I1
sS'kernel.sched_time_avg_ms'
p1037
I1000
sS'kernel.sched_domain.cpu21.domain0.busy_idx'
p1038
I2
sS'net.ipv4.conf.lo.rp_filter'
p1039
I0
sS'CONFIG_X86_INTEL_MPX'
p1040
S'y'
sS'CONFIG_X86_ACPI_CPUFREQ_CPB'
p1041
S'y'
sS'net.ipv6.conf.default.mc_forwarding'
p1042
I0
sS'kernel.threads-max'
p1043
I515185
sS'kernel.sched_domain.cpu1.domain1.busy_factor'
p1044
I32
sS'kernel.sched_domain.cpu18.domain1.busy_idx'
p1045
I3
sS'kernel.overflowuid'
p1046
I65534
sS'kernel.sched_domain.cpu41.domain0.wake_idx'
p1047
I0
sS'CONFIG_ACPI_DOCK'
p1048
S'y'
sS'CONFIG_X86_INTEL_MEMORY_PROTECTION_KEYS'
p1049
S'y'
sS'kernel.sched_domain.cpu40.domain1.idle_idx'
p1050
I2
sS'net.ipv4.neigh.ens3.base_reachable_time_ms'
p1051
I30000
sS'CONFIG_SCHED_MC'
p1052
S'y'
sS'CONFIG_ARCH_HAS_MEM_ENCRYPT'
p1053
S'y'
sS'kernel.sched_domain.cpu35.domain1.min_interval'
p1054
I60
sS'kernel.sched_domain.cpu8.domain1.max_interval'
p1055
I120
sS'kernel.sched_domain.cpu17.domain1.min_interval'
p1056
I60
sS'kernel.keys.gc_delay'
p1057
I300
sS'CONFIG_HAVE_ARCH_TRANSPARENT_HUGEPAGE_PUD'
p1058
S'y'
sS'kernel.sched_domain.cpu49.domain0.max_interval'
p1059
I20
sS'kernel.hung_task_timeout_secs'
p1060
I120
sS'kernel.sched_domain.cpu56.domain0.max_interval'
p1061
I20
sS'CONFIG_X86_MINIMUM_CPU_FAMILY'
p1062
I64
sS'CONFIG_CRYPTO_KPP2'
p1063
S'y'
sS'CONFIG_SQUASHFS_ZLIB'
p1064
S'y'
sS'CONFIG_X86_PLATFORM_DEVICES'
p1065
S'y'
sS'CONFIG_CONTEXT_SWITCH_TRACER'
p1066
S'y'
sS'net.ipv4.conf.default.accept_source_route'
p1067
I1
sS'CONFIG_LLC'
p1068
S'm'
sS'kernel.core_pipe_limit'
p1069
I0
sS'kernel.sched_domain.cpu53.domain0.busy_factor'
p1070
I32
sS'kernel.sched_domain.cpu32.domain1.idle_idx'
p1071
I2
sS'kernel.timer_migration'
p1072
I1
sS'kernel.sched_domain.cpu7.domain1.imbalance_pct'
p1073
I125
sS'CONFIG_CC_STACKPROTECTOR'
p1074
S'y'
sS'kernel.sched_domain.cpu38.domain0.name'
p1075
S'DIE'
p1076
sS'kernel.sched_domain.cpu54.domain0.wake_idx'
p1077
I0
sS'kernel.sched_domain.cpu19.domain1.max_interval'
p1078
I120
sS'CONFIG_PERF_EVENTS_INTEL_RAPL'
p1079
S'y'
sS'CONFIG_HAVE_PERF_USER_STACK_DUMP'
p1080
S'y'
sS'CONFIG_SERIAL_SCCNXP'
p1081
S'y'
sS'kernel.sched_domain.cpu28.domain1.cache_nice_tries'
p1082
I2
sS'CONFIG_EFI_RUNTIME_MAP'
p1083
S'y'
sS'kernel.sched_domain.cpu18.domain1.flags'
p1084
I25647
sS'kernel.sched_domain.cpu58.domain0.idle_idx'
p1085
I1
sS'kernel.sched_domain.cpu34.domain1.max_interval'
p1086
I120
sS'debug.kprobes-optimization'
p1087
I1
sS'kernel.sched_domain.cpu6.domain0.idle_idx'
p1088
I1
sS'CONFIG_BPF_SYSCALL'
p1089
S'y'
sS'net.ipv6.conf.default.accept_ra_pinfo'
p1090
I1
sS'kernel.sched_domain.cpu19.domain0.name'
p1091
S'DIE'
p1092
sS'CONFIG_MEMBARRIER'
p1093
S'y'
sS'CONFIG_VIRTIO_PCI_LEGACY'
p1094
S'y'
sS'kernel.sched_domain.cpu2.domain1.max_interval'
p1095
I120
sS'CONFIG_WLAN_VENDOR_QUANTENNA'
p1096
S'y'
sS'kernel.sched_domain.cpu25.domain0.forkexec_idx'
p1097
I0
sS'kernel.sched_domain.cpu52.domain1.imbalance_pct'
p1098
I125
sS'net.ipv4.neigh.lo.retrans_time_ms'
p1099
I1000
sS'CONFIG_CRYPTO_DEV_CCP'
p1100
S'y'
sS'CONFIG_HAVE_EFFICIENT_UNALIGNED_ACCESS'
p1101
S'y'
sS'kernel.sched_domain.cpu53.domain1.busy_factor'
p1102
I32
sS'CONFIG_USB_ANNOUNCE_NEW_DEVICES'
p1103
S'y'
sS'CONFIG_AUTOFS4_FS'
p1104
S'm'
sS'kernel.sched_domain.cpu46.domain1.name'
p1105
S'NUMA'
p1106
sS'CONFIG_STAGING'
p1107
S'y'
sS'CONFIG_SYSVIPC_COMPAT'
p1108
S'y'
sS'CONFIG_ARCH_HAS_FAST_MULTIPLIER'
p1109
S'y'
sS'CONFIG_IPV6_MROUTE_MULTIPLE_TABLES'
p1110
S'y'
sS'CONFIG_NET_VENDOR_STMICRO'
p1111
S'y'
sS'CONFIG_NUMA_BALANCING_DEFAULT_ENABLED'
p1112
S'y'
sS'kernel.sched_domain.cpu12.domain0.flags'
p1113
I4143
sS'kernel.sched_domain.cpu31.domain1.newidle_idx'
p1114
I0
sS'kernel.sched_domain.cpu15.domain1.forkexec_idx'
p1115
I0
sS'net.ipv6.conf.all.accept_ra_rt_info_max_plen'
p1116
I0
sS'kernel.sched_domain.cpu51.domain0.busy_factor'
p1117
I32
sS'CONFIG_X86_DEV_DMA_OPS'
p1118
S'y'
sS'CONFIG_PCI_ATS'
p1119
S'y'
sS'CONFIG_RD_LZO'
p1120
S'y'
sS'net.ipv4.tcp_ecn_fallback'
p1121
I1
sS'kernel.sched_domain.cpu32.domain0.max_newidle_lb_cost'
p1122
I17237
sS'CONFIG_BLK_DEV'
p1123
S'y'
sS'CONFIG_HARDLOCKUP_CHECK_TIMESTAMP'
p1124
S'y'
sS'CONFIG_INLINE_READ_UNLOCK_IRQ'
p1125
S'y'
sS'CONFIG_SQUASHFS_XZ'
p1126
S'y'
sS'kernel.sched_domain.cpu10.domain0.busy_factor'
p1127
I32
sS'kernel.sched_domain.cpu51.domain0.max_newidle_lb_cost'
p1128
I232541
sS'CONFIG_MDIO_DEVICE'
p1129
S'y'
sS'CONFIG_GPIO_RC5T583'
p1130
S'y'
sS'net.ipv4.tcp_moderate_rcvbuf'
p1131
I1
sS'kernel.sched_domain.cpu41.domain0.name'
p1132
S'DIE'
p1133
sS'CONFIG_STACKTRACE'
p1134
S'y'
sS'CONFIG_ATA_BMDMA'
p1135
S'y'
sS'kernel.sched_domain.cpu20.domain1.forkexec_idx'
p1136
I0
sS'kernel.sched_domain.cpu46.domain1.flags'
p1137
I25647
sS'net.ipv4.tcp_min_rtt_wlen'
p1138
I300
sS'net.ipv6.fwmark_reflect'
p1139
I0
sS'CONFIG_MOUSE_PS2_VMMOUSE'
p1140
S'y'
sS'kernel.sched_domain.cpu22.domain0.wake_idx'
p1141
I0
sS'CONFIG_SECURITY_APPARMOR'
p1142
S'y'
sS'CONFIG_WATCHDOG_CORE'
p1143
S'y'
sS'CONFIG_X86_PMEM_LEGACY'
p1144
S'y'
sS'CONFIG_SERIAL_KGDB_NMI'
p1145
S'y'
sS'CONFIG_INSTRUCTION_DECODER'
p1146
S'y'
sS'kernel.sched_domain.cpu44.domain1.max_interval'
p1147
I120
sS'net.ipv6.neigh.ens3.proxy_delay'
p1148
I80
sS'CONFIG_SOC_TI'
p1149
S'y'
sS'CONFIG_MFD_TPS80031'
p1150
S'y'
sS'kernel.sched_domain.cpu56.domain1.flags'
p1151
I25647
sS'kernel.sched_domain.cpu51.domain1.max_newidle_lb_cost'
p1152
I30127
sS'kernel.sched_domain.cpu2.domain1.forkexec_idx'
p1153
I0
sS'CONFIG_MEMCG'
p1154
S'y'
sS'net.ipv6.conf.default.accept_redirects'
p1155
I1
sS'kernel.sched_domain.cpu12.domain1.max_newidle_lb_cost'
p1156
I30014
sS'net.ipv4.neigh.lo.ucast_solicit'
p1157
I3
sS'CONFIG_PWM_SYSFS'
p1158
S'y'
sS'kernel.sched_domain.cpu58.domain0.flags'
p1159
I4143
sS'kernel.sched_domain.cpu8.domain1.busy_factor'
p1160
I32
sS'CONFIG_IOSCHED_CFQ'
p1161
S'y'
sS'kernel.sched_domain.cpu34.domain0.min_interval'
p1162
I10
sS'net.ipv6.conf.all.mldv1_unsolicited_report_interval'
p1163
I10000
sS'kernel.sched_domain.cpu2.domain0.idle_idx'
p1164
I1
sS'CONFIG_BLK_DEV_DM'
p1165
S'y'
sS'kernel.sched_domain.cpu52.domain0.busy_factor'
p1166
I32
sS'CONFIG_DEFAULT_HUNG_TASK_TIMEOUT'
p1167
I120
sS'CONFIG_CPU_FREQ_GOV_ATTR_SET'
p1168
S'y'
sS'net.ipv6.conf.default.regen_max_retry'
p1169
I3
sS'CONFIG_SND_PCI'
p1170
S'y'
sS'CONFIG_GENERIC_CPU'
p1171
S'y'
sS'net.ipv4.conf.default.accept_local'
p1172
I0
sS'net.ipv6.conf.default.forwarding'
p1173
I0
sS'net.core.dev_weight_rx_bias'
p1174
I1
sS'CONFIG_CPU_SUP_AMD'
p1175
S'y'
sS'kernel.sched_domain.cpu44.domain0.wake_idx'
p1176
I0
sS'CONFIG_GENERIC_FIND_FIRST_BIT'
p1177
S'y'
sS'CONFIG_HAVE_USER_RETURN_NOTIFIER'
p1178
S'y'
sS'kernel.core_pattern'
p1179
S'|/usr/share/apport/apport %p %s %c %d %P'
p1180
sS'kernel.perf_event_max_sample_rate'
p1181
I100000
sS'CONFIG_SCSI'
p1182
S'y'
sS'kernel.sched_domain.cpu26.domain0.cache_nice_tries'
p1183
I1
sS'CONFIG_HAVE_GCC_PLUGINS'
p1184
S'y'
sS'kernel.sched_domain.cpu49.domain1.max_newidle_lb_cost'
p1185
I252700
sS'kernel.random.poolsize'
p1186
I4096
sS'CONFIG_GLOB'
p1187
S'y'
sS'CONFIG_ZBUD'
p1188
S'y'
sS'kernel.sched_domain.cpu58.domain1.busy_idx'
p1189
I3
sS'net.ipv6.conf.lo.force_mld_version'
p1190
I0
sS'CONFIG_NUMA_BALANCING'
p1191
S'y'
sS'net.ipv4.conf.ens3.accept_redirects'
p1192
I1
sS'kernel.sched_domain.cpu58.domain0.cache_nice_tries'
p1193
I1
sS'kernel.sched_domain.cpu1.domain0.busy_factor'
p1194
I32
sS'CONFIG_EDD_OFF'
p1195
S'y'
sS'CONFIG_THERMAL'
p1196
S'y'
sS'CONFIG_BPF'
p1197
S'y'
sS'CONFIG_HUGETLBFS'
p1198
S'y'
sS'net.ipv4.tcp_frto'
p1199
I2
sS'kernel.sched_domain.cpu50.domain1.min_interval'
p1200
I60
sS'CONFIG_ETHERNET'
p1201
S'y'
sS'kernel.sched_domain.cpu58.domain1.wake_idx'
p1202
I0
sS'kernel.sched_domain.cpu52.domain0.cache_nice_tries'
p1203
I1
sS'net.ipv4.tcp_probe_threshold'
p1204
I8
sS'kernel.sched_domain.cpu20.domain0.name'
p1205
S'DIE'
p1206
sS'kernel.sched_domain.cpu35.domain1.name'
p1207
S'NUMA'
p1208
sS'net.ipv4.conf.default.forwarding'
p1209
I0
sS'CONFIG_DECOMPRESS_BZIP2'
p1210
S'y'
sS'net.ipv6.conf.default.accept_ra_rtr_pref'
p1211
I1
sS'kernel.sched_domain.cpu57.domain1.flags'
p1212
I25647
sS'net.ipv4.neigh.lo.delay_first_probe_time'
p1213
I5
sS'kernel.sched_domain.cpu38.domain1.busy_factor'
p1214
I32
sS'CONFIG_MFD_MAX8998'
p1215
S'y'
sS'CONFIG_AB3100_CORE'
p1216
S'y'
sS'CONFIG_PM'
p1217
S'y'
sS'kernel.sched_domain.cpu43.domain0.wake_idx'
p1218
I0
sS'CONFIG_FAIR_GROUP_SCHED'
p1219
S'y'
sS'kernel.sched_domain.cpu54.domain0.busy_idx'
p1220
I2
sS'net.ipv4.ip_forward'
p1221
I0
sS'CONFIG_COMPAT_32'
p1222
S'y'
sS'kernel.sched_domain.cpu12.domain0.forkexec_idx'
p1223
I0
sS'kernel.sched_domain.cpu23.domain1.forkexec_idx'
p1224
I0
sS'kernel.sched_domain.cpu7.domain0.busy_factor'
p1225
I32
sS'kernel.sched_domain.cpu0.domain0.name'
p1226
S'DIE'
p1227
sS'kernel.sched_domain.cpu3.domain0.busy_idx'
p1228
I2
sS'kernel.sched_domain.cpu0.domain0.max_interval'
p1229
I20
sS'kernel.sched_domain.cpu14.domain1.min_interval'
p1230
I60
sS'kernel.sched_domain.cpu21.domain1.idle_idx'
p1231
I2
sS'kernel.sched_domain.cpu12.domain1.flags'
p1232
I25647
sS'kernel.sched_domain.cpu18.domain0.name'
p1233
S'DIE'
p1234
sS'CONFIG_NETFILTER_ADVANCED'
p1235
S'y'
sS'CONFIG_RANDOMIZE_MEMORY'
p1236
S'y'
sS'CONFIG_ASYNC_MEMCPY'
p1237
S'm'
sS'net.ipv6.conf.default.accept_ra_from_local'
p1238
I0
sS'CONFIG_WLAN_VENDOR_REALTEK'
p1239
S'y'
sS'kernel.sched_domain.cpu32.domain1.name'
p1240
S'NUMA'
p1241
sS'kernel.sched_domain.cpu42.domain0.busy_idx'
p1242
I2
sS'kernel.sched_domain.cpu26.domain1.cache_nice_tries'
p1243
I2
sS'net.ipv4.conf.lo.accept_redirects'
p1244
I1
sS'net.core.flow_limit_table_len'
p1245
I4096
sS'kernel.sched_domain.cpu6.domain0.imbalance_pct'
p1246
I125
sS'kernel.sched_domain.cpu17.domain0.wake_idx'
p1247
I0
sS'CONFIG_MOUSE_PS2_SYNAPTICS_SMBUS'
p1248
S'y'
sS'CONFIG_ZONE_DMA'
p1249
S'y'
sS'net.core.max_skb_frags'
p1250
I17
sS'CONFIG_TCP_CONG_CUBIC'
p1251
S'y'
sS'CONFIG_COMPAT_FOR_U64_ALIGNMENT'
p1252
S'y'
sS'kernel.sched_domain.cpu23.domain1.busy_factor'
p1253
I32
sS'CONFIG_HAVE_KVM_CPU_RELAX_INTERCEPT'
p1254
S'y'
sS'CONFIG_VHOST'
p1255
S'm'
sS'kernel.sched_domain.cpu26.domain1.flags'
p1256
I25647
sS'net.ipv6.neigh.ens3.gc_stale_time'
p1257
I60
sS'kernel.sched_domain.cpu58.domain0.name'
p1258
S'DIE'
p1259
sS'kernel.sched_domain.cpu59.domain1.max_newidle_lb_cost'
p1260
I25728
sS'kernel.sched_domain.cpu15.domain1.busy_factor'
p1261
I32
sS'CONFIG_HAVE_NET_DSA'
p1262
S'y'
sS'kernel.sched_domain.cpu34.domain1.forkexec_idx'
p1263
I0
sS'CONFIG_PCI_LABEL'
p1264
S'y'
sS'CONFIG_IOMMU_IOVA'
p1265
S'y'
sS'kernel.sched_domain.cpu23.domain1.imbalance_pct'
p1266
I125
sS'kernel.sched_domain.cpu6.domain0.max_newidle_lb_cost'
p1267
I12225
sS'kernel.sched_domain.cpu50.domain0.name'
p1268
S'DIE'
p1269
sS'CONFIG_ISCSI_IBFT_FIND'
p1270
S'y'
sS'kernel.sched_domain.cpu6.domain1.busy_idx'
p1271
I3
sS'kernel.sched_domain.cpu5.domain1.max_interval'
p1272
I120
sS'CONFIG_USB_DWC2'
p1273
S'y'
sS'kernel.sched_domain.cpu38.domain0.imbalance_pct'
p1274
I125
sS'kernel.sched_domain.cpu45.domain1.wake_idx'
p1275
I0
sS'CONFIG_EVM'
p1276
S'y'
sS'CONFIG_PKCS7_MESSAGE_PARSER'
p1277
S'y'
sS'kernel.sched_domain.cpu43.domain0.busy_idx'
p1278
I2
sS'CONFIG_IA32_EMULATION'
p1279
S'y'
sS'net.ipv4.tcp_workaround_signed_windows'
p1280
I0
sS'kernel.sched_domain.cpu44.domain1.busy_idx'
p1281
I3
sS'CONFIG_IP_MROUTE'
p1282
S'y'
sS'kernel.sched_domain.cpu22.domain0.name'
p1283
S'DIE'
p1284
sS'net.ipv4.ipfrag_secret_interval'
p1285
I0
sS'CONFIG_ZSTD_DECOMPRESS'
p1286
S'm'
sS'kernel.sched_domain.cpu29.domain1.cache_nice_tries'
p1287
I2
sS'net.ipv6.neigh.default.ucast_solicit'
p1288
I3
sS'net.ipv6.neigh.default.locktime'
p1289
I0
sS'CONFIG_AGP_VIA'
p1290
S'y'
sS'kernel.sched_domain.cpu50.domain0.imbalance_pct'
p1291
I125
sS'kernel.sched_domain.cpu28.domain0.max_newidle_lb_cost'
p1292
I214705
sS'kernel.sched_domain.cpu46.domain1.cache_nice_tries'
p1293
I2
sS'kernel.sched_domain.cpu19.domain0.cache_nice_tries'
p1294
I1
sS'kernel.sched_domain.cpu28.domain1.newidle_idx'
p1295
I0
sS'kernel.sched_domain.cpu14.domain0.flags'
p1296
I4143
sS'kernel.sched_domain.cpu31.domain1.max_newidle_lb_cost'
p1297
I95190
sS'CONFIG_ELFCORE'
p1298
S'y'
sS'CONFIG_BPF_EVENTS'
p1299
S'y'
sS'net.ipv4.neigh.lo.mcast_solicit'
p1300
I3
sS'CONFIG_BUILD_BIN2C'
p1301
S'y'
sS'kernel.sched_domain.cpu14.domain1.max_interval'
p1302
I120
sS'CONFIG_I2C_PIIX4'
p1303
S'm'
sS'CONFIG_SND_HDA_GENERIC'
p1304
S'm'
sS'net.core.bpf_jit_enable'
p1305
I0
sS'CONFIG_SND_HDA'
p1306
S'm'
sS'fs.quota.drops'
p1307
I0
sS'kernel.acct'
p1308
S'4\t2\t30'
p1309
sS'kernel.sched_domain.cpu8.domain0.name'
p1310
S'DIE'
p1311
sS'fs.mqueue.msg_max'
p1312
I10
sS'kernel.yama.ptrace_scope'
p1313
I1
sS'kernel.sched_domain.cpu19.domain0.idle_idx'
p1314
I1
sS'kernel.sched_domain.cpu35.domain1.flags'
p1315
I25647
sS'dev.parport.default.timeslice'
p1316
I200
sS'net.ipv4.inet_peer_threshold'
p1317
I65664
sS'kernel.sched_domain.cpu21.domain0.max_newidle_lb_cost'
p1318
I21026
sS'CONFIG_HAVE_ARCH_TRACEHOOK'
p1319
S'y'
sS'kernel.sched_domain.cpu57.domain1.busy_factor'
p1320
I32
sS'net.ipv6.conf.all.ignore_routes_with_linkdown'
p1321
I0
sS'CONFIG_RTC_HCTOSYS'
p1322
S'y'
sS'net.core.rps_sock_flow_entries'
p1323
I0
sS'kernel.sched_domain.cpu53.domain0.forkexec_idx'
p1324
I0
sS'CONFIG_ARCH_SELECT_MEMORY_MODEL'
p1325
S'y'
sS'CONFIG_FONT_8x8'
p1326
S'y'
sS'kernel.sched_domain.cpu1.domain0.min_interval'
p1327
I10
sS'net.ipv4.tcp_recovery'
p1328
I1
sS'kernel.sched_domain.cpu4.domain0.min_interval'
p1329
I10
sS'CONFIG_EARLY_PRINTK_USB'
p1330
S'y'
sS'net.ipv6.neigh.default.proxy_qlen'
p1331
I64
sS'CONFIG_EDD'
p1332
S'y'
sS'kernel.sched_domain.cpu26.domain1.name'
p1333
S'NUMA'
p1334
sS'kernel.sched_domain.cpu56.domain0.idle_idx'
p1335
I1
sS'kernel.sched_domain.cpu37.domain0.flags'
p1336
I4143
sS'kernel.sched_domain.cpu5.domain0.imbalance_pct'
p1337
I125
sS'kernel.sched_domain.cpu13.domain1.name'
p1338
S'NUMA'
p1339
sS'CONFIG_FTRACE_SYSCALLS'
p1340
S'y'
sS'net.ipv6.conf.lo.accept_ra_rt_info_min_plen'
p1341
I0
sS'CONFIG_GENERIC_IRQ_MIGRATION'
p1342
S'y'
sS'kernel.sched_domain.cpu5.domain0.max_interval'
p1343
I20
sS'fs.inode-state'
p1344
S'86780\t512\t0\t0\t0\t0\t0'
p1345
sS'CONFIG_HTC_I2CPLD'
p1346
S'y'
sS'kernel.sched_domain.cpu27.domain0.newidle_idx'
p1347
I0
sS'kernel.sched_domain.cpu35.domain0.busy_factor'
p1348
I32
sS'kernel.sched_domain.cpu25.domain0.flags'
p1349
I4143
sS'net.ipv4.ipfrag_max_dist'
p1350
I64
sS'kernel.sched_rt_period_us'
p1351
I1000000
sS'CONFIG_HAVE_CONTEXT_TRACKING'
p1352
S'y'
sS'CONFIG_CRYPTO_DRBG'
p1353
S'y'
sS'CONFIG_NODES_SHIFT'
p1354
I6
sS'CONFIG_ADVISE_SYSCALLS'
p1355
S'y'
sS'CONFIG_STRICT_MODULE_RWX'
p1356
S'y'
sS'kernel.sched_domain.cpu19.domain0.busy_idx'
p1357
I2
sS'kernel.printk_delay'
p1358
I0
sS'kernel.sched_domain.cpu8.domain0.forkexec_idx'
p1359
I0
sS'kernel.sched_domain.cpu41.domain1.max_newidle_lb_cost'
p1360
I74132
sS'CONFIG_GENERIC_ISA_DMA'
p1361
S'y'
sS'net.ipv4.neigh.default.retrans_time_ms'
p1362
I1000
sS'net.core.wmem_default'
p1363
I212992
sS'CONFIG_RATIONAL'
p1364
S'y'
sS'kernel.sched_domain.cpu16.domain1.max_newidle_lb_cost'
p1365
I28300
sS'CONFIG_ARCH_DMA_ADDR_T_64BIT'
p1366
S'y'
sS'kernel.sched_domain.cpu22.domain0.busy_idx'
p1367
I2
sS'CONFIG_IP_NF_FILTER'
p1368
S'm'
sS'kernel.sched_domain.cpu20.domain1.min_interval'
p1369
I60
sS'net.ipv4.conf.default.route_localnet'
p1370
I0
sS'net.ipv4.conf.lo.proxy_arp'
p1371
I0
sS'CONFIG_PMIC_DA903X'
p1372
S'y'
sS'CONFIG_X86_POWERNOW_K8'
p1373
S'y'
sS'CONFIG_ACPI_APEI_MEMORY_FAILURE'
p1374
S'y'
sS'net.ipv4.ip_local_reserved_ports'
p1375
S''
sS'CONFIG_NET_VENDOR_QLOGIC'
p1376
S'y'
sS'CONFIG_PCSPKR_PLATFORM'
p1377
S'y'
sS'kernel.sched_domain.cpu17.domain0.max_interval'
p1378
I20
sS'CONFIG_PM_TRACE_RTC'
p1379
S'y'
sS'net.ipv6.conf.lo.max_addresses'
p1380
I16
sS'kernel.sched_domain.cpu20.domain1.name'
p1381
S'NUMA'
p1382
sS'kernel.sched_domain.cpu7.domain0.min_interval'
p1383
I10
sS'kernel.sched_domain.cpu36.domain0.busy_factor'
p1384
I32
sS'kernel.sysctl_writes_strict'
p1385
I1
sS'vm.drop_caches'
p1386
I0
sS'kernel.sched_domain.cpu45.domain0.wake_idx'
p1387
I0
sS'kernel.sched_domain.cpu21.domain0.newidle_idx'
p1388
I0
sS'CONFIG_SERIAL_8250_NR_UARTS'
p1389
I48
sS'net.ipv6.conf.ens3.temp_valid_lft'
p1390
I604800
sS'CONFIG_HAVE_FUNCTION_TRACER'
p1391
S'y'
sS'kernel.sched_domain.cpu45.domain0.forkexec_idx'
p1392
I0
sS'kernel.sched_domain.cpu22.domain0.max_newidle_lb_cost'
p1393
I12504
sS'CONFIG_CLKEVT_I8253'
p1394
S'y'
sS'kernel.sched_domain.cpu35.domain0.busy_idx'
p1395
I2
sS'kernel.sched_domain.cpu2.domain1.flags'
p1396
I25647
sS'CONFIG_PCI_PASID'
p1397
S'y'
sS'dev.cdrom.info'
p1398
S''
sS'kernel.sched_domain.cpu21.domain1.name'
p1399
S'NUMA'
p1400
sS'kernel.sched_domain.cpu47.domain0.imbalance_pct'
p1401
I125
sS'CONFIG_NET_VENDOR_AQUANTIA'
p1402
S'y'
sS'kernel.sched_domain.cpu9.domain0.wake_idx'
p1403
I0
sS'CONFIG_TRANSPARENT_HUGEPAGE_ALWAYS'
p1404
S'y'
sS'CONFIG_LZO_DECOMPRESS'
p1405
S'y'
sg8
S'HostInfo.host-192.168.123.30'
p1406
sS'CONFIG_X86_L1_CACHE_SHIFT'
p1407
I6
sS'kernel.sched_domain.cpu41.domain1.min_interval'
p1408
I60
sS'kernel.sched_domain.cpu12.domain0.wake_idx'
p1409
I0
sS'kernel.sched_domain.cpu13.domain0.busy_factor'
p1410
I32
sS'CONFIG_NET_VENDOR_HP'
p1411
S'y'
sS'CONFIG_NET_VENDOR_MELLANOX'
p1412
S'y'
sS'CONFIG_RD_LZ4'
p1413
S'y'
sS'CONFIG_SHMEM'
p1414
S'y'
sS'CONFIG_EFI_RUNTIME_WRAPPERS'
p1415
S'y'
sS'kernel.sched_domain.cpu51.domain0.busy_idx'
p1416
I2
sS'net.core.netdev_max_backlog'
p1417
I1000
sS'kernel.sched_domain.cpu8.domain0.max_newidle_lb_cost'
p1418
I13886
sS'kernel.sched_domain.cpu48.domain1.busy_idx'
p1419
I3
sS'kernel.sched_domain.cpu32.domain0.newidle_idx'
p1420
I0
sS'kernel.sched_domain.cpu41.domain1.newidle_idx'
p1421
I0
sS'CONFIG_VIRTIO_BLK'
p1422
S'y'
sS'net.ipv6.neigh.ens3.unres_qlen'
p1423
I101
sS'CONFIG_ARCH_HIBERNATION_POSSIBLE'
p1424
S'y'
sS'kernel.hotplug'
p1425
S''
sS'kernel.sched_domain.cpu36.domain0.newidle_idx'
p1426
I0
sS'CONFIG_SERIAL_CORE_CONSOLE'
p1427
S'y'
sS'kernel.sched_domain.cpu4.domain1.cache_nice_tries'
p1428
I2
sS'kernel.sched_domain.cpu13.domain0.max_newidle_lb_cost'
p1429
I14779
sS'CONFIG_ARCH_WANTS_THP_SWAP'
p1430
S'y'
sS'kernel.ostype'
p1431
S'Linux'
p1432
sS'CONFIG_PNP'
p1433
S'y'
sS'CONFIG_MTRR_SANITIZER'
p1434
S'y'
sS'kernel.sched_domain.cpu9.domain0.imbalance_pct'
p1435
I125
sS'CONFIG_MOUSE_PS2_TOUCHKIT'
p1436
S'y'
sS'CONFIG_IPV6'
p1437
S'y'
sS'CONFIG_GENERIC_CLOCKEVENTS'
p1438
S'y'
sS'CONFIG_MICROCODE_INTEL'
p1439
S'y'
sS'kernel.sched_domain.cpu33.domain0.name'
p1440
S'DIE'
p1441
sS'CONFIG_PM_CLK'
p1442
S'y'
sS'CONFIG_RFKILL_INPUT'
p1443
S'y'
sS'CONFIG_I2C_COMPAT'
p1444
S'y'
sS'kernel.sched_domain.cpu36.domain0.flags'
p1445
I4143
sS'kernel.sched_domain.cpu12.domain0.min_interval'
p1446
I10
sS'kernel.sched_domain.cpu11.domain1.newidle_idx'
p1447
I0
sS'kernel.sched_domain.cpu55.domain1.flags'
p1448
I25647
sS'CONFIG_CGROUP_NET_CLASSID'
p1449
S'y'
sS'CONFIG_CLOCKSOURCE_VALIDATE_LAST_CYCLE'
p1450
S'y'
sS'CONFIG_TCG_TPM'
p1451
S'y'
sS'kernel.sched_domain.cpu54.domain1.newidle_idx'
p1452
I0
sS'CONFIG_I2C_DESIGNWARE_PLATFORM'
p1453
S'y'
sS'kernel.sched_domain.cpu47.domain0.cache_nice_tries'
p1454
I1
sS'kernel.sched_domain.cpu29.domain0.newidle_idx'
p1455
I0
sS'CONFIG_X86_INTEL_LPSS'
p1456
S'y'
sS'kernel.sched_domain.cpu54.domain0.min_interval'
p1457
I10
sS'kernel.sched_domain.cpu29.domain1.flags'
p1458
I25647
sS'kernel.sched_domain.cpu59.domain0.imbalance_pct'
p1459
I125
sS'CONFIG_HAVE_EXIT_THREAD'
p1460
S'y'
sS'kernel.sched_domain.cpu27.domain0.flags'
p1461
I4143
sS'net.ipv4.conf.all.log_martians'
p1462
I0
sS'kernel.sched_domain.cpu6.domain0.busy_factor'
p1463
I32
sS'kernel.sched_domain.cpu4.domain0.imbalance_pct'
p1464
I125
sS'CONFIG_SQUASHFS'
p1465
S'y'
sS'kernel.sched_domain.cpu59.domain0.flags'
p1466
I4143
sS'CONFIG_WQ_POWER_EFFICIENT_DEFAULT'
p1467
S'y'
sS'CONFIG_MFD_MAX77693'
p1468
S'y'
sS'kernel.sched_domain.cpu0.domain1.max_newidle_lb_cost'
p1469
I12741
sS'kernel.sched_domain.cpu23.domain0.newidle_idx'
p1470
I0
sS'kernel.sched_domain.cpu17.domain1.cache_nice_tries'
p1471
I2
sS'CONFIG_CGROUP_DEVICE'
p1472
S'y'
sS'CONFIG_NET_VENDOR_ALTEON'
p1473
S'y'
sS'CONFIG_BSD_PROCESS_ACCT_V3'
p1474
S'y'
sS'net.ipv4.conf.ens3.tag'
p1475
I0
sS'CONFIG_AMD_NB'
p1476
S'y'
sS'net.ipv4.conf.default.tag'
p1477
I0
sS'net.ipv4.tcp_max_syn_backlog'
p1478
I2048
sS'kernel.sched_domain.cpu10.domain1.idle_idx'
p1479
I2
sS'CONFIG_DECOMPRESS_XZ'
p1480
S'y'
sS'kernel.sched_domain.cpu23.domain1.cache_nice_tries'
p1481
I2
sS'kernel.sched_domain.cpu16.domain1.flags'
p1482
I25647
sS'kernel.sched_domain.cpu39.domain0.flags'
p1483
I4143
sS'kernel.sched_domain.cpu21.domain0.busy_factor'
p1484
I32
sS'CONFIG_HAVE_ARCH_JUMP_LABEL'
p1485
S'y'
sS'vm.dirty_expire_centisecs'
p1486
I3000
sS'kernel.sched_domain.cpu17.domain1.name'
p1487
S'NUMA'
p1488
sS'CONFIG_KERNFS'
p1489
S'y'
sS'CONFIG_TCG_TIS_CORE'
p1490
S'y'
sS'CONFIG_IP_MULTICAST'
p1491
S'y'
sS'CONFIG_CONSOLE_POLL'
p1492
S'y'
sS'CONFIG_PM_WAKELOCKS_GC'
p1493
S'y'
sS'kernel.sched_domain.cpu3.domain0.wake_idx'
p1494
I0
sS'kernel.sched_domain.cpu18.domain0.newidle_idx'
p1495
I0
sS'fs.dir-notify-enable'
p1496
I1
sS'CONFIG_MFD_WM8400'
p1497
S'y'
sS'net.ipv6.conf.all.forwarding'
p1498
I0
sS'CONFIG_SCHEDSTATS'
p1499
S'y'
sS'CONFIG_SERIAL_8250_MANY_PORTS'
p1500
S'y'
sS'net.ipv4.conf.default.medium_id'
p1501
I0
sS'CONFIG_ARCH_HAS_GIGANTIC_PAGE'
p1502
S'y'
sS'vm.oom_dump_tasks'
p1503
I1
sS'net.ipv6.ip6frag_secret_interval'
p1504
I0
sS'CONFIG_PMIC_ADP5520'
p1505
S'y'
sS'CONFIG_USER_NS'
p1506
S'y'
sS'CONFIG_HAVE_ARCH_WITHIN_STACK_FRAMES'
p1507
S'y'
sS'kernel.sched_domain.cpu24.domain0.newidle_idx'
p1508
I0
sS'kernel.sched_domain.cpu3.domain1.busy_factor'
p1509
I32
sS'kernel.sched_domain.cpu8.domain1.min_interval'
p1510
I60
sS'CONFIG_ARCH_WANTS_DYNAMIC_TASK_STRUCT'
p1511
S'y'
sS'net.ipv4.conf.ens3.accept_source_route'
p1512
I1
sS'kernel.sched_domain.cpu48.domain0.forkexec_idx'
p1513
I0
sS'net.ipv6.icmp.ratelimit'
p1514
I1000
sS'net.ipv4.conf.lo.log_martians'
p1515
I0
sS'CONFIG_HAVE_ALIGNED_STRUCT_PAGE'
p1516
S'y'
sS'dev.cdrom.check_media'
p1517
I0
sS'CONFIG_INTEL_SOC_PMIC'
p1518
S'y'
sS'kernel.panic_on_rcu_stall'
p1519
I0
sS'net.ipv6.conf.ens3.keep_addr_on_down'
p1520
I0
sS'net.ipv4.conf.default.mc_forwarding'
p1521
I0
sS'net.core.dev_weight_tx_bias'
p1522
I1
sS'CONFIG_MDIO'
p1523
S'm'
sS'CONFIG_COMMON_CLK'
p1524
S'y'
sS'kernel.sched_domain.cpu39.domain0.max_interval'
p1525
I20
sS'kernel.sched_domain.cpu40.domain1.imbalance_pct'
p1526
I125
sS'net.ipv6.neigh.default.retrans_time_ms'
p1527
I1000
sS'kernel.sched_domain.cpu14.domain1.cache_nice_tries'
p1528
I2
sS'net.ipv6.conf.ens3.drop_unsolicited_na'
p1529
I0
sS'CONFIG_NLS_ISO8859_1'
p1530
S'y'
sS'kernel.sem'
p1531
S'32000\t1024000000\t500\t32000'
p1532
sS'kernel.sched_domain.cpu9.domain1.max_interval'
p1533
I120
sS'net.ipv4.tcp_window_scaling'
p1534
I1
sS'kernel.sched_domain.cpu51.domain1.forkexec_idx'
p1535
I0
sS'kernel.sched_domain.cpu53.domain0.wake_idx'
p1536
I0
sS'CONFIG_NEED_DMA_MAP_STATE'
p1537
S'y'
sS'net.ipv6.conf.lo.temp_prefered_lft'
p1538
I86400
sS'CONFIG_HAVE_ARCH_SECCOMP_FILTER'
p1539
S'y'
sS'kernel.sched_domain.cpu35.domain1.imbalance_pct'
p1540
I125
sS'CONFIG_INPUT_MOUSEDEV_SCREEN_X'
p1541
I1024
sS'CONFIG_INPUT_MOUSEDEV_SCREEN_Y'
p1542
I768
sS'CONFIG_DMIID'
p1543
S'y'
sS'CONFIG_SND_HDA_RECONFIG'
p1544
S'y'
sS'net.ipv4.conf.default.arp_notify'
p1545
I0
sS'CONFIG_INPUT_UINPUT'
p1546
S'y'
sS'net.ipv6.flowlabel_reflect'
p1547
I0
sS'CONFIG_NET_L3_MASTER_DEV'
p1548
S'y'
sS'kernel.sched_domain.cpu55.domain1.busy_idx'
p1549
I3
sS'CONFIG_VIRTIO_NET'
p1550
S'y'
sS'CONFIG_SERIAL_EARLYCON'
p1551
S'y'
sS'kernel.sched_domain.cpu21.domain1.cache_nice_tries'
p1552
I2
sS'kernel.sched_domain.cpu23.domain1.idle_idx'
p1553
I2
sS'CONFIG_BTT'
p1554
S'y'
sS'CONFIG_ARCH_HAS_ACPI_TABLE_UPGRADE'
p1555
S'y'
sS'kernel.sched_domain.cpu45.domain0.imbalance_pct'
p1556
I125
sS'CONFIG_IRQ_REMAP'
p1557
S'y'
sS'CONFIG_NET_VENDOR_VIA'
p1558
S'y'
sS'CONFIG_GENERIC_TRACER'
p1559
S'y'
sS'kernel.sched_domain.cpu35.domain0.max_newidle_lb_cost'
p1560
I15401
sS'CONFIG_ARCH_HAS_ELF_RANDOMIZE'
p1561
S'y'
sS'kernel.sched_domain.cpu15.domain0.busy_idx'
p1562
I2
sS'kernel.sched_domain.cpu15.domain0.newidle_idx'
p1563
I0
sS'CONFIG_BE2ISCSI'
p1564
S'm'
sS'kernel.sched_domain.cpu14.domain1.forkexec_idx'
p1565
I0
sS'CONFIG_NET_VENDOR_DEC'
p1566
S'y'
sS'CONFIG_FUTEX'
p1567
S'y'
sS'net.ipv6.neigh.ens3.app_solicit'
p1568
I0
sS'CONFIG_ARCH_WANT_OLD_COMPAT_IPC'
p1569
S'y'
sS'CONFIG_SSB_POSSIBLE'
p1570
S'y'
sS'net.ipv4.conf.default.arp_ignore'
p1571
I0
sS'kernel.sched_domain.cpu19.domain1.flags'
p1572
I25647
sS'kernel.sched_domain.cpu26.domain1.busy_factor'
p1573
I32
sS'net.ipv4.tcp_ecn'
p1574
I2
sS'CONFIG_ZSTD_COMPRESS'
p1575
S'm'
sS'CONFIG_HWMON'
p1576
S'y'
sS'CONFIG_CNIC'
p1577
S'm'
sS'net.ipv4.neigh.default.anycast_delay'
p1578
I100
sS'CONFIG_MFD_DA9052_I2C'
p1579
S'y'
sS'kernel.sched_domain.cpu28.domain0.imbalance_pct'
p1580
I125
sS'CONFIG_LOG_BUF_SHIFT'
p1581
I18
sS'CONFIG_INTEL_IOMMU'
p1582
S'y'
sS'CONFIG_IRQ_DOMAIN_HIERARCHY'
p1583
S'y'
sS'CONFIG_NET_VENDOR_BROCADE'
p1584
S'y'
sS'CONFIG_ACPI_CUSTOM_DSDT_FILE'
p1585
S'""'
p1586
sS'net.ipv6.neigh.default.gc_thresh2'
p1587
I512
sS'net.ipv6.neigh.default.gc_thresh3'
p1588
I1024
sS'kernel.sched_domain.cpu35.domain0.name'
p1589
S'DIE'
p1590
sS'net.ipv6.neigh.default.gc_thresh1'
p1591
I128
sS'CONFIG_NET_VENDOR_NATSEMI'
p1592
S'y'
sS'kernel.sched_domain.cpu1.domain1.imbalance_pct'
p1593
I125
sS'CONFIG_NO_HZ_IDLE'
p1594
S'y'
sS'user.max_ipc_namespaces'
p1595
I257592
sS'kernel.sched_domain.cpu15.domain0.flags'
p1596
I4143
sS'kernel.sched_domain.cpu25.domain0.busy_factor'
p1597
I32
sS'CONFIG_CRYPTO_SHA256'
p1598
S'y'
sS'net.ipv4.neigh.ens3.unres_qlen_bytes'
p1599
I212992
sS'kernel.sched_domain.cpu41.domain1.max_interval'
p1600
I120
sS'vm.overcommit_memory'
p1601
I0
sS'CONFIG_MODULE_UNLOAD'
p1602
S'y'
sS'CONFIG_NLS_DEFAULT'
p1603
S'"utf8"'
p1604
sS'CONFIG_MFD_RC5T583'
p1605
S'y'
sS'CONFIG_BLK_DEBUG_FS'
p1606
S'y'
sS'CONFIG_BTRFS_FS_POSIX_ACL'
p1607
S'y'
sS'CONFIG_BLOCK_COMPAT'
p1608
S'y'
sS'kernel.sched_domain.cpu28.domain1.forkexec_idx'
p1609
I0
sS'CONFIG_GENERIC_PHY'
p1610
S'y'
sS'kernel.sched_domain.cpu48.domain0.max_interval'
p1611
I20
sS'net.ipv6.conf.lo.accept_source_route'
p1612
I0
sS'CONFIG_CHELSIO_LIB'
p1613
S'm'
sS'kernel.sched_domain.cpu18.domain0.cache_nice_tries'
p1614
I1
sS'kernel.sched_domain.cpu41.domain1.cache_nice_tries'
p1615
I2
sS'CONFIG_FB_VESA'
p1616
S'y'
sS'kernel.sched_domain.cpu4.domain1.max_interval'
p1617
I120
sS'CONFIG_X86_RESERVE_LOW'
p1618
I64
sS'kernel.modules_disabled'
p1619
I0
sS'kernel.sched_domain.cpu38.domain0.newidle_idx'
p1620
I0
sS'CONFIG_X86_NUMACHIP'
p1621
S'y'
sS'CONFIG_DMI_SCAN_MACHINE_NON_EFI_FALLBACK'
p1622
S'y'
sS'net.ipv6.ip_nonlocal_bind'
p1623
I0
sS'kernel.sched_domain.cpu23.domain0.forkexec_idx'
p1624
I0
sS'kernel.sched_domain.cpu0.domain1.imbalance_pct'
p1625
I125
sS'kernel.sched_domain.cpu16.domain0.busy_idx'
p1626
I2
sS'kernel.sched_domain.cpu8.domain1.cache_nice_tries'
p1627
I2
sS'CONFIG_INOTIFY_USER'
p1628
S'y'
sS'net.core.busy_poll'
p1629
I0
sS'CONFIG_UEFI_CPER'
p1630
S'y'
sS'CONFIG_RTC_DRV_CMOS'
p1631
S'y'
sS'CONFIG_TRANSPARENT_HUGE_PAGECACHE'
p1632
S'y'
sS'net.ipv4.neigh.lo.base_reachable_time_ms'
p1633
I30000
sS'kernel.sched_domain.cpu58.domain1.idle_idx'
p1634
I2
sS'net.ipv4.tcp_tw_reuse'
p1635
I0
sS'CONFIG_MOUSE_PS2_SENTELIC'
p1636
S'y'
sS'CONFIG_SERIAL_8250_LPSS'
p1637
S'y'
sS'kernel.sched_domain.cpu52.domain1.min_interval'
p1638
I60
sS'kernel.sched_domain.cpu42.domain1.idle_idx'
p1639
I2
sS'kernel.sched_domain.cpu12.domain1.name'
p1640
S'NUMA'
p1641
sS'CONFIG_RAPIDIO'
p1642
S'y'
sS'CONFIG_STAGING_MEDIA'
p1643
S'y'
sS'net.ipv4.conf.ens3.igmpv3_unsolicited_report_interval'
p1644
I1000
sS'kernel.sched_domain.cpu42.domain0.newidle_idx'
p1645
I0
sS'CONFIG_DEFCONFIG_LIST'
p1646
S'"/lib/modules/$UNAME_RELEASE/.config"'
p1647
sS'net.ipv4.ip_local_port_range'
p1648
S'32768\t60999'
p1649
sS'kernel.sched_domain.cpu2.domain0.min_interval'
p1650
I10
sS'kernel.sched_domain.cpu35.domain1.max_newidle_lb_cost'
p1651
I45458
sS'CONFIG_HUGETLB_PAGE'
p1652
S'y'
sS'CONFIG_PERF_EVENTS'
p1653
S'y'
sS'kernel.sched_domain.cpu41.domain0.forkexec_idx'
p1654
I0
sS'kernel.sched_domain.cpu32.domain1.wake_idx'
p1655
I0
sS'net.ipv4.neigh.lo.locktime'
p1656
I100
sS'CONFIG_SECURITY_TOMOYO_ACTIVATION_TRIGGER'
p1657
S'"/sbin/init"'
p1658
sS'kernel.sched_domain.cpu13.domain1.min_interval'
p1659
I60
sS'CONFIG_MODIFY_LDT_SYSCALL'
p1660
S'y'
sS'CONFIG_UCS2_STRING'
p1661
S'y'
sS'kernel.sched_domain.cpu10.domain1.wake_idx'
p1662
I0
sS'kernel.sched_domain.cpu6.domain1.newidle_idx'
p1663
I0
sS'CONFIG_SOUND'
p1664
S'm'
sS'CONFIG_ARCH_SPARSEMEM_DEFAULT'
p1665
S'y'
sS'CONFIG_IPV6_ROUTE_INFO'
p1666
S'y'
sS'CONFIG_GENERIC_EARLY_IOREMAP'
p1667
S'y'
sS'CONFIG_RAPIDIO_DMA_ENGINE'
p1668
S'y'
sS'CONFIG_MFD_SMSC'
p1669
S'y'
sS'kernel.sched_domain.cpu12.domain1.idle_idx'
p1670
I2
sS'CONFIG_SERIAL_8250_PCI'
p1671
S'y'
sS'CONFIG_PCIEASPM_DEFAULT'
p1672
S'y'
sS'kernel.sched_domain.cpu42.domain0.wake_idx'
p1673
I0
sS'kernel.sched_domain.cpu48.domain0.max_newidle_lb_cost'
p1674
I13114
sS'kernel.sched_domain.cpu51.domain0.newidle_idx'
p1675
I0
sS'CONFIG_SND_HDA_HWDEP'
p1676
S'y'
sS'CONFIG_SOFTLOCKUP_DETECTOR'
p1677
S'y'
sS'kernel.sched_domain.cpu14.domain1.wake_idx'
p1678
I0
sS'CONFIG_EARLY_PRINTK'
p1679
S'y'
sS'net.ipv6.conf.ens3.ndisc_notify'
p1680
I0
sS'net.ipv4.conf.all.proxy_arp_pvlan'
p1681
I0
sS'kernel'
p1682
S'4.14.0-rc8-stock'
p1683
sS'kernel.sched_domain.cpu51.domain1.min_interval'
p1684
I60
sS'kernel.sched_domain.cpu57.domain0.cache_nice_tries'
p1685
I1
sS'kernel.sched_domain.cpu3.domain0.max_interval'
p1686
I20
sS'kernel.sched_domain.cpu40.domain0.forkexec_idx'
p1687
I0
sS'CONFIG_DUMMY_CONSOLE_ROWS'
p1688
I25
sS'CONFIG_MOUSE_PS2_ELANTECH'
p1689
S'y'
sS'CONFIG_PCI_MMCONFIG'
p1690
S'y'
sS'CONFIG_KVM_MMIO'
p1691
S'y'
sS'net.ipv4.neigh.default.unres_qlen_bytes'
p1692
I212992
sS'kernel.sched_domain.cpu14.domain0.busy_factor'
p1693
I32
sS'CONFIG_PINCTRL_BAYTRAIL'
p1694
S'y'
sS'kernel.sched_domain.cpu44.domain1.min_interval'
p1695
I60
sS'kernel.sched_domain.cpu54.domain1.max_newidle_lb_cost'
p1696
I213469
sS'net.ipv4.icmp_errors_use_inbound_ifaddr'
p1697
I0
sS'net.ipv6.conf.all.addr_gen_mode'
p1698
I0
sS'kernel.sched_domain.cpu8.domain1.wake_idx'
p1699
I0
sS'kernel.sched_domain.cpu45.domain0.idle_idx'
p1700
I1
sS'CONFIG_HAVE_ACPI_APEI_NMI'
p1701
S'y'
sS'vm.page-cluster'
p1702
I3
sS'kernel.sched_domain.cpu9.domain1.newidle_idx'
p1703
I0
sS'CONFIG_BACKLIGHT_CLASS_DEVICE'
p1704
S'y'
sS'CONFIG_MOUSE_PS2_CYPRESS'
p1705
S'y'
sS'kernel.sched_rt_runtime_us'
p1706
I950000
sS'kernel.sched_domain.cpu29.domain0.busy_factor'
p1707
I32
sS'CONFIG_X86_CMOV'
p1708
S'y'
sS'CONFIG_ARCH_HAS_CACHE_LINE_SIZE'
p1709
S'y'
sS'net.ipv4.tcp_fastopen_blackhole_timeout_sec'
p1710
I3600
sS'CONFIG_SIGNATURE'
p1711
S'y'
sS'kernel.sched_domain.cpu14.domain1.imbalance_pct'
p1712
I125
sS'net.ipv4.conf.all.mc_forwarding'
p1713
I0
sS'kernel.sched_domain.cpu54.domain1.busy_idx'
p1714
I3
sS'CONFIG_PM_DEBUG'
p1715
S'y'
sS'net.ipv4.neigh.default.ucast_solicit'
p1716
I3
sS'kernel.pty.reserve'
p1717
I1024
sS'kernel.sched_domain.cpu33.domain1.wake_idx'
p1718
I0
sS'kernel.sched_domain.cpu6.domain0.flags'
p1719
I4143
sS'CONFIG_SERIO_I8042'
p1720
S'y'
sS'CONFIG_NET_VENDOR_NETRONOME'
p1721
S'y'
sS'CONFIG_BLK_DEV_LOOP'
p1722
S'y'
sS'vm.mmap_min_addr'
p1723
I65536
sS'kernel.sched_domain.cpu44.domain1.flags'
p1724
I25647
sS'kernel.sched_domain.cpu37.domain1.wake_idx'
p1725
I0
sS'CONFIG_HAVE_CMPXCHG_LOCAL'
p1726
S'y'
sS'net.ipv6.route.mtu_expires'
p1727
I600
sS'CONFIG_SND_USB'
p1728
S'y'
sS'CONFIG_DNOTIFY'
p1729
S'y'
sS'CONFIG_CMDLINE_PARTITION'
p1730
S'y'
sS'CONFIG_NETWORK_SECMARK'
p1731
S'y'
sS'CONFIG_SND_HDA_INTEL'
p1732
S'm'
sS'kernel.sched_domain.cpu38.domain1.max_newidle_lb_cost'
p1733
I21100
sS'net.ipv4.ping_group_range'
p1734
S'1\t0'
p1735
sS'CONFIG_PERF_EVENTS_INTEL_CSTATE'
p1736
S'y'
sS'kernel.sched_domain.cpu5.domain0.max_newidle_lb_cost'
p1737
I27395
sS'CONFIG_SERIAL_8250_CONSOLE'
p1738
S'y'
sS'kernel.sched_domain.cpu28.domain1.busy_idx'
p1739
I3
sS'CONFIG_PPP_MULTILINK'
p1740
S'y'
sS'CONFIG_BLK_DEV_FD'
p1741
S'm'
sS'kernel.sched_domain.cpu16.domain0.forkexec_idx'
p1742
I0
sS'CONFIG_SND_DRIVERS'
p1743
S'y'
sS'CONFIG_SCSI_CXGB4_ISCSI'
p1744
S'm'
sS'net.ipv6.conf.lo.regen_max_retry'
p1745
I3
sS'vm.watermark_scale_factor'
p1746
I10
sS'CONFIG_HAVE_UID16'
p1747
S'y'
sS'CONFIG_NET_VENDOR_WIZNET'
p1748
S'y'
sS'CONFIG_SCSI_ISCSI_ATTRS'
p1749
S'm'
sS'kernel.sched_domain.cpu14.domain0.max_interval'
p1750
I20
sS'kernel.sched_domain.cpu0.domain1.cache_nice_tries'
p1751
I2
sS'dev.parport.default.spintime'
p1752
I500
sS'kernel.sched_domain.cpu24.domain0.wake_idx'
p1753
I0
sS'CONFIG_IOSF_MBI'
p1754
S'y'
sS'net.ipv4.fib_multipath_hash_policy'
p1755
I0
sS'CONFIG_BLK_DEV_BSG'
p1756
S'y'
sS'CONFIG_INPUT_KEYBOARD'
p1757
S'y'
sS'kernel.sched_domain.cpu5.domain0.flags'
p1758
I4143
sS'kernel.sched_domain.cpu19.domain0.newidle_idx'
p1759
I0
sS'kernel.sched_domain.cpu55.domain1.cache_nice_tries'
p1760
I2
sS'CONFIG_MEMORY_HOTPLUG_SPARSE'
p1761
S'y'
sS'CONFIG_ZSWAP'
p1762
S'y'
sS'kernel.sched_domain.cpu42.domain1.imbalance_pct'
p1763
I125
sS'CONFIG_CRYPTO_AEAD2'
p1764
S'y'
sS'kernel.sched_domain.cpu10.domain1.max_newidle_lb_cost'
p1765
I81463
sS'CONFIG_PCIEASPM_DEBUG'
p1766
S'y'
sS'CONFIG_PROC_PID_CPUSET'
p1767
S'y'
sS'CONFIG_MEMORY_BALLOON'
p1768
S'y'
sS'CONFIG_INFINIBAND'
p1769
S'm'
sS'CONFIG_NET_VENDOR_SILAN'
p1770
S'y'
sS'kernel.sched_domain.cpu27.domain1.cache_nice_tries'
p1771
I2
sS'net.ipv4.conf.ens3.log_martians'
p1772
I0
sS'CONFIG_CC_STACKPROTECTOR_STRONG'
p1773
S'y'
sS'CONFIG_HOTPLUG_CPU'
p1774
S'y'
sS'net.ipv4.icmp_msgs_burst'
p1775
I50
sS'kernel.sched_domain.cpu0.domain0.imbalance_pct'
p1776
I125
sS'kernel.sched_domain.cpu27.domain0.busy_factor'
p1777
I32
sS'kernel.sched_domain.cpu22.domain1.busy_idx'
p1778
I3
sS'kernel.watchdog_thresh'
p1779
I10
sS'kernel.sched_domain.cpu3.domain0.min_interval'
p1780
I10
sS'kernel.sched_domain.cpu14.domain0.busy_idx'
p1781
I2
sS'CONFIG_THERMAL_WRITABLE_TRIPS'
p1782
S'y'
sS'CONFIG_TOUCHSCREEN_PROPERTIES'
p1783
S'y'
sS'vm.extfrag_threshold'
p1784
I500
sS'CONFIG_BLK_DEV_THROTTLING'
p1785
S'y'
sS'CONFIG_SWIOTLB'
p1786
S'y'
sS'CONFIG_SWAP'
p1787
S'y'
sS'kernel.osrelease'
p1788
S'4.14.0-rc8-stock'
p1789
sS'kernel.sched_domain.cpu8.domain0.busy_idx'
p1790
I2
sS'CONFIG_AMD_IOMMU'
p1791
S'y'
sS'CONFIG_PAGE_COUNTER'
p1792
S'y'
sS'CONFIG_ARCH_MIGHT_HAVE_ACPI_PDC'
p1793
S'y'
sS'kernel.sched_domain.cpu14.domain1.idle_idx'
p1794
I2
sS'kernel.sched_domain.cpu33.domain0.max_newidle_lb_cost'
p1795
I15328
sS'kernel.sched_domain.cpu14.domain0.forkexec_idx'
p1796
I0
sS'CONFIG_MFD_AS3711'
p1797
S'y'
sS'kernel.sched_domain.cpu30.domain1.cache_nice_tries'
p1798
I2
sS'CONFIG_IO_DELAY_TYPE_UDELAY'
p1799
I2
sS'CONFIG_CPU_FREQ_DEFAULT_GOV_PERFORMANCE'
p1800
S'y'
sS'CONFIG_HAVE_CMPXCHG_DOUBLE'
p1801
S'y'
sS'kernel.sched_domain.cpu27.domain0.max_interval'
p1802
I20
sS'kernel.sched_domain.cpu30.domain0.max_newidle_lb_cost'
p1803
I14110
sS'CONFIG_ATA_ACPI'
p1804
S'y'
sS'net.ipv4.conf.lo.route_localnet'
p1805
I0
sS'net.ipv6.ip6frag_high_thresh'
p1806
I4194304
sS'CONFIG_ARCH_SUPPORTS_ATOMIC_RMW'
p1807
S'y'
sS'CONFIG_ACPI_APEI'
p1808
S'y'
sS'kernel.sched_domain.cpu1.domain1.name'
p1809
S'NUMA'
p1810
sS'CONFIG_IRQ_DOMAIN'
p1811
S'y'
sS'net.ipv4.udp_wmem_min'
p1812
I4096
sS'CONFIG_FB_CFB_COPYAREA'
p1813
S'y'
sS'net.ipv4.tcp_invalid_ratelimit'
p1814
I500
sS'net.ipv4.neigh.ens3.proxy_qlen'
p1815
I64
sS'CONFIG_NET_VENDOR_AMAZON'
p1816
S'y'
sS'kernel.sched_domain.cpu33.domain0.busy_factor'
p1817
I32
sS'kernel.sched_domain.cpu2.domain0.busy_factor'
p1818
I32
sS'CONFIG_VT'
p1819
S'y'
sS'net.ipv4.conf.lo.arp_announce'
p1820
I0
sS'kernel.sched_domain.cpu17.domain0.cache_nice_tries'
p1821
I1
sS'CONFIG_HAVE_IDE'
p1822
S'y'
sS'kernel.sched_domain.cpu6.domain0.forkexec_idx'
p1823
I0
sS'CONFIG_NET_VENDOR_8390'
p1824
S'y'
sS'kernel.sched_domain.cpu40.domain0.busy_factor'
p1825
I32
sS'kernel.sched_domain.cpu25.domain1.busy_idx'
p1826
I3
sS'kernel.sched_domain.cpu24.domain1.newidle_idx'
p1827
I0
sS'fs.mqueue.queues_max'
p1828
I256
sS'net.ipv4.conf.ens3.rp_filter'
p1829
I1
sS'kernel.sched_domain.cpu43.domain1.cache_nice_tries'
p1830
I2
sS'CONFIG_IMA_TRUSTED_KEYRING'
p1831
S'y'
sS'CONFIG_HAVE_LIVEPATCH'
p1832
S'y'
sS'CONFIG_MTRR'
p1833
S'y'
sS'CONFIG_KGDB_LOW_LEVEL_TRAP'
p1834
S'y'
sS'CONFIG_HAVE_OPROFILE'
p1835
S'y'
sS'CONFIG_NVDIMM_DAX'
p1836
S'y'
sS'kernel.sched_domain.cpu58.domain1.busy_factor'
p1837
I32
sS'CONFIG_IMA_DEFAULT_HASH'
p1838
S'"sha1"'
p1839
sS'CONFIG_ACPI_THERMAL'
p1840
S'y'
sS'CONFIG_BLK_DEV_BSGLIB'
p1841
S'y'
sS'kernel.sched_domain.cpu52.domain1.newidle_idx'
p1842
I0
sS'CONFIG_USB_LED_TRIG'
p1843
S'y'
sS'CONFIG_EFI_MIXED'
p1844
S'y'
sS'kernel.sched_domain.cpu2.domain1.wake_idx'
p1845
I0
sS'net.ipv4.neigh.default.locktime'
p1846
I100
sS'CONFIG_DUMMY_CONSOLE_COLUMNS'
p1847
I80
sS'CONFIG_HPET_MMAP'
p1848
S'y'
sS'CONFIG_SERIAL_8250_RT288X'
p1849
S'y'
sS'kernel.sched_domain.cpu41.domain0.idle_idx'
p1850
I1
sS'kernel.sched_domain.cpu43.domain1.busy_factor'
p1851
I32
sS'kernel.sched_domain.cpu14.domain1.max_newidle_lb_cost'
p1852
I46661
sS'kernel.sched_domain.cpu8.domain0.cache_nice_tries'
p1853
I1
sS'kernel.sched_domain.cpu37.domain1.busy_factor'
p1854
I32
sS'CONFIG_BTRFS_FS'
p1855
S'm'
sS'CONFIG_DCACHE_WORD_ACCESS'
p1856
S'y'
sS'net.ipv6.conf.default.mtu'
p1857
I1280
sS'kernel.sched_domain.cpu7.domain0.idle_idx'
p1858
I1
sS'kernel.sched_domain.cpu22.domain0.imbalance_pct'
p1859
I125
sS'net.ipv4.conf.default.drop_gratuitous_arp'
p1860
I0
sS'kernel.sched_domain.cpu31.domain0.flags'
p1861
I4143
sS'kernel.sched_domain.cpu44.domain1.forkexec_idx'
p1862
I0
sS'CONFIG_SECURITY_TOMOYO_MAX_AUDIT_LOG'
p1863
I1024
sS'CONFIG_UPROBES'
p1864
S'y'
sS'kernel.sched_domain.cpu19.domain0.busy_factor'
p1865
I32
sS'CONFIG_ARCH_ENABLE_MEMORY_HOTPLUG'
p1866
S'y'
sS'kernel.sched_domain.cpu4.domain1.forkexec_idx'
p1867
I0
sS'CONFIG_FIRMWARE_MEMMAP'
p1868
S'y'
sS'kernel.sched_domain.cpu11.domain1.busy_factor'
p1869
I32
sS'CONFIG_IPV6_ROUTER_PREF'
p1870
S'y'
sS'kernel.sched_domain.cpu25.domain1.name'
p1871
S'NUMA'
p1872
sS'CONFIG_BOOT_PRINTK_DELAY'
p1873
S'y'
sS'CONFIG_TMPFS'
p1874
S'y'
sS'kernel.sched_domain.cpu32.domain1.flags'
p1875
I25647
sS'kernel.sched_domain.cpu14.domain1.name'
p1876
S'NUMA'
p1877
sS'kernel.sched_domain.cpu20.domain1.idle_idx'
p1878
I2
sS'CONFIG_X86_MCE_INTEL'
p1879
S'y'
sS'CONFIG_RTC_INTF_PROC'
p1880
S'y'
sS'kernel.sched_domain.cpu1.domain0.busy_idx'
p1881
I2
sS'CONFIG_MD_AUTODETECT'
p1882
S'y'
sS'net.ipv6.conf.lo.max_desync_factor'
p1883
I600
sS'kernel.sched_domain.cpu4.domain1.flags'
p1884
I25647
sS'kernel.sched_domain.cpu1.domain1.newidle_idx'
p1885
I0
sS'CONFIG_X86_ESPFIX64'
p1886
S'y'
sS'net.ipv4.neigh.lo.gc_stale_time'
p1887
I60
sS'CONFIG_NET_VENDOR_MICROCHIP'
p1888
S'y'
sS'kernel.traceoff_on_warning'
p1889
I0
sS'kernel.sched_domain.cpu2.domain1.busy_factor'
p1890
I32
sS'CONFIG_DW_DMAC_PCI'
p1891
S'y'
sS'net.ipv4.conf.all.proxy_arp'
p1892
I0
sS'kernel.sched_domain.cpu49.domain0.min_interval'
p1893
I10
sS'kernel.sched_domain.cpu15.domain0.max_newidle_lb_cost'
p1894
I14422
sS'CONFIG_ARCH_USE_BUILTIN_BSWAP'
p1895
S'y'
sS'CONFIG_PROC_SYSCTL'
p1896
S'y'
sS'fs.file-max'
p1897
I6578986
sS'net.ipv6.conf.ens3.ignore_routes_with_linkdown'
p1898
I0
sS'CONFIG_ACPI_APEI_GHES'
p1899
S'y'
sS'kernel.sched_domain.cpu11.domain0.busy_factor'
p1900
I32
sS'kernel.sched_domain.cpu19.domain0.wake_idx'
p1901
I0
sS'kernel.sched_domain.cpu26.domain1.idle_idx'
p1902
I2
sS'CONFIG_NET_VENDOR_NVIDIA'
p1903
S'y'
sS'kernel.sched_domain.cpu49.domain0.busy_factor'
p1904
I32
sS'kernel.sched_domain.cpu55.domain0.forkexec_idx'
p1905
I0
sS'net.ipv4.neigh.default.mcast_resolicit'
p1906
I0
sS'CONFIG_ACPI_HOTPLUG_CPU'
p1907
S'y'
sS'net.ipv4.conf.default.arp_announce'
p1908
I0
sS'kernel.sched_domain.cpu48.domain1.max_interval'
p1909
I120
sS'kernel.sched_domain.cpu11.domain0.max_interval'
p1910
I20
sS'CONFIG_FAT_FS'
p1911
S'y'
sS'CONFIG_IRQ_POLL'
p1912
S'y'
sS'net.ipv6.conf.all.hop_limit'
p1913
I64
sS'kernel.sched_domain.cpu55.domain1.busy_factor'
p1914
I32
sS'kernel.sched_domain.cpu51.domain1.idle_idx'
p1915
I2
sS'CONFIG_VT_CONSOLE_SLEEP'
p1916
S'y'
sS'CONFIG_THIN_ARCHIVES'
p1917
S'y'
sS'kernel.random.entropy_avail'
p1918
I540
sS'net.ipv4.conf.default.force_igmp_version'
p1919
I0
sS'kernel.sched_domain.cpu29.domain1.name'
p1920
S'NUMA'
p1921
sS'net.ipv4.ip_default_ttl'
p1922
I64
sS'CONFIG_CLEANCACHE'
p1923
S'y'
sS'kernel.nmi_watchdog'
p1924
I0
sS'kernel.sched_domain.cpu27.domain1.busy_idx'
p1925
I3
sS'CONFIG_PCI_PRI'
p1926
S'y'
sS'kernel.sched_domain.cpu9.domain1.flags'
p1927
I25647
sS'CONFIG_CRYPTO_ALGAPI'
p1928
S'y'
sS'kernel.random.boot_id'
p1929
S'165a1b16-34d0-4c85-8958-f0e4e4b80661'
p1930
sS'kernel.sched_domain.cpu41.domain0.max_newidle_lb_cost'
p1931
I19588
sS'net.ipv4.conf.lo.accept_local'
p1932
I0
sS'kernel.sched_domain.cpu2.domain0.max_interval'
p1933
I20
sS'CONFIG_QUOTA'
p1934
S'y'
sS'CONFIG_HAVE_IOREMAP_PROT'
p1935
S'y'
sS'net.ipv4.neigh.default.app_solicit'
p1936
I0
sS'kernel.sched_domain.cpu13.domain0.forkexec_idx'
p1937
I0
sS'kernel.sched_domain.cpu48.domain1.forkexec_idx'
p1938
I0
sS'CONFIG_CPUSETS'
p1939
S'y'
sS'kernel.sched_domain.cpu27.domain1.busy_factor'
p1940
I32
sS'kernel.sched_domain.cpu28.domain0.busy_factor'
p1941
I32
sS'CONFIG_CMA'
p1942
S'y'
sS'CONFIG_CPU_FREQ_GOV_CONSERVATIVE'
p1943
S'y'
sS'kernel.sched_domain.cpu43.domain1.name'
p1944
S'NUMA'
p1945
sS'CONFIG_KDB_KEYBOARD'
p1946
S'y'
sS'CONFIG_RADIX_TREE_MULTIORDER'
p1947
S'y'
sS'net.ipv4.conf.all.promote_secondaries'
p1948
I0
sS'CONFIG_LWTUNNEL'
p1949
S'y'
sS'CONFIG_ARCH_MIGHT_HAVE_PC_SERIO'
p1950
S'y'
sS'kernel.sched_domain.cpu7.domain1.flags'
p1951
I25647
sS'net.ipv4.neigh.lo.proxy_qlen'
p1952
I64
sS'kernel.sched_domain.cpu46.domain1.idle_idx'
p1953
I2
sS'kernel.sched_domain.cpu30.domain1.imbalance_pct'
p1954
I125
sS'CONFIG_PINCTRL_CHERRYVIEW'
p1955
S'y'
sS'CONFIG_FIB_RULES'
p1956
S'y'
sS'net.ipv4.neigh.lo.unres_qlen_bytes'
p1957
I212992
sS'CONFIG_COMPAT_BINFMT_ELF'
p1958
S'y'
sS'kernel.sched_domain.cpu57.domain1.cache_nice_tries'
p1959
I2
sS'kernel.sched_domain.cpu10.domain0.busy_idx'
p1960
I2
sS'CONFIG_HAVE_KPROBES'
p1961
S'y'
sS'kernel.sched_domain.cpu26.domain0.idle_idx'
p1962
I1
sS'CONFIG_VME_BUS'
p1963
S'y'
sS'CONFIG_STP'
p1964
S'm'
sS'CONFIG_FW_LOADER'
p1965
S'y'
sS'CONFIG_ATA_VERBOSE_ERROR'
p1966
S'y'
sS'CONFIG_IOSCHED_DEADLINE'
p1967
S'y'
sS'net.ipv6.conf.all.max_desync_factor'
p1968
I600
sS'kernel.sched_domain.cpu43.domain1.flags'
p1969
I25647
sS'kernel.sched_domain.cpu42.domain0.name'
p1970
S'DIE'
p1971
sS'kernel.sched_domain.cpu4.domain0.busy_factor'
p1972
I32
sS'CONFIG_KVM'
p1973
S'm'
sS'CONFIG_EXT4_USE_FOR_EXT2'
p1974
S'y'
sS'kernel.sched_domain.cpu22.domain1.cache_nice_tries'
p1975
I2
sS'kernel.sched_domain.cpu25.domain1.max_newidle_lb_cost'
p1976
I37868
sS'CONFIG_INPUT_MOUSEDEV_PSAUX'
p1977
S'y'
sS'kernel.sched_domain.cpu55.domain0.idle_idx'
p1978
I1
sS'kernel.sched_domain.cpu30.domain0.idle_idx'
p1979
I1
sS'CONFIG_ATH5K_PCI'
p1980
S'y'
sS'kernel.sched_domain.cpu6.domain1.forkexec_idx'
p1981
I0
sS'kernel.sched_domain.cpu31.domain0.imbalance_pct'
p1982
I125
sS'kernel.sched_domain.cpu13.domain1.newidle_idx'
p1983
I0
sS'kernel.sched_domain.cpu50.domain1.name'
p1984
S'NUMA'
p1985
sS'CONFIG_NET_CLS'
p1986
S'y'
sS'CONFIG_CALGARY_IOMMU_ENABLED_BY_DEFAULT'
p1987
S'y'
sS'CONFIG_ACPI_LEGACY_TABLES_LOOKUP'
p1988
S'y'
sS'kernel.sched_domain.cpu48.domain1.name'
p1989
S'NUMA'
p1990
sS'CONFIG_INPUT_TABLET'
p1991
S'y'
sS'CONFIG_ILLEGAL_POINTER_VALUE'
p1992
S'0xdead000000000000'
p1993
sS'kernel.sched_domain.cpu10.domain0.newidle_idx'
p1994
I0
sS'CONFIG_PRINTK'
p1995
S'y'
sS'net.ipv4.conf.default.promote_secondaries'
p1996
I0
sS'kernel.sched_domain.cpu20.domain0.busy_idx'
p1997
I2
sS'CONFIG_WLAN_VENDOR_MARVELL'
p1998
S'y'
sS'CONFIG_MINIX_SUBPARTITION'
p1999
S'y'
sS'kernel.sched_domain.cpu26.domain0.max_interval'
p2000
I20
sS'kernel.sched_domain.cpu20.domain1.cache_nice_tries'
p2001
I2
sS'kernel.sched_domain.cpu33.domain1.busy_idx'
p2002
I3
sS'kernel.sched_domain.cpu13.domain1.max_newidle_lb_cost'
p2003
I21346
sS'CONFIG_SYSTEM_TRUSTED_KEYRING'
p2004
S'y'
sS'kernel.sched_domain.cpu21.domain1.imbalance_pct'
p2005
I125
sS'kernel.sched_domain.cpu44.domain1.idle_idx'
p2006
I2
sS'CONFIG_FRAMEBUFFER_CONSOLE'
p2007
S'y'
sS'CONFIG_BRIDGE'
p2008
S'm'
sS'net.ipv6.conf.lo.accept_ra_pinfo'
p2009
I1
sS'kernel.sched_domain.cpu50.domain0.max_newidle_lb_cost'
p2010
I15766
sS'CONFIG_NET_VENDOR_AGERE'
p2011
S'y'
sS'CONFIG_ASYNC_XOR'
p2012
S'm'
sS'CONFIG_SND_HDA_PREALLOC_SIZE'
p2013
I64
sS'kernel.sched_domain.cpu57.domain1.forkexec_idx'
p2014
I0
sS'CONFIG_ACPI_HOTPLUG_IOAPIC'
p2015
S'y'
sS'kernel.sched_domain.cpu55.domain0.busy_idx'
p2016
I2
sS'kernel.sched_domain.cpu1.domain0.flags'
p2017
I4143
sS'kernel.sched_domain.cpu44.domain0.max_newidle_lb_cost'
p2018
I152025
sS'kernel.sched_domain.cpu52.domain1.name'
p2019
S'NUMA'
p2020
sS'CONFIG_TRACE_IRQFLAGS_SUPPORT'
p2021
S'y'
sS'CONFIG_PM_SLEEP'
p2022
S'y'
sS'CONFIG_KEYBOARD_ATKBD'
p2023
S'y'
sS'net.core.default_qdisc'
p2024
S'pfifo_fast'
p2025
sS'kernel.sched_domain.cpu19.domain1.cache_nice_tries'
p2026
I2
sS'kernel.sched_domain.cpu14.domain0.min_interval'
p2027
I10
sS'CONFIG_VIRTIO_MMIO'
p2028
S'y'
sS'kernel.sched_domain.cpu6.domain0.wake_idx'
p2029
I0
sS'kernel.sched_domain.cpu12.domain1.wake_idx'
p2030
I0
sS'kernel.sched_domain.cpu32.domain1.cache_nice_tries'
p2031
I2
sS'CONFIG_ARCH_SUPPORTS_DEFERRED_STRUCT_PAGE_INIT'
p2032
S'y'
sS'kernel.sched_domain.cpu2.domain0.name'
p2033
S'DIE'
p2034
sS'kernel.sched_domain.cpu21.domain1.max_newidle_lb_cost'
p2035
I20247
sS'kernel.sched_domain.cpu26.domain0.name'
p2036
S'DIE'
p2037
sS'kernel.sched_domain.cpu40.domain0.idle_idx'
p2038
I1
sS'CONFIG_PROC_FS'
p2039
S'y'
sS'kernel.sched_domain.cpu25.domain0.wake_idx'
p2040
I0
sS'kernel.sched_domain.cpu14.domain0.wake_idx'
p2041
I0
sS'kernel.sched_domain.cpu5.domain0.idle_idx'
p2042
I1
sS'CONFIG_NET_VENDOR_ROCKER'
p2043
S'y'
sS'kernel.sched_domain.cpu57.domain0.max_interval'
p2044
I20
sS'kernel.sched_domain.cpu37.domain1.idle_idx'
p2045
I2
sS'kernel.sched_domain.cpu23.domain1.flags'
p2046
I25647
sS'CONFIG_BUG'
p2047
S'y'
sS'kernel.sched_domain.cpu42.domain1.min_interval'
p2048
I60
sS'CONFIG_CPU_FREQ_GOV_COMMON'
p2049
S'y'
sS'CONFIG_PHYSICAL_ALIGN'
p2050
S'0x1000000'
p2051
sS'kernel.sched_domain.cpu11.domain1.cache_nice_tries'
p2052
I2
sS'kernel.dmesg_restrict'
p2053
I0
sS'CONFIG_HAVE_ARCH_VMAP_STACK'
p2054
S'y'
sS'kernel.sched_domain.cpu9.domain0.name'
p2055
S'DIE'
p2056
sS'kernel.sched_domain.cpu9.domain1.max_newidle_lb_cost'
p2057
I48164
sS'kernel.sched_domain.cpu35.domain0.wake_idx'
p2058
I0
sS'CONFIG_GPIO_TPS6586X'
p2059
S'y'
sS'CONFIG_PSTORE_ZLIB_COMPRESS'
p2060
S'y'
sS'CONFIG_CRYPTO_BLKCIPHER2'
p2061
S'y'
sS'CONFIG_GENERIC_IRQ_EFFECTIVE_AFF_MASK'
p2062
S'y'
sS'CONFIG_CHR_DEV_SG'
p2063
S'y'
sS'kernel.sched_domain.cpu54.domain1.max_interval'
p2064
I120
sS'kernel.sched_domain.cpu30.domain1.idle_idx'
p2065
I2
sS'CONFIG_ARCH_HAS_PKEYS'
p2066
S'y'
sS'CONFIG_SIGNALFD'
p2067
S'y'
sS'kernel.sched_domain.cpu42.domain0.cache_nice_tries'
p2068
I1
sS'CONFIG_MD_MULTIPATH'
p2069
S'm'
sS'net.ipv4.neigh.default.mcast_solicit'
p2070
I3
sS'kernel.sched_domain.cpu13.domain0.idle_idx'
p2071
I1
sS'CONFIG_SYSTEM_DATA_VERIFICATION'
p2072
S'y'
sS'CONFIG_ALLOW_DEV_COREDUMP'
p2073
S'y'
sS'CONFIG_RTC_MC146818_LIB'
p2074
S'y'
sS'kernel.sched_domain.cpu5.domain0.forkexec_idx'
p2075
I0
sS'CONFIG_STACKTRACE_SUPPORT'
p2076
S'y'
sS'kernel.sched_domain.cpu8.domain0.flags'
p2077
I4143
sS'kernel.sched_domain.cpu27.domain1.flags'
p2078
I25647
sS'CONFIG_INTEL_GTT'
p2079
S'y'
sS'CONFIG_THERMAL_EMULATION'
p2080
S'y'
sS'CONFIG_HAVE_DMA_CONTIGUOUS'
p2081
S'y'
sS'kernel.sched_domain.cpu18.domain1.busy_factor'
p2082
I32
sS'net.netfilter.nf_log.5'
p2083
S'NONE'
p2084
sS'net.netfilter.nf_log.4'
p2085
S'NONE'
p2086
sS'net.netfilter.nf_log.7'
p2087
S'NONE'
p2088
sS'net.netfilter.nf_log.6'
p2089
S'NONE'
p2090
sS'net.netfilter.nf_log.1'
p2091
S'NONE'
p2092
sS'net.netfilter.nf_log.0'
p2093
S'NONE'
p2094
sS'net.netfilter.nf_log.3'
p2095
S'NONE'
p2096
sS'net.netfilter.nf_log.2'
p2097
S'NONE'
p2098
sS'kernel.sched_domain.cpu9.domain1.busy_idx'
p2099
I3
sS'kernel.sched_domain.cpu53.domain1.max_newidle_lb_cost'
p2100
I213217
sS'net.netfilter.nf_log.9'
p2101
S'NONE'
p2102
sS'net.netfilter.nf_log.8'
p2103
S'NONE'
p2104
sS'kernel.sched_domain.cpu54.domain0.max_interval'
p2105
I20
sS'net.ipv4.conf.ens3.arp_announce'
p2106
I0
sS'kernel.real-root-dev'
p2107
I0
sS'kernel.sched_domain.cpu49.domain1.wake_idx'
p2108
I0
sS'kernel.sched_domain.cpu50.domain1.forkexec_idx'
p2109
I0
sS'net.ipv6.conf.all.accept_source_route'
p2110
I0
sS'kernel.sched_domain.cpu38.domain0.forkexec_idx'
p2111
I0
sS'CONFIG_REGMAP_SPI'
p2112
S'y'
sS'CONFIG_HAVE_KERNEL_LZO'
p2113
S'y'
sS'CONFIG_NLATTR'
p2114
S'y'
sS'kernel.sched_domain.cpu4.domain0.forkexec_idx'
p2115
I0
sS'kernel.sched_domain.cpu9.domain1.cache_nice_tries'
p2116
I2
sS'CONFIG_IP_FIB_TRIE_STATS'
p2117
S'y'
sS'CONFIG_DEVFREQ_GOV_PERFORMANCE'
p2118
S'y'
sS'kernel.sched_domain.cpu20.domain0.busy_factor'
p2119
I32
sS'CONFIG_IPV6_MULTIPLE_TABLES'
p2120
S'y'
sS'kernel.sched_domain.cpu56.domain1.wake_idx'
p2121
I0
sS'kernel.sched_domain.cpu22.domain1.name'
p2122
S'NUMA'
p2123
sS'kernel.sched_domain.cpu3.domain0.newidle_idx'
p2124
I0
sS'kernel.sched_domain.cpu16.domain1.min_interval'
p2125
I60
sS'kernel.sched_domain.cpu47.domain1.imbalance_pct'
p2126
I125
sS'CONFIG_QUOTACTL'
p2127
S'y'
sS'kernel.sched_domain.cpu23.domain0.busy_idx'
p2128
I2
sS'kernel.sched_domain.cpu33.domain1.forkexec_idx'
p2129
I0
sS'CONFIG_ARCH_WANT_BATCHED_UNMAP_TLB_FLUSH'
p2130
S'y'
sS'CONFIG_SCSI_QLA_ISCSI'
p2131
S'm'
sS'net.ipv6.conf.lo.temp_valid_lft'
p2132
I604800
sS'CONFIG_RTC_LIB'
p2133
S'y'
sS'kernel.pty.max'
p2134
I4096
sS'CONFIG_ISCSI_BOOT_SYSFS'
p2135
S'm'
sS'CONFIG_HAVE_KERNEL_LZ4'
p2136
S'y'
sS'kernel.sched_domain.cpu36.domain1.cache_nice_tries'
p2137
I2
sS'kernel.sched_domain.cpu49.domain0.busy_idx'
p2138
I2
sS'kernel.sched_domain.cpu39.domain1.wake_idx'
p2139
I0
sS'net.ipv6.conf.default.use_oif_addrs_only'
p2140
I0
sS'kernel.sched_domain.cpu4.domain1.busy_factor'
p2141
I32
sS'vm.lowmem_reserve_ratio'
p2142
S'256\t256\t32\t1'
p2143
sS'kernel.sched_domain.cpu50.domain0.idle_idx'
p2144
I1
sS'kernel.sched_domain.cpu0.domain0.newidle_idx'
p2145
I0
sS'kernel.sched_domain.cpu27.domain0.name'
p2146
S'DIE'
p2147
sS'net.ipv6.neigh.lo.base_reachable_time_ms'
p2148
I30000
sS'CONFIG_MODULE_SIG_ALL'
p2149
S'y'
sS'kernel.sched_domain.cpu42.domain1.name'
p2150
S'NUMA'
p2151
sS'kernel.sched_domain.cpu43.domain1.newidle_idx'
p2152
I0
sS'kernel.sched_domain.cpu0.domain1.name'
p2153
S'NUMA'
p2154
sS'kernel.sched_domain.cpu54.domain1.wake_idx'
p2155
I0
sS'kernel.sched_domain.cpu53.domain1.max_interval'
p2156
I120
sS'net.ipv4.cipso_rbm_strictvalid'
p2157
I1
sS'CONFIG_HAVE_CLK_PREPARE'
p2158
S'y'
sS'kernel.sched_domain.cpu47.domain0.flags'
p2159
I4143
sS'kernel.sched_domain.cpu8.domain1.newidle_idx'
p2160
I0
sS'net.ipv6.conf.ens3.router_solicitation_interval'
p2161
I4
sS'kernel.sched_domain.cpu43.domain0.name'
p2162
S'DIE'
p2163
sS'kernel.sched_domain.cpu22.domain0.forkexec_idx'
p2164
I0
sS'kernel.sched_domain.cpu27.domain1.newidle_idx'
p2165
I0
sS'kernel.sched_domain.cpu32.domain1.forkexec_idx'
p2166
I0
sS'kernel.sched_domain.cpu15.domain0.min_interval'
p2167
I10
sS'CONFIG_POSIX_MQUEUE'
p2168
S'y'
sS'CONFIG_PCI_REALLOC_ENABLE_AUTO'
p2169
S'y'
sS'CONFIG_MDIO_BUS'
p2170
S'y'
sS'CONFIG_KALLSYMS_ALL'
p2171
S'y'
sS'net.ipv4.conf.lo.igmpv3_unsolicited_report_interval'
p2172
I1000
sS'CONFIG_ANON_INODES'
p2173
S'y'
sS'kernel.sched_domain.cpu39.domain0.min_interval'
p2174
I10
sS'kernel.sched_domain.cpu39.domain1.busy_factor'
p2175
I32
sS'kernel.sched_domain.cpu5.domain1.max_newidle_lb_cost'
p2176
I19036
sS'kernel.shmmni'
p2177
I4096
sS'CONFIG_ATARI_PARTITION'
p2178
S'y'
sS'kernel.sched_domain.cpu8.domain0.min_interval'
p2179
I10
sS'kernel.sched_domain.cpu29.domain0.name'
p2180
S'DIE'
p2181
sS'CONFIG_SECURITY_SELINUX_CHECKREQPROT_VALUE'
p2182
I1
sS'net.ipv4.conf.ens3.proxy_arp'
p2183
I0
sS'CONFIG_NETLABEL'
p2184
S'y'
sS'kernel.sched_domain.cpu40.domain1.flags'
p2185
I25647
sS'CONFIG_CRYPTO_CRCT10DIF'
p2186
S'y'
sS'kernel.sched_domain.cpu10.domain1.max_interval'
p2187
I120
sS'kernel.sched_domain.cpu19.domain1.min_interval'
p2188
I60
sS'kernel.sched_domain.cpu20.domain0.imbalance_pct'
p2189
I125
sS'kernel.sched_domain.cpu45.domain0.newidle_idx'
p2190
I0
sS'kernel.sched_domain.cpu38.domain1.forkexec_idx'
p2191
I0
sS'kernel.sched_domain.cpu45.domain1.max_interval'
p2192
I120
sS'CONFIG_ARCH_HAS_KCOV'
p2193
S'y'
sS'net.ipv6.conf.lo.accept_ra_rtr_pref'
p2194
I1
sS'CONFIG_RAPIDIO_DISC_TIMEOUT'
p2195
I30
sS'CONFIG_GPIO_SX150X'
p2196
S'y'
sS'kernel.sched_domain.cpu17.domain0.imbalance_pct'
p2197
I125
sS'net.ipv6.conf.ens3.enhanced_dad'
p2198
I1
sS'net.ipv6.conf.all.router_probe_interval'
p2199
I60
sS'CONFIG_BSD_PROCESS_ACCT'
p2200
S'y'
sS'kernel.sched_domain.cpu37.domain1.max_interval'
p2201
I120
sS'kernel.sched_domain.cpu33.domain1.busy_factor'
p2202
I32
sS'CONFIG_SPI_MASTER'
p2203
S'y'
sS'kernel.sched_domain.cpu17.domain1.busy_factor'
p2204
I32
sS'kernel.sched_domain.cpu22.domain0.idle_idx'
p2205
I1
sS'kernel.sched_domain.cpu2.domain1.idle_idx'
p2206
I2
sS'CONFIG_KALLSYMS_ABSOLUTE_PERCPU'
p2207
S'y'
sS'kernel.sched_domain.cpu6.domain0.name'
p2208
S'DIE'
p2209
sS'CONFIG_INTEL_IOMMU_FLOPPY_WA'
p2210
S'y'
sS'net.ipv6.conf.all.temp_valid_lft'
p2211
I604800
sS'CONFIG_LZ4_DECOMPRESS'
p2212
S'y'
sS'CONFIG_CRYPTO_MANAGER'
p2213
S'y'
sS'kernel.sched_domain.cpu12.domain1.forkexec_idx'
p2214
I0
sS'net.ipv4.conf.default.drop_unicast_in_l2_multicast'
p2215
I0
sS'CONFIG_SND_PROC_FS'
p2216
S'y'
sS'net.ipv6.conf.ens3.hop_limit'
p2217
I64
sS'CONFIG_VGA_CONSOLE'
p2218
S'y'
sS'kernel.sched_domain.cpu59.domain1.busy_factor'
p2219
I32
sS'CONFIG_ECRYPT_FS'
p2220
S'y'
sS'CONFIG_QUOTACTL_COMPAT'
p2221
S'y'
sS'kernel.sched_domain.cpu49.domain1.imbalance_pct'
p2222
I125
sS'vm.oom_kill_allocating_task'
p2223
I0
sS'kernel.sched_domain.cpu8.domain0.idle_idx'
p2224
I1
sS'CONFIG_X86_MCE_THRESHOLD'
p2225
S'y'
sS'CONFIG_CGROUP_PIDS'
p2226
S'y'
sS'kernel.sched_domain.cpu33.domain0.idle_idx'
p2227
I1
sS'CONFIG_LOCKUP_DETECTOR'
p2228
S'y'
sS'kernel.sched_domain.cpu41.domain0.busy_factor'
p2229
I32
sS'net.ipv4.conf.ens3.accept_local'
p2230
I0
sS'net.ipv4.neigh.ens3.gc_stale_time'
p2231
I60
sS'CONFIG_SND_TIMER'
p2232
S'm'
sS'kernel.sched_domain.cpu40.domain0.busy_idx'
p2233
I2
sS'CONFIG_CRYPTO_AES_X86_64'
p2234
S'm'
sS'net.ipv6.neigh.lo.gc_stale_time'
p2235
I60
sS'CONFIG_HID_PID'
p2236
S'y'
sS'CONFIG_NET_VENDOR_SAMSUNG'
p2237
S'y'
sS'CONFIG_SPLIT_PTLOCK_CPUS'
p2238
I4
sS'net.ipv4.tcp_min_tso_segs'
p2239
I2
sS'dev.cdrom.autoclose'
p2240
I1
sS'CONFIG_LIBCRC32C'
p2241
S'm'
sS'kernel.sched_domain.cpu26.domain0.imbalance_pct'
p2242
I125
sS'kernel.sched_domain.cpu36.domain1.busy_idx'
p2243
I3
sS'kernel.sched_domain.cpu33.domain1.newidle_idx'
p2244
I0
sS'CONFIG_WLAN_VENDOR_BROADCOM'
p2245
S'y'
sS'CONFIG_EDAC_SUPPORT'
p2246
S'y'
sS'CONFIG_HAVE_ARCH_COMPAT_MMAP_BASES'
p2247
S'y'
sS'CONFIG_TASK_DELAY_ACCT'
p2248
S'y'
sS'net.ipv4.cipso_rbm_optfmt'
p2249
I0
sS'CONFIG_BRIDGE_EBT_T_FILTER'
p2250
S'm'
sS'kernel.sched_domain.cpu59.domain0.busy_idx'
p2251
I2
sS'net.ipv4.route.gc_interval'
p2252
I60
sS'kernel.sched_domain.cpu26.domain0.flags'
p2253
I4143
sS'kernel.sched_domain.cpu34.domain1.imbalance_pct'
p2254
I125
sS'kernel.sched_domain.cpu20.domain0.flags'
p2255
I4143
sS'kernel.sched_domain.cpu44.domain0.busy_factor'
p2256
I32
sS'CONFIG_DMA_ACPI'
p2257
S'y'
sS'kernel.kptr_restrict'
p2258
I1
sS'kernel.sched_domain.cpu43.domain1.max_newidle_lb_cost'
p2259
I131056
sS'CONFIG_INPUT_MOUSEDEV'
p2260
S'y'
sS'CONFIG_X86_DIRECT_GBPAGES'
p2261
S'y'
sS'kernel.sched_domain.cpu28.domain1.busy_factor'
p2262
I32
sS'net.ipv6.conf.ens3.accept_redirects'
p2263
I1
sS'vm.compact_unevictable_allowed'
p2264
I1
sS'kernel.sched_domain.cpu59.domain1.wake_idx'
p2265
I0
sS'kernel.sched_domain.cpu18.domain0.busy_factor'
p2266
I32
sS'CONFIG_ACPI_CPU_FREQ_PSS'
p2267
S'y'
sS'kernel.sched_domain.cpu41.domain0.cache_nice_tries'
p2268
I1
sS'CONFIG_X86_VSYSCALL_EMULATION'
p2269
S'y'
sS'net.ipv6.conf.all.use_tempaddr'
p2270
I2
sS'net.ipv4.neigh.lo.anycast_delay'
p2271
I100
sS'CONFIG_NO_HZ_COMMON'
p2272
S'y'
sS'CONFIG_I2C_DESIGNWARE_BAYTRAIL'
p2273
S'y'
sS'kernel.sched_domain.cpu31.domain0.busy_idx'
p2274
I2
sS'kernel.sched_domain.cpu37.domain1.newidle_idx'
p2275
I0
sS'CONFIG_FILE_LOCKING'
p2276
S'y'
sS'net.ipv4.conf.ens3.force_igmp_version'
p2277
I0
sS'CONFIG_FTRACE'
p2278
S'y'
sS'CONFIG_MFD_WM831X_I2C'
p2279
S'y'
sS'kernel.sched_domain.cpu28.domain1.min_interval'
p2280
I60
sS'CONFIG_DEVFREQ_GOV_USERSPACE'
p2281
S'y'
sS'CONFIG_AUDIT_TREE'
p2282
S'y'
sS'kernel.sched_domain.cpu47.domain0.busy_idx'
p2283
I2
sS'kernel.sched_domain.cpu59.domain0.max_interval'
p2284
I20
sS'CONFIG_USB_OHCI_HCD_PCI'
p2285
S'y'
sS'kernel.sched_domain.cpu36.domain0.name'
p2286
S'DIE'
p2287
sS'net.ipv4.route.min_adv_mss'
p2288
I256
sS'CONFIG_HAVE_KVM_IRQFD'
p2289
S'y'
sS'CONFIG_ARCH_DEFCONFIG'
p2290
S'"arch/x86/configs/x86_64_defconfig"'
p2291
sS'kernel.sched_domain.cpu3.domain1.forkexec_idx'
p2292
I0
sS'CONFIG_NET_VENDOR_DLINK'
p2293
S'y'
sS'net.ipv4.tcp_thin_linear_timeouts'
p2294
I0
sS'CONFIG_CRYPTO_ALGAPI2'
p2295
S'y'
sS'CONFIG_NUMA'
p2296
S'y'
sS'kernel.sched_domain.cpu30.domain1.max_interval'
p2297
I120
sS'kernel.sched_domain.cpu10.domain1.flags'
p2298
I25647
sS'CONFIG_LZO_COMPRESS'
p2299
S'y'
sS'CONFIG_INTEL_TXT'
p2300
S'y'
sS'CONFIG_KVM_GENERIC_DIRTYLOG_READ_PROTECT'
p2301
S'y'
sS'kernel.sched_domain.cpu58.domain0.imbalance_pct'
p2302
I125
sS'kernel.sched_domain.cpu54.domain0.cache_nice_tries'
p2303
I1
sS'kernel.sched_domain.cpu26.domain1.newidle_idx'
p2304
I0
sS'kernel.sched_domain.cpu12.domain0.cache_nice_tries'
p2305
I1
sS'CONFIG_QUEUED_SPINLOCKS'
p2306
S'y'
sS'kernel.sched_domain.cpu11.domain0.min_interval'
p2307
I10
sS'kernel.sched_domain.cpu43.domain0.busy_factor'
p2308
I32
sS'CONFIG_ATA_SFF'
p2309
S'y'
sS'CONFIG_NVMEM'
p2310
S'y'
sS'CONFIG_SERIO_RAW'
p2311
S'm'
sS'CONFIG_HAVE_KVM_IRQ_ROUTING'
p2312
S'y'
sS'dev.mac_hid.mouse_button3_keycode'
p2313
I100
sS'CONFIG_GENERIC_BUG'
p2314
S'y'
sS'CONFIG_BLK_DEV_IO_TRACE'
p2315
S'y'
sS'kernel.sched_domain.cpu47.domain1.max_interval'
p2316
I120
sS'net.ipv4.conf.ens3.drop_gratuitous_arp'
p2317
I0
sS'CONFIG_MUTEX_SPIN_ON_OWNER'
p2318
S'y'
sS'CONFIG_MEMORY_ISOLATION'
p2319
S'y'
sS'net.ipv6.conf.all.accept_ra_pinfo'
p2320
I1
sS'kernel.shm_next_id'
p2321
S'-1'
p2322
sS'kernel.sched_domain.cpu22.domain1.imbalance_pct'
p2323
I125
sS'CONFIG_NET_VENDOR_AURORA'
p2324
S'y'
sS'CONFIG_LOCKDEP_SUPPORT'
p2325
S'y'
sS'kernel.sched_domain.cpu56.domain1.min_interval'
p2326
I60
sS'net.ipv4.conf.ens3.ignore_routes_with_linkdown'
p2327
I0
sS'kernel.sched_domain.cpu34.domain0.flags'
p2328
I4143
sS'net.ipv6.conf.ens3.accept_ra'
p2329
I1
sS'kernel.sched_domain.cpu1.domain1.max_newidle_lb_cost'
p2330
I14215
sS'kernel.sched_domain.cpu25.domain0.newidle_idx'
p2331
I0
sS'net.ipv6.conf.all.mtu'
p2332
I1280
sS'kernel.sched_domain.cpu5.domain0.busy_factor'
p2333
I32
sS'net.ipv6.conf.default.mldv2_unsolicited_report_interval'
p2334
I1000
sS'CONFIG_SATA_PMP'
p2335
S'y'
sS'CONFIG_ZONE_DEVICE'
p2336
S'y'
sS'CONFIG_VIRTUALIZATION'
p2337
S'y'
sS'kernel.sched_domain.cpu32.domain0.imbalance_pct'
p2338
I125
sS'net.ipv6.route.gc_min_interval'
p2339
I0
sS'kernel.sched_domain.cpu7.domain0.cache_nice_tries'
p2340
I1
sS'kernel.sched_domain.cpu6.domain1.max_interval'
p2341
I120
sS'CONFIG_HAVE_VIRT_CPU_ACCOUNTING_GEN'
p2342
S'y'
sS'CONFIG_MOUSE_PS2_BYD'
p2343
S'y'
sS'kernel.sched_domain.cpu36.domain1.min_interval'
p2344
I60
sS'CONFIG_HAVE_ARCH_TRANSPARENT_HUGEPAGE'
p2345
S'y'
sS'CONFIG_PROC_PAGE_MONITOR'
p2346
S'y'
sS'dev.hpet.max-user-freq'
p2347
I64
sS'kernel.sched_domain.cpu16.domain0.max_newidle_lb_cost'
p2348
I13088
sS'net.ipv4.route.gc_thresh'
p2349
S'-1'
p2350
sS'CONFIG_THERMAL_GOV_POWER_ALLOCATOR'
p2351
S'y'
sS'CONFIG_HAVE_CLK'
p2352
S'y'
sS'kernel.sched_domain.cpu44.domain1.busy_factor'
p2353
I32
sS'dev.mac_hid.mouse_button_emulation'
p2354
I0
sS'kernel.sched_domain.cpu52.domain1.cache_nice_tries'
p2355
I2
sS'CONFIG_SND_DMA_SGBUF'
p2356
S'y'
sS'CONFIG_ATA_GENERIC'
p2357
S'y'
sS'CONFIG_MOUSE_PS2_TRACKPOINT'
p2358
S'y'
sS'kernel.sched_domain.cpu56.domain0.max_newidle_lb_cost'
p2359
I315889
sS'kernel.sched_domain.cpu50.domain1.idle_idx'
p2360
I2
sS'CONFIG_STRICT_DEVMEM'
p2361
S'y'
sS'CONFIG_ARCH_ENABLE_MEMORY_HOTREMOVE'
p2362
S'y'
sS'kernel.sched_domain.cpu29.domain1.imbalance_pct'
p2363
I125
sS'net.ipv4.conf.all.medium_id'
p2364
I0
sS'CONFIG_UIO'
p2365
S'm'
sS'net.ipv6.conf.lo.use_tempaddr'
p2366
S'-1'
p2367
sS'kernel.sched_domain.cpu7.domain1.idle_idx'
p2368
I2
sS'kernel.sched_domain.cpu9.domain0.cache_nice_tries'
p2369
I1
sS'kernel.sched_domain.cpu5.domain1.cache_nice_tries'
p2370
I2
sS'CONFIG_DMA_ENGINE'
p2371
S'y'
sS'kernel.sched_domain.cpu22.domain1.min_interval'
p2372
I60
sS'kernel.sched_domain.cpu52.domain0.busy_idx'
p2373
I2
sS'net.ipv6.conf.all.mldv2_unsolicited_report_interval'
p2374
I1000
sS'CONFIG_OUTPUT_FORMAT'
p2375
S'"elf64-x86-64"'
p2376
sS'CONFIG_X86_X2APIC'
p2377
S'y'
sS'CONFIG_CGROUP_BPF'
p2378
S'y'
sS'CONFIG_ARCH_ENABLE_SPLIT_PMD_PTLOCK'
p2379
S'y'
sS'CONFIG_NET_CLS_ACT'
p2380
S'y'
sS'CONFIG_DECOMPRESS_LZO'
p2381
S'y'
sS'net.ipv4.conf.default.src_valid_mark'
p2382
I0
sS'kernel.sched_domain.cpu16.domain0.newidle_idx'
p2383
I0
sS'CONFIG_NETFILTER_XTABLES'
p2384
S'm'
sS'kernel.sched_domain.cpu20.domain1.busy_idx'
p2385
I3
sS'CONFIG_DEBUG_INFO_DWARF4'
p2386
S'y'
sS'kernel.poweroff_cmd'
p2387
S'/sbin/poweroff'
p2388
sS'CONFIG_SCSI_BNX2_ISCSI'
p2389
S'm'
sS'net.ipv4.conf.default.log_martians'
p2390
I0
sS'CONFIG_FREEZER'
p2391
S'y'
sS'kernel.sched_domain.cpu15.domain0.cache_nice_tries'
p2392
I1
sS'kernel.sched_domain.cpu51.domain0.wake_idx'
p2393
I0
sS'kernel.sched_domain.cpu40.domain1.max_interval'
p2394
I120
sS'kernel.sched_domain.cpu44.domain1.imbalance_pct'
p2395
I125
sS'CONFIG_FB'
p2396
S'y'
sS'kernel.sched_domain.cpu3.domain1.max_interval'
p2397
I120
sS'CONFIG_USE_PERCPU_NUMA_NODE_ID'
p2398
S'y'
sS'kernel.sched_domain.cpu24.domain1.max_newidle_lb_cost'
p2399
I66630
sS'CONFIG_SLUB_DEBUG'
p2400
S'y'
sS'kernel.sched_domain.cpu57.domain0.max_newidle_lb_cost'
p2401
I21842
sS'CONFIG_MFD_DA9055'
p2402
S'y'
sS'CONFIG_CGROUP_NET_PRIO'
p2403
S'y'
sS'net.ipv6.neigh.default.mcast_solicit'
p2404
I3
sS'CONFIG_GPIO_LYNXPOINT'
p2405
S'y'
sS'CONFIG_IPC_NS'
p2406
S'y'
sS'CONFIG_PRINTK_TIME'
p2407
S'y'
sS'CONFIG_PCI_MSI_IRQ_DOMAIN'
p2408
S'y'
sS'CONFIG_HAVE_C_RECORDMCOUNT'
p2409
S'y'
sS'net.ipv6.neigh.default.anycast_delay'
p2410
I100
sS'CONFIG_MFD_TPS6586X'
p2411
S'y'
sS'net.ipv6.conf.lo.seg6_enabled'
p2412
I0
sS'kernel.sched_domain.cpu11.domain1.max_interval'
p2413
I120
sS'net.ipv4.conf.ens3.disable_policy'
p2414
I0
sS'CONFIG_PCC'
p2415
S'y'
sS'CONFIG_REGMAP'
p2416
S'y'
sS'kernel.sched_domain.cpu4.domain1.busy_idx'
p2417
I3
sS'CONFIG_CLOCKSOURCE_WATCHDOG'
p2418
S'y'
sS'CONFIG_PCI_QUIRKS'
p2419
S'y'
sS'CONFIG_USB_DWC2_PCI'
p2420
S'y'
sS'CONFIG_WLAN'
p2421
S'y'
sS'CONFIG_NET_VENDOR_EXAR'
p2422
S'y'
sS'kernel.sched_domain.cpu47.domain0.name'
p2423
S'DIE'
p2424
sS'CONFIG_GENERIC_IRQ_PROBE'
p2425
S'y'
sS'kernel.sched_domain.cpu28.domain0.newidle_idx'
p2426
I0
sS'kernel.sched_domain.cpu33.domain0.max_interval'
p2427
I20
sS'kernel.sched_domain.cpu31.domain1.busy_factor'
p2428
I32
sS'CONFIG_DECOMPRESS_LZ4'
p2429
S'y'
sS'net.ipv6.conf.lo.ignore_routes_with_linkdown'
p2430
I0
sS'CONFIG_HARDLOCKUP_DETECTOR'
p2431
S'y'
sS'kernel.sched_domain.cpu14.domain0.imbalance_pct'
p2432
I125
sS'CONFIG_X86_NEED_RELOCS'
p2433
S'y'
sS'kernel.sched_domain.cpu53.domain1.idle_idx'
p2434
I2
sS'CONFIG_USB_XHCI_HCD'
p2435
S'y'
sS'CONFIG_SERIO_LIBPS2'
p2436
S'y'
sS'kernel.sched_domain.cpu48.domain1.busy_factor'
p2437
I32
sS'CONFIG_BASE_SMALL'
p2438
I0
sS'net.ipv4.tcp_fack'
p2439
I0
sS'net.ipv6.conf.ens3.mldv2_unsolicited_report_interval'
p2440
I1000
sS'kernel.sched_domain.cpu26.domain1.max_interval'
p2441
I120
sS'net.ipv4.neigh.lo.mcast_resolicit'
p2442
I0
sS'kernel.sched_domain.cpu38.domain1.min_interval'
p2443
I60
sS'uname'
p2444
S'Linux nestedvm 4.14.0-rc8-stock #3 SMP Tue Mar 13 14:28:42 EDT 2018 x86_64 x86_64 x86_64 GNU/Linux'
p2445
sS'CONFIG_DMADEVICES'
p2446
S'y'
sS'kernel.sched_domain.cpu54.domain0.newidle_idx'
p2447
I0
sS'kernel.sched_domain.cpu23.domain0.busy_factor'
p2448
I32
sS'CONFIG_DEFAULT_HOSTNAME'
p2449
S'"(none)"'
p2450
sS'kernel.sched_domain.cpu35.domain0.imbalance_pct'
p2451
I125
sS'CONFIG_X86_IO_APIC'
p2452
S'y'
sS'CONFIG_CRYPTO_LZO'
p2453
S'y'
sS'CONFIG_HAVE_STACK_VALIDATION'
p2454
S'y'
sS'kernel.sched_domain.cpu52.domain1.max_interval'
p2455
I120
sS'kernel.sched_domain.cpu11.domain1.flags'
p2456
I25647
sS'CONFIG_MFD_SYSCON'
p2457
S'y'
sS'CONFIG_VFAT_FS'
p2458
S'y'
sS'kernel.sched_domain.cpu20.domain0.idle_idx'
p2459
I1
sS'CONFIG_HAVE_KVM'
p2460
S'y'
sS'CONFIG_USB_PCI'
p2461
S'y'
sS'kernel.sched_domain.cpu44.domain0.min_interval'
p2462
I10
sS'CONFIG_SATA_ZPODD'
p2463
S'y'
sS'net.ipv6.route.gc_interval'
p2464
I30
sS'CONFIG_SPARSEMEM_VMEMMAP'
p2465
S'y'
sS'CONFIG_NET_VENDOR_SIS'
p2466
S'y'
sS'net.core.netdev_budget_usecs'
p2467
I2000
sS'CONFIG_TCP_CONG_ADVANCED'
p2468
S'y'
sS'CONFIG_USB_EHCI_HCD_PLATFORM'
p2469
S'y'
sS'kernel.sched_domain.cpu34.domain0.name'
p2470
S'DIE'
p2471
sS'net.ipv6.conf.all.drop_unsolicited_na'
p2472
I0
sS'CONFIG_FSNOTIFY'
p2473
S'y'
sS'kernel.sched_domain.cpu58.domain0.busy_idx'
p2474
I2
sS'CONFIG_POWER_RESET'
p2475
S'y'
sS'CONFIG_REGULATOR'
p2476
S'y'
sS'CONFIG_RFKILL'
p2477
S'y'
sS'kernel.sched_domain.cpu43.domain0.newidle_idx'
p2478
I0
sS'CONFIG_ARCH_HAS_ZONE_DEVICE'
p2479
S'y'
sS'CONFIG_IPV6_SUBTREES'
p2480
S'y'
sS'CONFIG_OPTIMIZE_INLINING'
p2481
S'y'
sS'net.ipv4.ipfrag_time'
p2482
I30
sS'kernel.sched_domain.cpu59.domain0.min_interval'
p2483
I10
sS'net.ipv4.conf.default.secure_redirects'
p2484
I1
sS'kernel.sched_domain.cpu23.domain0.imbalance_pct'
p2485
I125
sS'CONFIG_MOUSE_PS2_SMBUS'
p2486
S'y'
sS'CONFIG_MD_RAID10'
p2487
S'm'
sS'kernel.sched_domain.cpu26.domain1.busy_idx'
p2488
I3
sS'kernel.sched_domain.cpu53.domain1.flags'
p2489
I25647
sS'CONFIG_PPDEV'
p2490
S'm'
sS'CONFIG_BLK_DEV_INITRD'
p2491
S'y'
sS'kernel.sched_domain.cpu57.domain1.newidle_idx'
p2492
I0
sS'CONFIG_DM_UEVENT'
p2493
S'y'
sS'kernel.sched_domain.cpu29.domain1.wake_idx'
p2494
I0
sS'kernel.sched_domain.cpu12.domain1.busy_idx'
p2495
I3
sS'kernel.sched_domain.cpu56.domain0.min_interval'
p2496
I10
sS'CONFIG_LEGACY_PTYS'
p2497
S'y'
sS'CONFIG_FS_POSIX_ACL'
p2498
S'y'
sS'kernel.auto_msgmni'
p2499
I0
sS'CONFIG_VIRTIO_BALLOON'
p2500
S'y'
sS'kernel.sched_domain.cpu45.domain1.busy_factor'
p2501
I32
sS'kernel.sched_domain.cpu28.domain0.idle_idx'
p2502
I1
sS'fs.mqueue.msgsize_default'
p2503
I8192
sS'CONFIG_KEXEC_VERIFY_SIG'
p2504
S'y'
sS'CONFIG_ACPI_SYSTEM_POWER_STATES_SUPPORT'
p2505
S'y'
sS'fs.inotify.max_user_watches'
p2506
I8192
sS'CONFIG_IMA_APPRAISE_BOOTPARAM'
p2507
S'y'
sS'CONFIG_HPET'
p2508
S'y'
sS'CONFIG_CRYPTO_WORKQUEUE'
p2509
S'y'
sS'kernel.sched_domain.cpu28.domain1.flags'
p2510
I25647
sS'CONFIG_INTEGRITY_SIGNATURE'
p2511
S'y'
sS'net.ipv4.conf.ens3.arp_filter'
p2512
I0
sS'CONFIG_SPARSE_IRQ'
p2513
S'y'
sS'kernel.sched_domain.cpu59.domain0.cache_nice_tries'
p2514
I1
sS'kernel.sched_domain.cpu25.domain1.idle_idx'
p2515
I2
sS'CONFIG_PROC_EVENTS'
p2516
S'y'
sS'CONFIG_BLK_SCSI_REQUEST'
p2517
S'y'
sS'kernel.sched_domain.cpu51.domain0.max_interval'
p2518
I20
sS'kernel.sched_domain.cpu12.domain0.name'
p2519
S'DIE'
p2520
sS'kernel.sched_domain.cpu52.domain0.max_newidle_lb_cost'
p2521
I13746
sS'kernel.sched_domain.cpu33.domain1.cache_nice_tries'
p2522
I2
sS'net.ipv6.conf.lo.accept_ra_rt_info_max_plen'
p2523
I0
sS'CONFIG_NET_VENDOR_MICREL'
p2524
S'y'
sS'kernel.sched_domain.cpu15.domain1.wake_idx'
p2525
I0
sS'kernel.sched_domain.cpu17.domain0.newidle_idx'
p2526
I0
sS'CONFIG_DEBUG_INFO'
p2527
S'y'
sS'kernel.sched_domain.cpu18.domain1.idle_idx'
p2528
I2
sS'CONFIG_MAGIC_SYSRQ'
p2529
S'y'
sS'CONFIG_SERIAL_8250_PNP'
p2530
S'y'
sS'CONFIG_CLKDEV_LOOKUP'
p2531
S'y'
sS'kernel.sched_domain.cpu11.domain0.forkexec_idx'
p2532
I0
sS'kernel.keys.maxbytes'
p2533
I20000
sS'CONFIG_BRANCH_PROFILE_NONE'
p2534
S'y'
sS'CONFIG_NO_BOOTMEM'
p2535
S'y'
sS'CONFIG_XXHASH'
p2536
S'm'
sS'CONFIG_PCI_DIRECT'
p2537
S'y'
sS'vm.dirty_ratio'
p2538
I20
sS'kernel.sched_domain.cpu52.domain1.busy_idx'
p2539
I3
sS'net.ipv6.idgen_retries'
p2540
I3
sS'kernel.sched_domain.cpu56.domain1.max_newidle_lb_cost'
p2541
I333133
sS'CONFIG_MAGIC_SYSRQ_SERIAL'
p2542
S'y'
sS'kernel.sched_domain.cpu15.domain0.max_interval'
p2543
I20
sS'CONFIG_USB_EHCI_PCI'
p2544
S'y'
sS'CONFIG_CRYPTO_HASH2'
p2545
S'y'
sS'CONFIG_HAVE_ARCH_KASAN'
p2546
S'y'
sS'CONFIG_MEMCG_SWAP'
p2547
S'y'
sS'CONFIG_IOSCHED_NOOP'
p2548
S'y'
sS'CONFIG_USB_COMMON'
p2549
S'y'
sS'kernel.sched_domain.cpu0.domain0.wake_idx'
p2550
I0
sS'CONFIG_SND_VERBOSE_PROCFS'
p2551
S'y'
sS'net.ipv6.conf.ens3.temp_prefered_lft'
p2552
I86400
sS'CONFIG_BRIDGE_NF_EBTABLES'
p2553
S'm'
sS'kernel.sched_domain.cpu59.domain0.name'
p2554
S'DIE'
p2555
sS'CONFIG_CRYPTO_JITTERENTROPY'
p2556
S'y'
sS'CONFIG_CRYPTO_DRBG_MENU'
p2557
S'y'
sS'kernel.sched_domain.cpu47.domain1.name'
p2558
S'NUMA'
p2559
sS'net.core.busy_read'
p2560
I0
sS'CONFIG_RD_GZIP'
p2561
S'y'
sS'user.max_pid_namespaces'
p2562
I257592
sS'kernel.sched_domain.cpu24.domain1.min_interval'
p2563
I60
sS'kernel.sched_domain.cpu0.domain1.min_interval'
p2564
I60
sS'CONFIG_NET_VENDOR_MARVELL'
p2565
S'y'
sS'kernel.sched_domain.cpu16.domain1.busy_idx'
p2566
I3
sS'CONFIG_USB_EHCI_ROOT_HUB_TT'
p2567
S'y'
sS'kernel.sched_min_granularity_ns'
p2568
I3000000
sS'kernel.sched_domain.cpu24.domain1.busy_factor'
p2569
I32
sS'kernel.sched_domain.cpu57.domain1.max_newidle_lb_cost'
p2570
I33412
sS'kernel.sched_domain.cpu26.domain0.busy_idx'
p2571
I2
sS'kernel.sched_domain.cpu22.domain1.idle_idx'
p2572
I2
sS'CONFIG_XZ_DEC_ARM'
p2573
S'y'
sS'CONFIG_SCSI_DMA'
p2574
S'y'
sS'kernel.sched_domain.cpu4.domain0.max_interval'
p2575
I20
sS'kernel.sched_domain.cpu50.domain1.busy_factor'
p2576
I32
sS'kernel.sched_domain.cpu21.domain0.imbalance_pct'
p2577
I125
sS'CONFIG_HVC_DRIVER'
p2578
S'y'
sS'CONFIG_RCU_STALL_COMMON'
p2579
S'y'
sS'CONFIG_HAVE_RCU_TABLE_FREE'
p2580
S'y'
sS'CONFIG_ZSMALLOC'
p2581
S'y'
sS'CONFIG_HAVE_PERF_REGS'
p2582
S'y'
sS'CONFIG_SND_HWDEP'
p2583
S'm'
sS'CONFIG_CRYPTO_HASH'
p2584
S'y'
sS'kernel.sched_domain.cpu9.domain0.newidle_idx'
p2585
I0
sS'CONFIG_SPARSEMEM_MANUAL'
p2586
S'y'
sS'CONFIG_KEYS_COMPAT'
p2587
S'y'
sS'kernel.sched_domain.cpu48.domain1.newidle_idx'
p2588
I0
sS'kernel.sched_domain.cpu3.domain1.newidle_idx'
p2589
I0
sS'CONFIG_CRYPTO_NULL2'
p2590
S'y'
sS'kernel.sched_domain.cpu55.domain0.wake_idx'
p2591
I0
sS'net.ipv6.conf.lo.accept_ra_min_hop_limit'
p2592
I1
sS'kernel.sched_domain.cpu22.domain1.forkexec_idx'
p2593
I0
sS'kernel.sched_domain.cpu50.domain1.wake_idx'
p2594
I0
sS'net.ipv4.conf.default.proxy_arp'
p2595
I0
sS'kernel.sched_domain.cpu53.domain0.name'
p2596
S'DIE'
p2597
sS'kernel.sched_rr_timeslice_ms'
p2598
I100
sS'kernel.sched_domain.cpu43.domain0.min_interval'
p2599
I10
sS'kernel.sched_domain.cpu16.domain0.min_interval'
p2600
I10
sS'kernel.sched_domain.cpu44.domain1.name'
p2601
S'NUMA'
p2602
sS'CONFIG_NEED_PER_CPU_PAGE_FIRST_CHUNK'
p2603
S'y'
sS'CONFIG_KGDB_KDB'
p2604
S'y'
sS'kernel.sched_domain.cpu49.domain0.max_newidle_lb_cost'
p2605
I37110
sS'kernel.sched_domain.cpu16.domain0.imbalance_pct'
p2606
I125
sS'net.ipv4.conf.all.src_valid_mark'
p2607
I0
sS'fs.overflowuid'
p2608
I65534
sS'kernel.sched_domain.cpu14.domain1.newidle_idx'
p2609
I0
sS'kernel.sched_domain.cpu49.domain0.wake_idx'
p2610
I0
sS'net.ipv4.conf.ens3.arp_accept'
p2611
I0
sS'kernel.keys.maxkeys'
p2612
I200
sS'net.ipv6.conf.ens3.regen_max_retry'
p2613
I3
sS'CONFIG_SECURITYFS'
p2614
S'y'
sS'CONFIG_OSF_PARTITION'
p2615
S'y'
sS'CONFIG_CRYPTO_AKCIPHER'
p2616
S'y'
sS'kernel.sched_domain.cpu31.domain0.name'
p2617
S'DIE'
p2618
sS'kernel.sched_domain.cpu47.domain0.busy_factor'
p2619
I32
sS'kernel.sched_domain.cpu17.domain1.imbalance_pct'
p2620
I125
sS'net.ipv6.conf.default.dad_transmits'
p2621
I1
sS'CONFIG_BNX2'
p2622
S'm'
sS'net.ipv6.conf.lo.disable_ipv6'
p2623
I0
sS'CONFIG_I2C_CHARDEV'
p2624
S'y'
sS'CONFIG_CMA_AREAS'
p2625
I7
sS'CONFIG_ARM_GIC_MAX_NR'
p2626
I1
sS'net.ipv4.conf.all.accept_redirects'
p2627
I1
sS'kernel.sched_domain.cpu42.domain0.imbalance_pct'
p2628
I125
sS'kernel.sched_domain.cpu28.domain0.busy_idx'
p2629
I2
sS'kernel.sched_domain.cpu2.domain1.imbalance_pct'
p2630
I125
sS'vm.max_map_count'
p2631
I65530
sS'CONFIG_SCSI_SCAN_ASYNC'
p2632
S'y'
sS'CONFIG_FS_MBCACHE'
p2633
S'y'
sS'net.ipv6.conf.default.enhanced_dad'
p2634
I1
sS'net.ipv4.conf.lo.arp_ignore'
p2635
I0
sS'kernel.sched_domain.cpu13.domain1.forkexec_idx'
p2636
I0
sS'CONFIG_HAVE_KVM_IRQCHIP'
p2637
S'y'
sS'CONFIG_INLINE_READ_UNLOCK'
p2638
S'y'
sS'kernel.sched_domain.cpu58.domain0.busy_factor'
p2639
I32
sS'CONFIG_PM_SLEEP_SMP'
p2640
S'y'
sS'kernel.sched_domain.cpu42.domain1.newidle_idx'
p2641
I0
sS'kernel.sched_domain.cpu32.domain0.cache_nice_tries'
p2642
I1
sS'net.ipv4.conf.ens3.proxy_arp_pvlan'
p2643
I0
sS'CONFIG_FIX_EARLYCON_MEM'
p2644
S'y'
sS'kernel.sched_domain.cpu3.domain0.forkexec_idx'
p2645
I0
sS'CONFIG_DYNAMIC_FTRACE_WITH_REGS'
p2646
S'y'
sS'CONFIG_SCHED_DEBUG'
p2647
S'y'
sS'net.ipv4.conf.ens3.promote_secondaries'
p2648
I0
sS'kernel.sched_domain.cpu49.domain0.imbalance_pct'
p2649
I125
sS'CONFIG_VT_HW_CONSOLE_BINDING'
p2650
S'y'
sS'CONFIG_MIGRATION'
p2651
S'y'
sS'CONFIG_SYSVIPC_SYSCTL'
p2652
S'y'
sS'CONFIG_HAMRADIO'
p2653
S'y'
sS'kernel.sched_domain.cpu25.domain0.name'
p2654
S'DIE'
p2655
sS'CONFIG_SECURITY_APPARMOR_HASH'
p2656
S'y'
sS'kernel.sched_domain.cpu22.domain0.busy_factor'
p2657
I32
sS'CONFIG_NET_NS'
p2658
S'y'
sS'kernel.sched_domain.cpu59.domain1.max_interval'
p2659
I120
sS'CONFIG_EFI_ESRT'
p2660
S'y'
sS'CONFIG_RAS'
p2661
S'y'
sS'CONFIG_GENERIC_PINCONF'
p2662
S'y'
sS'kernel.sched_domain.cpu44.domain1.max_newidle_lb_cost'
p2663
I40533
sS'net.ipv4.tcp_available_ulp'
p2664
S''
sS'CONFIG_USB'
p2665
S'y'
sS'kernel.sched_domain.cpu23.domain1.newidle_idx'
p2666
I0
sS'kernel.sched_domain.cpu46.domain0.name'
p2667
S'DIE'
p2668
sS'kernel.sched_domain.cpu8.domain0.max_interval'
p2669
I20
sS'CONFIG_HIGH_RES_TIMERS'
p2670
S'y'
sS'CONFIG_PPP'
p2671
S'y'
sS'kernel.sched_domain.cpu57.domain0.name'
p2672
S'DIE'
p2673
sS'CONFIG_HAVE_GENERIC_GUP'
p2674
S'y'
sS'kernel.sched_domain.cpu42.domain0.max_interval'
p2675
I20
sS'kernel.sched_domain.cpu33.domain1.max_interval'
p2676
I120
sS'CONFIG_NET_VENDOR_HUAWEI'
p2677
S'y'
sS'kernel.sched_domain.cpu43.domain0.cache_nice_tries'
p2678
I1
sS'CONFIG_CORE_DUMP_DEFAULT_ELF_HEADERS'
p2679
S'y'
sS'CONFIG_POWER_AVS'
p2680
S'y'
sS'CONFIG_MFD_AAT2870_CORE'
p2681
S'y'
sS'CONFIG_QED'
p2682
S'm'
sS'CONFIG_NET_VENDOR_I825XX'
p2683
S'y'
sS'kernel.sched_domain.cpu45.domain0.busy_idx'
p2684
I2
sS'CONFIG_COMPAT'
p2685
S'y'
sS'net.ipv6.conf.default.force_tllao'
p2686
I0
sS'CONFIG_AGP_INTEL'
p2687
S'y'
sS'CONFIG_CRYPTO_CRC32C'
p2688
S'y'
sS'kernel.sched_domain.cpu3.domain1.min_interval'
p2689
I60
sS'kernel.sched_domain.cpu30.domain1.wake_idx'
p2690
I0
sS'CONFIG_LOCK_SPIN_ON_OWNER'
p2691
S'y'
sS'CONFIG_CONSOLE_LOGLEVEL_DEFAULT'
p2692
I7
sS'CONFIG_CRYPTO_GHASH'
p2693
S'y'
sS'kernel.sched_domain.cpu27.domain0.wake_idx'
p2694
I0
sS'kernel.sched_domain.cpu25.domain1.wake_idx'
p2695
I0
sS'CONFIG_ACPI_TABLE_UPGRADE'
p2696
S'y'
sS'CONFIG_BLK_CMDLINE_PARSER'
p2697
S'y'
sS'user.max_net_namespaces'
p2698
I257592
sS'net.core.netdev_budget'
p2699
I300
sS'kernel.sched_domain.cpu42.domain1.max_interval'
p2700
I120
sS'kernel.shmall'
p2701
L18446744073692774399L
sS'CONFIG_ABX500_CORE'
p2702
S'y'
sS'kernel.sched_domain.cpu32.domain0.idle_idx'
p2703
I1
sS'CONFIG_CRYPTO_MANAGER_DISABLE_TESTS'
p2704
S'y'
sS'kernel.sched_domain.cpu12.domain0.busy_idx'
p2705
I2
sS'CONFIG_GENERIC_BUG_RELATIVE_POINTERS'
p2706
S'y'
sS'CONFIG_TICK_ONESHOT'
p2707
S'y'
sS'CONFIG_LOG_CPU_MAX_BUF_SHIFT'
p2708
I12
sS'CONFIG_WLAN_VENDOR_INTEL'
p2709
S'y'
sS'net.ipv6.conf.default.seg6_enabled'
p2710
I0
sS'net.ipv4.ip_nonlocal_bind'
p2711
I0
sS'CONFIG_EXT4_FS'
p2712
S'y'
sS'CONFIG_BOOTPARAM_HUNG_TASK_PANIC_VALUE'
p2713
I0
sS'kernel.sched_domain.cpu1.domain0.newidle_idx'
p2714
I0
sS'kernel.sched_domain.cpu50.domain1.cache_nice_tries'
p2715
I2
sS'CONFIG_BALLOON_COMPACTION'
p2716
S'y'
sS'kernel.sched_domain.cpu52.domain1.idle_idx'
p2717
I2
sS'kernel.sched_domain.cpu42.domain0.idle_idx'
p2718
I1
sS'kernel.sched_domain.cpu49.domain0.flags'
p2719
I4143
sS'kernel.sched_domain.cpu58.domain0.wake_idx'
p2720
I0
sS'kernel.sched_domain.cpu46.domain0.max_newidle_lb_cost'
p2721
I23451
sS'kernel.sched_domain.cpu24.domain0.busy_idx'
p2722
I2
sS'net.ipv6.conf.default.hop_limit'
p2723
I64
sS'CONFIG_FB_IMSTT'
p2724
S'y'
sS'CONFIG_FB_CFB_FILLRECT'
p2725
S'y'
sS'CONFIG_X86_64_SMP'
p2726
S'y'
sS'CONFIG_PM_OPP'
p2727
S'y'
sS'kernel.sched_domain.cpu5.domain0.min_interval'
p2728
I10
sS'kernel.sched_domain.cpu21.domain1.busy_factor'
p2729
I32
sS'CONFIG_KSM'
p2730
S'y'
sS'CONFIG_RTC_INTF_SYSFS'
p2731
S'y'
sS'kernel.sched_domain.cpu14.domain0.name'
p2732
S'DIE'
p2733
sS'net.ipv6.conf.all.accept_ra'
p2734
I1
sS'CONFIG_MFD_TPS65912_I2C'
p2735
S'y'
sS'net.ipv4.conf.lo.arp_filter'
p2736
I0
sS'kernel.sched_domain.cpu44.domain1.cache_nice_tries'
p2737
I2
sS'kernel.sched_domain.cpu26.domain1.max_newidle_lb_cost'
p2738
I29484
sS'CONFIG_SERIAL_8250_SHARE_IRQ'
p2739
S'y'
sS'kernel.sched_domain.cpu2.domain0.forkexec_idx'
p2740
I0
sS'net.ipv6.conf.all.router_solicitations'
p2741
S'-1'
p2742
sS'kernel.sched_domain.cpu37.domain0.imbalance_pct'
p2743
I125
sS'kernel.sched_domain.cpu1.domain0.imbalance_pct'
p2744
I125
sS'kernel.sched_domain.cpu21.domain1.flags'
p2745
I25647
sS'CONFIG_FUSION_MAX_SGE'
p2746
I128
sS'CONFIG_HAS_IOPORT_MAP'
p2747
S'y'
sS'kernel.sched_domain.cpu46.domain0.flags'
p2748
I4143
sS'kernel.sched_domain.cpu46.domain0.idle_idx'
p2749
I1
sS'kernel.sched_domain.cpu59.domain1.name'
p2750
S'NUMA'
p2751
sS'kernel.sched_domain.cpu27.domain0.min_interval'
p2752
I10
sS'kernel.sched_domain.cpu34.domain1.flags'
p2753
I25647
sS'CONFIG_INPUT_LEDS'
p2754
S'm'
sS'net.ipv4.tcp_app_win'
p2755
I31
sS'CONFIG_MAY_USE_DEVLINK'
p2756
S'y'
sS'CONFIG_NET_VENDOR_ADAPTEC'
p2757
S'y'
sS'net.ipv4.cipso_cache_enable'
p2758
I1
sS'kernel.sched_domain.cpu50.domain1.busy_idx'
p2759
I3
sS'CONFIG_SYSV68_PARTITION'
p2760
S'y'
sS'CONFIG_EVM_EXTRA_SMACK_XATTRS'
p2761
S'y'
sS'net.ipv4.tcp_keepalive_probes'
p2762
I9
sS'kernel.sched_domain.cpu24.domain0.cache_nice_tries'
p2763
I1
sS'CONFIG_IKCONFIG'
p2764
S'm'
sS'kernel.sched_domain.cpu19.domain0.max_interval'
p2765
I20
sS'CONFIG_MEMORY'
p2766
S'y'
sS'kernel.sched_domain.cpu16.domain1.imbalance_pct'
p2767
I125
sS'CONFIG_KDB_DEFAULT_ENABLE'
p2768
S'0x1'
p2769
sS'fs.inotify.max_queued_events'
p2770
I16384
sS'CONFIG_TREE_RCU'
p2771
S'y'
sS'CONFIG_SG_POOL'
p2772
S'y'
sS'CONFIG_CRYPTO_RSA'
p2773
S'y'
sS'net.ipv4.tcp_pacing_ca_ratio'
p2774
I120
sS'CONFIG_CPU_FREQ_GOV_POWERSAVE'
p2775
S'y'
sS'CONFIG_HAVE_BOOTMEM_INFO_NODE'
p2776
S'y'
sS'kernel.sched_domain.cpu17.domain1.forkexec_idx'
p2777
I0
sS'CONFIG_SPARSEMEM_ALLOC_MEM_MAP_TOGETHER'
p2778
S'y'
sS'CONFIG_ACPI_PROCESSOR'
p2779
S'y'
sS'CONFIG_ARCH_PHYS_ADDR_T_64BIT'
p2780
S'y'
sS'kernel.sched_domain.cpu8.domain0.wake_idx'
p2781
I0
sS'CONFIG_XZ_DEC_ARMTHUMB'
p2782
S'y'
sS'CONFIG_ACPI_PCI_SLOT'
p2783
S'y'
sS'CONFIG_CPU_FREQ_GOV_USERSPACE'
p2784
S'y'
sS'kernel.sched_domain.cpu19.domain1.idle_idx'
p2785
I2
sS'kernel.sched_domain.cpu22.domain1.max_newidle_lb_cost'
p2786
I28361
sS'CONFIG_HAVE_UNSTABLE_SCHED_CLOCK'
p2787
S'y'
sS'kernel.sched_domain.cpu8.domain1.forkexec_idx'
p2788
I0
sS'net.ipv4.igmp_link_local_mcast_reports'
p2789
I1
sS'kernel.sched_domain.cpu34.domain0.idle_idx'
p2790
I1
sS'CONFIG_MAC80211_STA_HASH_MAX_SIZE'
p2791
I0
sS'CONFIG_BITREVERSE'
p2792
S'y'
sS'CONFIG_MEM_SOFT_DIRTY'
p2793
S'y'
sS'CONFIG_MODULES_USE_ELF_RELA'
p2794
S'y'
sS'CONFIG_SECURITY_SMACK'
p2795
S'y'
sS'net.ipv6.anycast_src_echo_reply'
p2796
I0
sS'CONFIG_KPROBES'
p2797
S'y'
sS'CONFIG_FRAME_POINTER'
p2798
S'y'
sS'CONFIG_SGETMASK_SYSCALL'
p2799
S'y'
sS'CONFIG_BLK_DEV_DM_BUILTIN'
p2800
S'y'
sS'kernel.sched_domain.cpu55.domain0.busy_factor'
p2801
I32
sS'kernel.sched_domain.cpu30.domain1.forkexec_idx'
p2802
I0
sS'CONFIG_SQUASHFS_FRAGMENT_CACHE_SIZE'
p2803
I3
sS'kernel.sched_domain.cpu30.domain1.newidle_idx'
p2804
I0
sS'kernel.sched_domain.cpu3.domain0.idle_idx'
p2805
I1
sS'net.ipv4.tcp_max_reordering'
p2806
I300
sS'kernel.sched_domain.cpu56.domain1.forkexec_idx'
p2807
I0
sS'CONFIG_AUDIT'
p2808
S'y'
sS'kernel.sched_domain.cpu32.domain1.max_newidle_lb_cost'
p2809
I18316
sS'CONFIG_ARCH_SUPPORTS_DEBUG_PAGEALLOC'
p2810
S'y'
sS'kernel.random.urandom_min_reseed_secs'
p2811
I60
sS'CONFIG_X86_CMPXCHG64'
p2812
S'y'
sS'CONFIG_NET_FLOW_LIMIT'
p2813
S'y'
sS'CONFIG_ND_CLAIM'
p2814
S'y'
sS'kernel.sched_domain.cpu21.domain1.wake_idx'
p2815
I0
sS'kernel.sched_domain.cpu50.domain1.flags'
p2816
I25647
sS'kernel.sched_domain.cpu4.domain0.newidle_idx'
p2817
I0
sS'kernel.sched_domain.cpu34.domain1.name'
p2818
S'NUMA'
p2819
sS'net.ipv6.conf.default.accept_ra_mtu'
p2820
I1
sS'kernel.sched_domain.cpu37.domain0.max_newidle_lb_cost'
p2821
I14103
sS'CONFIG_HAVE_HARDLOCKUP_DETECTOR_PERF'
p2822
S'y'
sS'kernel.sched_domain.cpu25.domain1.max_interval'
p2823
I120
sS'kernel.sched_domain.cpu0.domain0.busy_factor'
p2824
I32
sS'kernel.sched_domain.cpu17.domain1.max_newidle_lb_cost'
p2825
I49142
sS'net.ipv4.tcp_limit_output_bytes'
p2826
I262144
sS'kernel.sched_domain.cpu12.domain1.imbalance_pct'
p2827
I125
sS'CONFIG_HAVE_COPY_THREAD_TLS'
p2828
S'y'
sS'net.ipv6.route.gc_thresh'
p2829
I1024
sS'CONFIG_ARCH_RANDOM'
p2830
S'y'
sS'net.ipv6.conf.ens3.router_probe_interval'
p2831
I60
sS'kernel.sched_domain.cpu21.domain0.forkexec_idx'
p2832
I0
sS'kernel.sched_domain.cpu59.domain0.max_newidle_lb_cost'
p2833
I277125
sS'CONFIG_PM_TRACE'
p2834
S'y'
sS'CONFIG_SYSCTL_EXCEPTION_TRACE'
p2835
S'y'
sS'CONFIG_X86_INTERNODE_CACHE_SHIFT'
p2836
I6
sS'CONFIG_HAVE_SYSCALL_TRACEPOINTS'
p2837
S'y'
sS'kernel.sched_domain.cpu13.domain1.max_interval'
p2838
I120
sS'CONFIG_CRC32'
p2839
S'y'
sS'kernel.sched_domain.cpu45.domain0.max_newidle_lb_cost'
p2840
I457491
sS'CONFIG_FUSION'
p2841
S'y'
sS'net.ipv4.conf.lo.accept_source_route'
p2842
I1
sS'kernel.sched_domain.cpu56.domain1.imbalance_pct'
p2843
I125
sS'net.ipv6.conf.ens3.suppress_frag_ndisc'
p2844
I1
sS'CONFIG_SWPHY'
p2845
S'y'
sS'kernel.sched_domain.cpu33.domain1.min_interval'
p2846
I60
sS'kernel.sched_domain.cpu6.domain1.wake_idx'
p2847
I0
sS'kernel.sched_domain.cpu36.domain0.idle_idx'
p2848
I1
sS'net.ipv6.conf.all.mc_forwarding'
p2849
I0
sS'vm.admin_reserve_kbytes'
p2850
I8192
sS'CONFIG_ASYNC_TX_DMA'
p2851
S'y'
sS'kernel.sched_domain.cpu33.domain0.wake_idx'
p2852
I0
sS'CONFIG_UNIX'
p2853
S'y'
sS'CONFIG_RTC_NVMEM'
p2854
S'y'
sS'kernel.sched_domain.cpu6.domain0.newidle_idx'
p2855
I0
sS'kernel.sched_domain.cpu5.domain0.name'
p2856
S'DIE'
p2857
sS'kernel.sched_domain.cpu52.domain0.forkexec_idx'
p2858
I0
sS'CONFIG_EXT4_FS_SECURITY'
p2859
S'y'
sS'kernel.sched_domain.cpu9.domain0.forkexec_idx'
p2860
I0
sS'kernel.sched_domain.cpu45.domain1.busy_idx'
p2861
I3
sS'kernel.sched_domain.cpu19.domain1.max_newidle_lb_cost'
p2862
I18038
sS'net.ipv4.neigh.default.unres_qlen'
p2863
I101
sS'kernel.sched_domain.cpu4.domain1.idle_idx'
p2864
I2
sS'CONFIG_FRAME_WARN'
p2865
I1024
sS'CONFIG_MFD_PALMAS'
p2866
S'y'
sS'CONFIG_AUXDISPLAY'
p2867
S'y'
sS'CONFIG_WLAN_VENDOR_ST'
p2868
S'y'
sS'kernel.printk_ratelimit'
p2869
I5
sS'net.ipv6.conf.all.enhanced_dad'
p2870
I1
sS'kernel.sched_domain.cpu38.domain1.busy_idx'
p2871
I3
sS'net.ipv4.neigh.default.delay_first_probe_time'
p2872
I5
sS'CONFIG_SECURITY_SELINUX_BOOTPARAM_VALUE'
p2873
I0
sS'fs.lease-break-time'
p2874
I45
sS'kernel.sched_domain.cpu26.domain0.busy_factor'
p2875
I32
sS'vm.dirty_bytes'
p2876
I0
sS'net.ipv6.conf.lo.accept_redirects'
p2877
I1
sS'kernel.sched_domain.cpu36.domain1.max_newidle_lb_cost'
p2878
I37591
sS'CONFIG_KVM_GUEST'
p2879
S'y'
sS'net.ipv4.tcp_syn_retries'
p2880
I6
sS'kernel.shm_rmid_forced'
p2881
I0
sS'CONFIG_PERF_EVENTS_INTEL_UNCORE'
p2882
S'y'
sS'net.ipv4.conf.ens3.igmpv2_unsolicited_report_interval'
p2883
I10000
sS'kernel.sched_domain.cpu17.domain1.max_interval'
p2884
I120
sS'kernel.sched_domain.cpu13.domain0.cache_nice_tries'
p2885
I1
sS'kernel.sched_domain.cpu56.domain0.busy_factor'
p2886
I32
sS'kernel.sched_domain.cpu11.domain1.forkexec_idx'
p2887
I0
sS'kernel.sched_domain.cpu7.domain0.max_newidle_lb_cost'
p2888
I12046
sS'CONFIG_X86_FAST_FEATURE_TESTS'
p2889
S'y'
sS'CONFIG_BRIDGE_IGMP_SNOOPING'
p2890
S'y'
sS'kernel.sched_domain.cpu2.domain0.flags'
p2891
I4143
sS'kernel.sched_domain.cpu56.domain0.forkexec_idx'
p2892
I0
sS'kernel.sched_domain.cpu20.domain1.busy_factor'
p2893
I32
sS'kernel.sched_domain.cpu44.domain0.name'
p2894
S'DIE'
p2895
sS'kernel.sched_domain.cpu52.domain0.imbalance_pct'
p2896
I125
sS'CONFIG_DEVFREQ_GOV_POWERSAVE'
p2897
S'y'
sS'kernel.sched_domain.cpu11.domain1.min_interval'
p2898
I60
sS'net.ipv6.conf.ens3.accept_ra_from_local'
p2899
I0
sS'kernel.sched_domain.cpu34.domain1.busy_idx'
p2900
I3
sS'kernel.sched_domain.cpu38.domain1.flags'
p2901
I25647
sS'net.ipv6.conf.default.router_solicitation_interval'
p2902
I4
sS'kernel.sched_domain.cpu26.domain0.wake_idx'
p2903
I0
sS'net.ipv4.tcp_tso_win_divisor'
p2904
I3
sS'CONFIG_RELOCATABLE'
p2905
S'y'
sS'kernel.sched_domain.cpu24.domain0.max_interval'
p2906
I20
sS'fs.pipe-max-size'
p2907
I1048576
sS'CONFIG_NO_HZ'
p2908
S'y'
sS'CONFIG_CHELSIO_T4_DCB'
p2909
S'y'
sS'kernel.sched_domain.cpu26.domain0.forkexec_idx'
p2910
I0
sS'kernel.sched_domain.cpu41.domain1.flags'
p2911
I25647
sS'kernel.sched_domain.cpu59.domain1.min_interval'
p2912
I60
sS'CONFIG_RTC_SYSTOHC_DEVICE'
p2913
S'"rtc0"'
p2914
sS'CONFIG_DEFAULT_SECURITY_APPARMOR'
p2915
S'y'
sS'CONFIG_ASYNC_PQ'
p2916
S'm'
sS'kernel.sched_domain.cpu18.domain0.min_interval'
p2917
I10
sS'CONFIG_HAVE_KERNEL_BZIP2'
p2918
S'y'
sS'net.ipv6.conf.ens3.addr_gen_mode'
p2919
I0
sS'CONFIG_QED_SRIOV'
p2920
S'y'
sS'net.ipv4.route.gc_min_interval_ms'
p2921
I500
sS'kernel.sched_domain.cpu23.domain0.cache_nice_tries'
p2922
I1
sS'CONFIG_MODULE_SIG_SHA512'
p2923
S'y'
sS'CONFIG_WLAN_VENDOR_RSI'
p2924
S'y'
sS'CONFIG_CPU_IDLE'
p2925
S'y'
sS'kernel.sched_domain.cpu2.domain1.name'
p2926
S'NUMA'
p2927
sS'CONFIG_HOTPLUG_PCI_PCIE'
p2928
S'y'
sS'net.ipv6.neigh.ens3.mcast_solicit'
p2929
I3
sS'kernel.sched_domain.cpu37.domain0.forkexec_idx'
p2930
I0
sS'kernel.sched_domain.cpu31.domain0.wake_idx'
p2931
I0
sS'CONFIG_FB_CMDLINE'
p2932
S'y'
sS'kernel.sched_domain.cpu45.domain1.min_interval'
p2933
I60
sS'CONFIG_THP_SWAP'
p2934
S'y'
sS'kernel.sched_domain.cpu41.domain1.idle_idx'
p2935
I2
sS'fs.dentry-state'
p2936
S'104128\t86717\t45\t0\t0\t0'
p2937
sS'CONFIG_TRACEPOINTS'
p2938
S'y'
sS'CONFIG_IP6_NF_IPTABLES'
p2939
S'm'
sS'CONFIG_CRYPTO_AKCIPHER2'
p2940
S'y'
sS'CONFIG_ARCH_HAS_ADD_PAGES'
p2941
S'y'
sS'net.ipv6.conf.lo.dad_transmits'
p2942
I1
sS'CONFIG_SECURITY_APPARMOR_HASH_DEFAULT'
p2943
S'y'
sS'CONFIG_SMP'
p2944
S'y'
sS'net.ipv4.tcp_available_congestion_control'
p2945
S'cubic reno'
p2946
sS'CONFIG_RTC_CLASS'
p2947
S'y'
sS'kernel.sched_domain.cpu0.domain0.forkexec_idx'
p2948
I0
sS'kernel.sched_domain.cpu36.domain1.flags'
p2949
I25647
sS'CONFIG_ISA_DMA_API'
p2950
S'y'
sS'net.ipv6.conf.default.accept_dad'
p2951
I1
sS'kernel.sched_domain.cpu54.domain0.max_newidle_lb_cost'
p2952
I20593
sS'kernel.sched_domain.cpu10.domain1.newidle_idx'
p2953
I0
sS'kernel.sched_domain.cpu46.domain1.newidle_idx'
p2954
I0
sS'kernel.sched_domain.cpu57.domain1.idle_idx'
p2955
I2
sS'CONFIG_TMPFS_XATTR'
p2956
S'y'
sS'CONFIG_BLK_CGROUP'
p2957
S'y'
sS'CONFIG_PATA_ACPI'
p2958
S'm'
sS'kernel.sched_domain.cpu27.domain1.max_newidle_lb_cost'
p2959
I25818
sS'CONFIG_WATCHDOG'
p2960
S'y'
sS'kernel.sched_domain.cpu50.domain1.imbalance_pct'
p2961
I125
sS'CONFIG_ISCSI_TCP'
p2962
S'm'
sS'kernel.sched_domain.cpu49.domain1.flags'
p2963
I25647
sS'kernel.sched_domain.cpu52.domain1.busy_factor'
p2964
I32
sS'net.ipv6.neigh.default.gc_stale_time'
p2965
I60
sS'net.ipv6.conf.ens3.force_tllao'
p2966
I0
sS'net.ipv4.neigh.ens3.unres_qlen'
p2967
I101
sS'kernel.sched_domain.cpu11.domain1.busy_idx'
p2968
I3
sS'CONFIG_IP_PIMSM_V1'
p2969
S'y'
sS'CONFIG_MICROCODE'
p2970
S'y'
sS'kernel.sched_domain.cpu27.domain0.forkexec_idx'
p2971
I0
sS'kernel.sched_domain.cpu3.domain1.max_newidle_lb_cost'
p2972
I22690
sS'CONFIG_TUN'
p2973
S'y'
sS'net.ipv6.conf.lo.autoconf'
p2974
I1
sS'CONFIG_NET_VENDOR_SEEQ'
p2975
S'y'
sS'CONFIG_IP_PIMSM_V2'
p2976
S'y'
sS'net.ipv4.tcp_low_latency'
p2977
I0
sS'kernel.sched_domain.cpu7.domain0.busy_idx'
p2978
I2
sS'vm.nr_hugepages'
p2979
I0
sS'CONFIG_SECCOMP_FILTER'
p2980
S'y'
sS'CONFIG_VIRTIO'
p2981
S'y'
sS'kernel.randomize_va_space'
p2982
I2
sS'vm.legacy_va_layout'
p2983
I0
sS'kernel.sched_domain.cpu38.domain0.busy_idx'
p2984
I2
sS'CONFIG_PARAVIRT'
p2985
S'y'
sS'CONFIG_HAVE_OPTPROBES'
p2986
S'y'
sS'CONFIG_HAVE_ARCH_HUGE_VMAP'
p2987
S'y'
sS'net.ipv4.icmp_echo_ignore_all'
p2988
I0
sS'net.ipv4.ip_dynaddr'
p2989
I0
sS'CONFIG_SYSFS'
p2990
S'y'
sS'kernel.sched_domain.cpu55.domain1.newidle_idx'
p2991
I0
sS'dev.cdrom.autoeject'
p2992
I0
sS'CONFIG_PROFILING'
p2993
S'y'
sS'kernel.sched_domain.cpu19.domain0.max_newidle_lb_cost'
p2994
I52392
sS'kernel.sched_domain.cpu6.domain1.name'
p2995
S'NUMA'
p2996
sS'kernel.sched_domain.cpu54.domain1.busy_factor'
p2997
I32
sS'kernel.sched_domain.cpu31.domain0.idle_idx'
p2998
I1
sS'CONFIG_THREAD_INFO_IN_TASK'
p2999
S'y'
sS'CONFIG_NET_VENDOR_INTEL'
p3000
S'y'
sS'CONFIG_TASKSTATS'
p3001
S'y'
sS'vm.memory_failure_early_kill'
p3002
I0
sS'kernel.sched_domain.cpu6.domain1.busy_factor'
p3003
I32
sS'net.ipv6.conf.default.use_tempaddr'
p3004
I2
sS'CONFIG_DEVTMPFS'
p3005
S'y'
sS'CONFIG_CFS_BANDWIDTH'
p3006
S'y'
sS'CONFIG_ACPI_I2C_OPREGION'
p3007
S'y'
sS'kernel.sched_domain.cpu54.domain0.forkexec_idx'
p3008
I0
sS'kernel.sched_domain.cpu12.domain0.idle_idx'
p3009
I1
sS'net.ipv6.route.gc_timeout'
p3010
I60
sS'CONFIG_HAVE_MOD_ARCH_SPECIFIC'
p3011
S'y'
sS'net.ipv6.neigh.ens3.base_reachable_time_ms'
p3012
I30000
sS'CONFIG_KARMA_PARTITION'
p3013
S'y'
sS'CONFIG_FB_MODE_HELPERS'
p3014
S'y'
sS'CONFIG_USB_OHCI_LITTLE_ENDIAN'
p3015
S'y'
sS'kernel.sched_domain.cpu51.domain0.cache_nice_tries'
p3016
I1
sS'kernel.sched_domain.cpu59.domain0.forkexec_idx'
p3017
I0
sS'kernel.sched_domain.cpu35.domain1.wake_idx'
p3018
I0
sS'net.ipv4.conf.default.ignore_routes_with_linkdown'
p3019
I0
sS'kernel.sched_domain.cpu46.domain1.max_interval'
p3020
I120
sS'net.ipv6.flowlabel_consistency'
p3021
I1
sS'net.ipv4.icmp_echo_ignore_broadcasts'
p3022
I1
sS'CONFIG_IRQ_WORK'
p3023
S'y'
sS'CONFIG_TCG_TIS'
p3024
S'y'
sS'CONFIG_XZ_DEC_POWERPC'
p3025
S'y'
sS'kernel.sched_domain.cpu43.domain0.max_newidle_lb_cost'
p3026
I333574
sS'CONFIG_HZ_250'
p3027
S'y'
sS'kernel.sched_domain.cpu0.domain1.flags'
p3028
I25647
sS'kernel.sched_domain.cpu30.domain0.min_interval'
p3029
I10
sS'kernel.sched_domain.cpu31.domain1.min_interval'
p3030
I60
sS'kernel.pid_max'
p3031
I124928
sS'CONFIG_REGMAP_I2C'
p3032
S'y'
sS'net.ipv6.neigh.ens3.locktime'
p3033
I0
sS'kernel.sched_domain.cpu20.domain0.max_newidle_lb_cost'
p3034
I12701
sS'CONFIG_MMU_NOTIFIER'
p3035
S'y'
sS'kernel.sched_domain.cpu24.domain0.forkexec_idx'
p3036
I0
sS'net.ipv4.conf.all.arp_filter'
p3037
I0
sS'kernel.sched_domain.cpu46.domain0.newidle_idx'
p3038
I0
sS'CONFIG_THERMAL_GOV_BANG_BANG'
p3039
S'y'
sS'CONFIG_MFD_MAX8997'
p3040
S'y'
sS'CONFIG_HAVE_ACPI_APEI'
p3041
S'y'
sS'kernel.sched_domain.cpu13.domain1.imbalance_pct'
p3042
I125
sS'CONFIG_FONT_SUPPORT'
p3043
S'y'
sS'kernel.sched_domain.cpu54.domain1.forkexec_idx'
p3044
I0
sS'kernel.sched_domain.cpu9.domain0.flags'
p3045
I4143
sS'kernel.sched_domain.cpu43.domain1.imbalance_pct'
p3046
I125
sS'CONFIG_X86_PMEM_LEGACY_DEVICE'
p3047
S'y'
sS'kernel.sched_domain.cpu1.domain1.wake_idx'
p3048
I0
sS'CONFIG_REGMAP_IRQ'
p3049
S'y'
sS'CONFIG_ASSOCIATIVE_ARRAY'
p3050
S'y'
sS'kernel.sched_domain.cpu7.domain1.name'
p3051
S'NUMA'
p3052
sS'CONFIG_EZX_PCAP'
p3053
S'y'
sS'CONFIG_SCSI_MOD'
p3054
S'y'
sS'CONFIG_CRYPTO_HASH_INFO'
p3055
S'y'
sS'kernel.sched_domain.cpu24.domain0.imbalance_pct'
p3056
I125
sS'net.ipv4.conf.all.shared_media'
p3057
I1
sS'CONFIG_IOMMU_API'
p3058
S'y'
sS'CONFIG_INLINE_SPIN_UNLOCK_IRQ'
p3059
S'y'
sS'CONFIG_BLOCK'
p3060
S'y'
sS'CONFIG_MEMORY_FAILURE'
p3061
S'y'
sS'CONFIG_TRACING'
p3062
S'y'
sS'CONFIG_FB_NOTIFY'
p3063
S'y'
sS'CONFIG_NET_VENDOR_EZCHIP'
p3064
S'y'
sS'kernel.sched_domain.cpu40.domain1.wake_idx'
p3065
I0
sS'CONFIG_TIMERFD'
p3066
S'y'
sS'kernel.sched_domain.cpu1.domain0.max_interval'
p3067
I20
sS'kernel.sched_domain.cpu14.domain0.newidle_idx'
p3068
I0
sS'CONFIG_CPU_RMAP'
p3069
S'y'
sS'net.netfilter.nf_log.11'
p3070
S'NONE'
p3071
sS'net.netfilter.nf_log.10'
p3072
S'NONE'
p3073
sS'net.netfilter.nf_log.12'
p3074
S'NONE'
p3075
sS'CONFIG_ARCH_HAS_PMEM_API'
p3076
S'y'
sS'net.ipv6.conf.all.drop_unicast_in_l2_multicast'
p3077
I0
sS'kernel.sched_domain.cpu31.domain0.max_interval'
p3078
I20
sS'CONFIG_64BIT'
p3079
S'y'
sS'net.core.rmem_max'
p3080
I212992
sS'CONFIG_CRYPTO_DRBG_HASH'
p3081
S'y'
sS'CONFIG_SECURITY_PATH'
p3082
S'y'
sS'CONFIG_THERMAL_EMERGENCY_POWEROFF_DELAY_MS'
p3083
I0
sS'CONFIG_DEBUG_FS'
p3084
S'y'
sS'kernel.sched_domain.cpu24.domain0.max_newidle_lb_cost'
p3085
I96228
sS'kernel.sched_domain.cpu30.domain1.flags'
p3086
I25647
sS'kernel.sched_domain.cpu19.domain0.forkexec_idx'
p3087
I0
sS'CONFIG_STACK_TRACER'
p3088
S'y'
sS'net.core.dev_weight'
p3089
I64
sS'kernel.sched_domain.cpu22.domain0.cache_nice_tries'
p3090
I1
sS'CONFIG_X86_MPPARSE'
p3091
S'y'
sS'CONFIG_NET_VENDOR_SYNOPSYS'
p3092
S'y'
sS'kernel.sched_domain.cpu55.domain1.imbalance_pct'
p3093
I125
sS'CONFIG_PCIE_PME'
p3094
S'y'
sS'kernel.sched_domain.cpu6.domain1.max_newidle_lb_cost'
p3095
I26480
sS'kernel.sched_domain.cpu51.domain0.imbalance_pct'
p3096
I125
sS'CONFIG_HAVE_CC_STACKPROTECTOR'
p3097
S'y'
sS'kernel.sched_domain.cpu46.domain1.busy_idx'
p3098
I3
sS'kernel.sched_domain.cpu15.domain1.idle_idx'
p3099
I2
sS'CONFIG_MEGARAID_NEWGEN'
p3100
S'y'
sS'CONFIG_BLK_DEV_LOOP_MIN_COUNT'
p3101
I8
sS'kernel.sched_domain.cpu32.domain0.max_interval'
p3102
I20
sS'net.ipv6.conf.ens3.proxy_ndp'
p3103
I0
sS'CONFIG_DEFAULT_TCP_CONG'
p3104
S'"cubic"'
p3105
sS'CONFIG_CRYPTO_CBC'
p3106
S'y'
sS'CONFIG_HAVE_DEBUG_STACKOVERFLOW'
p3107
S'y'
sS'CONFIG_PGTABLE_MAPPING'
p3108
S'y'
sS'kernel.sched_domain.cpu34.domain0.busy_factor'
p3109
I32
sS'CONFIG_HAVE_EBPF_JIT'
p3110
S'y'
sS'kernel.shmmax'
p3111
L18446744073692774399L
sS'net.ipv6.conf.all.accept_ra_min_hop_limit'
p3112
I1
sS'kernel.sched_domain.cpu19.domain1.newidle_idx'
p3113
I0
sS'CONFIG_PARAVIRT_SPINLOCKS'
p3114
S'y'
sS'CONFIG_FB_SIMPLE'
p3115
S'y'
sS'net.ipv6.neigh.default.proxy_delay'
p3116
I80
sS'CONFIG_QUEUED_RWLOCKS'
p3117
S'y'
sS'kernel.sched_domain.cpu43.domain1.max_interval'
p3118
I120
sS'kernel.sched_domain.cpu15.domain0.imbalance_pct'
p3119
I125
sS'CONFIG_SUSPEND_FREEZER'
p3120
S'y'
sS'CONFIG_GENERIC_IOMAP'
p3121
S'y'
sS'kernel.sched_domain.cpu9.domain1.min_interval'
p3122
I60
sS'CONFIG_VHOST_NET'
p3123
S'm'
sS'net.ipv4.conf.ens3.forwarding'
p3124
I0
sS'kernel.sched_domain.cpu2.domain1.cache_nice_tries'
p3125
I2
sS'kernel.sched_domain.cpu6.domain0.cache_nice_tries'
p3126
I1
sS'net.ipv6.conf.default.autoconf'
p3127
I1
sS'fs.pipe-user-pages-soft'
p3128
I16384
sS'CONFIG_CRYPTO_SIMD'
p3129
S'm'
sS'CONFIG_SND_PCM_TIMER'
p3130
S'y'
sS'kernel.sched_domain.cpu43.domain0.max_interval'
p3131
I20
sS'CONFIG_X86_INTEL_PSTATE'
p3132
S'y'
sS'net.ipv4.tcp_mtu_probing'
p3133
I0
sS'kernel.sched_domain.cpu20.domain0.wake_idx'
p3134
I0
sS'CONFIG_MFD_TWL4030_AUDIO'
p3135
S'y'
sS'CONFIG_CGROUP_PERF'
p3136
S'y'
sS'CONFIG_WATCHDOG_HANDLE_BOOT_ENABLED'
p3137
S'y'
sS'CONFIG_SOLARIS_X86_PARTITION'
p3138
S'y'
sS'kernel.sched_domain.cpu12.domain1.newidle_idx'
p3139
I0
sS'kernel.sched_domain.cpu11.domain0.idle_idx'
p3140
I1
sS'kernel.sched_domain.cpu5.domain1.name'
p3141
S'NUMA'
p3142
sS'CONFIG_LEGACY_PTY_COUNT'
p3143
I0
sS'CONFIG_TRACING_SUPPORT'
p3144
S'y'
sS'CONFIG_NEED_SG_DMA_LENGTH'
p3145
S'y'
sS'vm.hugepages_treat_as_movable'
p3146
I0
sS'CONFIG_GENERIC_CALIBRATE_DELAY'
p3147
S'y'
sS'CONFIG_ARCH_HAS_DEVMEM_IS_ALLOWED'
p3148
S'y'
sS'kernel.sched_domain.cpu45.domain0.cache_nice_tries'
p3149
I1
sS'CONFIG_ACPI_CONTAINER'
p3150
S'y'
sS'kernel.ftrace_enabled'
p3151
I1
sS'kernel.sched_domain.cpu54.domain0.busy_factor'
p3152
I32
sS'kernel.sched_domain.cpu32.domain1.imbalance_pct'
p3153
I125
sS'kernel.sched_domain.cpu54.domain1.idle_idx'
p3154
I2
sS'CONFIG_CRYPTO_RNG'
p3155
S'y'
sS'CONFIG_MODULES_TREE_LOOKUP'
p3156
S'y'
sS'CONFIG_ECRYPT_FS_MESSAGING'
p3157
S'y'
sS'kernel.sched_domain.cpu55.domain0.imbalance_pct'
p3158
I125
sS'CONFIG_RTC_HCTOSYS_DEVICE'
p3159
S'"rtc0"'
p3160
sS'net.ipv4.conf.ens3.src_valid_mark'
p3161
I0
sS'CONFIG_EFI_VARS'
p3162
S'y'
sS'kernel.sched_domain.cpu16.domain0.idle_idx'
p3163
I1
sS'CONFIG_KEXEC_FILE'
p3164
S'y'
sS'CONFIG_I2C_BOARDINFO'
p3165
S'y'
sS'net.ipv4.tcp_mem'
p3166
S'768591\t1024791\t1537182'
p3167
sS'CONFIG_SECCOMP'
p3168
S'y'
sS'CONFIG_CRYPTO_RNG2'
p3169
S'y'
sS'kernel.sched_domain.cpu20.domain1.max_interval'
p3170
I120
sS'CONFIG_ARCH_MMAP_RND_BITS'
p3171
I28
sS'kernel.sched_domain.cpu36.domain0.imbalance_pct'
p3172
I125
sS'CONFIG_GENERIC_STRNLEN_USER'
p3173
S'y'
sS'kernel.sched_domain.cpu39.domain1.newidle_idx'
p3174
I0
sS'kernel.sched_domain.cpu22.domain1.newidle_idx'
p3175
I0
sS'CONFIG_PMIC_DA9052'
p3176
S'y'
sS'CONFIG_KGDB_SERIAL_CONSOLE'
p3177
S'y'
sS'kernel.sched_domain.cpu23.domain1.max_newidle_lb_cost'
p3178
I69723
sS'CONFIG_IMA_DEFAULT_TEMPLATE'
p3179
S'"ima-ng"'
p3180
sS'kernel.printk_devkmsg'
p3181
S'ratelimit'
p3182
sS'CONFIG_VIRTIO_MMIO_CMDLINE_DEVICES'
p3183
S'y'
sS'kernel.sched_domain.cpu6.domain0.busy_idx'
p3184
I2
sS'CONFIG_CRYPTO_SHA1'
p3185
S'y'
sS'CONFIG_MMIOTRACE'
p3186
S'y'
sS'kernel.sched_domain.cpu10.domain1.busy_factor'
p3187
I32
sS'CONFIG_HW_RANDOM'
p3188
S'y'
sS'CONFIG_ARCH_HAS_CPU_RELAX'
p3189
S'y'
sS'kernel.sched_domain.cpu11.domain1.wake_idx'
p3190
I0
sS'CONFIG_ARCH_ENABLE_THP_MIGRATION'
p3191
S'y'
sS'vm.user_reserve_kbytes'
p3192
I131072
sS'CONFIG_PARAVIRT_TIME_ACCOUNTING'
p3193
S'y'
sS'kernel.sched_domain.cpu7.domain0.name'
p3194
S'DIE'
p3195
sS'net.ipv4.neigh.ens3.delay_first_probe_time'
p3196
I5
sS'net.ipv4.neigh.ens3.retrans_time_ms'
p3197
I1000
sS'kernel.sched_domain.cpu51.domain0.forkexec_idx'
p3198
I0
sS'CONFIG_SND_SPI'
p3199
S'y'
sS'kernel.sched_domain.cpu44.domain0.max_interval'
p3200
I20
sS'CONFIG_ACPI_APEI_PCIEAER'
p3201
S'y'
sS'kernel.sched_domain.cpu42.domain0.busy_factor'
p3202
I32
sS'net.ipv4.route.gc_timeout'
p3203
I300
sS'CONFIG_ARCH_MMAP_RND_COMPAT_BITS_MAX'
p3204
I16
sS'CONFIG_SPARSEMEM'
p3205
S'y'
sS'kernel.sched_domain.cpu39.domain0.cache_nice_tries'
p3206
I1
sS'kernel.sched_domain.cpu17.domain0.idle_idx'
p3207
I1
sS'CONFIG_HAVE_DMA_API_DEBUG'
p3208
S'y'
sS'CONFIG_ACPI_BUTTON'
p3209
S'y'
sS'CONFIG_PINMUX'
p3210
S'y'
sS'CONFIG_TTY'
p3211
S'y'
sS'kernel.sched_domain.cpu45.domain1.idle_idx'
p3212
I2
sS'CONFIG_XZ_DEC'
p3213
S'y'
sS'kernel.sched_domain.cpu34.domain0.cache_nice_tries'
p3214
I1
sS'CONFIG_BOUNCE'
p3215
S'y'
sS'CONFIG_X86_PM_TIMER'
p3216
S'y'
sS'net.ipv4.conf.ens3.arp_notify'
p3217
I0
sS'CONFIG_FB_CFB_IMAGEBLIT'
p3218
S'y'
sS'CONFIG_TRACER_MAX_TRACE'
p3219
S'y'
sS'kernel.sched_domain.cpu51.domain0.min_interval'
p3220
I10
sS'net.ipv6.conf.all.accept_ra_rtr_pref'
p3221
I1
sS'CONFIG_SND_X86'
p3222
S'y'
sS'kernel.sched_domain.cpu47.domain0.wake_idx'
p3223
I0
sS'CONFIG_PM_WAKELOCKS_LIMIT'
p3224
I100
sS'kernel.sched_domain.cpu9.domain0.busy_factor'
p3225
I32
sS'kernel.sched_domain.cpu56.domain0.busy_idx'
p3226
I2
sS'CONFIG_DMAR_TABLE'
p3227
S'y'
sS'CONFIG_SYSTEM_EXTRA_CERTIFICATE_SIZE'
p3228
I4096
sS'net.ipv4.conf.ens3.send_redirects'
p3229
I1
sS'net.ipv6.conf.default.accept_ra'
p3230
I1
sS'CONFIG_NETFILTER_INGRESS'
p3231
S'y'
sS'CONFIG_PREEMPT_VOLUNTARY'
p3232
S'y'
sS'CONFIG_DEVMEM'
p3233
S'y'
sS'CONFIG_FUSE_FS'
p3234
S'y'
sS'CONFIG_USER_RETURN_NOTIFIER'
p3235
S'y'
sS'kernel.sched_domain.cpu11.domain0.imbalance_pct'
p3236
I125
sS'net.ipv4.inet_peer_minttl'
p3237
I120
sS'net.ipv4.neigh.default.gc_interval'
p3238
I30
sS'kernel.sched_domain.cpu59.domain1.imbalance_pct'
p3239
I125
sS'kernel.sg-big-buff'
p3240
I32768
sS'net.ipv6.route.gc_elasticity'
p3241
I9
sS'CONFIG_ARCH_SPARSEMEM_ENABLE'
p3242
S'y'
sS'kernel.sched_domain.cpu51.domain1.max_interval'
p3243
I120
sS'kernel.sched_domain.cpu15.domain1.max_interval'
p3244
I120
sS'CONFIG_SCHED_TRACER'
p3245
S'y'
sS'CONFIG_AUDIT_WATCH'
p3246
S'y'
sS'CONFIG_SQUASHFS_DECOMP_SINGLE'
p3247
S'y'
sS'kernel.sched_domain.cpu30.domain1.max_newidle_lb_cost'
p3248
I153051
sS'net.ipv6.conf.default.temp_valid_lft'
p3249
I604800
sS'kernel.sched_domain.cpu0.domain1.newidle_idx'
p3250
I0
sS'kernel.sched_domain.cpu3.domain1.idle_idx'
p3251
I2
sS'CONFIG_ZONE_DMA32'
p3252
S'y'
sS'net.ipv6.neigh.default.app_solicit'
p3253
I0
sS'net.ipv4.tcp_timestamps'
p3254
I1
sS'kernel.sched_domain.cpu5.domain0.busy_idx'
p3255
I2
sS'CONFIG_AUDITSYSCALL'
p3256
S'y'
sS'kernel.sched_domain.cpu35.domain0.flags'
p3257
I4143
sS'kernel.sched_domain.cpu47.domain1.busy_idx'
p3258
I3
sS'CONFIG_GENERIC_CPU_AUTOPROBE'
p3259
S'y'
sS'CONFIG_SCSI_LOGGING'
p3260
S'y'
sS'CONFIG_NR_CPUS'
p3261
I512
sS'kernel.sched_domain.cpu55.domain0.newidle_idx'
p3262
I0
sS'CONFIG_ARCH_USE_CMPXCHG_LOCKREF'
p3263
S'y'
sS'user.max_user_namespaces'
p3264
I257592
sS'kernel.sched_domain.cpu44.domain0.flags'
p3265
I4143
sS'kernel.sched_domain.cpu44.domain0.busy_idx'
p3266
I2
sS'CONFIG_RD_BZIP2'
p3267
S'y'
sS'CONFIG_BIG_KEYS'
p3268
S'y'
sS'kernel.sched_domain.cpu4.domain0.flags'
p3269
I4143
sS'kernel.keys.root_maxkeys'
p3270
I1000000
sS'kernel.sched_domain.cpu25.domain0.busy_idx'
p3271
I2
sS'CONFIG_POSIX_MQUEUE_SYSCTL'
p3272
S'y'
sS'kernel.sched_domain.cpu35.domain1.busy_idx'
p3273
I3
sS'fs.nr_open'
p3274
I1048576
sS'net.ipv6.conf.ens3.disable_policy'
p3275
I0
sS'CONFIG_IOMMU_SUPPORT'
p3276
S'y'
sS'kernel.sched_domain.cpu10.domain1.busy_idx'
p3277
I3
sS'net.ipv6.neigh.lo.delay_first_probe_time'
p3278
I5
sS'kernel.sched_domain.cpu36.domain1.name'
p3279
S'NUMA'
p3280
sS'CONFIG_AMD_NUMA'
p3281
S'y'
sS'kernel.sched_domain.cpu56.domain0.wake_idx'
p3282
I0
sS'net.core.somaxconn'
p3283
I128
sS'CONFIG_AMIGA_PARTITION'
p3284
S'y'
sS'kernel.sched_domain.cpu51.domain1.wake_idx'
p3285
I0
sS'CONFIG_SQUASHFS_LZ4'
p3286
S'y'
sS'kernel.sched_domain.cpu40.domain0.flags'
p3287
I4143
sS'net.ipv6.conf.ens3.accept_ra_pinfo'
p3288
I1
sS'CONFIG_SCSI_CONSTANTS'
p3289
S'y'
sS'CONFIG_CRYPTO_DRBG_CTR'
p3290
S'y'
sS'kernel.sched_domain.cpu17.domain0.max_newidle_lb_cost'
p3291
I13141
sS'CONFIG_CRYPTO_AES'
p3292
S'y'
sS'kernel.sched_domain.cpu19.domain0.imbalance_pct'
p3293
I125
sS'CONFIG_XZ_DEC_SPARC'
p3294
S'y'
sS'CONFIG_SECURITY_SELINUX_DEVELOP'
p3295
S'y'
sS'kernel.sched_domain.cpu28.domain1.wake_idx'
p3296
I0
sS'net.ipv4.conf.lo.mc_forwarding'
p3297
I0
sS'net.ipv6.conf.ens3.autoconf'
p3298
I1
sS'kernel.sched_domain.cpu48.domain0.flags'
p3299
I4143
sS'vm.hugetlb_shm_group'
p3300
I0
sS'CONFIG_X86_TSC'
p3301
S'y'
sS'CONFIG_SECURITY_SELINUX_BOOTPARAM'
p3302
S'y'
sS'net.ipv6.flowlabel_state_ranges'
p3303
I0
sS'kernel.sched_domain.cpu15.domain1.newidle_idx'
p3304
I0
sS'CONFIG_X86_MCE_AMD'
p3305
S'y'
sS'CONFIG_PARAVIRT_CLOCK'
p3306
S'y'
sg3
(lp3307
S'HostInfo'
p3308
ag6
aS'object'
p3309
asS'CONFIG_MICROCODE_AMD'
p3310
S'y'
sS'kernel.sched_domain.cpu25.domain0.idle_idx'
p3311
I1
sS'CONFIG_LIBNVDIMM'
p3312
S'y'
sS'kernel.random.read_wakeup_threshold'
p3313
I64
sS'CONFIG_QUOTA_NETLINK_INTERFACE'
p3314
S'y'
sS'kernel.sched_domain.cpu1.domain0.wake_idx'
p3315
I0
sS'kernel.sched_domain.cpu27.domain0.busy_idx'
p3316
I2
sS'CONFIG_RESET_CONTROLLER'
p3317
S'y'
sS'net.ipv4.tcp_no_metrics_save'
p3318
I0
sS'CONFIG_I2C_HELPER_AUTO'
p3319
S'y'
sS'kernel.sched_domain.cpu38.domain1.cache_nice_tries'
p3320
I2
sS'CONFIG_JBD2'
p3321
S'y'
sS'kernel.sched_domain.cpu1.domain0.forkexec_idx'
p3322
I0
sS'kernel.sched_domain.cpu15.domain0.busy_factor'
p3323
I32
sS'CONFIG_PARTITION_ADVANCED'
p3324
S'y'
sS'CONFIG_EFI_STUB'
p3325
S'y'
sS'net.ipv6.neigh.ens3.mcast_resolicit'
p3326
I0
sS'kernel.sched_domain.cpu35.domain1.busy_factor'
p3327
I32
sS'kernel.sched_domain.cpu37.domain0.busy_factor'
p3328
I32
sS'net.ipv4.conf.all.arp_announce'
p3329
I0
sS'kernel.sched_domain.cpu29.domain1.busy_factor'
p3330
I32
sS'kernel.sched_domain.cpu24.domain1.idle_idx'
p3331
I2
sS'CONFIG_RTC_INTF_DEV'
p3332
S'y'
sS'CONFIG_EXT4_FS_POSIX_ACL'
p3333
S'y'
sS'CONFIG_SRCU'
p3334
S'y'
sS'kernel.sched_domain.cpu46.domain1.busy_factor'
p3335
I32
sS'CONFIG_SND_VMASTER'
p3336
S'y'
sS'CONFIG_INPUT_EVDEV'
p3337
S'y'
sS'net.ipv4.conf.all.arp_ignore'
p3338
I0
sS'kernel.sched_domain.cpu13.domain0.busy_idx'
p3339
I2
sS'kernel.sched_domain.cpu43.domain0.flags'
p3340
I4143
sS'kernel.sched_domain.cpu33.domain0.forkexec_idx'
p3341
I0
sS'kernel.sched_domain.cpu53.domain1.name'
p3342
S'NUMA'
p3343
sS'kernel.sched_domain.cpu25.domain1.imbalance_pct'
p3344
I125
sS'kernel.sched_domain.cpu3.domain0.flags'
p3345
I4143
sS'kernel.sched_domain.cpu12.domain1.max_interval'
p3346
I120
sS'CONFIG_SERIO'
p3347
S'y'
sS'net.ipv6.conf.ens3.accept_ra_min_hop_limit'
p3348
I1
sS'CONFIG_HPET_EMULATE_RTC'
p3349
S'y'
sS'kernel.sched_domain.cpu31.domain1.name'
p3350
S'NUMA'
p3351
sS'CONFIG_SERIAL_8250_RUNTIME_UARTS'
p3352
I32
sS'CONFIG_FB_EFI'
p3353
S'y'
sS'kernel.sched_domain.cpu54.domain0.idle_idx'
p3354
I1
sS'kernel.sched_domain.cpu29.domain0.max_newidle_lb_cost'
p3355
I15548
sS'CONFIG_CRYPTO_GF128MUL'
p3356
S'y'
sS'CONFIG_SQUASHFS_LZO'
p3357
S'y'
sS'kernel.sched_domain.cpu42.domain1.busy_factor'
p3358
I32
sS'kernel.sched_domain.cpu53.domain1.forkexec_idx'
p3359
I0
sS'kernel.sched_domain.cpu45.domain0.min_interval'
p3360
I10
sS'CONFIG_SCSI_DH'
p3361
S'y'
sS'kernel.sched_domain.cpu32.domain0.flags'
p3362
I4143
sS'kernel.sched_domain.cpu4.domain1.name'
p3363
S'NUMA'
p3364
sS'kernel.unknown_nmi_panic'
p3365
I0
sS'kernel.sched_domain.cpu22.domain0.max_interval'
p3366
I20
sS'kernel.sched_domain.cpu39.domain0.idle_idx'
p3367
I1
sS'net.ipv4.conf.all.route_localnet'
p3368
I0
sS'kernel.seccomp.actions_logged'
p3369
S'kill_process kill_thread trap errno trace log'
p3370
sS'kernel.sched_domain.cpu1.domain1.flags'
p3371
I25647
sS'net.ipv6.conf.all.force_mld_version'
p3372
I0
sS'CONFIG_CRASH_DUMP'
p3373
S'y'
sS'CONFIG_SECURITY_TOMOYO'
p3374
S'y'
sS'CONFIG_MSDOS_PARTITION'
p3375
S'y'
sS'kernel.sched_domain.cpu15.domain1.imbalance_pct'
p3376
I125
sS'CONFIG_SND_MAX_CARDS'
p3377
I32
sS'vm.overcommit_kbytes'
p3378
I0
sS'kernel.sched_domain.cpu50.domain0.busy_factor'
p3379
I32
sS'net.ipv4.conf.all.drop_unicast_in_l2_multicast'
p3380
I0
sS'CONFIG_POWER_SUPPLY'
p3381
S'y'
sS'kernel.sched_domain.cpu2.domain0.cache_nice_tries'
p3382
I1
sS'CONFIG_DECOMPRESS_LZMA'
p3383
S'y'
sS'net.ipv6.conf.all.ndisc_notify'
p3384
I0
sS'kernel.sched_domain.cpu7.domain0.max_interval'
p3385
I20
sS'CONFIG_CALGARY_IOMMU'
p3386
S'y'
sS'net.ipv4.neigh.lo.unres_qlen'
p3387
I101
sS'kernel.sched_domain.cpu38.domain1.max_interval'
p3388
I120
sS'CONFIG_IO_DELAY_TYPE_0X80'
p3389
I0
sS'CONFIG_SND_JACK'
p3390
S'y'
sS'CONFIG_DYNAMIC_DEBUG'
p3391
S'y'
sS'kernel.sched_domain.cpu54.domain1.min_interval'
p3392
I60
sS'kernel.printk_ratelimit_burst'
p3393
I10
sS'CONFIG_CRYPTO_SEQIV'
p3394
S'y'
sS'net.ipv6.auto_flowlabels'
p3395
I1
sS'CONFIG_NET_VENDOR_OKI'
p3396
S'y'
sS'kernel.sched_domain.cpu3.domain0.busy_factor'
p3397
I32
sS'kernel.sched_domain.cpu51.domain1.busy_factor'
p3398
I32
sS'CONFIG_DECOMPRESS_GZIP'
p3399
S'y'
sS'net.ipv6.conf.lo.accept_ra_mtu'
p3400
I1
sS'kernel.sched_domain.cpu16.domain0.flags'
p3401
I4143
sS'CONFIG_RAID6_PQ'
p3402
S'm'
sS'CONFIG_CFQ_GROUP_IOSCHED'
p3403
S'y'
sS'CONFIG_HAVE_ARCH_MMAP_RND_BITS'
p3404
S'y'
sS'fs.quota.reads'
p3405
I0
sS'kernel.sched_domain.cpu5.domain1.newidle_idx'
p3406
I0
sS'kernel.numa_balancing_scan_size_mb'
p3407
I256
sS'CONFIG_OID_REGISTRY'
p3408
S'y'
sS'net.ipv4.conf.lo.shared_media'
p3409
I1
sS'CONFIG_NLS'
p3410
S'y'
sS'kernel.sched_domain.cpu57.domain1.name'
p3411
S'NUMA'
p3412
sS'kernel.sched_domain.cpu39.domain1.max_interval'
p3413
I120
sS'kernel.sched_domain.cpu55.domain0.max_interval'
p3414
I20
sS'CONFIG_ARCH_HAS_STRICT_MODULE_RWX'
p3415
S'y'
sS'net.ipv4.route.redirect_silence'
p3416
I5120
sS'kernel.sched_domain.cpu45.domain1.max_newidle_lb_cost'
p3417
I40701
sS'CONFIG_ATA'
p3418
S'y'
sS'CONFIG_CGROUP_FREEZER'
p3419
S'y'
sS'CONFIG_NET_VENDOR_CHELSIO'
p3420
S'y'
sS'CONFIG_FRAMEBUFFER_CONSOLE_DETECT_PRIMARY'
p3421
S'y'
sS'CONFIG_ASN1'
p3422
S'y'
sS'kernel.sched_domain.cpu24.domain1.max_interval'
p3423
I120
sS'CONFIG_PCIEASPM'
p3424
S'y'
sS'kernel.sched_domain.cpu46.domain0.busy_factor'
p3425
I32
sS'CONFIG_PARPORT'
p3426
S'm'
sS'CONFIG_CROSS_MEMORY_ATTACH'
p3427
S'y'
sS'CONFIG_COMPACTION'
p3428
S'y'
sS'kernel.io_delay_type'
p3429
I1
sS'CONFIG_HAVE_KRETPROBES'
p3430
S'y'
sS'CONFIG_MPLS'
p3431
S'y'
sS'kernel.sched_domain.cpu53.domain0.busy_idx'
p3432
I2
sS'kernel.sched_domain.cpu30.domain0.max_interval'
p3433
I20
sS'CONFIG_CPU_IDLE_GOV_LADDER'
p3434
S'y'
sS'CONFIG_IRQ_BYPASS_MANAGER'
p3435
S'm'
sS'CONFIG_UNISYSSPAR'
p3436
S'y'
sS'CONFIG_X86_EXTENDED_PLATFORM'
p3437
S'y'
sS'net.ipv6.conf.all.autoconf'
p3438
I1
sS'CONFIG_CRC16'
p3439
S'y'
sS'CONFIG_CPU_FREQ_GOV_ONDEMAND'
p3440
S'y'
sS'CONFIG_CROSS_COMPILE'
p3441
S'""'
p3442
sS'CONFIG_ARCH_HAS_SET_MEMORY'
p3443
S'y'
sS'CONFIG_SYSCTL_SYSCALL'
p3444
S'y'
sS'kernel.sched_domain.cpu48.domain0.idle_idx'
p3445
I1
sS'net.ipv4.neigh.ens3.mcast_solicit'
p3446
I3
sS'kernel.sched_domain.cpu55.domain1.idle_idx'
p3447
I2
sS'CONFIG_PRINTK_SAFE_LOG_BUF_SHIFT'
p3448
I13
sS'CONFIG_NET_RX_BUSY_POLL'
p3449
S'y'
sS'CONFIG_GENERIC_TIME_VSYSCALL'
p3450
S'y'
sS'kernel.sched_domain.cpu19.domain1.forkexec_idx'
p3451
I0
sS'CONFIG_HARDLOCKUP_DETECTOR_PERF'
p3452
S'y'
sS'CONFIG_USB_PHY'
p3453
S'y'
sS'CONFIG_LDM_PARTITION'
p3454
S'y'
sS'CONFIG_FUNCTION_PROFILER'
p3455
S'y'
sS'kernel.sched_domain.cpu14.domain0.max_newidle_lb_cost'
p3456
I11923
sS'CONFIG_CRYPTO_MD5'
p3457
S'y'
sS'kernel.sched_domain.cpu32.domain0.forkexec_idx'
p3458
I0
sS'CONFIG_RCU_NEED_SEGCBLIST'
p3459
S'y'
sS'kernel.sched_domain.cpu3.domain1.name'
p3460
S'NUMA'
p3461
sS'kernel.sched_domain.cpu38.domain0.wake_idx'
p3462
I0
sS'CONFIG_MULTIUSER'
p3463
S'y'
sS'net.ipv4.tcp_wmem'
p3464
S'4096\t16384\t4194304'
p3465
sS'kernel.sched_domain.cpu9.domain1.idle_idx'
p3466
I2
sS'CONFIG_CRYPTO_HW'
p3467
S'y'
sS'kernel.sched_nr_migrate'
p3468
I32
sS'CONFIG_HAVE_KVM_MSI'
p3469
S'y'
sS'kernel.sched_domain.cpu56.domain1.cache_nice_tries'
p3470
I2
sS'kernel.sched_domain.cpu13.domain0.wake_idx'
p3471
I0
sS'kernel.sched_domain.cpu1.domain1.busy_idx'
p3472
I3
sS'kernel.sched_domain.cpu39.domain0.max_newidle_lb_cost'
p3473
I208155
sS'kernel.keys.root_maxbytes'
p3474
I25000000
sS'kernel.sched_domain.cpu25.domain0.max_newidle_lb_cost'
p3475
I25342
sS'CONFIG_NET_VENDOR_BROADCOM'
p3476
S'y'
sS'kernel.sched_domain.cpu24.domain0.min_interval'
p3477
I10
sS'CONFIG_PCIEAER'
p3478
S'y'
sS'net.ipv4.conf.ens3.bootp_relay'
p3479
I0
sS'CONFIG_MICROCODE_OLD_INTERFACE'
p3480
S'y'
sS'kernel.cap_last_cap'
p3481
I37
sS'kernel.sched_domain.cpu17.domain1.flags'
p3482
I25647
sS'CONFIG_ARCH_SUPPORTS_MEMORY_FAILURE'
p3483
S'y'
sS'CONFIG_TCP_MD5SIG'
p3484
S'y'
sS'CONFIG_ARCH_USE_QUEUED_RWLOCKS'
p3485
S'y'
sS'CONFIG_PNPACPI'
p3486
S'y'
sS'vm.nr_pdflush_threads'
p3487
I0
sS'kernel.sched_domain.cpu54.domain1.name'
p3488
S'NUMA'
p3489
sS'kernel.sched_domain.cpu8.domain0.newidle_idx'
p3490
I0
sS'kernel.sched_domain.cpu13.domain1.cache_nice_tries'
p3491
I2
sS'kernel.sched_domain.cpu18.domain0.max_newidle_lb_cost'
p3492
I48616
sS'CONFIG_CRYPTO_CRC32C_INTEL'
p3493
S'y'
sS'CONFIG_ACPI_BATTERY'
p3494
S'y'
sS'kernel.sched_domain.cpu20.domain1.wake_idx'
p3495
I0
sS'CONFIG_ACPI_PROCESSOR_IDLE'
p3496
S'y'
sS'kernel.sched_domain.cpu13.domain0.flags'
p3497
I4143
sS'kernel.printk'
p3498
S'4\t4\t1\t7'
p3499
sS'CONFIG_PID_NS'
p3500
S'y'
sS'CONFIG_NETFILTER'
p3501
S'y'
sS'user.max_inotify_instances'
p3502
I1024
sS'CONFIG_ACPI_CPPC_LIB'
p3503
S'y'
sS'CONFIG_ACPI_AC'
p3504
S'y'
sS'kernel.sched_domain.cpu34.domain1.wake_idx'
p3505
I0
sS'CONFIG_BINFMT_SCRIPT'
p3506
S'y'
sS'CONFIG_TMPFS_POSIX_ACL'
p3507
S'y'
sS'net.ipv6.conf.default.max_desync_factor'
p3508
I600
sS'CONFIG_DEFAULT_DEADLINE'
p3509
S'y'
sS'CONFIG_MFD_SEC_CORE'
p3510
S'y'
sS'kernel.sched_domain.cpu10.domain1.min_interval'
p3511
I60
sS'CONFIG_NET_VENDOR_QUALCOMM'
p3512
S'y'
sS'kernel.sched_domain.cpu46.domain0.max_interval'
p3513
I20
sS'net.ipv4.igmp_max_memberships'
p3514
I20
sS'CONFIG_X86_REROUTE_FOR_BROKEN_BOOT_IRQS'
p3515
S'y'
sS'kernel.sched_domain.cpu18.domain1.max_interval'
p3516
I120
sS'kernel.sched_domain.cpu39.domain1.imbalance_pct'
p3517
I125
sS'net.ipv6.conf.lo.router_solicitation_interval'
p3518
I4
sS'CONFIG_MODULE_SIG_HASH'
p3519
S'"sha512"'
p3520
sS'net.ipv6.conf.lo.accept_ra_defrtr'
p3521
I1
sS'CONFIG_SOCK_CGROUP_DATA'
p3522
S'y'
sS'debug.exception-trace'
p3523
I1
sS'CONFIG_ACPI_NUMA'
p3524
S'y'
sS'CONFIG_SECURITY_SELINUX_AVC_STATS'
p3525
S'y'
sS'kernel.sched_domain.cpu53.domain0.max_newidle_lb_cost'
p3526
I308220
sS'net.ipv4.udp_l3mdev_accept'
p3527
I0
sS'CONFIG_IMA_MEASURE_PCR_IDX'
p3528
I10
sS'CONFIG_MODULE_SRCVERSION_ALL'
p3529
S'y'
sS'CONFIG_X86'
p3530
S'y'
sS'CONFIG_CRC_T10DIF'
p3531
S'y'
sS'kernel.sched_domain.cpu50.domain0.min_interval'
p3532
I10
sS'net.ipv6.neigh.lo.locktime'
p3533
I0
sS'kernel.sched_domain.cpu47.domain0.min_interval'
p3534
I10
sS'kernel.unprivileged_bpf_disabled'
p3535
I0
sS'kernel.sched_domain.cpu50.domain0.newidle_idx'
p3536
I0
sS'net.ipv6.conf.all.router_solicitation_delay'
p3537
I1
sS'CONFIG_EARLY_PRINTK_DBGP'
p3538
S'y'
sS'kernel.sched_domain.cpu35.domain1.max_interval'
p3539
I120
sS'kernel.sched_domain.cpu18.domain0.max_interval'
p3540
I20
sS'CONFIG_TREE_SRCU'
p3541
S'y'
sS'net.ipv4.tcp_rmem'
p3542
S'4096\t87380\t6291456'
p3543
sS'CONFIG_PCI_IOV'
p3544
S'y'
sS'CONFIG_ATA_PIIX'
p3545
S'y'
sS'kernel.sched_domain.cpu20.domain1.flags'
p3546
I25647
sS'kernel.sched_domain.cpu57.domain0.min_interval'
p3547
I10
sS'kernel.sched_domain.cpu1.domain0.max_newidle_lb_cost'
p3548
I221794
sS'kernel.sched_domain.cpu10.domain1.cache_nice_tries'
p3549
I2
sS'CONFIG_IP_ROUTE_VERBOSE'
p3550
S'y'
sS'kernel.sched_domain.cpu31.domain1.busy_idx'
p3551
I3
sS'CONFIG_SND_HDA_INPUT_BEEP'
p3552
S'y'
sS'fs.epoll.max_user_watches'
p3553
I13505269
sS'CONFIG_SERIAL_8250'
p3554
S'y'
sS'CONFIG_CRYPTO_BLKCIPHER'
p3555
S'y'
sS'net.ipv6.conf.default.temp_prefered_lft'
p3556
I86400
sS'kernel.sched_domain.cpu32.domain0.min_interval'
p3557
I10
sS'CONFIG_IP_NF_IPTABLES'
p3558
S'm'
sS'kernel.sched_domain.cpu49.domain1.cache_nice_tries'
p3559
I2
sS'kernel.sched_domain.cpu1.domain1.cache_nice_tries'
p3560
I2
sS'kernel.sched_domain.cpu17.domain1.busy_idx'
p3561
I3
sS'kernel.sched_domain.cpu36.domain0.wake_idx'
p3562
I0
sS'kernel.sched_domain.cpu51.domain0.flags'
p3563
I4143
sS'kernel.sched_domain.cpu37.domain0.wake_idx'
p3564
I0
sS'kernel.sched_domain.cpu29.domain0.flags'
p3565
I4143
sS'kernel.pty.nr'
p3566
I0
sS'kernel.sched_domain.cpu29.domain1.newidle_idx'
p3567
I0
sS'net.ipv6.conf.lo.accept_dad'
p3568
S'-1'
p3569
sS'net.ipv6.conf.ens3.router_solicitation_delay'
p3570
I1
sS'net.ipv6.conf.lo.mldv1_unsolicited_report_interval'
p3571
I10000
sS'kernel.sched_domain.cpu9.domain1.name'
p3572
S'NUMA'
p3573
sS'net.ipv4.ip_forward_use_pmtu'
p3574
I0
sS'kernel.sched_domain.cpu32.domain0.busy_idx'
p3575
I2
sS'CONFIG_VIRT_TO_BUS'
p3576
S'y'
sS'net.ipv6.conf.ens3.router_solicitation_max_interval'
p3577
I3600
sS'kernel.sched_domain.cpu8.domain0.imbalance_pct'
p3578
I125
sS'net.ipv4.tcp_base_mss'
p3579
I1024
sS'CONFIG_HAVE_PERF_EVENTS_NMI'
p3580
S'y'
sS'kernel.sched_domain.cpu41.domain0.flags'
p3581
I4143
sS'CONFIG_MFD_WM8350'
p3582
S'y'
sS'net.ipv6.conf.all.accept_ra_mtu'
p3583
I1
sS'CONFIG_JUMP_LABEL'
p3584
S'y'
sS'kernel.sched_domain.cpu10.domain1.name'
p3585
S'NUMA'
p3586
sS'kernel.sched_domain.cpu46.domain1.min_interval'
p3587
I60
sS'kernel.sched_domain.cpu37.domain0.max_interval'
p3588
I20
sS'kernel.sched_domain.cpu9.domain0.max_interval'
p3589
I20
sS'CONFIG_FS_DAX'
p3590
S'y'
sS'kernel.sched_domain.cpu55.domain0.min_interval'
p3591
I10
sS'kernel.sched_domain.cpu21.domain0.min_interval'
p3592
I10
sS'kernel.sched_domain.cpu43.domain1.wake_idx'
p3593
I0
sS'kernel.sched_domain.cpu48.domain1.idle_idx'
p3594
I2
sS'CONFIG_MFD_TPS65912'
p3595
S'y'
sS'kernel.sched_domain.cpu13.domain0.newidle_idx'
p3596
I0
sS'CONFIG_USELIB'
p3597
S'y'
sS'net.ipv6.neigh.lo.ucast_solicit'
p3598
I3
sS'kernel.sched_domain.cpu16.domain1.idle_idx'
p3599
I2
sS'kernel.core_uses_pid'
p3600
I0
sS'net.ipv6.conf.lo.drop_unicast_in_l2_multicast'
p3601
I0
sS'CONFIG_NET_FC'
p3602
S'y'
sS'net.ipv6.conf.default.router_solicitation_delay'
p3603
I1
sS'kernel.sched_domain.cpu24.domain1.imbalance_pct'
p3604
I125
sS'CONFIG_THERMAL_GOV_USER_SPACE'
p3605
S'y'
sS'CONFIG_PCI_LOCKLESS_CONFIG'
p3606
S'y'
sS'kernel.sched_domain.cpu42.domain1.forkexec_idx'
p3607
I0
sS'CONFIG_UEVENT_HELPER_PATH'
p3608
S'""'
p3609
sS'net.ipv6.neigh.ens3.anycast_delay'
p3610
I100
sS'net.ipv4.conf.lo.drop_gratuitous_arp'
p3611
I0
sS'kernel.sched_domain.cpu4.domain1.newidle_idx'
p3612
I0
sS'net.ipv6.conf.ens3.mldv1_unsolicited_report_interval'
p3613
I10000
sS'net.ipv4.conf.lo.ignore_routes_with_linkdown'
p3614
I0
sS'CONFIG_NET_CORE'
p3615
S'y'
sS'kernel.panic_on_unrecovered_nmi'
p3616
I0
sS'net.ipv6.route.max_size'
p3617
I4096
sS'net.ipv6.conf.default.keep_addr_on_down'
p3618
I0
sS'kernel.sched_domain.cpu4.domain0.max_newidle_lb_cost'
p3619
I12895
sS'kernel.sched_domain.cpu37.domain0.name'
p3620
S'DIE'
p3621
sS'kernel.sched_domain.cpu26.domain1.forkexec_idx'
p3622
I0
sS'kernel.sched_domain.cpu35.domain0.forkexec_idx'
p3623
I0
sS'CONFIG_NOP_TRACER'
p3624
S'y'
sS'CONFIG_FUNCTION_TRACER'
p3625
S'y'
sS'net.ipv4.tcp_stdurg'
p3626
I0
sS'CONFIG_CPU_FREQ_STAT'
p3627
S'y'
sS'net.ipv4.neigh.ens3.locktime'
p3628
I100
sS'net.ipv4.ipfrag_high_thresh'
p3629
I4194304
sS'net.ipv4.tcp_fwmark_accept'
p3630
I0
sS'net.ipv6.neigh.lo.unres_qlen_bytes'
p3631
I212992
sS'CONFIG_POSIX_TIMERS'
p3632
S'y'
sS'CONFIG_LWTUNNEL_BPF'
p3633
S'y'
sS'kernel.sched_domain.cpu12.domain1.cache_nice_tries'
p3634
I2
sS'net.ipv4.conf.default.disable_xfrm'
p3635
I0
sS'kernel.sched_domain.cpu13.domain0.imbalance_pct'
p3636
I125
sS'CONFIG_PHYSICAL_START'
p3637
S'0x1000000'
p3638
sS'CONFIG_COMPAT_OLD_SIGACTION'
p3639
S'y'
sS'net.ipv6.conf.lo.router_probe_interval'
p3640
I60
sS'kernel.sched_domain.cpu33.domain0.flags'
p3641
I4143
sS'kernel.sched_domain.cpu42.domain0.forkexec_idx'
p3642
I0
sS'kernel.sched_domain.cpu23.domain1.busy_idx'
p3643
I3
sS'net.ipv6.conf.ens3.max_addresses'
p3644
I16
sS'kernel.sched_domain.cpu55.domain1.name'
p3645
S'NUMA'
p3646
sS'CONFIG_SPARSEMEM_EXTREME'
p3647
S'y'
sS'CONFIG_SCHED_MC_PRIO'
p3648
S'y'
sS'kernel.sched_domain.cpu47.domain0.max_newidle_lb_cost'
p3649
I117561
sS'net.ipv4.conf.all.accept_source_route'
p3650
I0
sS'CONFIG_I2C'
p3651
S'y'
sS'CONFIG_X86_PAT'
p3652
S'y'
sS'CONFIG_GENERIC_HWEIGHT'
p3653
S'y'
sS'kernel.sched_domain.cpu6.domain0.max_interval'
p3654
I20
sS'CONFIG_X86_CHECK_BIOS_CORRUPTION'
p3655
S'y'
sS'kernel.sched_domain.cpu41.domain1.busy_factor'
p3656
I32
sS'kernel.sched_domain.cpu24.domain1.wake_idx'
p3657
I0
sS'CONFIG_ARCH_HAS_SG_CHAIN'
p3658
S'y'
sS'kernel.sched_domain.cpu49.domain1.forkexec_idx'
p3659
I0
sS'kernel.sched_domain.cpu26.domain0.max_newidle_lb_cost'
p3660
I67869
sS'kernel.sched_domain.cpu39.domain0.busy_factor'
p3661
I32
sS'net.ipv4.tcp_l3mdev_accept'
p3662
I0
sS'CONFIG_RT_MUTEXES'
p3663
S'y'
sS'net.core.rmem_default'
p3664
I212992
sS'vm.min_unmapped_ratio'
p3665
I1
sS'CONFIG_RPS'
p3666
S'y'
sS'kernel.sched_domain.cpu7.domain1.newidle_idx'
p3667
I0
sS'CONFIG_RFKILL_LEDS'
p3668
S'y'
sS'CONFIG_ARCH_USES_HIGH_VMA_FLAGS'
p3669
S'y'
sS'kernel.sched_domain.cpu30.domain0.name'
p3670
S'DIE'
p3671
sS'kernel.sched_domain.cpu44.domain0.cache_nice_tries'
p3672
I1
sS'net.ipv4.conf.lo.drop_unicast_in_l2_multicast'
p3673
I0
sS'net.ipv4.cipso_cache_bucket_size'
p3674
I10
sS'kernel.sched_domain.cpu24.domain1.name'
p3675
S'NUMA'
p3676
sS'net.ipv6.conf.all.regen_max_retry'
p3677
I3
sS'net.ipv6.conf.all.accept_ra_defrtr'
p3678
I1
sS'kernel.numa_balancing_scan_delay_ms'
p3679
I1000
sS'kernel.sched_domain.cpu47.domain1.forkexec_idx'
p3680
I0
sS'net.ipv4.conf.all.arp_notify'
p3681
I0
sS'CONFIG_ARCH_DISCARD_MEMBLOCK'
p3682
S'y'
sS'CONFIG_VIRTIO_PCI'
p3683
S'y'
sS'kernel.kexec_load_disabled'
p3684
I0
sS'kernel.sched_domain.cpu0.domain1.busy_idx'
p3685
I3
sS'CONFIG_LEDS_TRIGGERS'
p3686
S'y'
sS'CONFIG_X86_64'
p3687
S'y'
sS'net.ipv6.conf.default.suppress_frag_ndisc'
p3688
I1
sS'CONFIG_CRYPTO_MANAGER2'
p3689
S'y'
sS'CONFIG_USB_ARCH_HAS_HCD'
p3690
S'y'
sS'fs.file-nr'
p3691
S'3639\t0\t6578986'
p3692
sS'CONFIG_OPROFILE_NMI_TIMER'
p3693
S'y'
sS'fs.quota.cache_hits'
p3694
I0
sS'CONFIG_X86_SMAP'
p3695
S'y'
sS'kernel.sched_domain.cpu42.domain1.flags'
p3696
I25647
sS'CONFIG_SLUB_CPU_PARTIAL'
p3697
S'y'
sS'kernel.sched_domain.cpu10.domain0.max_interval'
p3698
I20
sS'CONFIG_HAVE_MEMBLOCK_NODE_MAP'
p3699
S'y'
sS'kernel.sched_domain.cpu27.domain1.wake_idx'
p3700
I0
sS'CONFIG_CRYPTO_AEAD'
p3701
S'y'
sS'kernel.sched_domain.cpu34.domain1.idle_idx'
p3702
I2
sS'kernel.sched_domain.cpu38.domain1.newidle_idx'
p3703
I0
sS'kernel.sched_domain.cpu12.domain0.newidle_idx'
p3704
I0
sS'kernel.sched_domain.cpu44.domain0.idle_idx'
p3705
I1
sS'CONFIG_ARCH_MAY_HAVE_PC_FDC'
p3706
S'y'
sS'kernel.sched_domain.cpu23.domain1.name'
p3707
S'NUMA'
p3708
sS'net.ipv6.neigh.default.mcast_resolicit'
p3709
I0
sS'kernel.tainted'
p3710
I0
sS'kernel.sched_domain.cpu22.domain0.newidle_idx'
p3711
I0
sS'kernel.sched_domain.cpu8.domain1.flags'
p3712
I25647
sS'CONFIG_VMAP_STACK'
p3713
S'y'
sS'CONFIG_REGULATOR_TPS65217'
p3714
S'y'
sS'CONFIG_HIBERNATE_CALLBACKS'
p3715
S'y'
sS'CONFIG_CLKBLD_I8253'
p3716
S'y'
sS'kernel.sched_domain.cpu57.domain0.busy_factor'
p3717
I32
sS'kernel.sched_domain.cpu4.domain0.wake_idx'
p3718
I0
sS'kernel.sched_latency_ns'
p3719
I24000000
sS'CONFIG_BLK_MQ_VIRTIO'
p3720
S'y'
sS'kernel.sched_domain.cpu13.domain0.min_interval'
p3721
I10
sS'CONFIG_NAMESPACES'
p3722
S'y'
sS'CONFIG_BPF_JIT'
p3723
S'y'
sS'CONFIG_ARCH_MMAP_RND_BITS_MAX'
p3724
I32
sS'CONFIG_DEFAULT_CUBIC'
p3725
S'y'
sS'kernel.sched_domain.cpu29.domain1.max_interval'
p3726
I120
sS'kernel.numa_balancing'
p3727
I1
sS'kernel.hardlockup_panic'
p3728
I0
sS'CONFIG_MFD_TPS65912_SPI'
p3729
S'y'
sS'CONFIG_PROC_CHILDREN'
p3730
S'y'
sS'CONFIG_PHYS_ADDR_T_64BIT'
p3731
S'y'
sS'CONFIG_HPET_TIMER'
p3732
S'y'
sS'net.ipv6.conf.all.accept_ra_rt_info_min_plen'
p3733
I0
sS'CONFIG_GENERIC_PENDING_IRQ'
p3734
S'y'
sS'net.ipv4.neigh.ens3.ucast_solicit'
p3735
I3
sS'CONFIG_KDB_CONTINUE_CATASTROPHIC'
p3736
I0
sS'kernel.sched_domain.cpu34.domain1.newidle_idx'
p3737
I0
sS'CONFIG_FB_BOOT_VESA_SUPPORT'
p3738
S'y'
sS'kernel.perf_event_max_contexts_per_stack'
p3739
I8
sS'CONFIG_DYNAMIC_FTRACE'
p3740
S'y'
sS'net.ipv6.conf.ens3.dad_transmits'
p3741
I1
sS'kernel.sched_domain.cpu45.domain0.name'
p3742
S'DIE'
p3743
sS'kernel.sched_domain.cpu10.domain0.flags'
p3744
I4143
sS'net.ipv6.conf.lo.mtu'
p3745
I65536
sS'net.ipv6.conf.all.disable_ipv6'
p3746
I0
sS'net.ipv6.conf.ens3.router_solicitations'
p3747
S'-1'
p3748
sS'kernel.sched_domain.cpu29.domain1.forkexec_idx'
p3749
I0
sS'net.ipv6.conf.lo.keep_addr_on_down'
p3750
I0
sS'CONFIG_AIO'
p3751
S'y'
sS'CONFIG_KVM_ASYNC_PF'
p3752
S'y'
sS'CONFIG_IP_MULTIPLE_TABLES'
p3753
S'y'
sS'net.ipv6.ip6frag_time'
p3754
I60
sS'CONFIG_EFIVAR_FS'
p3755
S'y'
sS'fs.aio-max-nr'
p3756
I65536
sS'CONFIG_ARCH_SUPPORTS_INT128'
p3757
S'y'
sS'kernel.sched_domain.cpu33.domain0.imbalance_pct'
p3758
I125
sS'kernel.sched_domain.cpu43.domain1.idle_idx'
p3759
I2
sS'CONFIG_SECURITY'
p3760
S'y'
sS'CONFIG_SPI'
p3761
S'y'
sS'net.ipv4.tcp_orphan_retries'
p3762
I0
sS'net.ipv4.tcp_fin_timeout'
p3763
I60
sS'CONFIG_SECTION_MISMATCH_WARN_ONLY'
p3764
S'y'
sS'CONFIG_CRYPTO_CRYPTD'
p3765
S'm'
sS'CONFIG_DEVPORT'
p3766
S'y'
sS'kernel.sched_domain.cpu59.domain1.idle_idx'
p3767
I2
sS'kernel.sched_domain.cpu21.domain1.busy_idx'
p3768
I3
sS'CONFIG_MODULE_SIG'
p3769
S'y'
sS'CONFIG_HAS_IOMEM'
p3770
S'y'
sS'kernel.sched_domain.cpu28.domain1.imbalance_pct'
p3771
I125
sS'kernel.sched_domain.cpu47.domain0.idle_idx'
p3772
I1
sS'CONFIG_ARCH_PROC_KCORE_TEXT'
p3773
S'y'
sS'CONFIG_SPARSEMEM_VMEMMAP_ENABLE'
p3774
S'y'
sS'net.ipv6.conf.default.disable_policy'
p3775
I0
sS'kernel.sched_domain.cpu24.domain0.busy_factor'
p3776
I32
sS'kernel.sched_domain.cpu56.domain1.idle_idx'
p3777
I2
sS'CONFIG_NET_CADENCE'
p3778
S'y'
sS'kernel.sched_domain.cpu9.domain1.busy_factor'
p3779
I32
sS'kernel.sched_domain.cpu25.domain1.min_interval'
p3780
I60
sS'CONFIG_ARCH_SUPPORTS_UPROBES'
p3781
S'y'
sS'kernel.sched_domain.cpu12.domain0.max_newidle_lb_cost'
p3782
I34874
sS'kernel.sched_domain.cpu39.domain0.forkexec_idx'
p3783
I0
sS'kernel.sched_domain.cpu37.domain0.min_interval'
p3784
I10
sS'net.ipv6.conf.ens3.forwarding'
p3785
I0
sS'CONFIG_NET_VENDOR_MYRI'
p3786
S'y'
sS'CONFIG_ARCH_SUPPORTS_NUMA_BALANCING'
p3787
S'y'
sS'kernel.sched_domain.cpu41.domain1.busy_idx'
p3788
I3
sS'kernel.sched_domain.cpu24.domain0.flags'
p3789
I4143
sS'net.ipv4.neigh.ens3.anycast_delay'
p3790
I100
sS'CONFIG_SND_PCM'
p3791
S'm'
sS'net.ipv6.conf.default.mldv1_unsolicited_report_interval'
p3792
I10000
sS'kernel.sched_domain.cpu29.domain0.idle_idx'
p3793
I1
sS'kernel.sched_domain.cpu36.domain1.newidle_idx'
p3794
I0
sS'CONFIG_ARCH_HAS_STRICT_KERNEL_RWX'
p3795
S'y'
sS'kernel.sched_domain.cpu39.domain1.name'
p3796
S'NUMA'
p3797
sS'CONFIG_TWL6040_CORE'
p3798
S'y'
sS'net.ipv4.tcp_sack'
p3799
I1
sS'kernel.sched_domain.cpu45.domain1.newidle_idx'
p3800
I0
sS'CONFIG_BLK_DEV_MD'
p3801
S'y'
sS'kernel.sched_domain.cpu9.domain0.min_interval'
p3802
I10
sS'net.ipv6.conf.ens3.mtu'
p3803
I1500
sS'CONFIG_IOMMU_HELPER'
p3804
S'y'
sS'kernel.ns_last_pid'
p3805
I87698
sS'kernel.sched_domain.cpu29.domain0.forkexec_idx'
p3806
I0
sS'kernel.sched_domain.cpu31.domain1.wake_idx'
p3807
I0
sS'CONFIG_RWSEM_XCHGADD_ALGORITHM'
p3808
S'y'
sS'CONFIG_HAVE_KERNEL_GZIP'
p3809
S'y'
sS'net.ipv4.route.redirect_load'
p3810
I5
sS'vm.overcommit_ratio'
p3811
I50
sS'CONFIG_MFD_TPS65217'
p3812
S'y'
sS'kernel.sched_domain.cpu8.domain1.idle_idx'
p3813
I2
sS'CONFIG_KALLSYMS'
p3814
S'y'
sS'CONFIG_ACPI'
p3815
S'y'
sS'kernel.sched_domain.cpu16.domain0.wake_idx'
p3816
I0
sS'CONFIG_ENCRYPTED_KEYS'
p3817
S'y'
sS'kernel.sched_domain.cpu11.domain0.name'
p3818
S'DIE'
p3819
sS'kernel.sched_domain.cpu34.domain0.max_interval'
p3820
I20
sS'net.ipv6.neigh.ens3.retrans_time_ms'
p3821
I1000
sS'CONFIG_ACPI_PROCESSOR_CSTATE'
p3822
S'y'
sS'CONFIG_INPUT_JOYSTICK'
p3823
S'y'
sS'CONFIG_IPV6_PIMSM_V2'
p3824
S'y'
sS'CONFIG_INITRAMFS_SOURCE'
p3825
S'""'
p3826
sS'kernel.sched_domain.cpu10.domain0.cache_nice_tries'
p3827
I1
sS'CONFIG_NET_VENDOR_TI'
p3828
S'y'
sS'kernel.sched_domain.cpu46.domain0.min_interval'
p3829
I10
sS'CONFIG_HPET_MMAP_DEFAULT'
p3830
S'y'
sS'CONFIG_PROCESSOR_SELECT'
p3831
S'y'
sS'kernel.sched_domain.cpu51.domain1.cache_nice_tries'
p3832
I2
sS'CONFIG_MQ_IOSCHED_KYBER'
p3833
S'y'
sS'user.max_cgroup_namespaces'
p3834
I257592
sS'dev.scsi.logging_level'
p3835
I0
sS'kernel.sched_domain.cpu58.domain1.max_newidle_lb_cost'
p3836
I23198
sS'CONFIG_SLHC'
p3837
S'y'
sS'CONFIG_PREVENT_FIRMWARE_BUILD'
p3838
S'y'
sS'net.ipv4.conf.default.accept_redirects'
p3839
I1
sS'CONFIG_PWM_CRC'
p3840
S'y'
sS'CONFIG_ARCH_MMAP_RND_COMPAT_BITS_MIN'
p3841
I8
sS'kernel.hung_task_panic'
p3842
I0
sS'net.ipv4.tcp_retrans_collapse'
p3843
I1
sS'CONFIG_HAVE_KPROBES_ON_FTRACE'
p3844
S'y'
sS'fs.quota.writes'
p3845
I0
sS'CONFIG_ARCH_WANT_HUGE_PMD_SHARE'
p3846
S'y'
sS'kernel.sched_domain.cpu36.domain0.busy_idx'
p3847
I2
sS'CONFIG_PROC_VMCORE'
p3848
S'y'
sS'CONFIG_ARCH_MIGHT_HAVE_PC_PARPORT'
p3849
S'y'
sS'kernel.sched_domain.cpu52.domain0.max_interval'
p3850
I20
sS'kernel.sched_domain.cpu7.domain0.wake_idx'
p3851
I0
sS'net.ipv6.conf.default.accept_ra_rt_info_max_plen'
p3852
I0
sS'kernel.sched_domain.cpu57.domain0.imbalance_pct'
p3853
I125
sS'kernel.sched_domain.cpu55.domain1.max_interval'
p3854
I120
sS'CONFIG_GENERIC_NET_UTILS'
p3855
S'y'
sS'CONFIG_SLAB_MERGE_DEFAULT'
p3856
S'y'
sS'kernel.sched_domain.cpu5.domain1.imbalance_pct'
p3857
I125
sS'CONFIG_MODULES'
p3858
S'y'
sS'CONFIG_PCI_DOMAINS'
p3859
S'y'
sS'kernel.sched_domain.cpu41.domain1.forkexec_idx'
p3860
I0
sS'CONFIG_HAVE_MMIOTRACE_SUPPORT'
p3861
S'y'
sS'CONFIG_WLAN_VENDOR_TI'
p3862
S'y'
sS'CONFIG_SND'
p3863
S'm'
sS'CONFIG_ARCH_CLOCKSOURCE_DATA'
p3864
S'y'
sS'kernel.sched_domain.cpu9.domain0.max_newidle_lb_cost'
p3865
I28699
sS'kernel.sched_domain.cpu39.domain1.busy_idx'
p3866
I3
sS'kernel.sched_domain.cpu55.domain0.name'
p3867
S'DIE'
p3868
sS'vm.dirty_background_bytes'
p3869
I0
sS'CONFIG_ARCH_SUSPEND_POSSIBLE'
p3870
S'y'
sS'kernel.sched_domain.cpu53.domain1.min_interval'
p3871
I60
sS'CONFIG_HAVE_MEMORY_PRESENT'
p3872
S'y'
sS'kernel.hardlockup_all_cpu_backtrace'
p3873
I0
sS'kernel.sched_domain.cpu34.domain0.newidle_idx'
p3874
I0
sS'net.ipv6.conf.ens3.accept_source_route'
p3875
I0
sS'net.ipv6.conf.default.router_solicitation_max_interval'
p3876
I3600
sS'kernel.sched_domain.cpu31.domain1.forkexec_idx'
p3877
I0
sS'CONFIG_FRONTSWAP'
p3878
S'y'
sS'CONFIG_NET_VENDOR_EMULEX'
p3879
S'y'
sS'kernel.watchdog'
p3880
I1
sS'kernel.sched_domain.cpu40.domain0.max_newidle_lb_cost'
p3881
I21160
sS'kernel.sched_domain.cpu48.domain1.imbalance_pct'
p3882
I125
sS'CONFIG_HYPERVISOR_GUEST'
p3883
S'y'
sS'CONFIG_GART_IOMMU'
p3884
S'y'
sS'net.ipv6.conf.all.suppress_frag_ndisc'
p3885
I1
sS'kernel.sched_domain.cpu2.domain1.newidle_idx'
p3886
I0
sS'kernel.sched_domain.cpu19.domain1.imbalance_pct'
p3887
I125
sS'net.ipv6.conf.ens3.max_desync_factor'
p3888
I600
sS'net.ipv4.icmp_ratelimit'
p3889
I1000
sS'kernel.sched_domain.cpu59.domain1.forkexec_idx'
p3890
I0
sS'CONFIG_X86_PCC_CPUFREQ'
p3891
S'y'
sS'net.ipv4.neigh.lo.app_solicit'
p3892
I0
sS'kernel.sched_domain.cpu48.domain0.busy_factor'
p3893
I32
sS'CONFIG_ARCH_USES_PG_UNCACHED'
p3894
S'y'
sS'kernel.sched_domain.cpu46.domain1.imbalance_pct'
p3895
I125
sS'CONFIG_IMA_DEFAULT_HASH_SHA1'
p3896
S'y'
sS'kernel.sched_domain.cpu26.domain1.wake_idx'
p3897
I0
sS'net.ipv6.conf.all.use_oif_addrs_only'
p3898
I0
sS'kernel.sched_tunable_scaling'
p3899
I1
sS'net.ipv4.conf.lo.tag'
p3900
I0
sS'CONFIG_RD_LZMA'
p3901
S'y'
sS'kernel.sched_domain.cpu11.domain0.wake_idx'
p3902
I0
sS'kernel.sched_domain.cpu56.domain1.newidle_idx'
p3903
I0
sS'net.ipv6.conf.lo.mc_forwarding'
p3904
I0
sS'CONFIG_WLAN_VENDOR_ATH'
p3905
S'y'
sS'kernel.sched_domain.cpu56.domain1.name'
p3906
S'NUMA'
p3907
sS'kernel.sched_domain.cpu32.domain1.busy_factor'
p3908
I32
sS'CONFIG_PM_ADVANCED_DEBUG'
p3909
S'y'
sS'kernel.bootloader_version'
p3910
I2
sS'kernel.sched_domain.cpu13.domain0.max_interval'
p3911
I20
sS'CONFIG_ARCH_MMAP_RND_COMPAT_BITS'
p3912
I8
sS'CONFIG_SND_HDA_INPUT_BEEP_MODE'
p3913
I0
sS'kernel.sched_domain.cpu26.domain0.newidle_idx'
p3914
I0
sS'net.ipv6.calipso_cache_enable'
p3915
I1
sS'fs.mount-max'
p3916
I100000
sS'kernel.sched_domain.cpu56.domain0.newidle_idx'
p3917
I0
sS'net.ipv6.conf.all.force_tllao'
p3918
I0
sS'CONFIG_USERFAULTFD'
p3919
S'y'
sS'CONFIG_CHELSIO_T4'
p3920
S'm'
sS'kernel.sched_schedstats'
p3921
I0
sS'CONFIG_ACPI_BGRT'
p3922
S'y'
sS'net.ipv4.neigh.default.gc_thresh1'
p3923
I128
sS'net.ipv4.neigh.default.gc_thresh2'
p3924
I512
sS'net.ipv4.neigh.default.gc_thresh3'
p3925
I1024
sS'kernel.sched_domain.cpu42.domain1.cache_nice_tries'
p3926
I2
sS'kernel.sched_domain.cpu31.domain0.min_interval'
p3927
I10
sS'kernel.sched_domain.cpu55.domain0.max_newidle_lb_cost'
p3928
I26010
sS'kernel.sched_domain.cpu30.domain1.name'
p3929
S'NUMA'
p3930
sS'CONFIG_MOUSE_PS2_FOCALTECH'
p3931
S'y'
sS'net.ipv4.fwmark_reflect'
p3932
I0
sS'CONFIG_IMA'
p3933
S'y'
sS'CONFIG_CPU_IDLE_GOV_MENU'
p3934
S'y'
sS'vm.dirty_background_ratio'
p3935
I10
sS'kernel.sched_domain.cpu27.domain0.imbalance_pct'
p3936
I125
sS'CONFIG_SCHED_OMIT_FRAME_POINTER'
p3937
S'y'
sS'kernel.hostname'
p3938
S'nestedvm'
p3939
sS'CONFIG_PINCTRL_AMD'
p3940
S'y'
sS'kernel.sched_domain.cpu59.domain1.busy_idx'
p3941
I3
sS'kernel.sched_domain.cpu49.domain1.busy_idx'
p3942
I3
sS'net.ipv4.conf.ens3.drop_unicast_in_l2_multicast'
p3943
I0
sS'net.ipv4.conf.lo.proxy_arp_pvlan'
p3944
I0
sS'CONFIG_DDR'
p3945
S'y'
sS'net.ipv4.conf.lo.promote_secondaries'
p3946
I0
sS'kernel.sched_domain.cpu52.domain0.name'
p3947
S'DIE'
p3948
sS'CONFIG_SRAM'
p3949
S'y'
sS'CONFIG_ARCH_HAVE_NMI_SAFE_CMPXCHG'
p3950
S'y'
sS'vm.min_free_kbytes'
p3951
I225280
sS'kernel.sched_domain.cpu25.domain1.newidle_idx'
p3952
I0
sS'CONFIG_RING_BUFFER'
p3953
S'y'
sS'kernel.sched_domain.cpu21.domain1.max_interval'
p3954
I120
sS'kernel.sched_domain.cpu55.domain1.max_newidle_lb_cost'
p3955
I25311
sS'net.ipv4.route.min_pmtu'
p3956
I552
sS'CONFIG_HAVE_ARCH_SOFT_DIRTY'
p3957
S'y'
sS'kernel.perf_cpu_time_max_percent'
p3958
I25
sS'kernel.sched_domain.cpu25.domain1.flags'
p3959
I25647
sS'CONFIG_UPROBE_EVENTS'
p3960
S'y'
sS'kernel.sched_domain.cpu10.domain0.min_interval'
p3961
I10
sS'CONFIG_PROC_KCORE'
p3962
S'y'
sS'vm.zone_reclaim_mode'
p3963
I0
sS'dev.raid.speed_limit_min'
p3964
I1000
sS'kernel.sched_domain.cpu36.domain0.forkexec_idx'
p3965
I0
sS'kernel.sched_domain.cpu8.domain1.max_newidle_lb_cost'
p3966
I33511
sS'CONFIG_SECURITY_TOMOYO_MAX_ACCEPT_ENTRY'
p3967
I2048
sS'net.ipv4.route.gc_min_interval'
p3968
I0
sS'CONFIG_MAGIC_SYSRQ_DEFAULT_ENABLE'
p3969
S'0x1'
p3970
sS'kernel.sched_domain.cpu48.domain1.max_newidle_lb_cost'
p3971
I33529
sS'kernel.sched_domain.cpu57.domain1.min_interval'
p3972
I60
sS'kernel.sched_domain.cpu4.domain1.wake_idx'
p3973
I0
sS'kernel.sched_domain.cpu53.domain1.busy_idx'
p3974
I3
sS'kernel.sched_domain.cpu42.domain0.min_interval'
p3975
I10
sS'kernel.sched_domain.cpu44.domain0.newidle_idx'
p3976
I0
sS'kernel.sched_domain.cpu15.domain0.name'
p3977
S'DIE'
p3978
sS'kernel.sched_domain.cpu18.domain1.cache_nice_tries'
p3979
I2
sS'net.ipv4.fib_multipath_use_neigh'
p3980
I0
sS'net.ipv4.icmp_msgs_per_sec'
p3981
I1000
sS'kernel.sched_domain.cpu15.domain0.idle_idx'
p3982
I1
sS'net.ipv4.tcp_retries1'
p3983
I3
sS'kernel.sched_domain.cpu53.domain0.flags'
p3984
I4143
sS'net.ipv4.tcp_retries2'
p3985
I15
sS'kernel.sched_domain.cpu46.domain0.forkexec_idx'
p3986
I0
sS'kernel.sched_domain.cpu52.domain0.wake_idx'
p3987
I0
sS'CONFIG_PGTABLE_LEVELS'
p3988
I4
sS'kernel.sched_domain.cpu53.domain0.newidle_idx'
p3989
I0
sS'kernel.sched_domain.cpu26.domain1.imbalance_pct'
p3990
I125
sS'kernel.sched_domain.cpu39.domain1.min_interval'
p3991
I60
sS'CONFIG_KRETPROBES'
p3992
S'y'
sS'CONFIG_NET_VENDOR_ALACRITECH'
p3993
S'y'
sS'CONFIG_KPROBES_ON_FTRACE'
p3994
S'y'
sS'kernel.sched_domain.cpu5.domain1.idle_idx'
p3995
I2
sS'net.ipv4.neigh.default.base_reachable_time_ms'
p3996
I30000
sS'CONFIG_GPIO_ACPI'
p3997
S'y'
sS'kernel.sched_domain.cpu34.domain0.busy_idx'
p3998
I2
sS'kernel.sched_domain.cpu25.domain0.imbalance_pct'
p3999
I125
sS'CONFIG_RELAY'
p4000
S'y'
sS'kernel.sched_domain.cpu29.domain1.min_interval'
p4001
I60
sS'kernel.sched_domain.cpu7.domain1.forkexec_idx'
p4002
I0
sS'kernel.sched_domain.cpu1.domain1.max_interval'
p4003
I120
sS'kernel.domainname'
p4004
S'(none)'
p4005
sS'dev.raid.speed_limit_max'
p4006
I200000
sS'kernel.sched_domain.cpu59.domain0.newidle_idx'
p4007
I0
sS'kernel.sched_domain.cpu46.domain1.max_newidle_lb_cost'
p4008
I15134
sS'CONFIG_X86_BOOTPARAM_MEMORY_CORRUPTION_CHECK'
p4009
S'y'
sS'CONFIG_FB_ASILIANT'
p4010
S'y'
sS'kernel.sched_domain.cpu42.domain0.max_newidle_lb_cost'
p4011
I21909
sS'kernel.sched_domain.cpu45.domain1.name'
p4012
S'NUMA'
p4013
sS'CONFIG_MFD_WM831X_SPI'
p4014
S'y'
sS'net.ipv4.conf.default.disable_policy'
p4015
I0
sS'CONFIG_HAVE_FTRACE_MCOUNT_RECORD'
p4016
S'y'
sS'kernel.sched_domain.cpu58.domain1.min_interval'
p4017
I60
sS'CONFIG_VGA_ARB'
p4018
S'y'
sS'CONFIG_INTEGRITY_TRUSTED_KEYRING'
p4019
S'y'
sS'CONFIG_HW_CONSOLE'
p4020
S'y'
sS'kernel.sched_domain.cpu46.domain1.wake_idx'
p4021
I0
sS'kernel.sched_domain.cpu54.domain0.name'
p4022
S'DIE'
p4023
sS'kernel.sched_domain.cpu58.domain1.imbalance_pct'
p4024
I125
sS'CONFIG_MFD_TPS65910'
p4025
S'y'
sS'net.ipv4.igmp_max_msf'
p4026
I10
sS'vm.percpu_pagelist_fraction'
p4027
I0
sS'net.ipv4.conf.all.disable_xfrm'
p4028
I0
sS'kernel.sched_domain.cpu29.domain0.imbalance_pct'
p4029
I125
sS'kernel.sched_domain.cpu54.domain0.flags'
p4030
I4143
sS'CONFIG_PM_SLEEP_DEBUG'
p4031
S'y'
sS'CONFIG_MFD_WM831X'
p4032
S'y'
sS'CONFIG_INLINE_WRITE_UNLOCK_IRQ'
p4033
S'y'
sS'CONFIG_NET_VENDOR_RDC'
p4034
S'y'
sS'CONFIG_MFD_MAX8925'
p4035
S'y'
sS'kernel.sched_domain.cpu41.domain0.newidle_idx'
p4036
I0
sS'CONFIG_XZ_DEC_X86'
p4037
S'y'
sS'kernel.sched_domain.cpu30.domain0.wake_idx'
p4038
I0
sS'CONFIG_X86_X32'
p4039
S'y'
sS'vm.vfs_cache_pressure'
p4040
I100
sS'kernel.msg_next_id'
p4041
S'-1'
p4042
sS'net.ipv4.tcp_allowed_congestion_control'
p4043
S'cubic reno'
p4044
sS'kernel.sched_wakeup_granularity_ns'
p4045
I4000000
sS'net.ipv4.neigh.ens3.mcast_resolicit'
p4046
I0
sS'net.ipv6.conf.lo.disable_policy'
p4047
I0
sS'net.ipv6.conf.lo.addr_gen_mode'
p4048
I0
sS'CONFIG_X86_SPEEDSTEP_CENTRINO'
p4049
S'y'
sS'net.ipv4.route.gc_elasticity'
p4050
I8
sS'kernel.sched_domain.cpu28.domain0.wake_idx'
p4051
I0
sS'CONFIG_HAVE_PCSPKR_PLATFORM'
p4052
S'y'
sS'kernel.sched_domain.cpu23.domain0.max_interval'
p4053
I20
sS'kernel.sched_domain.cpu36.domain1.idle_idx'
p4054
I2
sS'net.ipv4.tcp_syncookies'
p4055
I1
sS'kernel.sched_domain.cpu37.domain0.idle_idx'
p4056
I1
sS'fs.quota.lookups'
p4057
I0
sS'kernel.sched_domain.cpu24.domain1.cache_nice_tries'
p4058
I2
sS'net.ipv6.neigh.lo.mcast_solicit'
p4059
I3
sS'CONFIG_IO_DELAY_TYPE_NONE'
p4060
I3
sS'net.ipv4.tcp_slow_start_after_idle'
p4061
I1
sS'kernel.sched_domain.cpu25.domain0.min_interval'
p4062
I10
sS'CONFIG_EARLY_PRINTK_EFI'
p4063
S'y'
sS'CONFIG_PROBE_EVENTS'
p4064
S'y'
sS'CONFIG_WLAN_VENDOR_CISCO'
p4065
S'y'
sS'CONFIG_USB_DWC2_HOST'
p4066
S'y'
sS'kernel.sched_domain.cpu27.domain0.idle_idx'
p4067
I1
sS'kernel.sched_domain.cpu30.domain0.forkexec_idx'
p4068
I0
sS'CONFIG_FRAMEBUFFER_CONSOLE_ROTATION'
p4069
S'y'
sS'kernel.sched_domain.cpu34.domain0.forkexec_idx'
p4070
I0
sS'kernel.sched_domain.cpu1.domain1.idle_idx'
p4071
I2
sS'net.ipv4.conf.ens3.mc_forwarding'
p4072
I0
sS'net.core.tstamp_allow_data'
p4073
I1
sS'kernel.sched_domain.cpu53.domain1.imbalance_pct'
p4074
I125
sS'kernel.sched_domain.cpu18.domain0.wake_idx'
p4075
I0
sS'CONFIG_HAVE_MEMBLOCK'
p4076
S'y'
sS'kernel.sched_domain.cpu57.domain1.busy_idx'
p4077
I3
sS'kernel.sched_domain.cpu0.domain1.wake_idx'
p4078
I0
sS'CONFIG_LOCALVERSION'
p4079
S'""'
p4080
sS'CONFIG_PWM'
p4081
S'y'
sS'kernel.sched_domain.cpu58.domain1.flags'
p4082
I25647
sS'kernel.sched_domain.cpu43.domain0.forkexec_idx'
p4083
I0
sS'net.unix.max_dgram_qlen'
p4084
I512
sS'kernel.sched_domain.cpu43.domain0.idle_idx'
p4085
I1
sS'kernel.sched_domain.cpu10.domain1.forkexec_idx'
p4086
I0
sS'kernel.sched_domain.cpu58.domain1.max_interval'
p4087
I120
sS'CONFIG_TTY_PRINTK'
p4088
S'y'
sS'kernel.ctrl-alt-del'
p4089
I0
sS'kernel.sched_domain.cpu2.domain1.max_newidle_lb_cost'
p4090
I36073
sS'net.ipv4.conf.default.rp_filter'
p4091
I1
sS'kernel.sched_domain.cpu49.domain0.forkexec_idx'
p4092
I0
sS'kernel.sched_domain.cpu50.domain0.max_interval'
p4093
I20
sS'kernel.sched_domain.cpu3.domain0.imbalance_pct'
p4094
I125
sS'kernel.sched_domain.cpu7.domain1.cache_nice_tries'
p4095
I2
sS'CONFIG_CRC32_SLICEBY8'
p4096
S'y'
sS'kernel.sched_domain.cpu31.domain0.max_newidle_lb_cost'
p4097
I48587
sS'kernel.sched_domain.cpu45.domain1.cache_nice_tries'
p4098
I2
sS'net.ipv4.conf.lo.force_igmp_version'
p4099
I0
sS'kernel.sched_domain.cpu57.domain0.flags'
p4100
I4143
sS'CONFIG_INTEL_IOMMU_SVM'
p4101
S'y'
sS'kernel.sched_domain.cpu46.domain0.busy_idx'
p4102
I2
sS'kernel.sched_domain.cpu13.domain1.busy_idx'
p4103
I3
sS'kernel.sched_domain.cpu57.domain1.wake_idx'
p4104
I0
sS'CONFIG_TRACE_CLOCK'
p4105
S'y'
sS'kernel.sched_domain.cpu21.domain1.forkexec_idx'
p4106
I0
sS'kernel.sched_domain.cpu4.domain1.min_interval'
p4107
I60
sg10
g11
sS'kernel.sched_domain.cpu47.domain0.newidle_idx'
p4108
I0
sS'kernel.sched_domain.cpu15.domain1.min_interval'
p4109
I60
sS'CONFIG_NET_VENDOR_CISCO'
p4110
S'y'
sS'CONFIG_BASE_FULL'
p4111
S'y'
sS'kernel.sched_domain.cpu32.domain1.newidle_idx'
p4112
I0
sS'net.ipv4.tcp_reordering'
p4113
I3
sS'kernel.sched_domain.cpu56.domain0.imbalance_pct'
p4114
I125
sS'net.ipv4.conf.all.rp_filter'
p4115
I1
sS'kernel.sched_domain.cpu3.domain1.imbalance_pct'
p4116
I125
sS'kernel.sched_domain.cpu4.domain1.imbalance_pct'
p4117
I125
sS'kernel.sched_domain.cpu40.domain1.name'
p4118
S'NUMA'
p4119
sS'CONFIG_EVM_ATTR_FSUUID'
p4120
S'y'
sS'CONFIG_CRYPTO_GLUE_HELPER_X86'
p4121
S'm'
sS'net.ipv4.ip_early_demux'
p4122
I1
sS'CONFIG_BOOTPARAM_HARDLOCKUP_PANIC_VALUE'
p4123
I0
sS'CONFIG_SYSTEM_EXTRA_CERTIFICATE'
p4124
S'y'
sS'kernel.sched_domain.cpu34.domain0.max_newidle_lb_cost'
p4125
I266418
sS'kernel.sched_domain.cpu5.domain1.busy_idx'
p4126
I3
sS'CONFIG_SYSTEM_TRUSTED_KEYS'
p4127
S'""'
p4128
sS'kernel.tracepoint_printk'
p4129
I0
sS'net.ipv6.conf.lo.router_solicitation_delay'
p4130
I1
sS'CONFIG_HOTPLUG_PCI'
p4131
S'y'
sS'kernel.sched_domain.cpu0.domain0.min_interval'
p4132
I10
sS'CONFIG_SERIAL_MAX310X'
p4133
S'y'
sS'kernel.sched_domain.cpu0.domain0.idle_idx'
p4134
I1
sS'CONFIG_SQUASHFS_XATTR'
p4135
S'y'
sS'CONFIG_BACKLIGHT_LCD_SUPPORT'
p4136
S'y'
sS'CONFIG_EDAC'
p4137
S'y'
sS'CONFIG_INPUT_TOUCHSCREEN'
p4138
S'y'
sS'kernel.sched_domain.cpu27.domain1.imbalance_pct'
p4139
I125
sS'kernel.sched_domain.cpu42.domain1.max_newidle_lb_cost'
p4140
I41036
sS'vm.numa_zonelist_order'
p4141
S'Node'
p4142
sS'kernel.sched_domain.cpu11.domain0.cache_nice_tries'
p4143
I1
sS'CONFIG_FANOTIFY'
p4144
S'y'
sS'kernel.sched_domain.cpu12.domain1.min_interval'
p4145
I60
sS'vm.memory_failure_recovery'
p4146
I1
sS'CONFIG_ACPI_HED'
p4147
S'y'
sS'kernel.sched_domain.cpu25.domain1.busy_factor'
p4148
I32
sS'net.ipv6.neigh.lo.unres_qlen'
p4149
I101
sS'CONFIG_X86_AMD_PLATFORM_DEVICE'
p4150
S'y'
sS'kernel.sched_domain.cpu27.domain0.cache_nice_tries'
p4151
I1
sS'CONFIG_FONT_8x16'
p4152
S'y'
sS'net.ipv6.mld_max_msf'
p4153
I64
sS'net.ipv4.neigh.default.proxy_delay'
p4154
I80
sS'net.ipv4.conf.default.bootp_relay'
p4155
I0
sS'CONFIG_USB_XHCI_PCI'
p4156
S'y'
sS'CONFIG_FUTEX_PI'
p4157
S'y'
sS'kernel.sched_domain.cpu34.domain1.cache_nice_tries'
p4158
I2
sS'kernel.numa_balancing_scan_period_min_ms'
p4159
I1000
sS'kernel.sched_domain.cpu18.domain0.flags'
p4160
I4143
sS'net.ipv4.tcp_early_retrans'
p4161
I3
sS'kernel.sched_domain.cpu17.domain0.busy_idx'
p4162
I2
sS'CONFIG_NET_VENDOR_SUN'
p4163
S'y'
sS'CONFIG_KERNEL_GZIP'
p4164
S'y'
sS'kernel.sched_domain.cpu9.domain0.busy_idx'
p4165
I2
sS'net.ipv6.conf.default.ndisc_notify'
p4166
I0
sS'CONFIG_SOUND_OSS_CORE'
p4167
S'y'
sS'CONFIG_MOUSE_PS2_ALPS'
p4168
S'y'
sS'CONFIG_DEFAULT_SECURITY'
p4169
S'"apparmor"'
p4170
sS'kernel.sched_domain.cpu3.domain1.busy_idx'
p4171
I3
sS'net.ipv4.conf.ens3.route_localnet'
p4172
I0
sS'kernel.sched_domain.cpu40.domain0.newidle_idx'
p4173
I0
sS'net.ipv4.conf.default.igmpv3_unsolicited_report_interval'
p4174
I1000
sS'kernel.sched_domain.cpu9.domain1.wake_idx'
p4175
I0
sS'kernel.sched_domain.cpu40.domain1.max_newidle_lb_cost'
p4176
I34400
sS'CONFIG_ARCH_MEMORY_PROBE'
p4177
S'y'
sS'kernel.sched_domain.cpu33.domain1.imbalance_pct'
p4178
I125
sS'CONFIG_GDB_SCRIPTS'
p4179
S'y'
sS'net.core.warnings'
p4180
I0
sS'kernel.sched_domain.cpu48.domain0.name'
p4181
S'DIE'
p4182
sS'CONFIG_CC_OPTIMIZE_FOR_PERFORMANCE'
p4183
S'y'
sS'net.ipv6.conf.default.accept_source_route'
p4184
I0
sS'kernel.sched_domain.cpu48.domain0.cache_nice_tries'
p4185
I1
sS'kernel.sched_domain.cpu7.domain1.busy_factor'
p4186
I32
sS'kernel.sched_domain.cpu15.domain0.wake_idx'
p4187
I0
sS'kernel.sched_domain.cpu13.domain1.flags'
p4188
I25647
sS'kernel.sched_cfs_bandwidth_slice_us'
p4189
I5000
sS'net.ipv6.conf.lo.mldv2_unsolicited_report_interval'
p4190
I1000
sS'kernel.sched_domain.cpu30.domain0.cache_nice_tries'
p4191
I1
sS'net.ipv6.conf.default.drop_unsolicited_na'
p4192
I0
sS'kernel.sched_domain.cpu29.domain0.cache_nice_tries'
p4193
I1
sS'CONFIG_SECURITY_NETWORK'
p4194
S'y'
sS'kernel.sched_domain.cpu21.domain0.flags'
p4195
I4143
sS'CONFIG_TRACER_SNAPSHOT'
p4196
S'y'
sS'net.core.message_cost'
p4197
I5
sS'net.ipv6.conf.all.router_solicitation_interval'
p4198
I4
sS'kernel.sched_domain.cpu2.domain1.min_interval'
p4199
I60
sS'net.ipv6.neigh.lo.retrans_time_ms'
p4200
I1000
sS'vm.stat_interval'
p4201
I1
sS'CONFIG_CGROUP_CPUACCT'
p4202
S'y'
sS'kernel.sched_domain.cpu53.domain0.idle_idx'
p4203
I1
sS'kernel.sched_domain.cpu35.domain0.cache_nice_tries'
p4204
I1
sS'kernel.sched_domain.cpu38.domain0.min_interval'
p4205
I10
sS'net.ipv4.conf.all.igmpv2_unsolicited_report_interval'
p4206
I10000
sS'net.ipv4.conf.all.accept_local'
p4207
I0
sS'kernel.sched_domain.cpu36.domain1.max_interval'
p4208
I120
sS'CONFIG_KVM_COMPAT'
p4209
S'y'
sS'CONFIG_DW_DMAC_CORE'
p4210
S'y'
sS'CONFIG_HIBERNATION'
p4211
S'y'
sS'net.ipv4.udp_mem'
p4212
S'1537185\t2049582\t3074370'
p4213
sS'CONFIG_IMA_APPRAISE'
p4214
S'y'
sS'kernel.sched_domain.cpu57.domain0.forkexec_idx'
p4215
I0
sS'kernel.sched_domain.cpu6.domain1.idle_idx'
p4216
I2
sS'CONFIG_I8253_LOCK'
p4217
S'y'
sS'CONFIG_SND_JACK_INPUT_DEV'
p4218
S'y'
sS'CONFIG_INPUT_MOUSE'
p4219
S'y'
sS'kernel.sched_domain.cpu30.domain1.min_interval'
p4220
I60
sS'kernel.sched_domain.cpu7.domain1.wake_idx'
p4221
I0
sS'kernel.sched_domain.cpu32.domain1.min_interval'
p4222
I60
sS'CONFIG_MFD_WM8350_I2C'
p4223
S'y'
sS'net.ipv6.neigh.default.delay_first_probe_time'
p4224
I5
sS'kernel.sched_domain.cpu54.domain0.imbalance_pct'
p4225
I125
sS'kernel.sched_domain.cpu3.domain0.name'
p4226
S'DIE'
p4227
sS'kernel.sched_domain.cpu14.domain1.flags'
p4228
I25647
sS'kernel.sched_domain.cpu24.domain1.busy_idx'
p4229
I3
sS'CONFIG_USB_SUPPORT'
p4230
S'y'
sS'CONFIG_IOSF_MBI_DEBUG'
p4231
S'y'
sS'fs.leases-enable'
p4232
I1
sS'kernel.sched_domain.cpu28.domain0.forkexec_idx'
p4233
I0
sS'net.ipv6.conf.all.temp_prefered_lft'
p4234
I86400
sS'CONFIG_GENERIC_IO'
p4235
S'y'
sS'kernel.sched_domain.cpu22.domain1.busy_factor'
p4236
I32
sS'kernel.sched_domain.cpu47.domain1.wake_idx'
p4237
I0
sS'CONFIG_HAVE_IRQ_TIME_ACCOUNTING'
p4238
S'y'
sS'kernel.sched_domain.cpu4.domain0.cache_nice_tries'
p4239
I1
sS'CONFIG_AUDIT_ARCH'
p4240
S'y'
sS'kernel.sched_domain.cpu46.domain1.forkexec_idx'
p4241
I0
sS'fs.aio-nr'
p4242
I0
sS'CONFIG_THERMAL_HWMON'
p4243
S'y'
sS'net.ipv4.route.max_size'
p4244
I2147483647
sS'kernel.sched_domain.cpu46.domain0.imbalance_pct'
p4245
I125
sS'CONFIG_HZ'
p4246
I250
sS'net.ipv4.tcp_early_demux'
p4247
I1
sS'CONFIG_X86_DEBUG_FPU'
p4248
S'y'
sS'CONFIG_MPILIB'
p4249
S'y'
sS'CONFIG_INTEGRITY_AUDIT'
p4250
S'y'
sS'kernel.sched_domain.cpu59.domain1.newidle_idx'
p4251
I0
sS'CONFIG_GPIO_SYSFS'
p4252
S'y'
sS'CONFIG_KEXEC_CORE'
p4253
S'y'
sS'kernel.sched_domain.cpu50.domain0.wake_idx'
p4254
I0
sS'kernel.sched_domain.cpu6.domain1.imbalance_pct'
p4255
I125
sS'CONFIG_EFI'
p4256
S'y'
sS'kernel.sched_domain.cpu22.domain1.wake_idx'
p4257
I0
sS'CONFIG_NET_VENDOR_SMSC'
p4258
S'y'
sS'kernel.sched_domain.cpu0.domain1.idle_idx'
p4259
I2
sS'net.ipv6.conf.all.accept_redirects'
p4260
I1
sS'CONFIG_KEYS'
p4261
S'y'
sS'kernel.sched_domain.cpu6.domain1.min_interval'
p4262
I60
sS'kernel.sched_domain.cpu59.domain0.busy_factor'
p4263
I32
sS'CONFIG_KVM_VFIO'
p4264
S'y'
sS'net.ipv4.conf.lo.disable_policy'
p4265
I1
sS'kernel.seccomp.actions_avail'
p4266
S'kill_process kill_thread trap errno trace log allow'
p4267
sS'CONFIG_MEMORY_HOTREMOVE'
p4268
S'y'
sS'kernel.sched_domain.cpu34.domain0.wake_idx'
p4269
I0
sS'CONFIG_SECURITY_TOMOYO_POLICY_LOADER'
p4270
S'"/sbin/tomoyo-init"'
p4271
sS'CONFIG_BINFMT_ELF'
p4272
S'y'
sS'net.ipv4.tcp_rfc1337'
p4273
I0
sS'kernel.sysrq'
p4274
I176
sS'CONFIG_TASK_IO_ACCOUNTING'
p4275
S'y'
sS'kernel.sched_domain.cpu36.domain0.max_newidle_lb_cost'
p4276
I14074
sS'CONFIG_DOUBLEFAULT'
p4277
S'y'
sS'net.ipv6.conf.lo.router_solicitation_max_interval'
p4278
I3600
sa(dp4279
g10
g11
sS'fstype'
p4280
S'tmpfs-separate'
p4281
sg3
(lp4282
S'FileSystem'
p4283
ag6
ag14
aS'object'
p4284
asg8
S'FileSystem.host-192.168.123.30.fstype-tmpfs-separate'
p4285
sa(dp4286
S'topDir'
p4287
S'~/vm-scalability/bench/tmp/linux-3.18'
p4288
sS'excludes'
p4289
(lp4290
S'*/.git'
p4291
asg10
g11
sg3
(lp4292
S'PrefetchDir'
p4293
ag6
ag14
aS'object'
p4294
asg8
S'PrefetchDir.topDir-~/vm-scalability/bench/tmp/linux-3.18.host-192.168.123.30'
p4295
sa(dp4296
g8
S'SetCPUs.host-192.168.123.30'
p4297
sS'seq'
p4298
g4298
sg10
g11
sS'hotplug'
p4299
I01
sg3
(lp4300
S'SetCPUs'
p4301
ag6
ag14
aS'object'
p4302
asS'num'
p4303
I60
sa(dp4304
g10
g11
sg3
(lp4305
S'SystemMonitor'
p4306
ag6
ag14
aS'object'
p4307
asg8
S'SystemMonitor.host-192.168.123.30'
p4308
sa(dp4309
S'real'
p4310
F30.639700000000001
sS'time.iowait'
p4311
F0.20000000000000001
sg8
S'GmakeLoad.trial-0.host-192.168.123.30'
p4312
sS'time.real'
p4313
F30.639700000000001
sS'time.idle'
p4314
F645.76300000000003
sS'time.sys'
p4315
F174.25999999999999
sg3
(lp4316
S'GmakeLoad'
p4317
ag6
aS'ResultsProvider'
p4318
ag14
aS'object'
p4319
asS'objPath'
p4320
S'/tmp/mosbench/tmpfs-separate/0'
p4321
sS'units'
p4322
S'builds'
p4323
sg10
g11
sS'result'
p4324
F1
sS'srcPath'
p4325
g4288
sS'cores'
p4326
I60
sS'time.steal'
p4327
F0.51000000000000001
sS'time.irq'
p4328
F0
sS'time.softirq'
p4329
F0.040000000000000001
sS'time.nice'
p4330
F0
sS'unit'
p4331
S'build'
p4332
sS'time.user'
p4333
F1018.36
sa.