(lp1
(dp2
S'classNames'
p3
(lp4
S'ResultPath'
p5
aS'Task'
p6
aS'object'
p7
asS'name'
p8
g5
sa(dp9
S'host'
p10
S'192.168.123.30'
p11
sg3
(lp12
S'Host'
p13
ag6
aS'SourceFileProvider'
p14
aS'object'
p15
asg8
S'Host.host-192.168.123.30'
p16
sa(dp17
S'CONFIG_USB_OHCI_HCD_PLATFORM'
p18
S'y'
sS'CONFIG_DEFAULT_IO_DELAY_TYPE'
p19
I1
sS'CONFIG_DNS_RESOLVER'
p20
S'y'
sS'net.ipv6.conf.lo.suppress_frag_ndisc'
p21
I1
sS'CONFIG_SGI_PARTITION'
p22
S'y'
sS'kernel.sched_domain.cpu38.domain1.imbalance_pct'
p23
I125
sS'CONFIG_GENERIC_STRNCPY_FROM_USER'
p24
S'y'
sS'net.netfilter.nf_log_all_netns'
p25
I0
sS'kernel.sched_domain.cpu1.domain1.forkexec_idx'
p26
I0
sS'CONFIG_KVM_SCHEDACT'
p27
S'y'
sS'CONFIG_WLAN_VENDOR_RALINK'
p28
S'y'
sS'CONFIG_HAVE_DYNAMIC_FTRACE_WITH_REGS'
p29
S'y'
sS'kernel.sched_domain.cpu5.domain0.newidle_idx'
p30
I0
sS'net.ipv4.conf.all.tag'
p31
I0
sS'CONFIG_TOUCHSCREEN_ELAN'
p32
S'y'
sS'kernel.sched_domain.cpu34.domain1.min_interval'
p33
I50
sS'CONFIG_EVENT_TRACING'
p34
S'y'
sS'CONFIG_LIVEPATCH'
p35
S'y'
sS'CONFIG_LEDS_TRIGGER_CPU'
p36
S'y'
sS'CONFIG_PCIEPORTBUS'
p37
S'y'
sS'CONFIG_INIT_ENV_ARG_LIMIT'
p38
I32
sS'net.ipv6.conf.default.accept_ra_min_hop_limit'
p39
I1
sS'CONFIG_LEDS_CLASS'
p40
S'y'
sS'kernel.sched_domain.cpu2.domain0.newidle_idx'
p41
I0
sS'net.ipv4.neigh.default.proxy_qlen'
p42
I64
sS'CONFIG_PMC_ATOM'
p43
S'y'
sS'CONFIG_MANDATORY_FILE_LOCKING'
p44
S'y'
sS'kernel.sched_domain.cpu37.domain1.imbalance_pct'
p45
I125
sS'CONFIG_NLS_CODEPAGE_437'
p46
S'y'
sS'fs.quota.free_dquots'
p47
I0
sS'CONFIG_PRINTK_NMI'
p48
S'y'
sS'CONFIG_NETDEVICES'
p49
S'y'
sS'CONFIG_HAVE_DYNAMIC_FTRACE'
p50
S'y'
sS'CONFIG_PINCTRL_SX150X'
p51
S'y'
sS'CONFIG_NET_SCHED'
p52
S'y'
sS'kernel.sched_domain.cpu48.domain1.wake_idx'
p53
I0
sS'CONFIG_KGDB'
p54
S'y'
sS'CONFIG_UNIXWARE_DISKLABEL'
p55
S'y'
sS'kernel.sched_domain.cpu43.domain1.forkexec_idx'
p56
I0
sS'CONFIG_INLINE_WRITE_UNLOCK'
p57
S'y'
sS'net.ipv6.conf.ens3.ignore_routes_with_linkdown'
p58
I0
sS'CONFIG_ACPI_REV_OVERRIDE_POSSIBLE'
p59
S'y'
sS'CONFIG_HAVE_ARCH_AUDITSYSCALL'
p60
S'y'
sS'kernel.sched_domain.cpu39.domain1.max_newidle_lb_cost'
p61
I1041111
sS'kernel.sched_domain.cpu11.domain0.flags'
p62
I4143
sS'CONFIG_NET_VENDOR_RENESAS'
p63
S'y'
sS'CONFIG_FIRMWARE_EDID'
p64
S'y'
sS'CONFIG_CGROUPS'
p65
S'y'
sS'kernel.sched_domain.cpu23.domain1.max_interval'
p66
I100
sS'net.ipv6.conf.ens3.regen_max_retry'
p67
I3
sS'net.ipv4.conf.lo.medium_id'
p68
I0
sS'CONFIG_DEFAULT_MMAP_MIN_ADDR'
p69
I65536
sS'kernel.sched_domain.cpu30.domain0.busy_factor'
p70
I32
sS'CONFIG_X86_DEBUGCTLMSR'
p71
S'y'
sS'CONFIG_ARCH_HIBERNATION_HEADER'
p72
S'y'
sS'net.ipv4.tcp_synack_retries'
p73
I5
sS'net.ipv6.conf.ens3.accept_ra_rt_info_max_plen'
p74
I0
sS'CONFIG_SECURITY_YAMA'
p75
S'y'
sS'kernel.sched_domain.cpu18.domain0.idle_idx'
p76
I1
sS'CONFIG_CRYPTO_ECB'
p77
S'y'
sS'CONFIG_ACPI_HOTPLUG_MEMORY'
p78
S'y'
sS'CONFIG_SELECT_MEMORY_MODEL'
p79
S'y'
sS'net.ipv4.tcp_notsent_lowat'
p80
I4294967295
sS'kernel.sched_domain.cpu17.domain0.name'
p81
S'DIE'
p82
sS'CONFIG_FS_DAX_PMD'
p83
S'y'
sS'kernel.sched_domain.cpu16.domain1.busy_factor'
p84
I32
sS'CONFIG_GENERIC_SMP_IDLE_THREAD'
p85
S'y'
sS'kernel.sched_domain.cpu18.domain0.imbalance_pct'
p86
I125
sS'CONFIG_GENERIC_CLOCKEVENTS_MIN_ADJUST'
p87
S'y'
sS'net.ipv6.conf.all.disable_policy'
p88
I0
sS'kernel.sched_domain.cpu27.domain1.forkexec_idx'
p89
I0
sS'kernel.sched_domain.cpu33.domain1.flags'
p90
I25647
sS'kernel.sched_domain.cpu43.domain1.min_interval'
p91
I50
sS'kernel.sched_domain.cpu36.domain0.cache_nice_tries'
p92
I1
sS'CONFIG_TASK_XACCT'
p93
S'y'
sS'CONFIG_KEXEC_BZIMAGE_VERIFY_SIG'
p94
S'y'
sS'CONFIG_EVENTFD'
p95
S'y'
sS'CONFIG_FTRACE_MCOUNT_RECORD'
p96
S'y'
sS'CONFIG_HAVE_PERF_EVENTS'
p97
S'y'
sS'CONFIG_SND_HDA_CORE'
p98
S'm'
sS'CONFIG_CHECKPOINT_RESTORE'
p99
S'y'
sS'CONFIG_PACKET'
p100
S'y'
sS'kernel.sched_domain.cpu28.domain0.min_interval'
p101
I10
sS'net.ipv6.conf.ens3.use_oif_addrs_only'
p102
I0
sS'kernel.sched_domain.cpu10.domain0.name'
p103
S'DIE'
p104
sS'kernel.sched_domain.cpu45.domain0.flags'
p105
I4143
sS'net.ipv6.conf.all.router_solicitation_max_interval'
p106
I3600
sS'CONFIG_IMA_LSM_RULES'
p107
S'y'
sS'net.ipv4.neigh.lo.proxy_delay'
p108
I80
sS'CONFIG_PARPORT_PC'
p109
S'm'
sS'CONFIG_NLATTR'
p110
S'y'
sS'kernel.sched_domain.cpu39.domain0.busy_idx'
p111
I2
sS'kernel.sched_domain.cpu41.domain0.min_interval'
p112
I10
sS'kernel.sched_domain.cpu30.domain0.imbalance_pct'
p113
I125
sS'CONFIG_ARCH_HAS_GCOV_PROFILE_ALL'
p114
S'y'
sS'net.ipv6.conf.default.addr_gen_mode'
p115
I0
sS'kernel.hung_task_check_count'
p116
I4194304
sS'CONFIG_INFINIBAND_ADDR_TRANS'
p117
S'y'
sS'CONFIG_CRYPTO_SHA512'
p118
S'y'
sS'CONFIG_WLAN_VENDOR_INTERSIL'
p119
S'y'
sS'CONFIG_CRYPTO_NULL'
p120
S'y'
sS'kernel.sched_domain.cpu48.domain1.flags'
p121
I25647
sS'net.ipv6.conf.ens3.force_mld_version'
p122
I0
sS'CONFIG_INTEGRITY_ASYMMETRIC_KEYS'
p123
S'y'
sS'CONFIG_BLK_MQ_RDMA'
p124
S'y'
sS'CONFIG_FRAME_POINTER_UNWINDER'
p125
S'y'
sS'CONFIG_HAVE_IRQ_EXIT_ON_IRQ_STACK'
p126
S'y'
sS'CONFIG_CRYPTO_AES_NI_INTEL'
p127
S'm'
sS'CONFIG_MOUSE_PS2'
p128
S'm'
sS'CONFIG_EFI_PARTITION'
p129
S'y'
sS'kernel.sched_domain.cpu13.domain1.busy_factor'
p130
I32
sS'CONFIG_NODES_SPAN_OTHER_NODES'
p131
S'y'
sS'kernel.sched_domain.cpu46.domain0.wake_idx'
p132
I0
sS'CONFIG_FUNCTION_GRAPH_TRACER'
p133
S'y'
sS'net.ipv6.conf.all.seg6_enabled'
p134
I0
sS'CONFIG_IPV6_MROUTE'
p135
S'y'
sS'kernel.sched_domain.cpu2.domain0.busy_idx'
p136
I2
sS'kernel.sched_domain.cpu21.domain0.idle_idx'
p137
I1
sS'kernel.sched_domain.cpu40.domain0.name'
p138
S'DIE'
p139
sS'CONFIG_FHANDLE'
p140
S'y'
sS'CONFIG_HAVE_FUNCTION_GRAPH_TRACER'
p141
S'y'
sS'kernel.sched_domain.cpu41.domain1.wake_idx'
p142
I0
sS'CONFIG_FS_IOMAP'
p143
S'y'
sS'kernel.sched_domain.cpu17.domain0.flags'
p144
I4143
sS'CONFIG_CRYPTO_ACOMP2'
p145
S'y'
sS'CONFIG_HAVE_KERNEL_LZMA'
p146
S'y'
sS'CONFIG_ARCH_HAS_DEBUG_VIRTUAL'
p147
S'y'
sS'net.ipv6.neigh.default.unres_qlen_bytes'
p148
I212992
sS'kernel.sem_next_id'
p149
S'-1'
p150
sS'kernel.random.write_wakeup_threshold'
p151
I896
sS'net.ipv6.conf.lo.use_oif_addrs_only'
p152
I0
sS'kernel.sched_domain.cpu37.domain0.busy_idx'
p153
I2
sS'net.ipv6.conf.ens3.accept_ra_defrtr'
p154
I1
sS'kernel.sched_domain.cpu11.domain0.max_newidle_lb_cost'
p155
I642029
sS'kernel.sched_domain.cpu3.domain0.max_newidle_lb_cost'
p156
I966651
sS'net.ipv4.neigh.ens3.proxy_delay'
p157
I80
sS'kernel.sched_domain.cpu37.domain1.max_newidle_lb_cost'
p158
I586874
sS'kernel.sched_domain.cpu24.domain0.idle_idx'
p159
I1
sS'CONFIG_ASYMMETRIC_KEY_TYPE'
p160
S'y'
sS'kernel.sched_domain.cpu4.domain0.busy_idx'
p161
I2
sS'CONFIG_DEFAULT_IOSCHED'
p162
S'"deadline"'
p163
sS'kernel.sched_domain.cpu22.domain0.flags'
p164
I4143
sS'CONFIG_FUSION_LOGGING'
p165
S'y'
sS'kernel.sched_domain.cpu17.domain1.idle_idx'
p166
I2
sS'kernel.sched_domain.cpu13.domain1.wake_idx'
p167
I0
sS'CONFIG_NET_PACKET_ENGINE'
p168
S'y'
sS'CONFIG_DQL'
p169
S'y'
sS'kernel.sched_domain.cpu22.domain0.min_interval'
p170
I10
sS'net.ipv6.conf.lo.force_tllao'
p171
I0
sS'kernel.sched_domain.cpu7.domain1.busy_idx'
p172
I3
sS'CONFIG_IP_ADVANCED_ROUTER'
p173
S'y'
sS'CONFIG_SERIAL_SCCNXP_CONSOLE'
p174
S'y'
sS'kernel.modprobe'
p175
S'/sbin/modprobe'
p176
sS'CONFIG_NOP_USB_XCEIV'
p177
S'y'
sS'kernel.sched_domain.cpu16.domain1.max_interval'
p178
I100
sS'kernel.sched_domain.cpu40.domain0.max_interval'
p179
I20
sS'kernel.print-fatal-signals'
p180
I0
sS'CONFIG_INET'
p181
S'y'
sS'net.ipv4.tcp_probe_interval'
p182
I600
sS'kernel.sched_domain.cpu10.domain0.max_newidle_lb_cost'
p183
I572411
sS'CONFIG_EXTRA_FIRMWARE'
p184
S'""'
p185
sS'CONFIG_I2C_DESIGNWARE_CORE'
p186
S'y'
sS'net.ipv4.conf.lo.arp_accept'
p187
I0
sS'CONFIG_REGMAP_MMIO'
p188
S'y'
sS'CONFIG_MFD_TPS65090'
p189
S'y'
sS'kernel.sched_domain.cpu3.domain1.flags'
p190
I25647
sS'CONFIG_SND_HDA_POWER_SAVE_DEFAULT'
p191
I0
sS'kernel.sched_domain.cpu19.domain1.wake_idx'
p192
I0
sS'CONFIG_SFI'
p193
S'y'
sS'kernel.sched_domain.cpu0.domain0.cache_nice_tries'
p194
I1
sS'net.ipv6.conf.lo.forwarding'
p195
I0
sS'CONFIG_NET_VENDOR_SOLARFLARE'
p196
S'y'
sS'CONFIG_FIXED_PHY'
p197
S'y'
sS'kernel.sched_domain.cpu35.domain1.forkexec_idx'
p198
I0
sS'net.ipv4.conf.default.shared_media'
p199
I1
sS'CONFIG_NET_VENDOR_TEHUTI'
p200
S'y'
sS'net.ipv6.conf.default.router_solicitations'
p201
S'-1'
p202
sS'CONFIG_MFD_DA9063'
p203
S'y'
sS'CONFIG_CRYPTO'
p204
S'y'
sS'CONFIG_WLAN_VENDOR_ZYDAS'
p205
S'y'
sS'CONFIG_STRICT_KERNEL_RWX'
p206
S'y'
sS'net.ipv6.mld_qrv'
p207
I2
sS'CONFIG_SND_HDA_PATCH_LOADER'
p208
S'y'
sS'net.ipv4.conf.all.disable_policy'
p209
I0
sS'kernel.sched_domain.cpu3.domain1.cache_nice_tries'
p210
I2
sS'kernel.sched_domain.cpu40.domain0.imbalance_pct'
p211
I125
sS'CONFIG_PPP_FILTER'
p212
S'y'
sS'CONFIG_CPU_FREQ'
p213
S'y'
sS'net.core.netdev_tstamp_prequeue'
p214
I1
sS'kernel.sched_domain.cpu37.domain1.name'
p215
S'NUMA'
p216
sS'kernel.sched_domain.cpu18.domain0.forkexec_idx'
p217
I0
sS'net.ipv6.conf.all.accept_dad'
p218
I1
sS'kernel.sched_domain.cpu15.domain1.busy_idx'
p219
I3
sS'CONFIG_DCB'
p220
S'y'
sS'kernel.sched_domain.cpu4.domain1.max_newidle_lb_cost'
p221
I811006
sS'kernel.panic_on_oops'
p222
I0
sS'kernel.sched_domain.cpu10.domain0.imbalance_pct'
p223
I125
sS'kernel.sched_domain.cpu21.domain0.max_interval'
p224
I20
sS'CONFIG_MEMORY_HOTPLUG'
p225
S'y'
sS'dev.cdrom.debug'
p226
I0
sS'CONFIG_SUSPEND'
p227
S'y'
sS'kernel.sched_domain.cpu15.domain0.forkexec_idx'
p228
I0
sS'kernel.sched_domain.cpu18.domain1.wake_idx'
p229
I0
sS'kernel.sched_domain.cpu29.domain0.busy_idx'
p230
I2
sS'CONFIG_UNIX98_PTYS'
p231
S'y'
sS'CONFIG_MOUSE_PS2_SYNAPTICS'
p232
S'y'
sS'kernel.sched_domain.cpu23.domain0.wake_idx'
p233
I0
sS'CONFIG_SECURITY_SELINUX'
p234
S'y'
sS'kernel.sched_domain.cpu22.domain1.flags'
p235
I25647
sS'kernel.sched_domain.cpu30.domain1.busy_factor'
p236
I32
sS'CONFIG_SCSI_LOWLEVEL'
p237
S'y'
sS'net.ipv6.conf.all.dad_transmits'
p238
I1
sS'CONFIG_GENERIC_MSI_IRQ'
p239
S'y'
sS'kernel.ngroups_max'
p240
I65536
sS'kernel.sched_domain.cpu40.domain1.newidle_idx'
p241
I0
sS'kernel.sched_domain.cpu37.domain0.newidle_idx'
p242
I0
sS'CONFIG_EXTCON'
p243
S'y'
sS'CONFIG_PM_DEVFREQ_EVENT'
p244
S'y'
sS'CONFIG_POWER_RESET_RESTART'
p245
S'y'
sS'kernel.sched_domain.cpu28.domain1.name'
p246
S'NUMA'
p247
sS'kernel.max_lock_depth'
p248
I1024
sS'kernel.sched_domain.cpu40.domain1.min_interval'
p249
I50
sS'CONFIG_NEED_MULTIPLE_NODES'
p250
S'y'
sS'kernel.sched_domain.cpu33.domain0.cache_nice_tries'
p251
I1
sS'kernel.sched_domain.cpu5.domain1.flags'
p252
I25647
sS'CONFIG_ZPOOL'
p253
S'y'
sS'CONFIG_PATA_SIS'
p254
S'y'
sS'CONFIG_GENERIC_ALLOCATOR'
p255
S'y'
sS'kernel.sched_domain.cpu18.domain1.forkexec_idx'
p256
I0
sS'kernel.sched_domain.cpu0.domain1.max_interval'
p257
I100
sS'kernel.sched_domain.cpu36.domain0.max_interval'
p258
I20
sS'CONFIG_MESSAGE_LOGLEVEL_DEFAULT'
p259
I4
sS'kernel.sched_domain.cpu38.domain0.flags'
p260
I4143
sS'CONFIG_ARCH_HAS_UACCESS_FLUSHCACHE'
p261
S'y'
sS'CONFIG_SYN_COOKIES'
p262
S'y'
sS'net.ipv6.conf.default.max_addresses'
p263
I16
sS'net.ipv4.inet_peer_maxttl'
p264
I600
sS'CONFIG_CGROUP_WRITEBACK'
p265
S'y'
sS'CONFIG_X86_ACPI_CPUFREQ'
p266
S'y'
sS'CONFIG_DUMMY_CONSOLE'
p267
S'y'
sS'kernel.sched_domain.cpu7.domain1.max_newidle_lb_cost'
p268
I583143
sS'kernel.sched_domain.cpu23.domain0.name'
p269
S'DIE'
p270
sS'CONFIG_RWSEM_SPIN_ON_OWNER'
p271
S'y'
sS'CONFIG_SECURITY_APPARMOR_BOOTPARAM_VALUE'
p272
I1
sS'vm.dirtytime_expire_seconds'
p273
I43200
sS'net.ipv4.tcp_challenge_ack_limit'
p274
I1000
sS'CONFIG_HOTPLUG_PCI_ACPI'
p275
S'y'
sS'CONFIG_KARMA_PARTITION'
p276
S'y'
sS'CONFIG_INFINIBAND_ISER'
p277
S'm'
sS'kernel.sched_domain.cpu35.domain1.cache_nice_tries'
p278
I2
sS'vm.min_slab_ratio'
p279
I5
sS'kernel.sched_domain.cpu40.domain0.min_interval'
p280
I10
sS'CONFIG_CLZ_TAB'
p281
S'y'
sS'kernel.sched_domain.cpu21.domain1.min_interval'
p282
I50
sS'kernel.sched_domain.cpu40.domain1.busy_idx'
p283
I3
sS'CONFIG_X86_THERMAL_VECTOR'
p284
S'y'
sS'CONFIG_RCU_CPU_STALL_TIMEOUT'
p285
I60
sS'kernel.sched_domain.cpu23.domain1.min_interval'
p286
I50
sS'CONFIG_BOOTPARAM_SOFTLOCKUP_PANIC_VALUE'
p287
I0
sS'CONFIG_PM_WAKELOCKS'
p288
S'y'
sS'CONFIG_GPIOLIB_IRQCHIP'
p289
S'y'
sS'kernel.sched_domain.cpu1.domain0.idle_idx'
p290
I1
sS'CONFIG_MTRR_SANITIZER_ENABLE_DEFAULT'
p291
I1
sS'CONFIG_BLK_DEV_INTEGRITY'
p292
S'y'
sS'kernel.sched_domain.cpu11.domain0.busy_idx'
p293
I2
sS'CONFIG_ARCH_HAS_HMM'
p294
S'y'
sS'kernel.sched_domain.cpu49.domain1.busy_factor'
p295
I32
sS'CONFIG_SQUASHFS_FILE_DIRECT'
p296
S'y'
sS'CONFIG_MODULE_SIG_KEY'
p297
S'"certs/signing_key.pem"'
p298
sS'CONFIG_NETWORK_FILESYSTEMS'
p299
S'y'
sS'CONFIG_SERIAL_8250_RSA'
p300
S'y'
sS'net.ipv4.tcp_min_tso_segs'
p301
I2
sS'CONFIG_SCHED_STACK_END_CHECK'
p302
S'y'
sS'CONFIG_LEGACY_VSYSCALL_EMULATE'
p303
S'y'
sS'CONFIG_POWERCAP'
p304
S'y'
sS'CONFIG_UNUSED_SYMBOLS'
p305
S'y'
sS'kernel.sched_domain.cpu43.domain1.busy_idx'
p306
I3
sS'CONFIG_FB_TILEBLITTING'
p307
S'y'
sS'kernel.sched_domain.cpu15.domain1.max_newidle_lb_cost'
p308
I562824
sS'CONFIG_INTEGRITY'
p309
S'y'
sS'kernel.sched_domain.cpu6.domain1.cache_nice_tries'
p310
I2
sS'kernel.sched_domain.cpu47.domain1.max_newidle_lb_cost'
p311
I766154
sS'kernel.sched_domain.cpu46.domain0.cache_nice_tries'
p312
I1
sS'kernel.sched_domain.cpu41.domain0.imbalance_pct'
p313
I125
sS'kernel.sched_domain.cpu24.domain0.name'
p314
S'DIE'
p315
sS'kernel.sched_domain.cpu38.domain0.max_interval'
p316
I20
sS'kernel.sched_domain.cpu2.domain0.imbalance_pct'
p317
I125
sS'fs.mqueue.msg_default'
p318
I10
sS'CONFIG_MD_LINEAR'
p319
S'm'
sS'kernel.sched_domain.cpu48.domain0.newidle_idx'
p320
I0
sS'net.ipv4.tcp_max_orphans'
p321
I262144
sS'kernel.sched_domain.cpu6.domain1.flags'
p322
I25647
sS'kernel.sched_domain.cpu15.domain1.cache_nice_tries'
p323
I2
sS'CONFIG_MFD_MAX77843'
p324
S'y'
sS'CONFIG_CONSOLE_TRANSLATIONS'
p325
S'y'
sS'CONFIG_SLABINFO'
p326
S'y'
sS'kernel.perf_event_max_stack'
p327
I127
sS'CONFIG_PCI'
p328
S'y'
sS'CONFIG_GENERIC_MSI_IRQ_DOMAIN'
p329
S'y'
sS'kernel.sched_domain.cpu4.domain0.name'
p330
S'DIE'
p331
sS'kernel.sched_domain.cpu33.domain0.busy_idx'
p332
I2
sS'CONFIG_SYSTEM_BLACKLIST_KEYRING'
p333
S'y'
sS'kernel.sched_domain.cpu6.domain0.wake_idx'
p334
I0
sS'CONFIG_GENERIC_IRQ_SHOW'
p335
S'y'
sS'CONFIG_IP_ROUTE_MULTIPATH'
p336
S'y'
sS'CONFIG_SCHED_SMT'
p337
S'y'
sS'kernel.sched_domain.cpu39.domain1.flags'
p338
I25647
sS'net.ipv4.tcp_adv_win_scale'
p339
I1
sS'CONFIG_INTEL_IDLE'
p340
S'y'
sS'CONFIG_ASYNC_CORE'
p341
S'm'
sS'net.ipv4.udp_rmem_min'
p342
I4096
sS'kernel.sched_domain.cpu48.domain1.cache_nice_tries'
p343
I2
sS'CONFIG_FIRMWARE_IN_KERNEL'
p344
S'y'
sS'CONFIG_IP6_NF_FILTER'
p345
S'm'
sS'CONFIG_SCHED_INFO'
p346
S'y'
sS'CONFIG_GPIO_TPS65910'
p347
S'y'
sS'kernel.sched_domain.cpu39.domain0.imbalance_pct'
p348
I125
sS'CONFIG_CRC_CCITT'
p349
S'y'
sS'CONFIG_PERSISTENT_KEYRINGS'
p350
S'y'
sS'CONFIG_MOUSE_PS2_LIFEBOOK'
p351
S'y'
sS'CONFIG_ARCH_WANT_COMPAT_IPC_PARSE_VERSION'
p352
S'y'
sS'kernel.sched_domain.cpu29.domain0.name'
p353
S'DIE'
p354
sS'kernel.sched_domain.cpu11.domain1.imbalance_pct'
p355
I125
sS'kernel.sched_domain.cpu0.domain1.busy_factor'
p356
I32
sS'kernel.sched_domain.cpu7.domain1.min_interval'
p357
I50
sS'kernel.sched_domain.cpu37.domain1.cache_nice_tries'
p358
I2
sS'kernel.sched_domain.cpu35.domain0.max_interval'
p359
I20
sS'CONFIG_ASYNC_RAID6_RECOV'
p360
S'm'
sS'net.ipv6.conf.default.ignore_routes_with_linkdown'
p361
I0
sS'kernel.sched_domain.cpu8.domain1.imbalance_pct'
p362
I125
sS'CONFIG_BLK_DEV_SR'
p363
S'y'
sS'kernel.sched_domain.cpu10.domain1.imbalance_pct'
p364
I125
sS'net.ipv6.conf.lo.accept_ra_from_local'
p365
I0
sS'CONFIG_EXPORTFS'
p366
S'y'
sS'CONFIG_CRYPTO_CRC32_PCLMUL'
p367
S'm'
sS'CONFIG_INPUT'
p368
S'y'
sS'CONFIG_THERMAL_DEFAULT_GOV_STEP_WISE'
p369
S'y'
sS'fs.suid_dumpable'
p370
I2
sS'CONFIG_AIO'
p371
S'y'
sS'kernel.sched_domain.cpu49.domain0.busy_idx'
p372
I2
sS'kernel.sched_domain.cpu33.domain1.name'
p373
S'NUMA'
p374
sS'CONFIG_SERIAL_8250_DMA'
p375
S'y'
sS'kernel.sched_domain.cpu8.domain0.busy_factor'
p376
I32
sS'CONFIG_SCHED_AUTOGROUP'
p377
S'y'
sS'kernel.sched_domain.cpu20.domain1.max_newidle_lb_cost'
p378
I643318
sS'net.core.optmem_max'
p379
I20480
sS'user.max_inotify_watches'
p380
I8192
sS'vm.nr_overcommit_hugepages'
p381
I0
sS'net.ipv6.conf.default.accept_ra_defrtr'
p382
I1
sS'net.ipv6.conf.default.accept_ra_rt_info_min_plen'
p383
I0
sS'kernel.sched_domain.cpu7.domain0.flags'
p384
I4143
sS'kernel.sched_domain.cpu45.domain1.imbalance_pct'
p385
I125
sS'kernel.sched_domain.cpu40.domain1.forkexec_idx'
p386
I0
sS'kernel.sched_domain.cpu29.domain1.max_newidle_lb_cost'
p387
I579289
sS'CONFIG_NET_EMATCH'
p388
S'y'
sS'kernel.sched_domain.cpu16.domain1.cache_nice_tries'
p389
I2
sS'CONFIG_CPU_SUP_CENTAUR'
p390
S'y'
sS'kernel.sched_domain.cpu3.domain0.cache_nice_tries'
p391
I1
sS'kernel.sched_domain.cpu20.domain1.imbalance_pct'
p392
I125
sS'net.core.message_burst'
p393
I10
sS'CONFIG_SERIAL_NONSTANDARD'
p394
S'y'
sS'kernel.sched_domain.cpu14.domain0.idle_idx'
p395
I1
sS'user.max_uts_namespaces'
p396
I257592
sS'net.ipv6.route.gc_interval'
p397
I30
sS'CONFIG_TRACER_MAX_TRACE'
p398
S'y'
sS'CONFIG_VIRT_DRIVERS'
p399
S'y'
sS'net.ipv6.bindv6only'
p400
I0
sS'kernel.sched_domain.cpu23.domain0.idle_idx'
p401
I1
sS'kernel.sched_domain.cpu31.domain0.cache_nice_tries'
p402
I1
sS'net.ipv6.conf.ens3.accept_ra_rtr_pref'
p403
I1
sS'CONFIG_SUN_PARTITION'
p404
S'y'
sS'kernel.sched_domain.cpu35.domain1.newidle_idx'
p405
I0
sS'kernel.sched_domain.cpu32.domain0.busy_factor'
p406
I32
sS'kernel.sched_domain.cpu30.domain0.busy_idx'
p407
I2
sS'net.ipv4.conf.all.drop_gratuitous_arp'
p408
I0
sS'kernel.sched_domain.cpu34.domain1.max_newidle_lb_cost'
p409
I652729
sS'CONFIG_PINCTRL'
p410
S'y'
sS'CONFIG_THERMAL_GOV_FAIR_SHARE'
p411
S'y'
sS'CONFIG_NET_TULIP'
p412
S'y'
sS'kernel.sched_domain.cpu21.domain1.newidle_idx'
p413
I0
sS'kernel.sched_domain.cpu5.domain1.forkexec_idx'
p414
I0
sS'CONFIG_MOUSE_PS2_LOGIPS2PP'
p415
S'y'
sS'kernel.sched_domain.cpu36.domain0.min_interval'
p416
I10
sS'net.ipv6.route.gc_min_interval_ms'
p417
I500
sS'CONFIG_IRQ_FORCED_THREADING'
p418
S'y'
sS'CONFIG_MTRR_SANITIZER_SPARE_REG_NR_DEFAULT'
p419
I1
sS'CONFIG_BLK_MQ_PCI'
p420
S'y'
sS'CONFIG_DEBUG_BUGVERBOSE'
p421
S'y'
sS'CONFIG_HAVE_MEMORY_PRESENT'
p422
S'y'
sS'CONFIG_LSM_MMAP_MIN_ADDR'
p423
I0
sS'kernel.sched_domain.cpu36.domain1.wake_idx'
p424
I0
sS'CONFIG_KVM_INTEL'
p425
S'm'
sS'net.ipv6.neigh.ens3.proxy_qlen'
p426
I64
sS'net.ipv6.conf.lo.ndisc_notify'
p427
I0
sS'kernel.sched_domain.cpu25.domain1.forkexec_idx'
p428
I0
sS'kernel.sched_domain.cpu31.domain1.imbalance_pct'
p429
I125
sS'kernel.sched_domain.cpu33.domain0.min_interval'
p430
I10
sS'kernel.sched_domain.cpu8.domain1.busy_idx'
p431
I3
sS'kernel.sched_domain.cpu32.domain1.max_interval'
p432
I100
sS'CONFIG_SND_DYNAMIC_MINORS'
p433
S'y'
sS'CONFIG_MD_RAID1'
p434
S'm'
sS'CONFIG_VIRTIO_CONSOLE'
p435
S'y'
sS'CONFIG_HAVE_SETUP_PER_CPU_AREA'
p436
S'y'
sS'kernel.sched_domain.cpu49.domain0.name'
p437
S'DIE'
p438
sS'kernel.sched_domain.cpu12.domain0.max_interval'
p439
I20
sS'vm.laptop_mode'
p440
I0
sS'CONFIG_SIGNED_PE_FILE_VERIFICATION'
p441
S'y'
sS'CONFIG_NET_VENDOR_CAVIUM'
p442
S'y'
sS'CONFIG_IMA_NG_TEMPLATE'
p443
S'y'
sS'CONFIG_X86_FEATURE_NAMES'
p444
S'y'
sS'net.ipv6.ip6frag_low_thresh'
p445
I3145728
sS'CONFIG_KEXEC'
p446
S'y'
sS'CONFIG_CRYPTO_DEV_PADLOCK'
p447
S'y'
sS'kernel.sched_domain.cpu45.domain0.max_interval'
p448
I20
sS'kernel.sched_domain.cpu2.domain0.wake_idx'
p449
I0
sS'kernel.sched_domain.cpu47.domain1.idle_idx'
p450
I2
sS'net.ipv4.conf.all.secure_redirects'
p451
I1
sS'kernel.sched_domain.cpu5.domain0.cache_nice_tries'
p452
I1
sS'CONFIG_HAVE_REGS_AND_STACK_ACCESS_API'
p453
S'y'
sS'kernel.sched_domain.cpu21.domain0.wake_idx'
p454
I0
sS'CONFIG_ZLIB_INFLATE'
p455
S'y'
sS'kernel.sched_domain.cpu22.domain1.max_interval'
p456
I100
sS'CONFIG_DEVFREQ_GOV_SIMPLE_ONDEMAND'
p457
S'y'
sS'net.ipv4.conf.lo.igmpv2_unsolicited_report_interval'
p458
I10000
sS'kernel.sched_domain.cpu4.domain0.idle_idx'
p459
I1
sS'kernel.sched_domain.cpu29.domain0.wake_idx'
p460
I0
sS'CONFIG_INPUT_JOYDEV'
p461
S'm'
sS'net.ipv6.conf.ens3.accept_ra_mtu'
p462
I1
sS'kernel.sched_domain.cpu37.domain1.busy_idx'
p463
I3
sS'CONFIG_INPUT_MISC'
p464
S'y'
sS'kernel.sched_domain.cpu37.domain0.cache_nice_tries'
p465
I1
sS'net.ipv4.conf.all.force_igmp_version'
p466
I0
sS'CONFIG_RFS_ACCEL'
p467
S'y'
sS'CONFIG_UTS_NS'
p468
S'y'
sS'kernel.sched_domain.cpu21.domain0.name'
p469
S'DIE'
p470
sS'kernel.sched_domain.cpu11.domain1.name'
p471
S'NUMA'
p472
sS'CONFIG_X86_LOCAL_APIC'
p473
S'y'
sS'CONFIG_MFD_MAX14577'
p474
S'y'
sS'kernel.sched_domain.cpu41.domain0.max_interval'
p475
I20
sS'CONFIG_CPU_FREQ_GOV_PERFORMANCE'
p476
S'y'
sS'net.ipv6.neigh.lo.mcast_resolicit'
p477
I0
sS'CONFIG_PREEMPT_NOTIFIERS'
p478
S'y'
sS'CONFIG_IO_DELAY_0XED'
p479
S'y'
sS'kernel.sched_domain.cpu31.domain0.busy_factor'
p480
I32
sS'CONFIG_AGP_AMD64'
p481
S'y'
sS'kernel.sched_domain.cpu19.domain0.flags'
p482
I4143
sS'kernel.sched_domain.cpu49.domain0.cache_nice_tries'
p483
I1
sS'kernel.sched_domain.cpu28.domain1.idle_idx'
p484
I2
sS'kernel.overflowgid'
p485
I65534
sS'CONFIG_CRYPTO_RNG_DEFAULT'
p486
S'y'
sS'kernel.sched_domain.cpu7.domain0.busy_idx'
p487
I2
sS'CONFIG_X86_MCE'
p488
S'y'
sS'CONFIG_KALLSYMS_BASE_RELATIVE'
p489
S'y'
sS'CONFIG_ISA_DMA_API'
p490
S'y'
sS'CONFIG_ASYMMETRIC_PUBLIC_KEY_SUBTYPE'
p491
S'y'
sS'kernel.sched_domain.cpu15.domain1.name'
p492
S'NUMA'
p493
sS'CONFIG_HAVE_FENTRY'
p494
S'y'
sS'kernel.sched_domain.cpu49.domain1.idle_idx'
p495
I2
sS'CONFIG_ELF_CORE'
p496
S'y'
sS'net.ipv6.conf.lo.router_solicitations'
p497
S'-1'
p498
sS'kernel.ftrace_dump_on_oops'
p499
I0
sS'net.ipv4.conf.default.arp_filter'
p500
I0
sS'kernel.sched_domain.cpu14.domain1.busy_idx'
p501
I3
sS'kernel.sched_autogroup_enabled'
p502
I1
sS'net.ipv6.neigh.default.unres_qlen'
p503
I101
sS'kernel.sched_domain.cpu14.domain0.cache_nice_tries'
p504
I1
sS'net.ipv6.neigh.lo.anycast_delay'
p505
I100
sS'CONFIG_USB_DYNAMIC_MINORS'
p506
S'y'
sS'CONFIG_ARCH_HAS_FORTIFY_SOURCE'
p507
S'y'
sS'kernel.sched_domain.cpu12.domain1.busy_factor'
p508
I32
sS'CONFIG_THERMAL_GOV_USER_SPACE'
p509
S'y'
sS'net.ipv4.icmp_ratemask'
p510
I6168
sS'CONFIG_SERIAL_8250_EXAR'
p511
S'y'
sS'kernel.hung_task_warnings'
p512
I10
sS'CONFIG_PARPORT_1284'
p513
S'y'
sS'CONFIG_SYSTEM_BLACKLIST_HASH_LIST'
p514
S'""'
p515
sS'CONFIG_ARCH_MMAP_RND_BITS_MIN'
p516
I28
sS'CONFIG_EXPERT'
p517
S'y'
sS'net.ipv4.tcp_abort_on_overflow'
p518
I0
sS'CONFIG_WLAN_VENDOR_ATMEL'
p519
S'y'
sS'CONFIG_HAVE_MIXED_BREAKPOINTS_REGS'
p520
S'y'
sS'kernel.sched_domain.cpu29.domain1.busy_idx'
p521
I3
sS'kernel.sched_domain.cpu48.domain0.wake_idx'
p522
I0
sS'kernel.sched_domain.cpu28.domain0.cache_nice_tries'
p523
I1
sS'net.ipv4.conf.lo.bootp_relay'
p524
I0
sS'kernel.sched_domain.cpu28.domain0.name'
p525
S'DIE'
p526
sS'kernel.sched_domain.cpu18.domain0.busy_idx'
p527
I2
sS'CONFIG_SCSI_PROC_FS'
p528
S'y'
sS'CONFIG_RD_BZIP2'
p529
S'y'
sS'CONFIG_MFD_LP8788'
p530
S'y'
sS'CONFIG_CGROUP_HUGETLB'
p531
S'y'
sS'net.ipv6.conf.ens3.accept_ra_rt_info_min_plen'
p532
I0
sS'CONFIG_FDDI'
p533
S'y'
sS'kernel.sched_domain.cpu32.domain0.wake_idx'
p534
I0
sS'kernel.sched_domain.cpu38.domain0.max_newidle_lb_cost'
p535
I45382419
sS'CONFIG_MMC'
p536
S'y'
sS'kernel.sched_domain.cpu20.domain0.min_interval'
p537
I10
sS'net.ipv4.tcp_keepalive_time'
p538
I7200
sS'vm.nr_hugepages_mempolicy'
p539
I0
sS'net.ipv4.conf.all.ignore_routes_with_linkdown'
p540
I0
sS'kernel.sched_domain.cpu29.domain0.min_interval'
p541
I10
sS'kernel.sched_domain.cpu30.domain0.newidle_idx'
p542
I0
sS'CONFIG_XOR_BLOCKS'
p543
S'm'
sS'kernel.sched_domain.cpu1.domain0.name'
p544
S'DIE'
p545
sS'kernel.sched_domain.cpu38.domain1.name'
p546
S'NUMA'
p547
sS'CONFIG_MAILBOX'
p548
S'y'
sS'kernel.sched_domain.cpu5.domain1.min_interval'
p549
I50
sS'kernel.sched_domain.cpu26.domain0.min_interval'
p550
I10
sS'kernel.sched_domain.cpu5.domain0.wake_idx'
p551
I0
sS'kernel.sched_domain.cpu10.domain0.idle_idx'
p552
I1
sS'kernel.sched_domain.cpu23.domain0.min_interval'
p553
I10
sS'kernel.sched_domain.cpu35.domain1.idle_idx'
p554
I2
sS'net.ipv6.conf.default.proxy_ndp'
p555
I0
sS'kernel.sched_domain.cpu44.domain0.forkexec_idx'
p556
I0
sS'CONFIG_MEMTEST'
p557
S'y'
sS'net.ipv4.ip_unprivileged_port_start'
p558
I1024
sS'net.ipv6.neigh.lo.app_solicit'
p559
I0
sS'kernel.sched_domain.cpu43.domain0.imbalance_pct'
p560
I125
sS'CONFIG_PCI_BUS_ADDR_T_64BIT'
p561
S'y'
sS'CONFIG_VM_EVENT_COUNTERS'
p562
S'y'
sS'kernel.sched_domain.cpu25.domain0.cache_nice_tries'
p563
I1
sS'kernel.sched_domain.cpu27.domain1.min_interval'
p564
I50
sS'CONFIG_VGA_SWITCHEROO'
p565
S'y'
sS'CONFIG_XZ_DEC_IA64'
p566
S'y'
sS'kernel.sched_domain.cpu18.domain1.min_interval'
p567
I50
sS'CONFIG_CRYPTO_CRCT10DIF_PCLMUL'
p568
S'm'
sS'CONFIG_ARCH_USE_QUEUED_SPINLOCKS'
p569
S'y'
sS'kernel.sched_domain.cpu3.domain1.wake_idx'
p570
I0
sS'kernel.sched_domain.cpu39.domain1.forkexec_idx'
p571
I0
sS'kernel.sched_domain.cpu42.domain1.wake_idx'
p572
I0
sS'CONFIG_NET_EMATCH_STACK'
p573
I32
sS'kernel.sched_domain.cpu1.domain1.min_interval'
p574
I50
sS'kernel.panic_on_warn'
p575
I0
sS'net.ipv6.conf.lo.enhanced_dad'
p576
I1
sS'CONFIG_GPIOLIB'
p577
S'y'
sS'kernel.sched_domain.cpu31.domain1.cache_nice_tries'
p578
I2
sS'kernel.sched_domain.cpu38.domain0.cache_nice_tries'
p579
I1
sS'kernel.sched_domain.cpu16.domain0.name'
p580
S'DIE'
p581
sS'CONFIG_GPIO_PALMAS'
p582
S'y'
sS'kernel.sched_domain.cpu42.domain0.flags'
p583
I4143
sS'CONFIG_UEVENT_HELPER'
p584
S'y'
sS'CONFIG_HOTPLUG_PCI_CPCI'
p585
S'y'
sS'kernel.sched_domain.cpu20.domain0.newidle_idx'
p586
I0
sS'vm.panic_on_oom'
p587
I0
sS'CONFIG_NET_VENDOR_AMD'
p588
S'y'
sS'kernel.sched_domain.cpu16.domain1.newidle_idx'
p589
I0
sS'CONFIG_COREDUMP'
p590
S'y'
sS'net.ipv4.neigh.ens3.app_solicit'
p591
I0
sS'CONFIG_HAVE_KVM_IRQ_BYPASS'
p592
S'y'
sS'CONFIG_CRASH_CORE'
p593
S'y'
sS'kernel.sched_domain.cpu29.domain1.idle_idx'
p594
I2
sS'kernel.sched_domain.cpu30.domain1.busy_idx'
p595
I3
sS'fs.inotify.max_user_instances'
p596
I1024
sS'CONFIG_SYSCTL'
p597
S'y'
sS'CONFIG_MD_RAID0'
p598
S'm'
sS'net.ipv4.icmp_ignore_bogus_error_responses'
p599
I1
sS'kernel.sched_domain.cpu47.domain1.cache_nice_tries'
p600
I2
sS'kernel.sched_domain.cpu20.domain0.max_interval'
p601
I20
sS'kernel.sched_domain.cpu37.domain1.forkexec_idx'
p602
I0
sS'fs.quota.syncs'
p603
I0
sS'CONFIG_SECURITY_SMACK_NETFILTER'
p604
S'y'
sS'kernel.sched_domain.cpu27.domain1.idle_idx'
p605
I2
sS'kernel.sched_domain.cpu2.domain1.busy_idx'
p606
I3
sS'net.ipv6.neigh.ens3.delay_first_probe_time'
p607
I5
sS'CONFIG_AGP'
p608
S'y'
sS'kernel.stack_tracer_enabled'
p609
I0
sS'kernel.sched_domain.cpu47.domain1.flags'
p610
I25647
sS'kernel.sched_domain.cpu0.domain0.flags'
p611
I4143
sS'CONFIG_CRYPTO_DRBG_HMAC'
p612
S'y'
sS'CONFIG_MAC_PARTITION'
p613
S'y'
sS'CONFIG_MISC_FILESYSTEMS'
p614
S'y'
sS'abi.vsyscall32'
p615
I1
sS'net.ipv4.route.error_cost'
p616
I250
sS'CONFIG_CGROUP_NET_CLASSID'
p617
S'y'
sS'CONFIG_CRYPTO_SKEIN'
p618
S'y'
sS'kernel.sched_domain.cpu37.domain1.flags'
p619
I25647
sS'kernel.sched_domain.cpu32.domain1.busy_idx'
p620
I3
sS'CONFIG_GENERIC_PCI_IOMAP'
p621
S'y'
sS'kernel.sched_domain.cpu39.domain1.idle_idx'
p622
I2
sS'CONFIG_DEBUG_KERNEL'
p623
S'y'
sS'net.ipv4.igmp_qrv'
p624
I2
sS'CONFIG_PSTORE'
p625
S'y'
sS'CONFIG_RANDOMIZE_BASE'
p626
S'y'
sS'CONFIG_MODULE_SIG_SHA512'
p627
S'y'
sS'CONFIG_CHELSIO_T3'
p628
S'm'
sS'kernel.sched_domain.cpu23.domain0.flags'
p629
I4143
sS'user.max_mnt_namespaces'
p630
I257592
sS'net.core.wmem_max'
p631
I212992
sS'vm.swappiness'
p632
I60
sS'kernel.sched_domain.cpu9.domain1.forkexec_idx'
p633
I0
sS'kernel.sched_domain.cpu3.domain1.imbalance_pct'
p634
I125
sS'kernel.sched_domain.cpu5.domain1.busy_factor'
p635
I32
sS'net.ipv4.conf.ens3.shared_media'
p636
I1
sS'kernel.sched_domain.cpu49.domain1.name'
p637
S'NUMA'
p638
sS'CONFIG_SBITMAP'
p639
S'y'
sS'kernel.sched_domain.cpu49.domain1.max_interval'
p640
I100
sS'net.ipv4.cipso_cache_bucket_size'
p641
I10
sS'net.ipv4.ipfrag_low_thresh'
p642
I3145728
sS'kernel.sched_domain.cpu15.domain1.flags'
p643
I25647
sS'net.ipv4.route.mtu_expires'
p644
I600
sS'CONFIG_KPROBE_EVENTS'
p645
S'y'
sS'net.ipv6.conf.default.drop_unicast_in_l2_multicast'
p646
I0
sS'CONFIG_USB_EHCI_TT_NEWSCHED'
p647
S'y'
sS'CONFIG_X86_16BIT'
p648
S'y'
sS'kernel.sched_domain.cpu40.domain0.wake_idx'
p649
I0
sS'net.iw_cm.default_backlog'
p650
I256
sS'CONFIG_CRYPTO_CTR'
p651
S'y'
sS'kernel.sched_domain.cpu24.domain1.forkexec_idx'
p652
I0
sS'net.ipv4.tcp_reordering'
p653
I3
sS'kernel.sched_domain.cpu44.domain1.newidle_idx'
p654
I0
sS'CONFIG_NET'
p655
S'y'
sS'CONFIG_TWL4030_CORE'
p656
S'y'
sS'kernel.sched_domain.cpu18.domain1.name'
p657
S'NUMA'
p658
sS'CONFIG_HAS_DMA'
p659
S'y'
sS'kernel.random.uuid'
p660
S'9cde3386-7d45-407a-a879-2ec667acae12'
p661
sS'net.ipv6.conf.ens3.mc_forwarding'
p662
I0
sS'net.ipv4.conf.lo.secure_redirects'
p663
I1
sS'kernel.sched_domain.cpu10.domain0.forkexec_idx'
p664
I0
sS'fs.overflowgid'
p665
I65534
sS'kernel.sched_domain.cpu38.domain0.busy_factor'
p666
I32
sS'net.ipv4.tcp_dsack'
p667
I1
sS'CONFIG_CPU_SUP_INTEL'
p668
S'y'
sS'CONFIG_USER_STACKTRACE_SUPPORT'
p669
S'y'
sS'CONFIG_TRANSPARENT_HUGEPAGE'
p670
S'y'
sS'kernel.sched_domain.cpu41.domain0.busy_idx'
p671
I2
sS'CONFIG_MQ_IOSCHED_DEADLINE'
p672
S'y'
sS'CONFIG_CRYPTO_HMAC'
p673
S'y'
sS'kernel.sched_domain.cpu12.domain0.imbalance_pct'
p674
I125
sS'CONFIG_VT_CONSOLE'
p675
S'y'
sS'kernel.acpi_video_flags'
p676
I0
sS'CONFIG_WAN'
p677
S'y'
sS'kernel.sched_domain.cpu9.domain1.imbalance_pct'
p678
I125
sS'CONFIG_VGA_ARB_MAX_GPUS'
p679
I16
sS'CONFIG_BUILDTIME_EXTABLE_SORT'
p680
S'y'
sS'kernel.sched_domain.cpu17.domain1.newidle_idx'
p681
I0
sS'net.ipv4.route.redirect_silence'
p682
I5120
sS'CONFIG_KEXEC_JUMP'
p683
S'y'
sS'kernel.sched_domain.cpu33.domain0.newidle_idx'
p684
I0
sS'kernel.sched_domain.cpu7.domain0.imbalance_pct'
p685
I125
sS'net.ipv4.conf.lo.forwarding'
p686
I0
sS'kernel.sched_domain.cpu17.domain0.forkexec_idx'
p687
I0
sS'kernel.sched_domain.cpu8.domain1.name'
p688
S'NUMA'
p689
sS'kernel.sched_domain.cpu10.domain0.wake_idx'
p690
I0
sS'dev.cdrom.lock'
p691
I1
sS'CONFIG_HAVE_HW_BREAKPOINT'
p692
S'y'
sS'CONFIG_MACINTOSH_DRIVERS'
p693
S'y'
sS'CONFIG_HAVE_DEBUG_KMEMLEAK'
p694
S'y'
sS'CONFIG_ISDN'
p695
S'y'
sS'CONFIG_MFD_CORE'
p696
S'y'
sS'CONFIG_ACPI_FAN'
p697
S'y'
sS'kernel.sched_domain.cpu40.domain1.cache_nice_tries'
p698
I2
sS'net.ipv4.conf.lo.src_valid_mark'
p699
I0
sS'CONFIG_AIX_PARTITION'
p700
S'y'
sS'kernel.sched_domain.cpu16.domain0.cache_nice_tries'
p701
I1
sS'kernel.sched_domain.cpu1.domain0.cache_nice_tries'
p702
I1
sS'CONFIG_MD_RAID456'
p703
S'm'
sS'net.ipv4.conf.ens3.arp_ignore'
p704
I0
sS'CONFIG_TICK_CPU_ACCOUNTING'
p705
S'y'
sS'kernel.sched_domain.cpu39.domain0.wake_idx'
p706
I0
sS'kernel.sched_domain.cpu31.domain1.flags'
p707
I25647
sS'kernel.sched_domain.cpu42.domain1.busy_idx'
p708
I3
sS'fs.inode-nr'
p709
S'1479657\t508'
p710
sS'CONFIG_NET_SCH_FIFO'
p711
S'y'
sS'net.core.netdev_rss_key'
p712
S'00:00:00:00:00:00:00:00:00:00:00:00:00:00:00:00:00:00:00:00:00:00:00:00:00:00:00:00:00:00:00:00:00:00:00:00:00:00:00:00:00:00:00:00:00:00:00:00:00:00:00:00'
p713
sS'kernel.sched_domain.cpu18.domain1.max_newidle_lb_cost'
p714
I647600
sS'net.ipv4.conf.default.igmpv2_unsolicited_report_interval'
p715
I10000
sS'CONFIG_X86_64_ACPI_NUMA'
p716
S'y'
sS'CONFIG_SYSFS_SYSCALL'
p717
S'y'
sS'kernel.sched_domain.cpu38.domain1.wake_idx'
p718
I0
sS'kernel.sched_domain.cpu12.domain0.busy_factor'
p719
I32
sS'CONFIG_ARCH_WANT_GENERAL_HUGETLB'
p720
S'y'
sS'CONFIG_XPS'
p721
S'y'
sS'CONFIG_GENERIC_CMOS_UPDATE'
p722
S'y'
sS'net.ipv4.tcp_max_tw_buckets'
p723
I262144
sS'CONFIG_SERIAL_8250_EXTENDED'
p724
S'y'
sS'kernel.sched_domain.cpu0.domain0.max_newidle_lb_cost'
p725
I703853
sS'CONFIG_NET_VENDOR_ADAPTEC'
p726
S'y'
sS'CONFIG_EPOLL'
p727
S'y'
sS'net.ipv4.conf.lo.disable_xfrm'
p728
I1
sS'kernel.sched_domain.cpu20.domain0.cache_nice_tries'
p729
I1
sS'kernel.sched_domain.cpu23.domain0.max_newidle_lb_cost'
p730
I668608
sS'kernel.panic'
p731
I0
sS'CONFIG_FAT_DEFAULT_CODEPAGE'
p732
I437
sS'CONFIG_X86_SUPPORTS_MEMORY_FAILURE'
p733
S'y'
sS'CONFIG_SND_OSSEMUL'
p734
S'y'
sS'CONFIG_MMU'
p735
S'y'
sS'kernel.sched_domain.cpu11.domain0.newidle_idx'
p736
I0
sS'kernel.sched_domain.cpu0.domain1.forkexec_idx'
p737
I0
sS'CONFIG_SCHED_HRTICK'
p738
S'y'
sS'CONFIG_SECURITY_SELINUX_DISABLE'
p739
S'y'
sS'kernel.sched_domain.cpu41.domain1.name'
p740
S'NUMA'
p741
sS'kernel.sched_domain.cpu48.domain0.busy_idx'
p742
I2
sS'kernel.sched_domain.cpu9.domain0.idle_idx'
p743
I1
sS'CONFIG_NET_VENDOR_REALTEK'
p744
S'y'
sS'CONFIG_FAT_DEFAULT_IOCHARSET'
p745
S'"iso8859-1"'
p746
sS'net.ipv6.route.min_adv_mss'
p747
I1220
sS'kernel.sched_domain.cpu40.domain1.busy_factor'
p748
I32
sS'CONFIG_BLK_DEV_SD'
p749
S'y'
sS'net.ipv4.conf.ens3.arp_filter'
p750
I0
sS'CONFIG_USB_OHCI_HCD'
p751
S'y'
sS'kernel.sched_domain.cpu48.domain0.min_interval'
p752
I10
sS'kernel.sched_domain.cpu31.domain0.newidle_idx'
p753
I0
sS'kernel.sched_domain.cpu5.domain1.wake_idx'
p754
I0
sS'CONFIG_USB_UHCI_HCD'
p755
S'y'
sS'CONFIG_BSD_DISKLABEL'
p756
S'y'
sS'kernel.sched_domain.cpu28.domain0.max_interval'
p757
I20
sS'kernel.sched_domain.cpu19.domain0.min_interval'
p758
I10
sS'net.core.flow_limit_cpu_bitmap'
p759
S'0000000,00000000,00000000,00000000'
p760
sS'CONFIG_SECURITY_WRITABLE_HOOKS'
p761
S'y'
sS'CONFIG_NVM'
p762
S'y'
sS'net.ipv6.conf.ens3.accept_dad'
p763
I1
sS'kernel.sched_domain.cpu33.domain1.max_newidle_lb_cost'
p764
I584655
sS'CONFIG_TRACING_EVENTS_GPIO'
p765
S'y'
sS'fs.quota.allocated_dquots'
p766
I0
sS'CONFIG_X509_CERTIFICATE_PARSER'
p767
S'y'
sS'kernel.sched_domain.cpu11.domain1.idle_idx'
p768
I2
sS'net.ipv6.neigh.lo.proxy_delay'
p769
I80
sS'kernel.sched_domain.cpu23.domain1.wake_idx'
p770
I0
sS'CONFIG_WLAN_VENDOR_ADMTEK'
p771
S'y'
sS'net.ipv4.conf.lo.send_redirects'
p772
I1
sS'kernel.sched_domain.cpu30.domain0.flags'
p773
I4143
sS'kernel.sched_domain.cpu16.domain0.max_interval'
p774
I20
sS'net.ipv6.conf.all.proxy_ndp'
p775
I0
sS'CONFIG_OPTPROBES'
p776
S'y'
sS'net.ipv4.tcp_pacing_ss_ratio'
p777
I200
sS'kernel.keys.persistent_keyring_expiry'
p778
I259200
sS'CONFIG_MD'
p779
S'y'
sS'kernel.sched_domain.cpu7.domain0.forkexec_idx'
p780
I0
sS'kernel.sched_domain.cpu11.domain1.max_newidle_lb_cost'
p781
I596464
sS'CONFIG_DETECT_HUNG_TASK'
p782
S'y'
sS'CONFIG_DMI'
p783
S'y'
sS'kernel.sched_domain.cpu47.domain1.min_interval'
p784
I50
sS'net.ipv4.conf.lo.arp_notify'
p785
I0
sS'CONFIG_BQL'
p786
S'y'
sS'kernel.softlockup_all_cpu_backtrace'
p787
I0
sS'CONFIG_VIRTIO_MMIO_CMDLINE_DEVICES'
p788
S'y'
sS'kernel.sched_domain.cpu17.domain0.min_interval'
p789
I10
sS'kernel.version'
p790
S'#3 SMP Tue Mar 13 14:28:42 EDT 2018'
p791
sS'net.ipv6.neigh.default.gc_interval'
p792
I30
sS'kernel.sched_domain.cpu36.domain1.imbalance_pct'
p793
I125
sS'kernel.sched_domain.cpu38.domain0.idle_idx'
p794
I1
sS'kernel.sched_domain.cpu0.domain0.busy_idx'
p795
I2
sS'CONFIG_CGROUP_SCHED'
p796
S'y'
sS'CONFIG_HT_IRQ'
p797
S'y'
sS'CONFIG_NET_VENDOR_ATHEROS'
p798
S'y'
sS'net.ipv6.neigh.ens3.unres_qlen_bytes'
p799
I212992
sS'kernel.panic_on_io_nmi'
p800
I0
sS'net.ipv4.tcp_congestion_control'
p801
S'cubic'
p802
sS'CONFIG_HAVE_ARCH_MMAP_RND_COMPAT_BITS'
p803
S'y'
sS'kernel.sched_domain.cpu31.domain1.max_interval'
p804
I100
sS'CONFIG_PANIC_TIMEOUT'
p805
I0
sS'kernel.bootloader_type'
p806
I114
sS'kernel.sched_domain.cpu39.domain1.cache_nice_tries'
p807
I2
sS'kernel.sched_domain.cpu7.domain0.newidle_idx'
p808
I0
sS'CONFIG_SERIAL_CORE'
p809
S'y'
sS'kernel.sched_domain.cpu47.domain0.max_interval'
p810
I20
sS'net.ipv6.idgen_delay'
p811
I1
sS'CONFIG_HAVE_HARDENED_USERCOPY_ALLOCATOR'
p812
S'y'
sS'kernel.sched_domain.cpu37.domain1.min_interval'
p813
I50
sS'kernel.sched_domain.cpu49.domain0.newidle_idx'
p814
I0
sS'net.ipv6.conf.ens3.disable_ipv6'
p815
I0
sS'kernel.sched_domain.cpu48.domain1.min_interval'
p816
I50
sS'net.ipv4.conf.ens3.disable_xfrm'
p817
I0
sS'CONFIG_MFD_DA9052_SPI'
p818
S'y'
sS'kernel.sched_domain.cpu49.domain1.min_interval'
p819
I50
sS'CONFIG_NET_INGRESS'
p820
S'y'
sS'kernel.sched_domain.cpu19.domain1.name'
p821
S'NUMA'
p822
sS'kernel.sched_domain.cpu28.domain1.max_interval'
p823
I100
sS'kernel.msgmax'
p824
I8192
sS'CONFIG_ARCH_ENABLE_HUGEPAGE_MIGRATION'
p825
S'y'
sS'kernel.sched_domain.cpu28.domain1.max_newidle_lb_cost'
p826
I578811
sS'kernel.sched_domain.cpu21.domain0.cache_nice_tries'
p827
I1
sS'kernel.sched_domain.cpu31.domain1.idle_idx'
p828
I2
sS'CONFIG_CHARGER_MANAGER'
p829
S'y'
sS'net.ipv6.conf.lo.drop_unsolicited_na'
p830
I0
sS'net.ipv4.conf.ens3.medium_id'
p831
I0
sS'kernel.sched_domain.cpu19.domain1.busy_idx'
p832
I3
sS'CONFIG_SYSVIPC'
p833
S'y'
sS'kernel.sched_domain.cpu47.domain1.newidle_idx'
p834
I0
sS'net.ipv6.neigh.ens3.ucast_solicit'
p835
I3
sS'CONFIG_PARPORT_PC_FIFO'
p836
S'y'
sS'CONFIG_WIRELESS'
p837
S'y'
sS'CONFIG_FANOTIFY_ACCESS_PERMISSIONS'
p838
S'y'
sS'kernel.sched_domain.cpu49.domain0.idle_idx'
p839
I1
sS'CONFIG_DAX'
p840
S'y'
sS'CONFIG_RD_XZ'
p841
S'y'
sS'kernel.sched_domain.cpu17.domain0.busy_factor'
p842
I32
sS'kernel.sched_domain.cpu17.domain1.wake_idx'
p843
I0
sS'CONFIG_CONNECTOR'
p844
S'y'
sS'net.ipv4.conf.default.arp_accept'
p845
I0
sS'kernel.sched_domain.cpu44.domain1.wake_idx'
p846
I0
sS'kernel.sched_domain.cpu34.domain1.busy_factor'
p847
I32
sS'net.ipv4.udp_early_demux'
p848
I1
sS'CONFIG_MFD_88PM860X'
p849
S'y'
sS'kernel.sched_domain.cpu6.domain0.min_interval'
p850
I10
sS'kernel.sched_domain.cpu15.domain0.imbalance_pct'
p851
I125
sS'CONFIG_MODVERSIONS'
p852
S'y'
sS'kernel.sched_migration_cost_ns'
p853
I500000
sS'CONFIG_HAVE_INTEL_TXT'
p854
S'y'
sS'CONFIG_ARCH_HAS_UBSAN_SANITIZE_ALL'
p855
S'y'
sS'kernel.sched_domain.cpu20.domain0.forkexec_idx'
p856
I0
sS'CONFIG_OLD_SIGSUSPEND3'
p857
S'y'
sS'kernel.sched_domain.cpu44.domain0.imbalance_pct'
p858
I125
sS'net.ipv6.conf.ens3.use_tempaddr'
p859
I0
sS'dev.mac_hid.mouse_button2_keycode'
p860
I97
sS'net.ipv6.neigh.lo.proxy_qlen'
p861
I64
sS'kernel.sched_domain.cpu27.domain1.max_interval'
p862
I100
sS'net.ipv6.conf.default.router_probe_interval'
p863
I60
sS'kernel.sched_domain.cpu14.domain1.busy_factor'
p864
I32
sS'net.ipv4.route.error_burst'
p865
I1250
sS'CONFIG_NET_VENDOR_ARC'
p866
S'y'
sS'net.ipv6.conf.all.keep_addr_on_down'
p867
I0
sS'kernel.sched_domain.cpu16.domain1.forkexec_idx'
p868
I0
sS'CONFIG_EDAC_ATOMIC_SCRUB'
p869
S'y'
sS'CONFIG_TRUSTED_KEYS'
p870
S'y'
sS'CONFIG_PWM_SYSFS'
p871
S'y'
sS'kernel.sched_domain.cpu47.domain0.forkexec_idx'
p872
I0
sS'net.ipv4.tcp_fastopen'
p873
I1
sS'net.ipv6.conf.lo.proxy_ndp'
p874
I0
sS'CONFIG_HAVE_KVM_EVENTFD'
p875
S'y'
sS'CONFIG_HAVE_ARCH_KMEMCHECK'
p876
S'y'
sS'CONFIG_PM_DEVFREQ'
p877
S'y'
sS'CONFIG_UID16'
p878
S'y'
sS'kernel.sched_domain.cpu41.domain1.imbalance_pct'
p879
I125
sS'net.ipv6.calipso_cache_bucket_size'
p880
I10
sS'CONFIG_ACPI_SLEEP'
p881
S'y'
sS'kernel.watchdog_cpumask'
p882
S'0-121'
p883
sS'CONFIG_SND_SUPPORT_OLD_API'
p884
S'y'
sS'kernel.sched_domain.cpu39.domain0.newidle_idx'
p885
I0
sS'net.ipv6.conf.all.max_addresses'
p886
I16
sS'kernel.sched_domain.cpu45.domain1.forkexec_idx'
p887
I0
sS'kernel.sched_domain.cpu32.domain0.name'
p888
S'DIE'
p889
sS'kernel.sched_child_runs_first'
p890
I0
sS'net.ipv6.conf.all.accept_ra_from_local'
p891
I0
sS'CONFIG_PINCONF'
p892
S'y'
sS'kernel.sched_domain.cpu48.domain0.imbalance_pct'
p893
I125
sS'CONFIG_CRYPTO_GCM'
p894
S'y'
sS'kernel.sched_domain.cpu31.domain0.forkexec_idx'
p895
I0
sS'kernel.softlockup_panic'
p896
I0
sS'kernel.sched_domain.cpu18.domain1.imbalance_pct'
p897
I125
sS'kernel.sched_domain.cpu25.domain0.max_interval'
p898
I20
sS'CONFIG_RTC_I2C_AND_SPI'
p899
S'y'
sS'CONFIG_USB_EHCI_HCD'
p900
S'y'
sS'kernel.sched_domain.cpu36.domain1.forkexec_idx'
p901
I0
sS'CONFIG_CHROME_PLATFORMS'
p902
S'y'
sS'kernel.sched_domain.cpu7.domain1.max_interval'
p903
I100
sS'CONFIG_HAVE_ARCH_KGDB'
p904
S'y'
sS'CONFIG_IO_DELAY_TYPE_0XED'
p905
I1
sS'net.ipv6.conf.ens3.drop_unicast_in_l2_multicast'
p906
I0
sS'net.ipv6.conf.default.force_mld_version'
p907
I0
sS'kernel.sched_domain.cpu35.domain0.min_interval'
p908
I10
sS'net.ipv4.ip_no_pmtu_disc'
p909
I0
sS'CONFIG_GENERIC_CLOCKEVENTS_BROADCAST'
p910
S'y'
sS'CONFIG_WLAN_VENDOR_MEDIATEK'
p911
S'y'
sS'vm.dirty_writeback_centisecs'
p912
I500
sS'net.ipv4.conf.all.send_redirects'
p913
I1
sS'CONFIG_SCSI_CXGB3_ISCSI'
p914
S'm'
sS'net.ipv6.conf.lo.accept_ra'
p915
I1
sS'kernel.sched_domain.cpu2.domain0.max_newidle_lb_cost'
p916
I698077
sS'CONFIG_ARCH_SUPPORTS_OPTIMIZED_INLINING'
p917
S'y'
sS'net.ipv4.conf.default.proxy_arp_pvlan'
p918
I0
sS'kernel.sched_domain.cpu27.domain0.max_newidle_lb_cost'
p919
I578531
sS'kernel.sched_domain.cpu33.domain1.idle_idx'
p920
I2
sS'CONFIG_PM_STD_PARTITION'
p921
S'""'
p922
sS'net.ipv4.conf.ens3.secure_redirects'
p923
I1
sS'kernel.sched_domain.cpu27.domain1.name'
p924
S'NUMA'
p925
sS'CONFIG_ULTRIX_PARTITION'
p926
S'y'
sS'CONFIG_HAVE_NMI'
p927
S'y'
sS'kernel.sched_domain.cpu19.domain1.busy_factor'
p928
I32
sS'CONFIG_NET_VENDOR_3COM'
p929
S'y'
sS'kernel.sched_domain.cpu16.domain1.name'
p930
S'NUMA'
p931
sS'net.ipv6.conf.ens3.seg6_enabled'
p932
I0
sS'kernel.sched_domain.cpu13.domain1.idle_idx'
p933
I2
sS'fs.mqueue.msgsize_max'
p934
I8192
sS'kernel.sched_domain.cpu45.domain1.flags'
p935
I25647
sS'kernel.sched_domain.cpu13.domain0.name'
p936
S'DIE'
p937
sS'CONFIG_HAVE_KERNEL_XZ'
p938
S'y'
sS'net.ipv4.conf.all.forwarding'
p939
I0
sS'CONFIG_USB_DEFAULT_PERSIST'
p940
S'y'
sS'CONFIG_NEW_LEDS'
p941
S'y'
sS'kernel.sched_domain.cpu28.domain0.flags'
p942
I4143
sS'kernel.perf_event_paranoid'
p943
I2
sS'net.ipv4.conf.all.bootp_relay'
p944
I0
sS'net.ipv6.neigh.default.base_reachable_time_ms'
p945
I30000
sS'kernel.sched_domain.cpu24.domain1.flags'
p946
I25647
sS'kernel.perf_event_mlock_kb'
p947
I516
sS'vm.block_dump'
p948
I0
sS'kernel.sched_domain.cpu16.domain0.busy_factor'
p949
I32
sS'CONFIG_PHYLIB'
p950
S'y'
sS'net.ipv4.tcp_keepalive_intvl'
p951
I75
sS'net.ipv4.conf.all.igmpv3_unsolicited_report_interval'
p952
I1000
sS'CONFIG_PCI_MSI'
p953
S'y'
sS'net.ipv4.conf.default.send_redirects'
p954
I1
sS'net.ipv6.conf.default.disable_ipv6'
p955
I0
sS'kernel.sched_domain.cpu26.domain1.min_interval'
p956
I50
sS'kernel.sched_domain.cpu20.domain1.newidle_idx'
p957
I0
sS'kernel.sched_domain.cpu35.domain0.idle_idx'
p958
I1
sS'fs.pipe-user-pages-hard'
p959
I0
sS'net.ipv4.route.redirect_number'
p960
I9
sS'net.ipv6.conf.lo.hop_limit'
p961
I64
sS'kernel.sched_domain.cpu7.domain1.newidle_idx'
p962
I0
sS'net.ipv4.conf.all.arp_accept'
p963
I0
sS'kernel.sched_domain.cpu36.domain1.busy_factor'
p964
I32
sS'CONFIG_BINARY_PRINTF'
p965
S'y'
sS'kernel.numa_balancing_scan_period_max_ms'
p966
I60000
sS'kernel.msgmnb'
p967
I16384
sS'CONFIG_IRQ_BYPASS_MANAGER'
p968
S'm'
sS'kernel.sched_domain.cpu34.domain0.imbalance_pct'
p969
I125
sS'kernel.msgmni'
p970
I32000
sS'CONFIG_SLUB'
p971
S'y'
sS'kernel.soft_watchdog'
p972
I1
sS'kernel.sched_domain.cpu40.domain0.cache_nice_tries'
p973
I1
sS'kernel.sched_time_avg_ms'
p974
I1000
sS'kernel.sched_domain.cpu21.domain0.busy_idx'
p975
I2
sS'net.ipv4.conf.lo.rp_filter'
p976
I0
sS'CONFIG_X86_INTEL_MPX'
p977
S'y'
sS'CONFIG_X86_ACPI_CPUFREQ_CPB'
p978
S'y'
sS'net.ipv6.conf.default.mc_forwarding'
p979
I0
sS'kernel.threads-max'
p980
I515185
sS'kernel.sched_domain.cpu1.domain1.busy_factor'
p981
I32
sS'kernel.sched_domain.cpu18.domain1.busy_idx'
p982
I3
sS'kernel.overflowuid'
p983
I65534
sS'kernel.sched_domain.cpu41.domain0.wake_idx'
p984
I0
sS'CONFIG_ACPI_DOCK'
p985
S'y'
sS'CONFIG_X86_INTEL_MEMORY_PROTECTION_KEYS'
p986
S'y'
sS'kernel.sched_domain.cpu40.domain1.idle_idx'
p987
I2
sS'net.ipv4.neigh.ens3.base_reachable_time_ms'
p988
I30000
sS'CONFIG_SCHED_MC'
p989
S'y'
sS'CONFIG_ARCH_HAS_MEM_ENCRYPT'
p990
S'y'
sS'kernel.sched_domain.cpu35.domain1.min_interval'
p991
I50
sS'kernel.sched_domain.cpu8.domain1.max_interval'
p992
I100
sS'kernel.sched_domain.cpu17.domain1.min_interval'
p993
I50
sS'kernel.keys.gc_delay'
p994
I300
sS'CONFIG_HAVE_ARCH_TRANSPARENT_HUGEPAGE_PUD'
p995
S'y'
sS'kernel.sched_domain.cpu49.domain0.max_interval'
p996
I20
sS'kernel.hung_task_timeout_secs'
p997
I120
sS'kernel.sched_domain.cpu44.domain1.idle_idx'
p998
I2
sS'CONFIG_X86_MINIMUM_CPU_FAMILY'
p999
I64
sS'CONFIG_CRYPTO_KPP2'
p1000
S'y'
sS'CONFIG_SQUASHFS_ZLIB'
p1001
S'y'
sS'CONFIG_X86_PLATFORM_DEVICES'
p1002
S'y'
sS'CONFIG_CONTEXT_SWITCH_TRACER'
p1003
S'y'
sS'net.ipv4.conf.default.accept_source_route'
p1004
I1
sS'kernel.core_pipe_limit'
p1005
I0
sS'kernel.sched_domain.cpu32.domain1.idle_idx'
p1006
I2
sS'kernel.timer_migration'
p1007
I1
sS'kernel.sched_domain.cpu7.domain1.imbalance_pct'
p1008
I125
sS'CONFIG_CC_STACKPROTECTOR'
p1009
S'y'
sS'kernel.sched_domain.cpu38.domain0.name'
p1010
S'DIE'
p1011
sS'kernel.sched_domain.cpu19.domain1.max_interval'
p1012
I100
sS'CONFIG_PERF_EVENTS_INTEL_RAPL'
p1013
S'y'
sS'CONFIG_HAVE_PERF_USER_STACK_DUMP'
p1014
S'y'
sS'CONFIG_SERIAL_SCCNXP'
p1015
S'y'
sS'kernel.sched_domain.cpu28.domain1.cache_nice_tries'
p1016
I2
sS'CONFIG_EFI_RUNTIME_MAP'
p1017
S'y'
sS'kernel.sched_domain.cpu18.domain1.flags'
p1018
I25647
sS'net.ipv6.neigh.lo.base_reachable_time_ms'
p1019
I30000
sS'kernel.sched_domain.cpu34.domain1.max_interval'
p1020
I100
sS'debug.kprobes-optimization'
p1021
I1
sS'kernel.sched_domain.cpu6.domain0.idle_idx'
p1022
I1
sS'CONFIG_BPF_SYSCALL'
p1023
S'y'
sS'net.ipv6.conf.default.accept_ra_pinfo'
p1024
I1
sS'kernel.sched_domain.cpu19.domain0.name'
p1025
S'DIE'
p1026
sS'CONFIG_VIRTIO_PCI_LEGACY'
p1027
S'y'
sS'kernel.sched_domain.cpu2.domain1.max_interval'
p1028
I100
sS'CONFIG_WLAN_VENDOR_QUANTENNA'
p1029
S'y'
sS'kernel.sched_domain.cpu25.domain0.forkexec_idx'
p1030
I0
sS'net.ipv4.neigh.lo.retrans_time_ms'
p1031
I1000
sS'CONFIG_CRYPTO_DEV_CCP'
p1032
S'y'
sS'CONFIG_HAVE_EFFICIENT_UNALIGNED_ACCESS'
p1033
S'y'
sS'CONFIG_USB_ANNOUNCE_NEW_DEVICES'
p1034
S'y'
sS'CONFIG_AUTOFS4_FS'
p1035
S'm'
sS'kernel.sched_domain.cpu46.domain1.name'
p1036
S'NUMA'
p1037
sS'CONFIG_STAGING'
p1038
S'y'
sS'CONFIG_SYSVIPC_COMPAT'
p1039
S'y'
sS'CONFIG_ARCH_HAS_FAST_MULTIPLIER'
p1040
S'y'
sS'CONFIG_IPV6_MROUTE_MULTIPLE_TABLES'
p1041
S'y'
sS'CONFIG_NET_VENDOR_STMICRO'
p1042
S'y'
sS'CONFIG_NUMA_BALANCING_DEFAULT_ENABLED'
p1043
S'y'
sS'kernel.sched_domain.cpu12.domain0.flags'
p1044
I4143
sS'kernel.sched_domain.cpu31.domain1.newidle_idx'
p1045
I0
sS'kernel.sched_domain.cpu15.domain1.forkexec_idx'
p1046
I0
sS'net.ipv6.conf.all.accept_ra_rt_info_max_plen'
p1047
I0
sS'CONFIG_X86_DEV_DMA_OPS'
p1048
S'y'
sS'CONFIG_PCI_ATS'
p1049
S'y'
sS'CONFIG_RD_LZO'
p1050
S'y'
sS'kernel.sched_domain.cpu7.domain1.cache_nice_tries'
p1051
I2
sS'kernel.sched_domain.cpu32.domain0.max_newidle_lb_cost'
p1052
I597826
sS'CONFIG_BLK_DEV'
p1053
S'y'
sS'CONFIG_HARDLOCKUP_CHECK_TIMESTAMP'
p1054
S'y'
sS'CONFIG_INLINE_READ_UNLOCK_IRQ'
p1055
S'y'
sS'CONFIG_SQUASHFS_XZ'
p1056
S'y'
sS'kernel.sched_domain.cpu10.domain0.busy_factor'
p1057
I32
sS'CONFIG_MDIO_DEVICE'
p1058
S'y'
sS'CONFIG_GPIO_RC5T583'
p1059
S'y'
sS'net.ipv4.tcp_moderate_rcvbuf'
p1060
I1
sS'kernel.sched_domain.cpu41.domain0.name'
p1061
S'DIE'
p1062
sS'CONFIG_STACKTRACE'
p1063
S'y'
sS'CONFIG_ATA_BMDMA'
p1064
S'y'
sS'kernel.sched_domain.cpu20.domain1.forkexec_idx'
p1065
I0
sS'kernel.sched_domain.cpu46.domain1.flags'
p1066
I25647
sS'net.ipv4.tcp_min_rtt_wlen'
p1067
I300
sS'net.ipv6.fwmark_reflect'
p1068
I0
sS'CONFIG_MOUSE_PS2_VMMOUSE'
p1069
S'y'
sS'kernel.sched_domain.cpu22.domain0.wake_idx'
p1070
I0
sS'CONFIG_SECURITY_APPARMOR'
p1071
S'y'
sS'CONFIG_WATCHDOG_CORE'
p1072
S'y'
sS'CONFIG_SERIAL_KGDB_NMI'
p1073
S'y'
sS'CONFIG_INSTRUCTION_DECODER'
p1074
S'y'
sS'kernel.sched_domain.cpu44.domain1.max_interval'
p1075
I100
sS'net.ipv6.neigh.ens3.proxy_delay'
p1076
I80
sS'CONFIG_SOC_TI'
p1077
S'y'
sS'net.ipv4.neigh.default.gc_stale_time'
p1078
I60
sS'CONFIG_MFD_TPS80031'
p1079
S'y'
sS'kernel.sched_domain.cpu2.domain1.forkexec_idx'
p1080
I0
sS'CONFIG_MEMCG'
p1081
S'y'
sS'net.ipv6.conf.default.dad_transmits'
p1082
I1
sS'kernel.sched_domain.cpu12.domain1.max_newidle_lb_cost'
p1083
I599275
sS'net.ipv4.neigh.lo.ucast_solicit'
p1084
I3
sS'kernel.sched_domain.cpu8.domain1.busy_factor'
p1085
I32
sS'CONFIG_IOSCHED_CFQ'
p1086
S'y'
sS'kernel.sched_domain.cpu34.domain0.min_interval'
p1087
I10
sS'net.ipv6.conf.all.mldv1_unsolicited_report_interval'
p1088
I10000
sS'kernel.sched_domain.cpu2.domain0.idle_idx'
p1089
I1
sS'CONFIG_BLK_DEV_DM'
p1090
S'y'
sS'CONFIG_DEFAULT_HUNG_TASK_TIMEOUT'
p1091
I120
sS'CONFIG_CPU_FREQ_GOV_ATTR_SET'
p1092
S'y'
sS'net.ipv6.conf.default.regen_max_retry'
p1093
I3
sS'CONFIG_SND_PCI'
p1094
S'y'
sS'CONFIG_GENERIC_CPU'
p1095
S'y'
sS'net.ipv4.conf.default.accept_local'
p1096
I0
sS'net.ipv6.conf.default.forwarding'
p1097
I0
sS'net.core.dev_weight_rx_bias'
p1098
I1
sS'CONFIG_CPU_SUP_AMD'
p1099
S'y'
sS'kernel.sched_domain.cpu44.domain0.wake_idx'
p1100
I0
sS'CONFIG_GENERIC_FIND_FIRST_BIT'
p1101
S'y'
sS'CONFIG_HAVE_USER_RETURN_NOTIFIER'
p1102
S'y'
sS'kernel.core_pattern'
p1103
S'|/usr/share/apport/apport %p %s %c %d %P'
p1104
sS'kernel.perf_event_max_sample_rate'
p1105
I100000
sS'CONFIG_SCSI'
p1106
S'y'
sS'kernel.sched_domain.cpu26.domain0.cache_nice_tries'
p1107
I1
sS'CONFIG_HAVE_GCC_PLUGINS'
p1108
S'y'
sS'kernel.sched_domain.cpu49.domain1.max_newidle_lb_cost'
p1109
I622825
sS'kernel.random.poolsize'
p1110
I4096
sS'CONFIG_GLOB'
p1111
S'y'
sS'CONFIG_ZBUD'
p1112
S'y'
sS'CONFIG_ARCH_MMAP_RND_BITS_MAX'
p1113
I32
sS'net.ipv6.conf.lo.force_mld_version'
p1114
I0
sS'CONFIG_NUMA_BALANCING'
p1115
S'y'
sS'net.ipv4.conf.ens3.accept_redirects'
p1116
I1
sS'kernel.sched_domain.cpu1.domain0.busy_factor'
p1117
I32
sS'CONFIG_EDD_OFF'
p1118
S'y'
sS'CONFIG_THERMAL'
p1119
S'y'
sS'CONFIG_BPF'
p1120
S'y'
sS'CONFIG_HUGETLBFS'
p1121
S'y'
sS'net.ipv4.tcp_frto'
p1122
I2
sS'CONFIG_ETHERNET'
p1123
S'y'
sS'net.ipv4.tcp_probe_threshold'
p1124
I8
sS'kernel.sched_domain.cpu20.domain0.name'
p1125
S'DIE'
p1126
sS'kernel.sched_domain.cpu35.domain1.name'
p1127
S'NUMA'
p1128
sS'net.ipv4.conf.default.forwarding'
p1129
I0
sS'CONFIG_DECOMPRESS_BZIP2'
p1130
S'y'
sS'net.ipv6.conf.default.accept_ra_rtr_pref'
p1131
I1
sS'net.ipv4.neigh.lo.delay_first_probe_time'
p1132
I5
sS'kernel.sched_domain.cpu38.domain1.busy_factor'
p1133
I32
sS'CONFIG_MFD_MAX8998'
p1134
S'y'
sS'CONFIG_AB3100_CORE'
p1135
S'y'
sS'CONFIG_PM'
p1136
S'y'
sS'kernel.sched_domain.cpu43.domain0.wake_idx'
p1137
I0
sS'CONFIG_FAIR_GROUP_SCHED'
p1138
S'y'
sS'CONFIG_HAVE_ARCH_HUGE_VMAP'
p1139
S'y'
sS'net.ipv4.ip_forward'
p1140
I0
sS'CONFIG_COMPAT_32'
p1141
S'y'
sS'kernel.sched_domain.cpu12.domain0.forkexec_idx'
p1142
I0
sS'kernel.sched_domain.cpu23.domain1.forkexec_idx'
p1143
I0
sS'kernel.sched_domain.cpu7.domain0.busy_factor'
p1144
I32
sS'kernel.sched_domain.cpu0.domain0.name'
p1145
S'DIE'
p1146
sS'kernel.sched_domain.cpu3.domain0.busy_idx'
p1147
I2
sS'kernel.sched_domain.cpu0.domain0.max_interval'
p1148
I20
sS'kernel.sched_domain.cpu14.domain1.min_interval'
p1149
I50
sS'kernel.sched_domain.cpu21.domain1.idle_idx'
p1150
I2
sS'kernel.sched_domain.cpu12.domain1.flags'
p1151
I25647
sS'kernel.sched_domain.cpu18.domain0.name'
p1152
S'DIE'
p1153
sS'CONFIG_NETFILTER_ADVANCED'
p1154
S'y'
sS'CONFIG_RANDOMIZE_MEMORY'
p1155
S'y'
sS'CONFIG_ASYNC_MEMCPY'
p1156
S'm'
sS'net.ipv6.conf.default.accept_ra_from_local'
p1157
I0
sS'CONFIG_WLAN_VENDOR_REALTEK'
p1158
S'y'
sS'kernel.sched_domain.cpu32.domain1.name'
p1159
S'NUMA'
p1160
sS'kernel.sched_domain.cpu42.domain0.busy_idx'
p1161
I2
sS'kernel.sched_domain.cpu26.domain1.cache_nice_tries'
p1162
I2
sS'net.ipv4.conf.lo.accept_redirects'
p1163
I1
sS'net.core.flow_limit_table_len'
p1164
I4096
sS'kernel.sched_domain.cpu6.domain0.imbalance_pct'
p1165
I125
sS'kernel.sched_domain.cpu17.domain0.wake_idx'
p1166
I0
sS'CONFIG_MOUSE_PS2_SYNAPTICS_SMBUS'
p1167
S'y'
sS'CONFIG_ZONE_DMA'
p1168
S'y'
sS'net.core.max_skb_frags'
p1169
I17
sS'CONFIG_TCP_CONG_CUBIC'
p1170
S'y'
sS'CONFIG_COMPAT_FOR_U64_ALIGNMENT'
p1171
S'y'
sS'kernel.sched_domain.cpu23.domain1.busy_factor'
p1172
I32
sS'CONFIG_HAVE_KVM_CPU_RELAX_INTERCEPT'
p1173
S'y'
sS'CONFIG_VHOST'
p1174
S'm'
sS'kernel.sched_domain.cpu26.domain1.flags'
p1175
I25647
sS'net.ipv6.neigh.ens3.gc_stale_time'
p1176
I60
sS'kernel.sched_domain.cpu15.domain1.busy_factor'
p1177
I32
sS'CONFIG_HAVE_NET_DSA'
p1178
S'y'
sS'kernel.sched_domain.cpu34.domain1.forkexec_idx'
p1179
I0
sS'CONFIG_PCI_LABEL'
p1180
S'y'
sS'CONFIG_IOMMU_IOVA'
p1181
S'y'
sS'kernel.sched_domain.cpu23.domain1.imbalance_pct'
p1182
I125
sS'kernel.sched_domain.cpu6.domain0.max_newidle_lb_cost'
p1183
I807252
sS'CONFIG_GENERIC_IOMAP'
p1184
S'y'
sS'CONFIG_ISCSI_IBFT_FIND'
p1185
S'y'
sS'kernel.sched_domain.cpu6.domain1.busy_idx'
p1186
I3
sS'kernel.sched_domain.cpu5.domain1.max_interval'
p1187
I100
sS'CONFIG_USB_DWC2'
p1188
S'y'
sS'kernel.sched_domain.cpu38.domain0.imbalance_pct'
p1189
I125
sS'kernel.sched_domain.cpu45.domain1.wake_idx'
p1190
I0
sS'CONFIG_EVM'
p1191
S'y'
sS'CONFIG_PKCS7_MESSAGE_PARSER'
p1192
S'y'
sS'kernel.sched_domain.cpu43.domain0.busy_idx'
p1193
I2
sS'CONFIG_IA32_EMULATION'
p1194
S'y'
sS'net.ipv4.tcp_workaround_signed_windows'
p1195
I0
sS'kernel.sched_domain.cpu44.domain1.busy_idx'
p1196
I3
sS'CONFIG_IP_MROUTE'
p1197
S'y'
sS'kernel.sched_domain.cpu22.domain0.name'
p1198
S'DIE'
p1199
sS'net.ipv4.ipfrag_secret_interval'
p1200
I0
sS'CONFIG_ZSTD_DECOMPRESS'
p1201
S'm'
sS'kernel.sched_domain.cpu29.domain1.cache_nice_tries'
p1202
I2
sS'net.ipv6.neigh.default.ucast_solicit'
p1203
I3
sS'net.ipv6.neigh.default.locktime'
p1204
I0
sS'CONFIG_AGP_VIA'
p1205
S'y'
sS'net.ipv6.auto_flowlabels'
p1206
I1
sS'kernel.sched_domain.cpu28.domain0.max_newidle_lb_cost'
p1207
I25652155
sS'kernel.sched_domain.cpu46.domain1.cache_nice_tries'
p1208
I2
sS'kernel.sched_domain.cpu19.domain0.cache_nice_tries'
p1209
I1
sS'kernel.sched_domain.cpu28.domain1.newidle_idx'
p1210
I0
sS'kernel.sched_domain.cpu14.domain0.flags'
p1211
I4143
sS'kernel.sched_domain.cpu31.domain1.max_newidle_lb_cost'
p1212
I653398
sS'CONFIG_ELFCORE'
p1213
S'y'
sS'CONFIG_BPF_EVENTS'
p1214
S'y'
sS'net.ipv4.neigh.lo.mcast_solicit'
p1215
I3
sS'CONFIG_BUILD_BIN2C'
p1216
S'y'
sS'kernel.sched_domain.cpu14.domain1.max_interval'
p1217
I100
sS'CONFIG_I2C_PIIX4'
p1218
S'm'
sS'CONFIG_SND_HDA_GENERIC'
p1219
S'm'
sS'net.core.bpf_jit_enable'
p1220
I0
sS'CONFIG_SND_HDA'
p1221
S'm'
sS'fs.quota.drops'
p1222
I0
sS'kernel.acct'
p1223
S'4\t2\t30'
p1224
sS'kernel.sched_domain.cpu8.domain0.name'
p1225
S'DIE'
p1226
sS'fs.mqueue.msg_max'
p1227
I10
sS'kernel.yama.ptrace_scope'
p1228
I1
sS'kernel.sched_domain.cpu19.domain0.idle_idx'
p1229
I1
sS'kernel.sched_domain.cpu35.domain1.flags'
p1230
I25647
sS'dev.parport.default.timeslice'
p1231
I200
sS'net.ipv4.inet_peer_threshold'
p1232
I65664
sS'kernel.sched_domain.cpu21.domain0.max_newidle_lb_cost'
p1233
I669883
sS'CONFIG_HAVE_ARCH_TRACEHOOK'
p1234
S'y'
sS'net.ipv6.conf.all.ignore_routes_with_linkdown'
p1235
I0
sS'CONFIG_RTC_HCTOSYS'
p1236
S'y'
sS'net.core.rps_sock_flow_entries'
p1237
I0
sS'CONFIG_ARCH_SELECT_MEMORY_MODEL'
p1238
S'y'
sS'CONFIG_FONT_8x8'
p1239
S'y'
sS'kernel.sched_domain.cpu1.domain0.min_interval'
p1240
I10
sS'net.ipv4.tcp_recovery'
p1241
I1
sS'CONFIG_EARLY_PRINTK_USB'
p1242
S'y'
sS'kernel.sched_domain.cpu26.domain1.max_interval'
p1243
I100
sS'CONFIG_EDD'
p1244
S'y'
sS'kernel.sched_domain.cpu26.domain1.name'
p1245
S'NUMA'
p1246
sS'net.ipv6.route.max_size'
p1247
I4096
sS'kernel.sched_domain.cpu37.domain0.flags'
p1248
I4143
sS'kernel.sched_domain.cpu5.domain0.imbalance_pct'
p1249
I125
sS'kernel.sched_domain.cpu13.domain1.name'
p1250
S'NUMA'
p1251
sS'CONFIG_FTRACE_SYSCALLS'
p1252
S'y'
sS'net.ipv6.conf.lo.accept_ra_rt_info_min_plen'
p1253
I0
sS'CONFIG_GENERIC_IRQ_MIGRATION'
p1254
S'y'
sS'kernel.sched_domain.cpu5.domain0.max_interval'
p1255
I20
sS'fs.inode-state'
p1256
S'1479657\t508\t0\t0\t0\t0\t0'
p1257
sS'CONFIG_HTC_I2CPLD'
p1258
S'y'
sS'kernel.sched_domain.cpu27.domain0.newidle_idx'
p1259
I0
sS'kernel.sched_domain.cpu35.domain0.busy_factor'
p1260
I32
sS'kernel.sched_domain.cpu25.domain0.flags'
p1261
I4143
sS'net.ipv4.ipfrag_max_dist'
p1262
I64
sS'kernel.sched_rt_period_us'
p1263
I1000000
sS'CONFIG_HAVE_CONTEXT_TRACKING'
p1264
S'y'
sS'CONFIG_CRYPTO_DRBG'
p1265
S'y'
sS'CONFIG_ADVISE_SYSCALLS'
p1266
S'y'
sS'CONFIG_STRICT_MODULE_RWX'
p1267
S'y'
sS'kernel.sched_domain.cpu19.domain0.busy_idx'
p1268
I2
sS'kernel.printk_delay'
p1269
I0
sS'kernel.sched_domain.cpu8.domain0.forkexec_idx'
p1270
I0
sS'kernel.sched_domain.cpu41.domain1.max_newidle_lb_cost'
p1271
I820850
sS'CONFIG_GENERIC_ISA_DMA'
p1272
S'y'
sS'net.ipv4.neigh.default.retrans_time_ms'
p1273
I1000
sS'net.core.wmem_default'
p1274
I212992
sS'CONFIG_RATIONAL'
p1275
S'y'
sS'kernel.sched_domain.cpu16.domain1.max_newidle_lb_cost'
p1276
I621787
sS'CONFIG_ARCH_DMA_ADDR_T_64BIT'
p1277
S'y'
sS'kernel.sched_domain.cpu22.domain0.busy_idx'
p1278
I2
sS'CONFIG_IP_NF_FILTER'
p1279
S'm'
sS'kernel.sched_domain.cpu20.domain1.min_interval'
p1280
I50
sS'net.ipv4.conf.default.route_localnet'
p1281
I0
sS'net.ipv4.conf.lo.proxy_arp'
p1282
I0
sS'CONFIG_PMIC_DA903X'
p1283
S'y'
sS'CONFIG_X86_POWERNOW_K8'
p1284
S'y'
sS'CONFIG_ACPI_APEI_MEMORY_FAILURE'
p1285
S'y'
sS'net.ipv4.ip_local_reserved_ports'
p1286
S''
sS'CONFIG_NET_VENDOR_QLOGIC'
p1287
S'y'
sS'CONFIG_PCSPKR_PLATFORM'
p1288
S'y'
sS'kernel.sched_domain.cpu17.domain0.max_interval'
p1289
I20
sS'CONFIG_PM_TRACE_RTC'
p1290
S'y'
sS'net.ipv6.conf.lo.max_addresses'
p1291
I16
sS'kernel.sched_domain.cpu20.domain1.name'
p1292
S'NUMA'
p1293
sS'kernel.sched_domain.cpu7.domain0.min_interval'
p1294
I10
sS'kernel.sched_domain.cpu36.domain0.busy_factor'
p1295
I32
sS'kernel.sysctl_writes_strict'
p1296
I1
sS'vm.drop_caches'
p1297
I0
sS'kernel.sched_domain.cpu45.domain0.wake_idx'
p1298
I0
sS'kernel.sched_domain.cpu21.domain0.newidle_idx'
p1299
I0
sS'kernel.sched_domain.cpu37.domain0.min_interval'
p1300
I10
sS'net.ipv6.conf.ens3.temp_valid_lft'
p1301
I604800
sS'CONFIG_HAVE_FUNCTION_TRACER'
p1302
S'y'
sS'kernel.sched_domain.cpu45.domain0.forkexec_idx'
p1303
I0
sS'kernel.sched_domain.cpu22.domain0.max_newidle_lb_cost'
p1304
I34620412
sS'CONFIG_CLKEVT_I8253'
p1305
S'y'
sS'kernel.sched_domain.cpu35.domain0.busy_idx'
p1306
I2
sS'kernel.sched_domain.cpu2.domain1.flags'
p1307
I25647
sS'CONFIG_PCI_PASID'
p1308
S'y'
sS'dev.cdrom.info'
p1309
S''
sS'kernel.sched_domain.cpu21.domain1.name'
p1310
S'NUMA'
p1311
sS'kernel.sched_domain.cpu47.domain0.imbalance_pct'
p1312
I125
sS'CONFIG_NET_VENDOR_AQUANTIA'
p1313
S'y'
sS'kernel.sched_domain.cpu9.domain0.wake_idx'
p1314
I0
sS'CONFIG_TRANSPARENT_HUGEPAGE_ALWAYS'
p1315
S'y'
sS'CONFIG_LZO_DECOMPRESS'
p1316
S'y'
sg8
S'HostInfo.host-192.168.123.30'
p1317
sS'CONFIG_X86_L1_CACHE_SHIFT'
p1318
I6
sS'kernel.sched_domain.cpu41.domain1.min_interval'
p1319
I50
sS'kernel.sched_domain.cpu12.domain0.wake_idx'
p1320
I0
sS'kernel.sched_domain.cpu13.domain0.busy_factor'
p1321
I32
sS'CONFIG_NET_VENDOR_HP'
p1322
S'y'
sS'CONFIG_NET_VENDOR_MELLANOX'
p1323
S'y'
sS'CONFIG_SHMEM'
p1324
S'y'
sS'CONFIG_EFI_RUNTIME_WRAPPERS'
p1325
S'y'
sS'net.core.netdev_max_backlog'
p1326
I1000
sS'kernel.sched_domain.cpu8.domain0.max_newidle_lb_cost'
p1327
I722781
sS'kernel.sched_domain.cpu48.domain1.busy_idx'
p1328
I3
sS'kernel.sched_domain.cpu32.domain0.newidle_idx'
p1329
I0
sS'kernel.sched_domain.cpu41.domain1.newidle_idx'
p1330
I0
sS'CONFIG_VIRTIO_BLK'
p1331
S'y'
sS'net.ipv6.neigh.ens3.unres_qlen'
p1332
I101
sS'CONFIG_ARCH_HIBERNATION_POSSIBLE'
p1333
S'y'
sS'kernel.hotplug'
p1334
S''
sS'kernel.sched_domain.cpu36.domain0.newidle_idx'
p1335
I0
sS'CONFIG_SERIAL_CORE_CONSOLE'
p1336
S'y'
sS'kernel.sched_domain.cpu4.domain1.cache_nice_tries'
p1337
I2
sS'kernel.sched_domain.cpu13.domain0.max_newidle_lb_cost'
p1338
I669650
sS'CONFIG_ARCH_WANTS_THP_SWAP'
p1339
S'y'
sS'kernel.ostype'
p1340
S'Linux'
p1341
sS'CONFIG_PNP'
p1342
S'y'
sS'CONFIG_MTRR_SANITIZER'
p1343
S'y'
sS'kernel.sched_domain.cpu9.domain0.imbalance_pct'
p1344
I125
sS'CONFIG_MOUSE_PS2_TOUCHKIT'
p1345
S'y'
sS'CONFIG_IPV6'
p1346
S'y'
sS'CONFIG_GENERIC_CLOCKEVENTS'
p1347
S'y'
sS'CONFIG_MICROCODE_INTEL'
p1348
S'y'
sS'kernel.sched_domain.cpu33.domain0.name'
p1349
S'DIE'
p1350
sS'CONFIG_PM_CLK'
p1351
S'y'
sS'CONFIG_RFKILL_INPUT'
p1352
S'y'
sS'CONFIG_I2C_COMPAT'
p1353
S'y'
sS'kernel.sched_domain.cpu36.domain0.flags'
p1354
I4143
sS'kernel.sched_domain.cpu12.domain0.min_interval'
p1355
I10
sS'kernel.sched_domain.cpu11.domain1.newidle_idx'
p1356
I0
sS'CONFIG_SERIAL_8250_NR_UARTS'
p1357
I48
sS'CONFIG_KVM_COMPAT'
p1358
S'y'
sS'CONFIG_CLOCKSOURCE_VALIDATE_LAST_CYCLE'
p1359
S'y'
sS'CONFIG_TCG_TPM'
p1360
S'y'
sS'CONFIG_I2C_DESIGNWARE_PLATFORM'
p1361
S'y'
sS'kernel.sched_domain.cpu47.domain0.cache_nice_tries'
p1362
I1
sS'kernel.sched_domain.cpu29.domain0.newidle_idx'
p1363
I0
sS'CONFIG_X86_INTEL_LPSS'
p1364
S'y'
sS'kernel.sched_domain.cpu39.domain0.name'
p1365
S'DIE'
p1366
sS'kernel.sched_domain.cpu29.domain1.flags'
p1367
I25647
sS'CONFIG_HAVE_EXIT_THREAD'
p1368
S'y'
sS'kernel.sched_domain.cpu27.domain0.flags'
p1369
I4143
sS'net.ipv4.conf.all.log_martians'
p1370
I0
sS'kernel.sched_domain.cpu6.domain0.busy_factor'
p1371
I32
sS'kernel.sched_domain.cpu4.domain0.imbalance_pct'
p1372
I125
sS'CONFIG_SQUASHFS'
p1373
S'y'
sS'CONFIG_WQ_POWER_EFFICIENT_DEFAULT'
p1374
S'y'
sS'CONFIG_MFD_MAX77693'
p1375
S'y'
sS'kernel.sched_domain.cpu0.domain1.max_newidle_lb_cost'
p1376
I701243
sS'kernel.sched_domain.cpu23.domain0.newidle_idx'
p1377
I0
sS'kernel.sched_domain.cpu17.domain1.cache_nice_tries'
p1378
I2
sS'CONFIG_CGROUP_DEVICE'
p1379
S'y'
sS'CONFIG_NET_VENDOR_ALTEON'
p1380
S'y'
sS'CONFIG_BSD_PROCESS_ACCT_V3'
p1381
S'y'
sS'net.ipv4.conf.ens3.tag'
p1382
I0
sS'CONFIG_AMD_NB'
p1383
S'y'
sS'net.ipv4.conf.default.tag'
p1384
I0
sS'net.ipv4.tcp_max_syn_backlog'
p1385
I2048
sS'kernel.sched_domain.cpu10.domain1.idle_idx'
p1386
I2
sS'CONFIG_DECOMPRESS_XZ'
p1387
S'y'
sS'kernel.sched_domain.cpu23.domain1.cache_nice_tries'
p1388
I2
sS'kernel.sched_domain.cpu16.domain1.flags'
p1389
I25647
sS'kernel.sched_domain.cpu39.domain0.flags'
p1390
I4143
sS'net.ipv6.ip6frag_high_thresh'
p1391
I4194304
sS'kernel.sched_domain.cpu21.domain0.busy_factor'
p1392
I32
sS'CONFIG_HAVE_ARCH_JUMP_LABEL'
p1393
S'y'
sS'vm.dirty_expire_centisecs'
p1394
I3000
sS'kernel.sched_domain.cpu17.domain1.name'
p1395
S'NUMA'
p1396
sS'CONFIG_KERNFS'
p1397
S'y'
sS'CONFIG_TCG_TIS_CORE'
p1398
S'y'
sS'CONFIG_IP_MULTICAST'
p1399
S'y'
sS'CONFIG_PM_WAKELOCKS_GC'
p1400
S'y'
sS'kernel.sched_domain.cpu3.domain0.wake_idx'
p1401
I0
sS'kernel.sched_domain.cpu18.domain0.newidle_idx'
p1402
I0
sS'fs.dir-notify-enable'
p1403
I1
sS'CONFIG_MFD_WM8400'
p1404
S'y'
sS'net.ipv6.conf.all.forwarding'
p1405
I0
sS'CONFIG_SERIAL_8250_MANY_PORTS'
p1406
S'y'
sS'net.ipv4.conf.default.medium_id'
p1407
I0
sS'CONFIG_ARCH_HAS_GIGANTIC_PAGE'
p1408
S'y'
sS'vm.oom_dump_tasks'
p1409
I1
sS'net.ipv6.ip6frag_secret_interval'
p1410
I0
sS'CONFIG_PMIC_ADP5520'
p1411
S'y'
sS'CONFIG_USER_NS'
p1412
S'y'
sS'CONFIG_HAVE_ARCH_WITHIN_STACK_FRAMES'
p1413
S'y'
sS'kernel.sched_domain.cpu24.domain0.newidle_idx'
p1414
I0
sS'kernel.sched_domain.cpu3.domain1.busy_factor'
p1415
I32
sS'kernel.sched_domain.cpu8.domain1.min_interval'
p1416
I50
sS'CONFIG_ARCH_WANTS_DYNAMIC_TASK_STRUCT'
p1417
S'y'
sS'net.ipv4.conf.ens3.accept_source_route'
p1418
I1
sS'kernel.sched_domain.cpu48.domain0.forkexec_idx'
p1419
I0
sS'net.ipv6.icmp.ratelimit'
p1420
I1000
sS'net.ipv4.conf.lo.log_martians'
p1421
I0
sS'CONFIG_HAVE_ALIGNED_STRUCT_PAGE'
p1422
S'y'
sS'dev.cdrom.check_media'
p1423
I0
sS'CONFIG_INTEL_SOC_PMIC'
p1424
S'y'
sS'kernel.panic_on_rcu_stall'
p1425
I0
sS'net.ipv6.conf.ens3.keep_addr_on_down'
p1426
I0
sS'net.ipv4.conf.default.mc_forwarding'
p1427
I0
sS'net.core.dev_weight_tx_bias'
p1428
I1
sS'CONFIG_MDIO'
p1429
S'm'
sS'CONFIG_COMMON_CLK'
p1430
S'y'
sS'kernel.sched_domain.cpu39.domain0.max_interval'
p1431
I20
sS'kernel.sched_domain.cpu40.domain1.imbalance_pct'
p1432
I125
sS'net.ipv6.neigh.default.retrans_time_ms'
p1433
I1000
sS'kernel.sched_domain.cpu14.domain1.cache_nice_tries'
p1434
I2
sS'net.ipv6.conf.ens3.drop_unsolicited_na'
p1435
I0
sS'CONFIG_NLS_ISO8859_1'
p1436
S'y'
sS'kernel.sem'
p1437
S'32000\t1024000000\t500\t32000'
p1438
sS'kernel.sched_domain.cpu9.domain1.max_interval'
p1439
I100
sS'net.ipv4.tcp_window_scaling'
p1440
I1
sS'net.ipv4.tcp_available_ulp'
p1441
S''
sS'CONFIG_NEED_DMA_MAP_STATE'
p1442
S'y'
sS'net.ipv6.conf.lo.temp_prefered_lft'
p1443
I86400
sS'CONFIG_HAVE_ARCH_SECCOMP_FILTER'
p1444
S'y'
sS'kernel.sched_domain.cpu35.domain1.imbalance_pct'
p1445
I125
sS'CONFIG_INPUT_MOUSEDEV_SCREEN_X'
p1446
I1024
sS'CONFIG_INPUT_MOUSEDEV_SCREEN_Y'
p1447
I768
sS'CONFIG_DMIID'
p1448
S'y'
sS'CONFIG_SND_HDA_RECONFIG'
p1449
S'y'
sS'net.ipv4.conf.default.arp_notify'
p1450
I0
sS'CONFIG_INPUT_UINPUT'
p1451
S'y'
sS'net.ipv6.flowlabel_reflect'
p1452
I0
sS'CONFIG_NET_L3_MASTER_DEV'
p1453
S'y'
sS'CONFIG_VIRTIO_NET'
p1454
S'y'
sS'CONFIG_SERIAL_EARLYCON'
p1455
S'y'
sS'kernel.sched_domain.cpu21.domain1.cache_nice_tries'
p1456
I2
sS'kernel.sched_domain.cpu23.domain1.idle_idx'
p1457
I2
sS'CONFIG_BTT'
p1458
S'y'
sS'CONFIG_ARCH_HAS_ACPI_TABLE_UPGRADE'
p1459
S'y'
sS'kernel.sched_domain.cpu45.domain0.imbalance_pct'
p1460
I125
sS'CONFIG_IRQ_REMAP'
p1461
S'y'
sS'CONFIG_GENERIC_TRACER'
p1462
S'y'
sS'kernel.sched_domain.cpu35.domain0.max_newidle_lb_cost'
p1463
I576593
sS'CONFIG_ARCH_HAS_ELF_RANDOMIZE'
p1464
S'y'
sS'kernel.sched_domain.cpu15.domain0.busy_idx'
p1465
I2
sS'kernel.sched_domain.cpu15.domain0.newidle_idx'
p1466
I0
sS'CONFIG_BE2ISCSI'
p1467
S'm'
sS'kernel.sched_domain.cpu14.domain1.forkexec_idx'
p1468
I0
sS'CONFIG_NET_VENDOR_DEC'
p1469
S'y'
sS'CONFIG_FUTEX'
p1470
S'y'
sS'net.ipv6.neigh.ens3.app_solicit'
p1471
I0
sS'CONFIG_ARCH_WANT_OLD_COMPAT_IPC'
p1472
S'y'
sS'CONFIG_SSB_POSSIBLE'
p1473
S'y'
sS'net.ipv4.conf.default.arp_ignore'
p1474
I0
sS'kernel.sched_domain.cpu19.domain1.flags'
p1475
I25647
sS'kernel.sched_domain.cpu26.domain1.busy_factor'
p1476
I32
sS'net.ipv4.tcp_ecn'
p1477
I2
sS'CONFIG_ZSTD_COMPRESS'
p1478
S'm'
sS'CONFIG_HWMON'
p1479
S'y'
sS'net.ipv4.neigh.default.anycast_delay'
p1480
I100
sS'CONFIG_MFD_DA9052_I2C'
p1481
S'y'
sS'CONFIG_LOG_BUF_SHIFT'
p1482
I18
sS'CONFIG_INTEL_IOMMU'
p1483
S'y'
sS'CONFIG_IRQ_DOMAIN_HIERARCHY'
p1484
S'y'
sS'CONFIG_NET_VENDOR_BROCADE'
p1485
S'y'
sS'CONFIG_ACPI_CUSTOM_DSDT_FILE'
p1486
S'""'
p1487
sS'net.ipv6.neigh.default.gc_thresh2'
p1488
I512
sS'net.ipv6.neigh.default.gc_thresh3'
p1489
I1024
sS'kernel.sched_domain.cpu35.domain0.name'
p1490
S'DIE'
p1491
sS'net.ipv6.neigh.default.gc_thresh1'
p1492
I128
sS'CONFIG_NET_VENDOR_NATSEMI'
p1493
S'y'
sS'kernel.sched_domain.cpu1.domain1.imbalance_pct'
p1494
I125
sS'CONFIG_NO_HZ_IDLE'
p1495
S'y'
sS'user.max_ipc_namespaces'
p1496
I257592
sS'kernel.sched_domain.cpu15.domain0.flags'
p1497
I4143
sS'kernel.sched_domain.cpu25.domain0.busy_factor'
p1498
I32
sS'CONFIG_CRYPTO_SHA256'
p1499
S'y'
sS'net.ipv4.neigh.ens3.unres_qlen_bytes'
p1500
I212992
sS'kernel.sched_domain.cpu41.domain1.max_interval'
p1501
I100
sS'vm.overcommit_memory'
p1502
I0
sS'CONFIG_MODULE_UNLOAD'
p1503
S'y'
sS'CONFIG_NLS_DEFAULT'
p1504
S'"utf8"'
p1505
sS'CONFIG_MFD_RC5T583'
p1506
S'y'
sS'CONFIG_BTRFS_FS_POSIX_ACL'
p1507
S'y'
sS'CONFIG_BLOCK_COMPAT'
p1508
S'y'
sS'kernel.sched_domain.cpu28.domain1.forkexec_idx'
p1509
I0
sS'CONFIG_GENERIC_PHY'
p1510
S'y'
sS'kernel.sched_domain.cpu48.domain0.max_interval'
p1511
I20
sS'net.ipv6.conf.lo.accept_source_route'
p1512
I0
sS'CONFIG_CHELSIO_LIB'
p1513
S'm'
sS'kernel.sched_domain.cpu18.domain0.cache_nice_tries'
p1514
I1
sS'kernel.sched_domain.cpu41.domain1.cache_nice_tries'
p1515
I2
sS'CONFIG_FB_VESA'
p1516
S'y'
sS'kernel.sched_domain.cpu4.domain1.max_interval'
p1517
I100
sS'CONFIG_X86_RESERVE_LOW'
p1518
I64
sS'kernel.modules_disabled'
p1519
I0
sS'kernel.sched_domain.cpu38.domain0.newidle_idx'
p1520
I0
sS'CONFIG_X86_NUMACHIP'
p1521
S'y'
sS'CONFIG_DMI_SCAN_MACHINE_NON_EFI_FALLBACK'
p1522
S'y'
sS'net.ipv6.ip_nonlocal_bind'
p1523
I0
sS'kernel.sched_domain.cpu23.domain0.forkexec_idx'
p1524
I0
sS'kernel.sched_domain.cpu0.domain1.imbalance_pct'
p1525
I125
sS'kernel.sched_domain.cpu16.domain0.busy_idx'
p1526
I2
sS'kernel.sched_domain.cpu8.domain1.cache_nice_tries'
p1527
I2
sS'CONFIG_INOTIFY_USER'
p1528
S'y'
sS'net.core.busy_poll'
p1529
I0
sS'CONFIG_UEFI_CPER'
p1530
S'y'
sS'CONFIG_RTC_DRV_CMOS'
p1531
S'y'
sS'CONFIG_TRANSPARENT_HUGE_PAGECACHE'
p1532
S'y'
sS'net.ipv4.neigh.lo.base_reachable_time_ms'
p1533
I30000
sS'net.ipv4.tcp_tw_reuse'
p1534
I0
sS'CONFIG_MOUSE_PS2_SENTELIC'
p1535
S'y'
sS'CONFIG_LOCKUP_DETECTOR'
p1536
S'y'
sS'kernel.sched_domain.cpu42.domain1.idle_idx'
p1537
I2
sS'kernel.sched_domain.cpu12.domain1.name'
p1538
S'NUMA'
p1539
sS'CONFIG_RAPIDIO'
p1540
S'y'
sS'CONFIG_STAGING_MEDIA'
p1541
S'y'
sS'net.ipv4.conf.ens3.igmpv3_unsolicited_report_interval'
p1542
I1000
sS'kernel.sched_domain.cpu42.domain0.newidle_idx'
p1543
I0
sS'CONFIG_DEFCONFIG_LIST'
p1544
S'"/lib/modules/$UNAME_RELEASE/.config"'
p1545
sS'net.ipv4.ip_local_port_range'
p1546
S'32768\t60999'
p1547
sS'kernel.sched_domain.cpu45.domain0.busy_factor'
p1548
I32
sS'kernel.sched_domain.cpu35.domain1.max_newidle_lb_cost'
p1549
I595459
sS'CONFIG_HUGETLB_PAGE'
p1550
S'y'
sS'CONFIG_PERF_EVENTS'
p1551
S'y'
sS'kernel.sched_domain.cpu41.domain0.forkexec_idx'
p1552
I0
sS'kernel.sched_domain.cpu32.domain1.wake_idx'
p1553
I0
sS'net.ipv4.neigh.lo.locktime'
p1554
I100
sS'CONFIG_SECURITY_TOMOYO_ACTIVATION_TRIGGER'
p1555
S'"/sbin/init"'
p1556
sS'kernel.sched_domain.cpu13.domain1.min_interval'
p1557
I50
sS'CONFIG_MODIFY_LDT_SYSCALL'
p1558
S'y'
sS'CONFIG_UCS2_STRING'
p1559
S'y'
sS'kernel.sched_domain.cpu10.domain1.wake_idx'
p1560
I0
sS'kernel.sched_domain.cpu6.domain1.newidle_idx'
p1561
I0
sS'CONFIG_SOUND'
p1562
S'm'
sS'CONFIG_ARCH_SPARSEMEM_DEFAULT'
p1563
S'y'
sS'CONFIG_IPV6_ROUTE_INFO'
p1564
S'y'
sS'CONFIG_GENERIC_EARLY_IOREMAP'
p1565
S'y'
sS'CONFIG_RAPIDIO_DMA_ENGINE'
p1566
S'y'
sS'CONFIG_MFD_SMSC'
p1567
S'y'
sS'kernel.sched_domain.cpu12.domain1.idle_idx'
p1568
I2
sS'CONFIG_SERIAL_8250_PCI'
p1569
S'y'
sS'CONFIG_PCIEASPM_DEFAULT'
p1570
S'y'
sS'kernel.sched_domain.cpu42.domain0.wake_idx'
p1571
I0
sS'kernel.sched_domain.cpu48.domain0.max_newidle_lb_cost'
p1572
I60909751
sS'CONFIG_SND_HDA_HWDEP'
p1573
S'y'
sS'CONFIG_SOFTLOCKUP_DETECTOR'
p1574
S'y'
sS'kernel.sched_domain.cpu14.domain1.wake_idx'
p1575
I0
sS'CONFIG_EARLY_PRINTK'
p1576
S'y'
sS'net.ipv6.conf.ens3.ndisc_notify'
p1577
I0
sS'net.ipv4.conf.all.proxy_arp_pvlan'
p1578
I0
sS'kernel'
p1579
S'4.14.0-rc8-stock'
p1580
sS'kernel.sched_domain.cpu3.domain0.max_interval'
p1581
I20
sS'kernel.sched_domain.cpu40.domain0.forkexec_idx'
p1582
I0
sS'CONFIG_DUMMY_CONSOLE_ROWS'
p1583
I25
sS'CONFIG_MOUSE_PS2_ELANTECH'
p1584
S'y'
sS'CONFIG_PCI_MMCONFIG'
p1585
S'y'
sS'CONFIG_KVM_MMIO'
p1586
S'y'
sS'net.ipv4.neigh.default.unres_qlen_bytes'
p1587
I212992
sS'kernel.sched_domain.cpu14.domain0.busy_factor'
p1588
I32
sS'CONFIG_PINCTRL_BAYTRAIL'
p1589
S'y'
sS'kernel.sched_domain.cpu44.domain1.min_interval'
p1590
I50
sS'net.ipv4.icmp_errors_use_inbound_ifaddr'
p1591
I0
sS'net.ipv6.conf.all.addr_gen_mode'
p1592
I0
sS'kernel.sched_domain.cpu8.domain1.wake_idx'
p1593
I0
sS'kernel.sched_domain.cpu45.domain0.idle_idx'
p1594
I1
sS'CONFIG_HAVE_ACPI_APEI_NMI'
p1595
S'y'
sS'vm.page-cluster'
p1596
I3
sS'kernel.sched_domain.cpu9.domain1.newidle_idx'
p1597
I0
sS'CONFIG_BACKLIGHT_CLASS_DEVICE'
p1598
S'y'
sS'CONFIG_MOUSE_PS2_CYPRESS'
p1599
S'y'
sS'kernel.sched_rt_runtime_us'
p1600
I950000
sS'kernel.sched_domain.cpu29.domain0.busy_factor'
p1601
I32
sS'CONFIG_X86_CMOV'
p1602
S'y'
sS'CONFIG_ARCH_HAS_CACHE_LINE_SIZE'
p1603
S'y'
sS'net.ipv4.tcp_fastopen_blackhole_timeout_sec'
p1604
I3600
sS'CONFIG_SIGNATURE'
p1605
S'y'
sS'net.ipv4.conf.all.mc_forwarding'
p1606
I0
sS'CONFIG_PM_DEBUG'
p1607
S'y'
sS'net.ipv4.neigh.default.ucast_solicit'
p1608
I3
sS'kernel.pty.reserve'
p1609
I1024
sS'kernel.sched_domain.cpu33.domain1.wake_idx'
p1610
I0
sS'kernel.sched_domain.cpu6.domain0.flags'
p1611
I4143
sS'CONFIG_SERIO_I8042'
p1612
S'y'
sS'CONFIG_NET_VENDOR_NETRONOME'
p1613
S'y'
sS'CONFIG_BLK_DEV_LOOP'
p1614
S'y'
sS'vm.mmap_min_addr'
p1615
I65536
sS'kernel.sched_domain.cpu44.domain1.flags'
p1616
I25647
sS'kernel.sched_domain.cpu37.domain1.wake_idx'
p1617
I0
sS'CONFIG_HAVE_CMPXCHG_LOCAL'
p1618
S'y'
sS'net.ipv6.route.mtu_expires'
p1619
I600
sS'CONFIG_SND_USB'
p1620
S'y'
sS'CONFIG_DNOTIFY'
p1621
S'y'
sS'CONFIG_CMDLINE_PARTITION'
p1622
S'y'
sS'CONFIG_NETWORK_SECMARK'
p1623
S'y'
sS'CONFIG_SND_HDA_INTEL'
p1624
S'm'
sS'kernel.sched_domain.cpu38.domain1.max_newidle_lb_cost'
p1625
I1234501
sS'net.ipv4.ping_group_range'
p1626
S'1\t0'
p1627
sS'CONFIG_PERF_EVENTS_INTEL_CSTATE'
p1628
S'y'
sS'kernel.sched_domain.cpu5.domain0.max_newidle_lb_cost'
p1629
I782572
sS'CONFIG_SERIAL_8250_CONSOLE'
p1630
S'y'
sS'net.ipv4.icmp_msgs_burst'
p1631
I50
sS'CONFIG_PPP_MULTILINK'
p1632
S'y'
sS'CONFIG_BLK_DEV_FD'
p1633
S'm'
sS'kernel.sched_domain.cpu16.domain0.forkexec_idx'
p1634
I0
sS'CONFIG_SND_DRIVERS'
p1635
S'y'
sS'CONFIG_SCSI_CXGB4_ISCSI'
p1636
S'm'
sS'CONFIG_CRASH_DUMP'
p1637
S'y'
sS'vm.watermark_scale_factor'
p1638
I10
sS'CONFIG_HAVE_UID16'
p1639
S'y'
sS'CONFIG_NET_VENDOR_WIZNET'
p1640
S'y'
sS'CONFIG_SCSI_ISCSI_ATTRS'
p1641
S'm'
sS'kernel.sched_domain.cpu14.domain0.max_interval'
p1642
I20
sS'kernel.sched_domain.cpu0.domain1.cache_nice_tries'
p1643
I2
sS'dev.parport.default.spintime'
p1644
I500
sS'kernel.sched_domain.cpu24.domain0.wake_idx'
p1645
I0
sS'CONFIG_IOSF_MBI'
p1646
S'y'
sS'net.ipv4.fib_multipath_hash_policy'
p1647
I0
sS'CONFIG_BLK_DEV_BSG'
p1648
S'y'
sS'CONFIG_INPUT_KEYBOARD'
p1649
S'y'
sS'kernel.sched_domain.cpu5.domain0.flags'
p1650
I4143
sS'kernel.sched_domain.cpu19.domain0.newidle_idx'
p1651
I0
sS'CONFIG_CPU_FREQ_GOV_CONSERVATIVE'
p1652
S'y'
sS'CONFIG_MEMORY_HOTPLUG_SPARSE'
p1653
S'y'
sS'CONFIG_ZSWAP'
p1654
S'y'
sS'kernel.sched_domain.cpu42.domain1.imbalance_pct'
p1655
I125
sS'CONFIG_CRYPTO_AEAD2'
p1656
S'y'
sS'kernel.sched_domain.cpu10.domain1.max_newidle_lb_cost'
p1657
I908497
sS'CONFIG_PCIEASPM_DEBUG'
p1658
S'y'
sS'CONFIG_PROC_PID_CPUSET'
p1659
S'y'
sS'CONFIG_MEMORY_BALLOON'
p1660
S'y'
sS'CONFIG_INFINIBAND'
p1661
S'm'
sS'CONFIG_NET_VENDOR_SILAN'
p1662
S'y'
sS'kernel.sched_domain.cpu27.domain1.cache_nice_tries'
p1663
I2
sS'net.ipv4.conf.ens3.log_martians'
p1664
I0
sS'CONFIG_CC_STACKPROTECTOR_STRONG'
p1665
S'y'
sS'CONFIG_HOTPLUG_CPU'
p1666
S'y'
sS'CONFIG_PROC_FS'
p1667
S'y'
sS'kernel.sched_domain.cpu0.domain0.imbalance_pct'
p1668
I125
sS'kernel.sched_domain.cpu27.domain0.busy_factor'
p1669
I32
sS'kernel.sched_domain.cpu22.domain1.busy_idx'
p1670
I3
sS'CONFIG_MOUSE_PS2_ALPS'
p1671
S'y'
sS'kernel.sched_domain.cpu3.domain0.min_interval'
p1672
I10
sS'kernel.sched_domain.cpu14.domain0.busy_idx'
p1673
I2
sS'CONFIG_THERMAL_WRITABLE_TRIPS'
p1674
S'y'
sS'CONFIG_TOUCHSCREEN_PROPERTIES'
p1675
S'y'
sS'vm.extfrag_threshold'
p1676
I500
sS'user.max_net_namespaces'
p1677
I257592
sS'CONFIG_BLK_DEV_THROTTLING'
p1678
S'y'
sS'CONFIG_SWIOTLB'
p1679
S'y'
sS'CONFIG_SWAP'
p1680
S'y'
sS'kernel.osrelease'
p1681
S'4.14.0-rc8-stock'
p1682
sS'kernel.sched_domain.cpu8.domain0.busy_idx'
p1683
I2
sS'CONFIG_AMD_IOMMU'
p1684
S'y'
sS'CONFIG_PAGE_COUNTER'
p1685
S'y'
sS'CONFIG_ARCH_MIGHT_HAVE_ACPI_PDC'
p1686
S'y'
sS'kernel.sched_domain.cpu14.domain1.idle_idx'
p1687
I2
sS'kernel.sched_domain.cpu33.domain0.max_newidle_lb_cost'
p1688
I499651
sS'kernel.sched_domain.cpu14.domain0.forkexec_idx'
p1689
I0
sS'CONFIG_MFD_AS3711'
p1690
S'y'
sS'kernel.sched_domain.cpu30.domain1.cache_nice_tries'
p1691
I2
sS'CONFIG_IO_DELAY_TYPE_UDELAY'
p1692
I2
sS'CONFIG_CPU_FREQ_DEFAULT_GOV_PERFORMANCE'
p1693
S'y'
sS'CONFIG_HAVE_CMPXCHG_DOUBLE'
p1694
S'y'
sS'kernel.sched_domain.cpu27.domain0.max_interval'
p1695
I20
sS'kernel.sched_domain.cpu30.domain0.max_newidle_lb_cost'
p1696
I482648
sS'CONFIG_ATA_ACPI'
p1697
S'y'
sS'net.ipv4.conf.lo.route_localnet'
p1698
I0
sS'kernel.sched_domain.cpu47.domain1.busy_factor'
p1699
I32
sS'CONFIG_ARCH_SUPPORTS_ATOMIC_RMW'
p1700
S'y'
sS'CONFIG_ACPI_APEI'
p1701
S'y'
sS'kernel.sched_domain.cpu1.domain1.name'
p1702
S'NUMA'
p1703
sS'CONFIG_IRQ_DOMAIN'
p1704
S'y'
sS'net.ipv4.udp_wmem_min'
p1705
I4096
sS'net.ipv4.tcp_invalid_ratelimit'
p1706
I500
sS'net.ipv4.neigh.ens3.proxy_qlen'
p1707
I64
sS'CONFIG_NET_VENDOR_AMAZON'
p1708
S'y'
sS'kernel.sched_domain.cpu33.domain0.busy_factor'
p1709
I32
sS'kernel.sched_domain.cpu2.domain0.busy_factor'
p1710
I32
sS'CONFIG_VT'
p1711
S'y'
sS'net.ipv4.conf.lo.arp_announce'
p1712
I0
sS'kernel.sched_domain.cpu17.domain0.cache_nice_tries'
p1713
I1
sS'CONFIG_HAVE_IDE'
p1714
S'y'
sS'kernel.sched_domain.cpu6.domain0.forkexec_idx'
p1715
I0
sS'CONFIG_NET_VENDOR_8390'
p1716
S'y'
sS'kernel.sched_domain.cpu40.domain0.busy_factor'
p1717
I32
sS'kernel.sched_domain.cpu3.domain1.max_interval'
p1718
I100
sS'fs.mqueue.queues_max'
p1719
I256
sS'net.ipv4.conf.ens3.rp_filter'
p1720
I1
sS'kernel.sched_domain.cpu43.domain1.cache_nice_tries'
p1721
I2
sS'CONFIG_IMA_TRUSTED_KEYRING'
p1722
S'y'
sS'CONFIG_HAVE_LIVEPATCH'
p1723
S'y'
sS'CONFIG_MTRR'
p1724
S'y'
sS'CONFIG_KGDB_LOW_LEVEL_TRAP'
p1725
S'y'
sS'CONFIG_HAVE_OPROFILE'
p1726
S'y'
sS'CONFIG_NVDIMM_DAX'
p1727
S'y'
sS'CONFIG_IMA_DEFAULT_HASH'
p1728
S'"sha1"'
p1729
sS'CONFIG_ACPI_THERMAL'
p1730
S'y'
sS'CONFIG_BLK_DEV_BSGLIB'
p1731
S'y'
sS'CONFIG_USB_LED_TRIG'
p1732
S'y'
sS'CONFIG_EFI_MIXED'
p1733
S'y'
sS'kernel.sched_domain.cpu2.domain1.wake_idx'
p1734
I0
sS'net.ipv4.neigh.default.locktime'
p1735
I100
sS'CONFIG_DUMMY_CONSOLE_COLUMNS'
p1736
I80
sS'CONFIG_HPET_MMAP'
p1737
S'y'
sS'CONFIG_SERIAL_8250_RT288X'
p1738
S'y'
sS'kernel.sched_domain.cpu41.domain0.idle_idx'
p1739
I1
sS'kernel.sched_domain.cpu43.domain1.busy_factor'
p1740
I32
sS'kernel.sched_domain.cpu14.domain1.max_newidle_lb_cost'
p1741
I865643
sS'kernel.sched_domain.cpu8.domain0.cache_nice_tries'
p1742
I1
sS'net.core.busy_read'
p1743
I0
sS'CONFIG_BTRFS_FS'
p1744
S'm'
sS'CONFIG_DCACHE_WORD_ACCESS'
p1745
S'y'
sS'net.ipv6.conf.default.mtu'
p1746
I1280
sS'kernel.sched_domain.cpu7.domain0.idle_idx'
p1747
I1
sS'kernel.sched_domain.cpu22.domain0.imbalance_pct'
p1748
I125
sS'net.ipv4.conf.default.drop_gratuitous_arp'
p1749
I0
sS'kernel.sched_domain.cpu31.domain0.flags'
p1750
I4143
sS'CONFIG_UPROBES'
p1751
S'y'
sS'kernel.sched_domain.cpu16.domain0.imbalance_pct'
p1752
I125
sS'CONFIG_ARCH_ENABLE_MEMORY_HOTPLUG'
p1753
S'y'
sS'kernel.sched_domain.cpu4.domain1.forkexec_idx'
p1754
I0
sS'CONFIG_FIRMWARE_MEMMAP'
p1755
S'y'
sS'kernel.sched_domain.cpu11.domain1.busy_factor'
p1756
I32
sS'CONFIG_IPV6_ROUTER_PREF'
p1757
S'y'
sS'kernel.sched_domain.cpu25.domain1.name'
p1758
S'NUMA'
p1759
sS'CONFIG_BOOT_PRINTK_DELAY'
p1760
S'y'
sS'CONFIG_TMPFS'
p1761
S'y'
sS'kernel.sched_domain.cpu32.domain1.flags'
p1762
I25647
sS'kernel.sched_domain.cpu14.domain1.name'
p1763
S'NUMA'
p1764
sS'kernel.sched_domain.cpu20.domain1.idle_idx'
p1765
I2
sS'CONFIG_X86_MCE_INTEL'
p1766
S'y'
sS'CONFIG_RTC_INTF_PROC'
p1767
S'y'
sS'kernel.sched_domain.cpu1.domain0.busy_idx'
p1768
I2
sS'CONFIG_MD_AUTODETECT'
p1769
S'y'
sS'net.ipv6.conf.lo.max_desync_factor'
p1770
I600
sS'kernel.sched_domain.cpu4.domain1.flags'
p1771
I25647
sS'kernel.sched_domain.cpu1.domain1.newidle_idx'
p1772
I0
sS'kernel.sched_domain.cpu29.domain0.max_interval'
p1773
I20
sS'CONFIG_X86_ESPFIX64'
p1774
S'y'
sS'net.ipv4.neigh.lo.gc_stale_time'
p1775
I60
sS'CONFIG_NET_VENDOR_MICROCHIP'
p1776
S'y'
sS'kernel.traceoff_on_warning'
p1777
I0
sS'kernel.sched_domain.cpu2.domain1.busy_factor'
p1778
I32
sS'CONFIG_DW_DMAC_PCI'
p1779
S'y'
sS'net.ipv4.conf.all.proxy_arp'
p1780
I0
sS'kernel.sched_domain.cpu49.domain0.min_interval'
p1781
I10
sS'kernel.sched_domain.cpu15.domain0.max_newidle_lb_cost'
p1782
I68050651
sS'CONFIG_ARCH_USE_BUILTIN_BSWAP'
p1783
S'y'
sS'CONFIG_PROC_SYSCTL'
p1784
S'y'
sS'fs.file-max'
p1785
I6578986
sS'CONFIG_ACPI_APEI_GHES'
p1786
S'y'
sS'kernel.sched_domain.cpu11.domain0.busy_factor'
p1787
I32
sS'kernel.sched_domain.cpu19.domain0.wake_idx'
p1788
I0
sS'kernel.sched_domain.cpu26.domain1.idle_idx'
p1789
I2
sS'CONFIG_NET_VENDOR_NVIDIA'
p1790
S'y'
sS'kernel.sched_domain.cpu49.domain0.busy_factor'
p1791
I32
sS'net.ipv4.neigh.default.mcast_resolicit'
p1792
I0
sS'CONFIG_ACPI_HOTPLUG_CPU'
p1793
S'y'
sS'net.ipv4.conf.default.arp_announce'
p1794
I0
sS'kernel.sched_domain.cpu48.domain1.max_interval'
p1795
I100
sS'kernel.sched_domain.cpu11.domain0.max_interval'
p1796
I20
sS'CONFIG_FAT_FS'
p1797
S'y'
sS'CONFIG_IRQ_POLL'
p1798
S'y'
sS'net.ipv6.conf.all.hop_limit'
p1799
I64
sS'CONFIG_VT_CONSOLE_SLEEP'
p1800
S'y'
sS'kernel.random.entropy_avail'
p1801
I104
sS'net.ipv4.conf.default.force_igmp_version'
p1802
I0
sS'kernel.sched_domain.cpu29.domain1.name'
p1803
S'NUMA'
p1804
sS'net.ipv4.ip_default_ttl'
p1805
I64
sS'CONFIG_CLEANCACHE'
p1806
S'y'
sS'kernel.nmi_watchdog'
p1807
I0
sS'kernel.sched_domain.cpu27.domain1.busy_idx'
p1808
I3
sS'CONFIG_PCI_PRI'
p1809
S'y'
sS'kernel.sched_domain.cpu9.domain1.flags'
p1810
I25647
sS'CONFIG_CRYPTO_ALGAPI'
p1811
S'y'
sS'kernel.random.boot_id'
p1812
S'01b9b957-fb88-4e07-8d46-dd0e64b29594'
p1813
sS'kernel.sched_domain.cpu41.domain0.max_newidle_lb_cost'
p1814
I555627
sS'net.ipv4.conf.lo.accept_local'
p1815
I0
sS'kernel.sched_domain.cpu2.domain0.max_interval'
p1816
I20
sS'CONFIG_QUOTA'
p1817
S'y'
sS'CONFIG_HAVE_IOREMAP_PROT'
p1818
S'y'
sS'net.ipv4.neigh.default.app_solicit'
p1819
I0
sS'kernel.sched_domain.cpu13.domain0.forkexec_idx'
p1820
I0
sS'kernel.sched_domain.cpu48.domain1.forkexec_idx'
p1821
I0
sS'CONFIG_CPUSETS'
p1822
S'y'
sS'kernel.sched_domain.cpu27.domain1.busy_factor'
p1823
I32
sS'kernel.sched_domain.cpu28.domain0.busy_factor'
p1824
I32
sS'CONFIG_CMA'
p1825
S'y'
sS'CONFIG_TRACING'
p1826
S'y'
sS'kernel.sched_domain.cpu43.domain1.name'
p1827
S'NUMA'
p1828
sS'CONFIG_KDB_KEYBOARD'
p1829
S'y'
sS'CONFIG_RADIX_TREE_MULTIORDER'
p1830
S'y'
sS'net.ipv4.conf.all.promote_secondaries'
p1831
I0
sS'CONFIG_LWTUNNEL'
p1832
S'y'
sS'CONFIG_ARCH_MIGHT_HAVE_PC_SERIO'
p1833
S'y'
sS'kernel.sched_domain.cpu7.domain1.flags'
p1834
I25647
sS'net.ipv4.neigh.lo.proxy_qlen'
p1835
I64
sS'kernel.sched_domain.cpu46.domain1.idle_idx'
p1836
I2
sS'kernel.sched_domain.cpu30.domain1.imbalance_pct'
p1837
I125
sS'CONFIG_PINCTRL_CHERRYVIEW'
p1838
S'y'
sS'CONFIG_FIB_RULES'
p1839
S'y'
sS'net.ipv4.neigh.lo.unres_qlen_bytes'
p1840
I212992
sS'CONFIG_COMPAT_BINFMT_ELF'
p1841
S'y'
sS'kernel.sched_domain.cpu10.domain0.busy_idx'
p1842
I2
sS'CONFIG_HAVE_KPROBES'
p1843
S'y'
sS'kernel.sched_domain.cpu26.domain0.idle_idx'
p1844
I1
sS'CONFIG_VME_BUS'
p1845
S'y'
sS'CONFIG_FW_LOADER'
p1846
S'y'
sS'CONFIG_ATA_VERBOSE_ERROR'
p1847
S'y'
sS'CONFIG_IOSCHED_DEADLINE'
p1848
S'y'
sS'net.ipv6.conf.all.max_desync_factor'
p1849
I600
sS'kernel.sched_domain.cpu43.domain1.flags'
p1850
I25647
sS'kernel.sched_domain.cpu42.domain0.name'
p1851
S'DIE'
p1852
sS'kernel.sched_domain.cpu4.domain0.busy_factor'
p1853
I32
sS'CONFIG_KVM'
p1854
S'm'
sS'CONFIG_EXT4_USE_FOR_EXT2'
p1855
S'y'
sS'kernel.sched_domain.cpu22.domain1.cache_nice_tries'
p1856
I2
sS'kernel.sched_domain.cpu25.domain1.max_newidle_lb_cost'
p1857
I790689
sS'CONFIG_INPUT_MOUSEDEV_PSAUX'
p1858
S'y'
sS'kernel.sched_domain.cpu30.domain0.idle_idx'
p1859
I1
sS'CONFIG_ATH5K_PCI'
p1860
S'y'
sS'kernel.sched_domain.cpu6.domain1.forkexec_idx'
p1861
I0
sS'kernel.sched_domain.cpu31.domain0.imbalance_pct'
p1862
I125
sS'kernel.sched_domain.cpu13.domain1.newidle_idx'
p1863
I0
sS'CONFIG_NET_CLS'
p1864
S'y'
sS'CONFIG_CALGARY_IOMMU_ENABLED_BY_DEFAULT'
p1865
S'y'
sS'CONFIG_ACPI_LEGACY_TABLES_LOOKUP'
p1866
S'y'
sS'kernel.sched_domain.cpu48.domain1.name'
p1867
S'NUMA'
p1868
sS'CONFIG_INPUT_TABLET'
p1869
S'y'
sS'CONFIG_ILLEGAL_POINTER_VALUE'
p1870
S'0xdead000000000000'
p1871
sS'CONFIG_THERMAL_GOV_STEP_WISE'
p1872
S'y'
sS'CONFIG_PRINTK'
p1873
S'y'
sS'net.ipv4.conf.default.promote_secondaries'
p1874
I0
sS'kernel.sched_domain.cpu20.domain0.busy_idx'
p1875
I2
sS'CONFIG_WLAN_VENDOR_MARVELL'
p1876
S'y'
sS'CONFIG_MINIX_SUBPARTITION'
p1877
S'y'
sS'kernel.sched_domain.cpu26.domain0.max_interval'
p1878
I20
sS'kernel.sched_domain.cpu20.domain1.cache_nice_tries'
p1879
I2
sS'kernel.sched_domain.cpu33.domain1.busy_idx'
p1880
I3
sS'kernel.sched_domain.cpu13.domain1.max_newidle_lb_cost'
p1881
I1145278
sS'CONFIG_SYSTEM_TRUSTED_KEYRING'
p1882
S'y'
sS'kernel.sched_domain.cpu21.domain1.imbalance_pct'
p1883
I125
sS'CONFIG_FRAMEBUFFER_CONSOLE'
p1884
S'y'
sS'CONFIG_BRIDGE'
p1885
S'm'
sS'net.ipv6.conf.lo.accept_ra_pinfo'
p1886
I1
sS'kernel.sched_domain.cpu19.domain1.forkexec_idx'
p1887
I0
sS'CONFIG_NET_VENDOR_AGERE'
p1888
S'y'
sS'CONFIG_ASYNC_XOR'
p1889
S'm'
sS'CONFIG_SND_HDA_PREALLOC_SIZE'
p1890
I64
sS'CONFIG_ACPI_HOTPLUG_IOAPIC'
p1891
S'y'
sS'kernel.sched_domain.cpu1.domain0.flags'
p1892
I4143
sS'fs.mqueue.msgsize_default'
p1893
I8192
sS'CONFIG_SATA_PMP'
p1894
S'y'
sS'CONFIG_TRACE_IRQFLAGS_SUPPORT'
p1895
S'y'
sS'CONFIG_PM_SLEEP'
p1896
S'y'
sS'CONFIG_KEYBOARD_ATKBD'
p1897
S'y'
sS'net.core.default_qdisc'
p1898
S'pfifo_fast'
p1899
sS'kernel.sched_domain.cpu19.domain1.cache_nice_tries'
p1900
I2
sS'kernel.sched_domain.cpu14.domain0.min_interval'
p1901
I10
sS'CONFIG_VIRTIO_MMIO'
p1902
S'y'
sS'CONFIG_VIRT_TO_BUS'
p1903
S'y'
sS'kernel.sched_domain.cpu12.domain1.wake_idx'
p1904
I0
sS'kernel.sched_domain.cpu32.domain1.cache_nice_tries'
p1905
I2
sS'CONFIG_ARCH_SUPPORTS_DEFERRED_STRUCT_PAGE_INIT'
p1906
S'y'
sS'kernel.sched_domain.cpu2.domain0.name'
p1907
S'DIE'
p1908
sS'kernel.sched_domain.cpu21.domain1.max_newidle_lb_cost'
p1909
I645165
sS'kernel.sched_domain.cpu26.domain0.name'
p1910
S'DIE'
p1911
sS'kernel.sched_domain.cpu40.domain0.idle_idx'
p1912
I1
sS'kernel.sched_domain.cpu25.domain0.wake_idx'
p1913
I0
sS'kernel.sched_domain.cpu14.domain0.wake_idx'
p1914
I0
sS'kernel.sched_domain.cpu5.domain0.idle_idx'
p1915
I1
sS'CONFIG_NET_VENDOR_ROCKER'
p1916
S'y'
sS'kernel.sched_domain.cpu37.domain1.idle_idx'
p1917
I2
sS'kernel.sched_domain.cpu23.domain1.flags'
p1918
I25647
sS'CONFIG_BUG'
p1919
S'y'
sS'kernel.sched_domain.cpu42.domain1.min_interval'
p1920
I50
sS'CONFIG_CPU_FREQ_GOV_COMMON'
p1921
S'y'
sS'CONFIG_PHYSICAL_ALIGN'
p1922
S'0x1000000'
p1923
sS'kernel.sched_domain.cpu11.domain1.cache_nice_tries'
p1924
I2
sS'kernel.dmesg_restrict'
p1925
I0
sS'CONFIG_HAVE_ARCH_VMAP_STACK'
p1926
S'y'
sS'kernel.sched_domain.cpu9.domain0.name'
p1927
S'DIE'
p1928
sS'kernel.sched_domain.cpu9.domain1.max_newidle_lb_cost'
p1929
I738512
sS'kernel.sched_domain.cpu35.domain0.wake_idx'
p1930
I0
sS'CONFIG_GPIO_TPS6586X'
p1931
S'y'
sS'CONFIG_PSTORE_ZLIB_COMPRESS'
p1932
S'y'
sS'CONFIG_CRYPTO_BLKCIPHER2'
p1933
S'y'
sS'CONFIG_GENERIC_IRQ_EFFECTIVE_AFF_MASK'
p1934
S'y'
sS'CONFIG_CHR_DEV_SG'
p1935
S'y'
sS'kernel.sched_domain.cpu30.domain1.idle_idx'
p1936
I2
sS'CONFIG_ARCH_HAS_PKEYS'
p1937
S'y'
sS'CONFIG_SIGNALFD'
p1938
S'y'
sS'kernel.sched_domain.cpu42.domain0.cache_nice_tries'
p1939
I1
sS'CONFIG_MD_MULTIPATH'
p1940
S'm'
sS'net.ipv4.neigh.default.mcast_solicit'
p1941
I3
sS'kernel.sched_domain.cpu13.domain0.idle_idx'
p1942
I1
sS'CONFIG_SYSTEM_DATA_VERIFICATION'
p1943
S'y'
sS'CONFIG_ACPI'
p1944
S'y'
sS'CONFIG_RTC_MC146818_LIB'
p1945
S'y'
sS'kernel.sched_domain.cpu5.domain0.forkexec_idx'
p1946
I0
sS'CONFIG_STACKTRACE_SUPPORT'
p1947
S'y'
sS'kernel.sched_domain.cpu8.domain0.flags'
p1948
I4143
sS'kernel.sched_domain.cpu27.domain1.flags'
p1949
I25647
sS'CONFIG_INTEL_GTT'
p1950
S'y'
sS'CONFIG_THERMAL_EMULATION'
p1951
S'y'
sS'CONFIG_HAVE_DMA_CONTIGUOUS'
p1952
S'y'
sS'kernel.sched_domain.cpu18.domain1.busy_factor'
p1953
I32
sS'net.netfilter.nf_log.5'
p1954
S'NONE'
p1955
sS'net.netfilter.nf_log.4'
p1956
S'NONE'
p1957
sS'net.netfilter.nf_log.7'
p1958
S'NONE'
p1959
sS'net.netfilter.nf_log.6'
p1960
S'NONE'
p1961
sS'net.netfilter.nf_log.1'
p1962
S'NONE'
p1963
sS'net.netfilter.nf_log.0'
p1964
S'NONE'
p1965
sS'net.netfilter.nf_log.3'
p1966
S'NONE'
p1967
sS'net.netfilter.nf_log.2'
p1968
S'NONE'
p1969
sS'kernel.sched_domain.cpu9.domain1.busy_idx'
p1970
I3
sS'net.netfilter.nf_log.9'
p1971
S'NONE'
p1972
sS'net.netfilter.nf_log.8'
p1973
S'NONE'
p1974
sS'net.ipv4.conf.ens3.arp_announce'
p1975
I0
sS'kernel.real-root-dev'
p1976
I0
sS'kernel.sched_domain.cpu49.domain1.wake_idx'
p1977
I0
sS'net.ipv6.conf.all.accept_source_route'
p1978
I0
sS'kernel.sched_domain.cpu38.domain0.forkexec_idx'
p1979
I0
sS'CONFIG_REGMAP_SPI'
p1980
S'y'
sS'CONFIG_HAVE_KERNEL_LZO'
p1981
S'y'
sS'kernel.sched_domain.cpu4.domain0.forkexec_idx'
p1982
I0
sS'kernel.sched_domain.cpu9.domain1.cache_nice_tries'
p1983
I2
sS'CONFIG_IP_FIB_TRIE_STATS'
p1984
S'y'
sS'CONFIG_DEVFREQ_GOV_PERFORMANCE'
p1985
S'y'
sS'kernel.sched_domain.cpu20.domain0.busy_factor'
p1986
I32
sS'CONFIG_IPV6_MULTIPLE_TABLES'
p1987
S'y'
sS'CONFIG_MFD_SYSCON'
p1988
S'y'
sS'kernel.sched_domain.cpu22.domain1.name'
p1989
S'NUMA'
p1990
sS'kernel.sched_domain.cpu3.domain0.newidle_idx'
p1991
I0
sS'kernel.sched_domain.cpu16.domain1.min_interval'
p1992
I50
sS'kernel.sched_domain.cpu47.domain1.imbalance_pct'
p1993
I125
sS'CONFIG_QUOTACTL'
p1994
S'y'
sS'kernel.sched_domain.cpu23.domain0.busy_idx'
p1995
I2
sS'kernel.sched_domain.cpu33.domain1.forkexec_idx'
p1996
I0
sS'CONFIG_ARCH_WANT_BATCHED_UNMAP_TLB_FLUSH'
p1997
S'y'
sS'CONFIG_SCSI_QLA_ISCSI'
p1998
S'm'
sS'net.ipv6.conf.lo.temp_valid_lft'
p1999
I604800
sS'CONFIG_RTC_LIB'
p2000
S'y'
sS'kernel.pty.max'
p2001
I4096
sS'CONFIG_ISCSI_BOOT_SYSFS'
p2002
S'm'
sS'CONFIG_HAVE_KERNEL_LZ4'
p2003
S'y'
sS'kernel.sched_domain.cpu36.domain1.cache_nice_tries'
p2004
I2
sS'CONFIG_SQUASHFS_XATTR'
p2005
S'y'
sS'kernel.sched_domain.cpu39.domain1.wake_idx'
p2006
I0
sS'net.ipv6.conf.default.use_oif_addrs_only'
p2007
I0
sS'kernel.sched_domain.cpu4.domain1.busy_factor'
p2008
I32
sS'vm.lowmem_reserve_ratio'
p2009
S'256\t256\t32\t1'
p2010
sS'kernel.sched_domain.cpu0.domain0.newidle_idx'
p2011
I0
sS'kernel.sched_domain.cpu27.domain0.name'
p2012
S'DIE'
p2013
sS'kernel.sched_domain.cpu20.domain1.max_interval'
p2014
I100
sS'CONFIG_MODULE_SIG_ALL'
p2015
S'y'
sS'CONFIG_CONSOLE_POLL'
p2016
S'y'
sS'kernel.sched_domain.cpu43.domain1.newidle_idx'
p2017
I0
sS'kernel.sched_domain.cpu0.domain1.name'
p2018
S'NUMA'
p2019
sS'net.ipv4.cipso_rbm_strictvalid'
p2020
I1
sS'CONFIG_HAVE_CLK_PREPARE'
p2021
S'y'
sS'kernel.sched_domain.cpu47.domain0.flags'
p2022
I4143
sS'kernel.sched_domain.cpu8.domain1.newidle_idx'
p2023
I0
sS'net.ipv6.conf.ens3.router_solicitation_interval'
p2024
I4
sS'kernel.sched_domain.cpu43.domain0.name'
p2025
S'DIE'
p2026
sS'kernel.sched_domain.cpu22.domain0.forkexec_idx'
p2027
I0
sS'kernel.sched_domain.cpu33.domain1.cache_nice_tries'
p2028
I2
sS'kernel.sched_domain.cpu32.domain1.forkexec_idx'
p2029
I0
sS'kernel.sched_domain.cpu15.domain0.min_interval'
p2030
I10
sS'CONFIG_POSIX_MQUEUE'
p2031
S'y'
sS'CONFIG_DEVTMPFS_MOUNT'
p2032
S'y'
sS'CONFIG_MDIO_BUS'
p2033
S'y'
sS'CONFIG_KALLSYMS_ALL'
p2034
S'y'
sS'net.ipv4.conf.lo.igmpv3_unsolicited_report_interval'
p2035
I1000
sS'CONFIG_ANON_INODES'
p2036
S'y'
sS'kernel.sched_domain.cpu39.domain0.min_interval'
p2037
I10
sS'kernel.sched_domain.cpu39.domain1.busy_factor'
p2038
I32
sS'kernel.sched_domain.cpu5.domain1.max_newidle_lb_cost'
p2039
I670431
sS'kernel.shmmni'
p2040
I4096
sS'CONFIG_ATARI_PARTITION'
p2041
S'y'
sS'kernel.sched_domain.cpu8.domain0.min_interval'
p2042
I10
sS'CONFIG_SECURITY_SELINUX_CHECKREQPROT_VALUE'
p2043
I1
sS'net.ipv4.conf.ens3.proxy_arp'
p2044
I0
sS'CONFIG_NETLABEL'
p2045
S'y'
sS'kernel.sched_domain.cpu40.domain1.flags'
p2046
I25647
sS'CONFIG_CRYPTO_CRCT10DIF'
p2047
S'y'
sS'kernel.sched_domain.cpu10.domain1.max_interval'
p2048
I100
sS'kernel.sched_domain.cpu19.domain1.min_interval'
p2049
I50
sS'kernel.sched_domain.cpu20.domain0.imbalance_pct'
p2050
I125
sS'kernel.sched_domain.cpu45.domain0.newidle_idx'
p2051
I0
sS'kernel.sched_domain.cpu38.domain1.forkexec_idx'
p2052
I0
sS'kernel.sched_domain.cpu45.domain1.max_interval'
p2053
I100
sS'CONFIG_ARCH_HAS_KCOV'
p2054
S'y'
sS'net.ipv6.conf.lo.accept_ra_rtr_pref'
p2055
I1
sS'CONFIG_RAPIDIO_DISC_TIMEOUT'
p2056
I30
sS'CONFIG_GPIO_SX150X'
p2057
S'y'
sS'kernel.sched_domain.cpu17.domain0.imbalance_pct'
p2058
I125
sS'net.ipv6.conf.ens3.enhanced_dad'
p2059
I1
sS'net.ipv6.conf.all.router_probe_interval'
p2060
I60
sS'CONFIG_BSD_PROCESS_ACCT'
p2061
S'y'
sS'kernel.sched_domain.cpu37.domain1.max_interval'
p2062
I100
sS'kernel.sched_domain.cpu33.domain1.busy_factor'
p2063
I32
sS'CONFIG_SPI_MASTER'
p2064
S'y'
sS'kernel.sched_domain.cpu17.domain1.busy_factor'
p2065
I32
sS'kernel.sched_domain.cpu22.domain0.idle_idx'
p2066
I1
sS'kernel.sched_domain.cpu2.domain1.idle_idx'
p2067
I2
sS'CONFIG_KALLSYMS_ABSOLUTE_PERCPU'
p2068
S'y'
sS'kernel.sched_domain.cpu6.domain0.name'
p2069
S'DIE'
p2070
sS'CONFIG_INTEL_IOMMU_FLOPPY_WA'
p2071
S'y'
sS'net.ipv6.conf.all.temp_valid_lft'
p2072
I604800
sS'CONFIG_LZ4_DECOMPRESS'
p2073
S'y'
sS'CONFIG_CRYPTO_MANAGER'
p2074
S'y'
sS'kernel.sched_domain.cpu12.domain1.forkexec_idx'
p2075
I0
sS'net.ipv4.conf.default.drop_unicast_in_l2_multicast'
p2076
I0
sS'CONFIG_SND_PROC_FS'
p2077
S'y'
sS'net.ipv6.conf.ens3.hop_limit'
p2078
I64
sS'CONFIG_VGA_CONSOLE'
p2079
S'y'
sS'CONFIG_RANDOMIZE_MEMORY_PHYSICAL_PADDING'
p2080
S'0xa'
p2081
sS'CONFIG_ECRYPT_FS'
p2082
S'y'
sS'CONFIG_QUOTACTL_COMPAT'
p2083
S'y'
sS'kernel.sched_domain.cpu49.domain1.imbalance_pct'
p2084
I125
sS'vm.oom_kill_allocating_task'
p2085
I0
sS'kernel.sched_domain.cpu8.domain0.idle_idx'
p2086
I1
sS'kernel.sched_domain.cpu2.domain0.min_interval'
p2087
I10
sS'CONFIG_CGROUP_PIDS'
p2088
S'y'
sS'kernel.sched_domain.cpu33.domain0.idle_idx'
p2089
I1
sS'kernel.sched_domain.cpu41.domain0.busy_factor'
p2090
I32
sS'net.ipv4.conf.ens3.accept_local'
p2091
I0
sS'net.ipv4.neigh.ens3.gc_stale_time'
p2092
I60
sS'CONFIG_SND_TIMER'
p2093
S'm'
sS'kernel.sched_domain.cpu40.domain0.busy_idx'
p2094
I2
sS'CONFIG_CRYPTO_AES_X86_64'
p2095
S'm'
sS'net.ipv6.neigh.lo.gc_stale_time'
p2096
I60
sS'CONFIG_HID_PID'
p2097
S'y'
sS'CONFIG_NET_VENDOR_SAMSUNG'
p2098
S'y'
sS'CONFIG_SPLIT_PTLOCK_CPUS'
p2099
I4
sS'dev.cdrom.autoclose'
p2100
I1
sS'CONFIG_LIBCRC32C'
p2101
S'm'
sS'kernel.sched_domain.cpu26.domain0.imbalance_pct'
p2102
I125
sS'kernel.sched_domain.cpu36.domain1.busy_idx'
p2103
I3
sS'kernel.sched_domain.cpu33.domain1.newidle_idx'
p2104
I0
sS'CONFIG_WLAN_VENDOR_BROADCOM'
p2105
S'y'
sS'CONFIG_EDAC_SUPPORT'
p2106
S'y'
sS'CONFIG_HAVE_ARCH_COMPAT_MMAP_BASES'
p2107
S'y'
sS'CONFIG_TASK_DELAY_ACCT'
p2108
S'y'
sS'net.ipv4.cipso_rbm_optfmt'
p2109
I0
sS'CONFIG_BRIDGE_EBT_T_FILTER'
p2110
S'm'
sS'net.ipv4.route.gc_interval'
p2111
I60
sS'kernel.sched_domain.cpu26.domain0.flags'
p2112
I4143
sS'kernel.sched_domain.cpu34.domain1.imbalance_pct'
p2113
I125
sS'kernel.sched_domain.cpu20.domain0.flags'
p2114
I4143
sS'kernel.sched_domain.cpu44.domain0.busy_factor'
p2115
I32
sS'CONFIG_DMA_ACPI'
p2116
S'y'
sS'kernel.kptr_restrict'
p2117
I1
sS'kernel.sched_domain.cpu43.domain1.max_newidle_lb_cost'
p2118
I1061663
sS'CONFIG_INPUT_MOUSEDEV'
p2119
S'y'
sS'CONFIG_X86_DIRECT_GBPAGES'
p2120
S'y'
sS'kernel.sched_domain.cpu28.domain1.busy_factor'
p2121
I32
sS'net.ipv6.conf.ens3.accept_redirects'
p2122
I1
sS'vm.compact_unevictable_allowed'
p2123
I1
sS'CONFIG_ZLIB_DEFLATE'
p2124
S'y'
sS'kernel.sched_domain.cpu18.domain0.busy_factor'
p2125
I32
sS'CONFIG_ACPI_CPU_FREQ_PSS'
p2126
S'y'
sS'kernel.sched_domain.cpu41.domain0.cache_nice_tries'
p2127
I1
sS'CONFIG_X86_VSYSCALL_EMULATION'
p2128
S'y'
sS'net.ipv6.conf.all.use_tempaddr'
p2129
I2
sS'net.ipv4.neigh.lo.anycast_delay'
p2130
I100
sS'CONFIG_NO_HZ_COMMON'
p2131
S'y'
sS'CONFIG_I2C_DESIGNWARE_BAYTRAIL'
p2132
S'y'
sS'kernel.sched_domain.cpu31.domain0.busy_idx'
p2133
I2
sS'kernel.sched_domain.cpu37.domain1.newidle_idx'
p2134
I0
sS'CONFIG_FILE_LOCKING'
p2135
S'y'
sS'net.ipv4.conf.ens3.force_igmp_version'
p2136
I0
sS'CONFIG_FTRACE'
p2137
S'y'
sS'CONFIG_MFD_WM831X_I2C'
p2138
S'y'
sS'kernel.sched_domain.cpu28.domain1.min_interval'
p2139
I50
sS'CONFIG_DEVFREQ_GOV_USERSPACE'
p2140
S'y'
sS'CONFIG_AUDIT_TREE'
p2141
S'y'
sS'kernel.sched_domain.cpu47.domain0.busy_idx'
p2142
I2
sS'CONFIG_USB_OHCI_HCD_PCI'
p2143
S'y'
sS'kernel.sched_domain.cpu36.domain0.name'
p2144
S'DIE'
p2145
sS'net.ipv4.route.min_adv_mss'
p2146
I256
sS'CONFIG_HAVE_KVM_IRQFD'
p2147
S'y'
sS'CONFIG_ARCH_DEFCONFIG'
p2148
S'"arch/x86/configs/x86_64_defconfig"'
p2149
sS'kernel.sched_domain.cpu3.domain1.forkexec_idx'
p2150
I0
sS'net.ipv4.tcp_thin_linear_timeouts'
p2151
I0
sS'CONFIG_CRYPTO_ALGAPI2'
p2152
S'y'
sS'CONFIG_NUMA'
p2153
S'y'
sS'kernel.sched_domain.cpu30.domain1.max_interval'
p2154
I100
sS'kernel.sched_domain.cpu16.domain1.wake_idx'
p2155
I0
sS'CONFIG_LZO_COMPRESS'
p2156
S'y'
sS'CONFIG_INTEL_TXT'
p2157
S'y'
sS'CONFIG_KVM_GENERIC_DIRTYLOG_READ_PROTECT'
p2158
S'y'
sS'CONFIG_LLC'
p2159
S'm'
sS'kernel.sched_domain.cpu26.domain1.newidle_idx'
p2160
I0
sS'kernel.sched_domain.cpu12.domain0.cache_nice_tries'
p2161
I1
sS'CONFIG_QUEUED_SPINLOCKS'
p2162
S'y'
sS'kernel.sched_domain.cpu11.domain0.min_interval'
p2163
I10
sS'kernel.sched_domain.cpu43.domain0.busy_factor'
p2164
I32
sS'CONFIG_ATA_SFF'
p2165
S'y'
sS'CONFIG_NVMEM'
p2166
S'y'
sS'CONFIG_SERIO_RAW'
p2167
S'm'
sS'CONFIG_HAVE_KVM_IRQ_ROUTING'
p2168
S'y'
sS'dev.mac_hid.mouse_button3_keycode'
p2169
I100
sS'CONFIG_GENERIC_BUG'
p2170
S'y'
sS'CONFIG_BLK_DEV_IO_TRACE'
p2171
S'y'
sS'kernel.sched_domain.cpu47.domain1.max_interval'
p2172
I100
sS'net.ipv4.conf.ens3.drop_gratuitous_arp'
p2173
I0
sS'CONFIG_MUTEX_SPIN_ON_OWNER'
p2174
S'y'
sS'CONFIG_MEMORY_ISOLATION'
p2175
S'y'
sS'net.ipv6.conf.all.accept_ra_pinfo'
p2176
I1
sS'kernel.shm_next_id'
p2177
S'-1'
p2178
sS'kernel.sched_domain.cpu22.domain1.imbalance_pct'
p2179
I125
sS'CONFIG_NET_VENDOR_AURORA'
p2180
S'y'
sS'CONFIG_LOCKDEP_SUPPORT'
p2181
S'y'
sS'net.ipv4.conf.ens3.ignore_routes_with_linkdown'
p2182
I0
sS'kernel.sched_domain.cpu34.domain0.flags'
p2183
I4143
sS'net.ipv6.conf.ens3.accept_ra'
p2184
I1
sS'kernel.sched_domain.cpu1.domain1.max_newidle_lb_cost'
p2185
I704950
sS'kernel.sched_domain.cpu25.domain0.newidle_idx'
p2186
I0
sS'net.ipv6.conf.all.mtu'
p2187
I1280
sS'kernel.sched_domain.cpu5.domain0.busy_factor'
p2188
I32
sS'net.ipv6.conf.default.mldv2_unsolicited_report_interval'
p2189
I1000
sS'CONFIG_ZONE_DEVICE'
p2190
S'y'
sS'CONFIG_VIRTUALIZATION'
p2191
S'y'
sS'kernel.sched_domain.cpu32.domain0.imbalance_pct'
p2192
I125
sS'net.ipv6.route.gc_min_interval'
p2193
I0
sS'kernel.sched_domain.cpu7.domain0.cache_nice_tries'
p2194
I1
sS'kernel.sched_domain.cpu6.domain1.max_interval'
p2195
I100
sS'CONFIG_HAVE_VIRT_CPU_ACCOUNTING_GEN'
p2196
S'y'
sS'CONFIG_MOUSE_PS2_BYD'
p2197
S'y'
sS'kernel.sched_domain.cpu36.domain1.min_interval'
p2198
I50
sS'CONFIG_HAVE_ARCH_TRANSPARENT_HUGEPAGE'
p2199
S'y'
sS'CONFIG_PROC_PAGE_MONITOR'
p2200
S'y'
sS'dev.hpet.max-user-freq'
p2201
I64
sS'kernel.sched_domain.cpu16.domain0.max_newidle_lb_cost'
p2202
I518376
sS'net.ipv4.route.gc_thresh'
p2203
S'-1'
p2204
sS'CONFIG_THERMAL_GOV_POWER_ALLOCATOR'
p2205
S'y'
sS'CONFIG_HAVE_CLK'
p2206
S'y'
sS'kernel.sched_domain.cpu44.domain1.busy_factor'
p2207
I32
sS'dev.mac_hid.mouse_button_emulation'
p2208
I0
sS'CONFIG_SND_DMA_SGBUF'
p2209
S'y'
sS'CONFIG_ATA_GENERIC'
p2210
S'y'
sS'CONFIG_MOUSE_PS2_TRACKPOINT'
p2211
S'y'
sS'CONFIG_BLK_MQ_VIRTIO'
p2212
S'y'
sS'CONFIG_RD_LZ4'
p2213
S'y'
sS'CONFIG_STRICT_DEVMEM'
p2214
S'y'
sS'CONFIG_ARCH_ENABLE_MEMORY_HOTREMOVE'
p2215
S'y'
sS'kernel.sched_domain.cpu29.domain1.imbalance_pct'
p2216
I125
sS'net.ipv4.conf.all.medium_id'
p2217
I0
sS'CONFIG_UIO'
p2218
S'm'
sS'net.ipv6.conf.lo.use_tempaddr'
p2219
S'-1'
p2220
sS'kernel.sched_domain.cpu7.domain1.idle_idx'
p2221
I2
sS'kernel.sched_domain.cpu9.domain0.cache_nice_tries'
p2222
I1
sS'kernel.sched_domain.cpu5.domain1.cache_nice_tries'
p2223
I2
sS'CONFIG_DMA_ENGINE'
p2224
S'y'
sS'kernel.sched_domain.cpu22.domain1.min_interval'
p2225
I50
sS'net.ipv6.conf.all.mldv2_unsolicited_report_interval'
p2226
I1000
sS'CONFIG_OUTPUT_FORMAT'
p2227
S'"elf64-x86-64"'
p2228
sS'CONFIG_X86_X2APIC'
p2229
S'y'
sS'CONFIG_CGROUP_BPF'
p2230
S'y'
sS'CONFIG_ARCH_ENABLE_SPLIT_PMD_PTLOCK'
p2231
S'y'
sS'CONFIG_NET_CLS_ACT'
p2232
S'y'
sS'CONFIG_DECOMPRESS_LZO'
p2233
S'y'
sS'net.ipv4.conf.default.src_valid_mark'
p2234
I0
sS'kernel.sched_domain.cpu16.domain0.newidle_idx'
p2235
I0
sS'CONFIG_NETFILTER_XTABLES'
p2236
S'm'
sS'CONFIG_DEBUG_INFO_DWARF4'
p2237
S'y'
sS'kernel.poweroff_cmd'
p2238
S'/sbin/poweroff'
p2239
sS'CONFIG_SCSI_BNX2_ISCSI'
p2240
S'm'
sS'net.ipv4.conf.default.log_martians'
p2241
I0
sS'CONFIG_FREEZER'
p2242
S'y'
sS'kernel.sched_domain.cpu15.domain0.cache_nice_tries'
p2243
I1
sS'net.ipv4.tcp_ecn_fallback'
p2244
I1
sS'kernel.sched_domain.cpu40.domain1.max_interval'
p2245
I100
sS'kernel.sched_domain.cpu44.domain1.imbalance_pct'
p2246
I125
sS'CONFIG_FB'
p2247
S'y'
sS'kernel.sched_domain.cpu25.domain1.busy_idx'
p2248
I3
sS'CONFIG_USE_PERCPU_NUMA_NODE_ID'
p2249
S'y'
sS'kernel.sched_domain.cpu24.domain1.max_newidle_lb_cost'
p2250
I720682
sS'CONFIG_SLUB_DEBUG'
p2251
S'y'
sS'CONFIG_MFD_DA9055'
p2252
S'y'
sS'CONFIG_CGROUP_NET_PRIO'
p2253
S'y'
sS'net.ipv6.neigh.default.mcast_solicit'
p2254
I3
sS'CONFIG_GPIO_LYNXPOINT'
p2255
S'y'
sS'CONFIG_IPC_NS'
p2256
S'y'
sS'CONFIG_PRINTK_TIME'
p2257
S'y'
sS'CONFIG_PCI_MSI_IRQ_DOMAIN'
p2258
S'y'
sS'CONFIG_HAVE_C_RECORDMCOUNT'
p2259
S'y'
sS'net.ipv6.neigh.default.anycast_delay'
p2260
I100
sS'CONFIG_MFD_TPS6586X'
p2261
S'y'
sS'net.ipv6.conf.lo.seg6_enabled'
p2262
I0
sS'kernel.sched_domain.cpu11.domain1.max_interval'
p2263
I100
sS'net.ipv4.conf.ens3.disable_policy'
p2264
I0
sS'CONFIG_PCC'
p2265
S'y'
sS'CONFIG_REGMAP'
p2266
S'y'
sS'CONFIG_SCHEDSTATS'
p2267
S'y'
sS'CONFIG_CLOCKSOURCE_WATCHDOG'
p2268
S'y'
sS'CONFIG_PCI_QUIRKS'
p2269
S'y'
sS'CONFIG_USB_DWC2_PCI'
p2270
S'y'
sS'CONFIG_WLAN'
p2271
S'y'
sS'CONFIG_NET_VENDOR_EXAR'
p2272
S'y'
sS'kernel.sched_domain.cpu47.domain0.name'
p2273
S'DIE'
p2274
sS'CONFIG_GENERIC_IRQ_PROBE'
p2275
S'y'
sS'kernel.sched_domain.cpu28.domain0.newidle_idx'
p2276
I0
sS'kernel.sched_domain.cpu33.domain0.max_interval'
p2277
I20
sS'kernel.sched_domain.cpu31.domain1.busy_factor'
p2278
I32
sS'CONFIG_DECOMPRESS_LZ4'
p2279
S'y'
sS'net.ipv6.conf.lo.ignore_routes_with_linkdown'
p2280
I0
sS'CONFIG_HARDLOCKUP_DETECTOR'
p2281
S'y'
sS'kernel.sched_domain.cpu14.domain0.imbalance_pct'
p2282
I125
sS'CONFIG_RTC_SYSTOHC'
p2283
S'y'
sS'CONFIG_USB_XHCI_HCD'
p2284
S'y'
sS'CONFIG_SERIO_LIBPS2'
p2285
S'y'
sS'kernel.sched_domain.cpu48.domain1.busy_factor'
p2286
I32
sS'CONFIG_BASE_SMALL'
p2287
I0
sS'net.ipv4.tcp_fack'
p2288
I0
sS'net.ipv6.conf.ens3.mldv2_unsolicited_report_interval'
p2289
I1000
sS'kernel.sched_domain.cpu22.domain1.idle_idx'
p2290
I2
sS'net.ipv4.neigh.lo.mcast_resolicit'
p2291
I0
sS'kernel.sched_domain.cpu38.domain1.min_interval'
p2292
I50
sS'uname'
p2293
S'Linux nestedvm 4.14.0-rc8-stock #3 SMP Tue Mar 13 14:28:42 EDT 2018 x86_64 x86_64 x86_64 GNU/Linux'
p2294
sS'CONFIG_DMADEVICES'
p2295
S'y'
sS'kernel.sched_domain.cpu23.domain0.busy_factor'
p2296
I32
sS'CONFIG_DEFAULT_HOSTNAME'
p2297
S'"(none)"'
p2298
sS'kernel.sched_domain.cpu35.domain0.imbalance_pct'
p2299
I125
sS'CONFIG_X86_IO_APIC'
p2300
S'y'
sS'CONFIG_CRYPTO_LZO'
p2301
S'y'
sS'CONFIG_HAVE_STACK_VALIDATION'
p2302
S'y'
sS'CONFIG_SCHED_MC_PRIO'
p2303
S'y'
sS'kernel.sched_domain.cpu11.domain1.flags'
p2304
I25647
sS'CONFIG_VFAT_FS'
p2305
S'y'
sS'kernel.sched_domain.cpu20.domain0.idle_idx'
p2306
I1
sS'CONFIG_HAVE_KVM'
p2307
S'y'
sS'CONFIG_USB_PCI'
p2308
S'y'
sS'kernel.sched_domain.cpu44.domain0.min_interval'
p2309
I10
sS'CONFIG_SATA_ZPODD'
p2310
S'y'
sS'CONFIG_SPARSEMEM_VMEMMAP'
p2311
S'y'
sS'CONFIG_NET_VENDOR_SIS'
p2312
S'y'
sS'net.core.netdev_budget_usecs'
p2313
I2000
sS'CONFIG_TCP_CONG_ADVANCED'
p2314
S'y'
sS'CONFIG_USB_EHCI_HCD_PLATFORM'
p2315
S'y'
sS'kernel.sched_domain.cpu34.domain0.name'
p2316
S'DIE'
p2317
sS'net.ipv6.conf.all.drop_unsolicited_na'
p2318
I0
sS'CONFIG_FSNOTIFY'
p2319
S'y'
sS'kernel.sched_domain.cpu24.domain1.newidle_idx'
p2320
I0
sS'CONFIG_POWER_RESET'
p2321
S'y'
sS'CONFIG_REGULATOR'
p2322
S'y'
sS'CONFIG_RFKILL'
p2323
S'y'
sS'kernel.sched_domain.cpu43.domain0.newidle_idx'
p2324
I0
sS'CONFIG_ARCH_HAS_ZONE_DEVICE'
p2325
S'y'
sS'CONFIG_BCMA_POSSIBLE'
p2326
S'y'
sS'CONFIG_OPTIMIZE_INLINING'
p2327
S'y'
sS'net.ipv4.ipfrag_time'
p2328
I30
sS'net.ipv4.conf.default.secure_redirects'
p2329
I1
sS'kernel.sched_domain.cpu23.domain0.imbalance_pct'
p2330
I125
sS'CONFIG_MOUSE_PS2_SMBUS'
p2331
S'y'
sS'CONFIG_MD_RAID10'
p2332
S'm'
sS'kernel.sched_domain.cpu26.domain1.busy_idx'
p2333
I3
sS'CONFIG_PPDEV'
p2334
S'm'
sS'CONFIG_BLK_DEV_INITRD'
p2335
S'y'
sS'CONFIG_CNIC'
p2336
S'm'
sS'CONFIG_DM_UEVENT'
p2337
S'y'
sS'kernel.sched_domain.cpu29.domain1.wake_idx'
p2338
I0
sS'kernel.sched_domain.cpu28.domain0.imbalance_pct'
p2339
I125
sS'CONFIG_LEGACY_PTYS'
p2340
S'y'
sS'CONFIG_FS_POSIX_ACL'
p2341
S'y'
sS'kernel.auto_msgmni'
p2342
I0
sS'CONFIG_VIRTIO_BALLOON'
p2343
S'y'
sS'kernel.sched_domain.cpu45.domain1.busy_factor'
p2344
I32
sS'kernel.sched_domain.cpu28.domain0.idle_idx'
p2345
I1
sS'kernel.sched_domain.cpu44.domain0.max_newidle_lb_cost'
p2346
I513643
sS'CONFIG_KEXEC_VERIFY_SIG'
p2347
S'y'
sS'fs.inotify.max_user_watches'
p2348
I8192
sS'CONFIG_IMA_APPRAISE_BOOTPARAM'
p2349
S'y'
sS'CONFIG_HPET'
p2350
S'y'
sS'CONFIG_CRYPTO_WORKQUEUE'
p2351
S'y'
sS'kernel.sched_domain.cpu28.domain1.flags'
p2352
I25647
sS'CONFIG_INTEGRITY_SIGNATURE'
p2353
S'y'
sS'kernel.sched_domain.cpu12.domain1.busy_idx'
p2354
I3
sS'CONFIG_SPARSE_IRQ'
p2355
S'y'
sS'kernel.sched_domain.cpu25.domain1.idle_idx'
p2356
I2
sS'CONFIG_BLK_SCSI_REQUEST'
p2357
S'y'
sS'kernel.sched_domain.cpu12.domain0.name'
p2358
S'DIE'
p2359
sS'kernel.sched_domain.cpu42.domain1.name'
p2360
S'NUMA'
p2361
sS'kernel.sched_domain.cpu27.domain1.newidle_idx'
p2362
I0
sS'net.ipv6.conf.lo.accept_ra_rt_info_max_plen'
p2363
I0
sS'CONFIG_NET_VENDOR_MICREL'
p2364
S'y'
sS'kernel.sched_domain.cpu15.domain1.wake_idx'
p2365
I0
sS'kernel.sched_domain.cpu17.domain0.newidle_idx'
p2366
I0
sS'CONFIG_DEBUG_INFO'
p2367
S'y'
sS'kernel.sched_domain.cpu18.domain1.idle_idx'
p2368
I2
sS'CONFIG_MAGIC_SYSRQ'
p2369
S'y'
sS'CONFIG_SERIAL_8250_PNP'
p2370
S'y'
sS'CONFIG_CLKDEV_LOOKUP'
p2371
S'y'
sS'kernel.sched_domain.cpu11.domain0.forkexec_idx'
p2372
I0
sS'kernel.keys.maxbytes'
p2373
I20000
sS'CONFIG_BRANCH_PROFILE_NONE'
p2374
S'y'
sS'CONFIG_NO_BOOTMEM'
p2375
S'y'
sS'CONFIG_XXHASH'
p2376
S'm'
sS'CONFIG_PCI_DIRECT'
p2377
S'y'
sS'vm.dirty_ratio'
p2378
I20
sS'net.ipv6.idgen_retries'
p2379
I3
sS'CONFIG_MAGIC_SYSRQ_SERIAL'
p2380
S'y'
sS'kernel.sched_domain.cpu48.domain1.newidle_idx'
p2381
I0
sS'CONFIG_CRYPTO_HASH2'
p2382
S'y'
sS'CONFIG_HAVE_ARCH_KASAN'
p2383
S'y'
sS'CONFIG_MEMCG_SWAP'
p2384
S'y'
sS'CONFIG_IOSCHED_NOOP'
p2385
S'y'
sS'CONFIG_USB_COMMON'
p2386
S'y'
sS'kernel.sched_domain.cpu0.domain0.wake_idx'
p2387
I0
sS'CONFIG_SND_VERBOSE_PROCFS'
p2388
S'y'
sS'net.ipv6.conf.ens3.temp_prefered_lft'
p2389
I86400
sS'CONFIG_BRIDGE_NF_EBTABLES'
p2390
S'm'
sS'CONFIG_CRYPTO_JITTERENTROPY'
p2391
S'y'
sS'CONFIG_CRYPTO_DRBG_MENU'
p2392
S'y'
sS'kernel.sched_domain.cpu47.domain1.name'
p2393
S'NUMA'
p2394
sS'kernel.sched_domain.cpu37.domain1.busy_factor'
p2395
I32
sS'CONFIG_RD_GZIP'
p2396
S'y'
sS'user.max_pid_namespaces'
p2397
I257592
sS'kernel.sched_domain.cpu24.domain1.min_interval'
p2398
I50
sS'kernel.sched_domain.cpu0.domain1.min_interval'
p2399
I50
sS'CONFIG_NET_VENDOR_MARVELL'
p2400
S'y'
sS'CONFIG_PANIC_ON_OOPS_VALUE'
p2401
I0
sS'CONFIG_USB_EHCI_ROOT_HUB_TT'
p2402
S'y'
sS'kernel.sched_min_granularity_ns'
p2403
I3000000
sS'kernel.sched_domain.cpu24.domain1.busy_factor'
p2404
I32
sS'CONFIG_X86_NEED_RELOCS'
p2405
S'y'
sS'kernel.sched_domain.cpu26.domain0.busy_idx'
p2406
I2
sS'kernel.sched_domain.cpu4.domain1.busy_idx'
p2407
I3
sS'CONFIG_XZ_DEC_ARM'
p2408
S'y'
sS'CONFIG_SCSI_DMA'
p2409
S'y'
sS'kernel.sched_domain.cpu4.domain0.max_interval'
p2410
I20
sS'kernel.sched_domain.cpu21.domain0.imbalance_pct'
p2411
I125
sS'CONFIG_HVC_DRIVER'
p2412
S'y'
sS'CONFIG_HAVE_RCU_TABLE_FREE'
p2413
S'y'
sS'CONFIG_ZSMALLOC'
p2414
S'y'
sS'CONFIG_HAVE_PERF_REGS'
p2415
S'y'
sS'CONFIG_SND_HWDEP'
p2416
S'm'
sS'CONFIG_CRYPTO_HASH'
p2417
S'y'
sS'kernel.sched_domain.cpu9.domain0.newidle_idx'
p2418
I0
sS'CONFIG_SPARSEMEM_MANUAL'
p2419
S'y'
sS'CONFIG_KEYS_COMPAT'
p2420
S'y'
sS'kernel.sched_domain.cpu15.domain0.max_interval'
p2421
I20
sS'kernel.sched_domain.cpu3.domain1.newidle_idx'
p2422
I0
sS'CONFIG_CRYPTO_NULL2'
p2423
S'y'
sS'CONFIG_RCU_STALL_COMMON'
p2424
S'y'
sS'net.ipv6.conf.lo.accept_ra_min_hop_limit'
p2425
I1
sS'kernel.sched_domain.cpu22.domain1.forkexec_idx'
p2426
I0
sS'net.ipv4.conf.default.proxy_arp'
p2427
I0
sS'kernel.sched_rr_timeslice_ms'
p2428
I100
sS'net.ipv6.conf.lo.disable_ipv6'
p2429
I0
sS'kernel.sched_domain.cpu16.domain0.min_interval'
p2430
I10
sS'kernel.sched_domain.cpu44.domain1.name'
p2431
S'NUMA'
p2432
sS'CONFIG_NEED_PER_CPU_PAGE_FIRST_CHUNK'
p2433
S'y'
sS'CONFIG_KGDB_KDB'
p2434
S'y'
sS'kernel.sched_domain.cpu49.domain0.max_newidle_lb_cost'
p2435
I627454
sS'kernel.sched_domain.cpu19.domain0.busy_factor'
p2436
I32
sS'net.ipv4.conf.all.src_valid_mark'
p2437
I0
sS'fs.overflowuid'
p2438
I65534
sS'kernel.sched_domain.cpu14.domain1.newidle_idx'
p2439
I0
sS'kernel.sched_domain.cpu49.domain0.wake_idx'
p2440
I0
sS'net.ipv4.conf.ens3.arp_accept'
p2441
I0
sS'kernel.keys.maxkeys'
p2442
I200
sS'CONFIG_FB_CFB_FILLRECT'
p2443
S'y'
sS'CONFIG_SECURITYFS'
p2444
S'y'
sS'CONFIG_OSF_PARTITION'
p2445
S'y'
sS'CONFIG_CRYPTO_AKCIPHER'
p2446
S'y'
sS'kernel.sched_domain.cpu31.domain0.name'
p2447
S'DIE'
p2448
sS'kernel.sched_domain.cpu47.domain0.busy_factor'
p2449
I32
sS'kernel.sched_domain.cpu17.domain1.imbalance_pct'
p2450
I125
sS'net.ipv6.conf.default.accept_redirects'
p2451
I1
sS'CONFIG_BNX2'
p2452
S'm'
sS'kernel.sched_domain.cpu43.domain0.min_interval'
p2453
I10
sS'CONFIG_I2C_CHARDEV'
p2454
S'y'
sS'CONFIG_CMA_AREAS'
p2455
I7
sS'CONFIG_ARM_GIC_MAX_NR'
p2456
I1
sS'net.ipv4.conf.all.accept_redirects'
p2457
I1
sS'kernel.sched_domain.cpu42.domain0.imbalance_pct'
p2458
I125
sS'kernel.sched_domain.cpu28.domain0.busy_idx'
p2459
I2
sS'kernel.sched_domain.cpu2.domain1.imbalance_pct'
p2460
I125
sS'vm.max_map_count'
p2461
I65530
sS'CONFIG_SCSI_SCAN_ASYNC'
p2462
S'y'
sS'CONFIG_FS_MBCACHE'
p2463
S'y'
sS'net.ipv6.conf.default.enhanced_dad'
p2464
I1
sS'net.ipv4.conf.lo.arp_ignore'
p2465
I0
sS'kernel.sched_domain.cpu13.domain1.forkexec_idx'
p2466
I0
sS'CONFIG_HAVE_KVM_IRQCHIP'
p2467
S'y'
sS'CONFIG_INLINE_READ_UNLOCK'
p2468
S'y'
sS'CONFIG_PM_SLEEP_SMP'
p2469
S'y'
sS'kernel.sched_domain.cpu42.domain1.newidle_idx'
p2470
I0
sS'kernel.sched_domain.cpu32.domain0.cache_nice_tries'
p2471
I1
sS'net.ipv4.conf.ens3.proxy_arp_pvlan'
p2472
I0
sS'CONFIG_FIX_EARLYCON_MEM'
p2473
S'y'
sS'kernel.sched_domain.cpu3.domain0.forkexec_idx'
p2474
I0
sS'CONFIG_DYNAMIC_FTRACE_WITH_REGS'
p2475
S'y'
sS'CONFIG_SCHED_DEBUG'
p2476
S'y'
sS'net.ipv4.conf.ens3.promote_secondaries'
p2477
I0
sS'kernel.sched_domain.cpu49.domain0.imbalance_pct'
p2478
I125
sS'CONFIG_VT_HW_CONSOLE_BINDING'
p2479
S'y'
sS'CONFIG_MIGRATION'
p2480
S'y'
sS'CONFIG_SYSVIPC_SYSCTL'
p2481
S'y'
sS'CONFIG_HAMRADIO'
p2482
S'y'
sS'kernel.sched_domain.cpu25.domain0.name'
p2483
S'DIE'
p2484
sS'CONFIG_SECURITY_APPARMOR_HASH'
p2485
S'y'
sS'kernel.sched_domain.cpu22.domain0.busy_factor'
p2486
I32
sS'CONFIG_NET_NS'
p2487
S'y'
sS'CONFIG_EFI_ESRT'
p2488
S'y'
sS'CONFIG_RAS'
p2489
S'y'
sS'CONFIG_GENERIC_PINCONF'
p2490
S'y'
sS'kernel.sched_domain.cpu44.domain1.max_newidle_lb_cost'
p2491
I626411
sS'CONFIG_MEMBARRIER'
p2492
S'y'
sS'CONFIG_USB'
p2493
S'y'
sS'kernel.sched_domain.cpu23.domain1.newidle_idx'
p2494
I0
sS'kernel.sched_domain.cpu46.domain0.name'
p2495
S'DIE'
p2496
sS'kernel.sched_domain.cpu8.domain0.max_interval'
p2497
I20
sS'CONFIG_HIGH_RES_TIMERS'
p2498
S'y'
sS'CONFIG_PPP'
p2499
S'y'
sS'kernel.sched_domain.cpu10.domain1.flags'
p2500
I25647
sS'CONFIG_HAVE_GENERIC_GUP'
p2501
S'y'
sS'kernel.sched_domain.cpu42.domain0.max_interval'
p2502
I20
sS'kernel.sched_domain.cpu33.domain1.max_interval'
p2503
I100
sS'CONFIG_NET_VENDOR_HUAWEI'
p2504
S'y'
sS'kernel.sched_domain.cpu43.domain0.cache_nice_tries'
p2505
I1
sS'CONFIG_CORE_DUMP_DEFAULT_ELF_HEADERS'
p2506
S'y'
sS'CONFIG_POWER_AVS'
p2507
S'y'
sS'CONFIG_MFD_AAT2870_CORE'
p2508
S'y'
sS'CONFIG_QED'
p2509
S'm'
sS'CONFIG_NET_VENDOR_I825XX'
p2510
S'y'
sS'kernel.sched_domain.cpu45.domain0.busy_idx'
p2511
I2
sS'CONFIG_COMPAT'
p2512
S'y'
sS'net.ipv6.conf.default.force_tllao'
p2513
I0
sS'CONFIG_AGP_INTEL'
p2514
S'y'
sS'CONFIG_CRYPTO_CRC32C'
p2515
S'y'
sS'kernel.sched_domain.cpu3.domain1.min_interval'
p2516
I50
sS'kernel.sched_domain.cpu30.domain1.wake_idx'
p2517
I0
sS'CONFIG_LOCK_SPIN_ON_OWNER'
p2518
S'y'
sS'CONFIG_CRYPTO_GHASH'
p2519
S'y'
sS'kernel.sched_domain.cpu27.domain0.wake_idx'
p2520
I0
sS'kernel.sched_domain.cpu25.domain1.wake_idx'
p2521
I0
sS'CONFIG_ACPI_TABLE_UPGRADE'
p2522
S'y'
sS'CONFIG_BLK_CMDLINE_PARSER'
p2523
S'y'
sS'net.ipv4.inet_peer_minttl'
p2524
I120
sS'net.core.netdev_budget'
p2525
I300
sS'kernel.sched_domain.cpu42.domain1.max_interval'
p2526
I100
sS'kernel.shmall'
p2527
L18446744073692774399L
sS'CONFIG_ABX500_CORE'
p2528
S'y'
sS'kernel.sched_domain.cpu32.domain0.idle_idx'
p2529
I1
sS'CONFIG_CRYPTO_MANAGER_DISABLE_TESTS'
p2530
S'y'
sS'kernel.sched_domain.cpu12.domain0.busy_idx'
p2531
I2
sS'CONFIG_GENERIC_BUG_RELATIVE_POINTERS'
p2532
S'y'
sS'CONFIG_TICK_ONESHOT'
p2533
S'y'
sS'CONFIG_LOG_CPU_MAX_BUF_SHIFT'
p2534
I12
sS'CONFIG_WLAN_VENDOR_INTEL'
p2535
S'y'
sS'net.ipv6.conf.default.seg6_enabled'
p2536
I0
sS'net.ipv4.ip_nonlocal_bind'
p2537
I0
sS'CONFIG_EXT4_FS'
p2538
S'y'
sS'CONFIG_BOOTPARAM_HUNG_TASK_PANIC_VALUE'
p2539
I0
sS'kernel.sched_domain.cpu1.domain0.newidle_idx'
p2540
I0
sS'net.ipv4.neigh.default.base_reachable_time_ms'
p2541
I30000
sS'CONFIG_BALLOON_COMPACTION'
p2542
S'y'
sS'kernel.sched_domain.cpu42.domain0.idle_idx'
p2543
I1
sS'kernel.sched_domain.cpu49.domain0.flags'
p2544
I4143
sS'CONFIG_USELIB'
p2545
S'y'
sS'kernel.sched_domain.cpu46.domain0.max_newidle_lb_cost'
p2546
I676184
sS'kernel.sched_domain.cpu24.domain0.busy_idx'
p2547
I2
sS'net.ipv6.conf.default.hop_limit'
p2548
I64
sS'CONFIG_FB_IMSTT'
p2549
S'y'
sS'CONFIG_X86_64_SMP'
p2550
S'y'
sS'CONFIG_PM_OPP'
p2551
S'y'
sS'kernel.sched_domain.cpu5.domain0.min_interval'
p2552
I10
sS'kernel.sched_domain.cpu21.domain1.busy_factor'
p2553
I32
sS'CONFIG_KSM'
p2554
S'y'
sS'CONFIG_RTC_INTF_SYSFS'
p2555
S'y'
sS'kernel.sched_domain.cpu14.domain0.name'
p2556
S'DIE'
p2557
sS'net.ipv6.conf.all.accept_ra'
p2558
I1
sS'CONFIG_MFD_TPS65912_I2C'
p2559
S'y'
sS'net.ipv4.conf.lo.arp_filter'
p2560
I0
sS'kernel.sched_domain.cpu44.domain1.cache_nice_tries'
p2561
I2
sS'kernel.sched_domain.cpu26.domain1.max_newidle_lb_cost'
p2562
I442074
sS'CONFIG_SERIAL_8250_SHARE_IRQ'
p2563
S'y'
sS'kernel.sched_domain.cpu2.domain0.forkexec_idx'
p2564
I0
sS'net.ipv6.conf.all.router_solicitations'
p2565
S'-1'
p2566
sS'kernel.sched_domain.cpu37.domain0.imbalance_pct'
p2567
I125
sS'kernel.sched_domain.cpu1.domain0.imbalance_pct'
p2568
I125
sS'kernel.sched_domain.cpu21.domain1.flags'
p2569
I25647
sS'CONFIG_FUSION_MAX_SGE'
p2570
I128
sS'CONFIG_HAS_IOPORT_MAP'
p2571
S'y'
sS'kernel.sched_domain.cpu46.domain0.flags'
p2572
I4143
sS'kernel.sched_domain.cpu46.domain0.idle_idx'
p2573
I1
sS'CONFIG_JUMP_LABEL'
p2574
S'y'
sS'kernel.sched_domain.cpu27.domain0.min_interval'
p2575
I10
sS'kernel.sched_domain.cpu34.domain1.flags'
p2576
I25647
sS'CONFIG_INPUT_LEDS'
p2577
S'm'
sS'net.ipv4.tcp_app_win'
p2578
I31
sS'CONFIG_MAY_USE_DEVLINK'
p2579
S'y'
sS'net.ipv4.cipso_cache_enable'
p2580
I1
sS'CONFIG_SYSV68_PARTITION'
p2581
S'y'
sS'CONFIG_EVM_EXTRA_SMACK_XATTRS'
p2582
S'y'
sS'net.ipv4.tcp_keepalive_probes'
p2583
I9
sS'kernel.sched_domain.cpu24.domain0.cache_nice_tries'
p2584
I1
sS'CONFIG_IKCONFIG'
p2585
S'm'
sS'kernel.sched_domain.cpu19.domain0.max_interval'
p2586
I20
sS'CONFIG_MEMORY'
p2587
S'y'
sS'kernel.sched_domain.cpu16.domain1.imbalance_pct'
p2588
I125
sS'CONFIG_KDB_DEFAULT_ENABLE'
p2589
S'0x1'
p2590
sS'fs.inotify.max_queued_events'
p2591
I16384
sS'CONFIG_TREE_RCU'
p2592
S'y'
sS'CONFIG_SG_POOL'
p2593
S'y'
sS'CONFIG_CRYPTO_RSA'
p2594
S'y'
sS'net.ipv4.tcp_pacing_ca_ratio'
p2595
I120
sS'CONFIG_CPU_FREQ_GOV_POWERSAVE'
p2596
S'y'
sS'CONFIG_HAVE_BOOTMEM_INFO_NODE'
p2597
S'y'
sS'kernel.sched_domain.cpu17.domain1.forkexec_idx'
p2598
I0
sS'CONFIG_SPARSEMEM_ALLOC_MEM_MAP_TOGETHER'
p2599
S'y'
sS'CONFIG_ACPI_PROCESSOR'
p2600
S'y'
sS'CONFIG_ARCH_PHYS_ADDR_T_64BIT'
p2601
S'y'
sS'kernel.sched_domain.cpu8.domain0.wake_idx'
p2602
I0
sS'CONFIG_ACPI_PCI_SLOT'
p2603
S'y'
sS'CONFIG_CPU_FREQ_GOV_USERSPACE'
p2604
S'y'
sS'kernel.sched_domain.cpu19.domain1.idle_idx'
p2605
I2
sS'kernel.sched_domain.cpu22.domain1.max_newidle_lb_cost'
p2606
I538914
sS'CONFIG_HAVE_UNSTABLE_SCHED_CLOCK'
p2607
S'y'
sS'kernel.sched_domain.cpu8.domain1.forkexec_idx'
p2608
I0
sS'net.ipv4.igmp_link_local_mcast_reports'
p2609
I1
sS'CONFIG_MAC80211_STA_HASH_MAX_SIZE'
p2610
I0
sS'CONFIG_BITREVERSE'
p2611
S'y'
sS'CONFIG_MEM_SOFT_DIRTY'
p2612
S'y'
sS'CONFIG_MODULES_USE_ELF_RELA'
p2613
S'y'
sS'CONFIG_SECURITY_SMACK'
p2614
S'y'
sS'net.ipv6.anycast_src_echo_reply'
p2615
I0
sS'CONFIG_KPROBES'
p2616
S'y'
sS'CONFIG_FRAME_POINTER'
p2617
S'y'
sS'CONFIG_SGETMASK_SYSCALL'
p2618
S'y'
sS'CONFIG_BLK_DEV_DM_BUILTIN'
p2619
S'y'
sS'net.ipv4.conf.lo.tag'
p2620
I0
sS'kernel.sched_domain.cpu30.domain1.forkexec_idx'
p2621
I0
sS'CONFIG_SQUASHFS_FRAGMENT_CACHE_SIZE'
p2622
I3
sS'kernel.sched_domain.cpu30.domain1.newidle_idx'
p2623
I0
sS'kernel.sched_domain.cpu3.domain0.idle_idx'
p2624
I1
sS'CONFIG_AUDIT'
p2625
S'y'
sS'kernel.sched_domain.cpu32.domain1.max_newidle_lb_cost'
p2626
I590359
sS'CONFIG_ARCH_SUPPORTS_DEBUG_PAGEALLOC'
p2627
S'y'
sS'kernel.random.urandom_min_reseed_secs'
p2628
I60
sS'CONFIG_X86_CMPXCHG64'
p2629
S'y'
sS'CONFIG_NET_FLOW_LIMIT'
p2630
S'y'
sS'CONFIG_ND_CLAIM'
p2631
S'y'
sS'kernel.sched_domain.cpu21.domain1.wake_idx'
p2632
I0
sS'kernel.sched_domain.cpu4.domain0.newidle_idx'
p2633
I0
sS'kernel.sched_domain.cpu34.domain1.name'
p2634
S'NUMA'
p2635
sS'net.ipv6.conf.default.accept_ra_mtu'
p2636
I1
sS'kernel.sched_domain.cpu37.domain0.max_newidle_lb_cost'
p2637
I469841
sS'CONFIG_HAVE_HARDLOCKUP_DETECTOR_PERF'
p2638
S'y'
sS'kernel.sched_domain.cpu25.domain1.max_interval'
p2639
I100
sS'kernel.sched_domain.cpu0.domain0.busy_factor'
p2640
I32
sS'kernel.sched_domain.cpu17.domain1.max_newidle_lb_cost'
p2641
I17048080
sS'net.ipv4.tcp_limit_output_bytes'
p2642
I262144
sS'kernel.sched_domain.cpu12.domain1.imbalance_pct'
p2643
I125
sS'CONFIG_HAVE_COPY_THREAD_TLS'
p2644
S'y'
sS'net.ipv6.route.gc_thresh'
p2645
I1024
sS'CONFIG_ARCH_RANDOM'
p2646
S'y'
sS'net.ipv6.conf.ens3.router_probe_interval'
p2647
I60
sS'kernel.sched_domain.cpu21.domain0.forkexec_idx'
p2648
I0
sS'CONFIG_PM_TRACE'
p2649
S'y'
sS'CONFIG_SYSCTL_EXCEPTION_TRACE'
p2650
S'y'
sS'CONFIG_X86_INTERNODE_CACHE_SHIFT'
p2651
I6
sS'CONFIG_HAVE_SYSCALL_TRACEPOINTS'
p2652
S'y'
sS'kernel.sched_domain.cpu13.domain1.max_interval'
p2653
I100
sS'CONFIG_CRC32'
p2654
S'y'
sS'kernel.sched_domain.cpu45.domain0.max_newidle_lb_cost'
p2655
I62655467
sS'CONFIG_FUSION'
p2656
S'y'
sS'net.ipv4.conf.lo.accept_source_route'
p2657
I1
sS'net.ipv6.conf.ens3.suppress_frag_ndisc'
p2658
I1
sS'CONFIG_SWPHY'
p2659
S'y'
sS'kernel.sched_domain.cpu33.domain1.min_interval'
p2660
I50
sS'kernel.sched_domain.cpu6.domain1.wake_idx'
p2661
I0
sS'kernel.sched_domain.cpu36.domain0.idle_idx'
p2662
I1
sS'net.ipv6.conf.all.mc_forwarding'
p2663
I0
sS'vm.admin_reserve_kbytes'
p2664
I8192
sS'CONFIG_ASYNC_TX_DMA'
p2665
S'y'
sS'kernel.sched_domain.cpu33.domain0.wake_idx'
p2666
I0
sS'CONFIG_UNIX'
p2667
S'y'
sS'CONFIG_RTC_NVMEM'
p2668
S'y'
sS'kernel.sched_domain.cpu6.domain0.newidle_idx'
p2669
I0
sS'kernel.sched_domain.cpu5.domain0.name'
p2670
S'DIE'
p2671
sS'net.ipv4.tcp_early_demux'
p2672
I1
sS'CONFIG_EXT4_FS_SECURITY'
p2673
S'y'
sS'kernel.sched_domain.cpu34.domain0.idle_idx'
p2674
I1
sS'kernel.sched_domain.cpu45.domain1.busy_idx'
p2675
I3
sS'kernel.sched_domain.cpu19.domain1.max_newidle_lb_cost'
p2676
I712385
sS'net.ipv4.neigh.default.unres_qlen'
p2677
I101
sS'kernel.sched_domain.cpu4.domain1.idle_idx'
p2678
I2
sS'CONFIG_FRAME_WARN'
p2679
I1024
sS'CONFIG_MFD_PALMAS'
p2680
S'y'
sS'CONFIG_AUXDISPLAY'
p2681
S'y'
sS'CONFIG_WLAN_VENDOR_ST'
p2682
S'y'
sS'kernel.printk_ratelimit'
p2683
I5
sS'net.ipv6.conf.all.enhanced_dad'
p2684
I1
sS'kernel.sched_domain.cpu38.domain1.busy_idx'
p2685
I3
sS'net.ipv4.neigh.default.delay_first_probe_time'
p2686
I5
sS'CONFIG_SECURITY_SELINUX_BOOTPARAM_VALUE'
p2687
I0
sS'fs.lease-break-time'
p2688
I45
sS'kernel.sched_domain.cpu26.domain0.busy_factor'
p2689
I32
sS'vm.dirty_bytes'
p2690
I0
sS'net.ipv6.conf.lo.accept_redirects'
p2691
I1
sS'kernel.sched_domain.cpu36.domain1.max_newidle_lb_cost'
p2692
I634116
sS'CONFIG_KVM_GUEST'
p2693
S'y'
sS'net.ipv4.tcp_syn_retries'
p2694
I6
sS'kernel.shm_rmid_forced'
p2695
I0
sS'CONFIG_PERF_EVENTS_INTEL_UNCORE'
p2696
S'y'
sS'net.ipv4.conf.ens3.igmpv2_unsolicited_report_interval'
p2697
I10000
sS'kernel.sched_domain.cpu17.domain1.max_interval'
p2698
I100
sS'kernel.sched_domain.cpu13.domain0.cache_nice_tries'
p2699
I1
sS'kernel.sched_domain.cpu11.domain1.forkexec_idx'
p2700
I0
sS'kernel.sched_domain.cpu7.domain0.max_newidle_lb_cost'
p2701
I856695
sS'CONFIG_X86_FAST_FEATURE_TESTS'
p2702
S'y'
sS'CONFIG_BRIDGE_IGMP_SNOOPING'
p2703
S'y'
sS'kernel.sched_domain.cpu2.domain0.flags'
p2704
I4143
sS'kernel.sched_domain.cpu20.domain1.busy_factor'
p2705
I32
sS'kernel.sched_domain.cpu44.domain0.name'
p2706
S'DIE'
p2707
sS'CONFIG_CRYPTO_GHASH_CLMUL_NI_INTEL'
p2708
S'm'
sS'CONFIG_DEVFREQ_GOV_POWERSAVE'
p2709
S'y'
sS'kernel.sched_domain.cpu11.domain1.min_interval'
p2710
I50
sS'net.ipv6.conf.ens3.accept_ra_from_local'
p2711
I0
sS'kernel.sched_domain.cpu34.domain1.busy_idx'
p2712
I3
sS'kernel.sched_domain.cpu38.domain1.flags'
p2713
I25647
sS'net.ipv6.conf.default.router_solicitation_interval'
p2714
I4
sS'kernel.sched_domain.cpu26.domain0.wake_idx'
p2715
I0
sS'net.ipv4.tcp_tso_win_divisor'
p2716
I3
sS'CONFIG_RELOCATABLE'
p2717
S'y'
sS'kernel.sched_domain.cpu24.domain0.max_interval'
p2718
I20
sS'fs.pipe-max-size'
p2719
I1048576
sS'CONFIG_NO_HZ'
p2720
S'y'
sS'CONFIG_CHELSIO_T4_DCB'
p2721
S'y'
sS'kernel.sched_domain.cpu26.domain0.forkexec_idx'
p2722
I0
sS'kernel.sched_domain.cpu41.domain1.flags'
p2723
I25647
sS'CONFIG_RTC_SYSTOHC_DEVICE'
p2724
S'"rtc0"'
p2725
sS'CONFIG_DEFAULT_SECURITY_APPARMOR'
p2726
S'y'
sS'CONFIG_ASYNC_PQ'
p2727
S'm'
sS'kernel.sched_domain.cpu18.domain0.min_interval'
p2728
I10
sS'CONFIG_HAVE_KERNEL_BZIP2'
p2729
S'y'
sS'net.ipv6.conf.ens3.addr_gen_mode'
p2730
I0
sS'CONFIG_QED_SRIOV'
p2731
S'y'
sS'net.ipv4.route.gc_min_interval_ms'
p2732
I500
sS'kernel.sched_domain.cpu23.domain0.cache_nice_tries'
p2733
I1
sS'CONFIG_WLAN_VENDOR_RSI'
p2734
S'y'
sS'CONFIG_CPU_IDLE'
p2735
S'y'
sS'kernel.sched_domain.cpu2.domain1.name'
p2736
S'NUMA'
p2737
sS'CONFIG_HOTPLUG_PCI_PCIE'
p2738
S'y'
sS'net.ipv6.neigh.ens3.mcast_solicit'
p2739
I3
sS'kernel.sched_domain.cpu37.domain0.forkexec_idx'
p2740
I0
sS'kernel.sched_domain.cpu31.domain0.wake_idx'
p2741
I0
sS'CONFIG_FB_CMDLINE'
p2742
S'y'
sS'kernel.sched_domain.cpu45.domain1.min_interval'
p2743
I50
sS'CONFIG_THP_SWAP'
p2744
S'y'
sS'kernel.sched_domain.cpu41.domain1.idle_idx'
p2745
I2
sS'fs.dentry-state'
p2746
S'1484932\t16010\t45\t0\t0\t0'
p2747
sS'CONFIG_TRACEPOINTS'
p2748
S'y'
sS'CONFIG_IP6_NF_IPTABLES'
p2749
S'm'
sS'CONFIG_CRYPTO_AKCIPHER2'
p2750
S'y'
sS'CONFIG_ARCH_HAS_ADD_PAGES'
p2751
S'y'
sS'net.ipv6.conf.lo.dad_transmits'
p2752
I1
sS'CONFIG_SECURITY_APPARMOR_HASH_DEFAULT'
p2753
S'y'
sS'CONFIG_SMP'
p2754
S'y'
sS'CONFIG_NEED_PER_CPU_EMBED_FIRST_CHUNK'
p2755
S'y'
sS'kernel.sched_domain.cpu0.domain0.forkexec_idx'
p2756
I0
sS'kernel.sched_domain.cpu36.domain1.flags'
p2757
I25647
sS'net.ipv6.conf.default.accept_dad'
p2758
I1
sS'kernel.sched_domain.cpu10.domain1.newidle_idx'
p2759
I0
sS'kernel.sched_domain.cpu46.domain1.newidle_idx'
p2760
I0
sS'kernel.sched_domain.cpu35.domain0.newidle_idx'
p2761
I0
sS'CONFIG_TMPFS_XATTR'
p2762
S'y'
sS'CONFIG_BLK_CGROUP'
p2763
S'y'
sS'CONFIG_PATA_ACPI'
p2764
S'm'
sS'kernel.sched_domain.cpu27.domain1.max_newidle_lb_cost'
p2765
I566230
sS'CONFIG_WATCHDOG'
p2766
S'y'
sS'CONFIG_RTC_CLASS'
p2767
S'y'
sS'CONFIG_ISCSI_TCP'
p2768
S'm'
sS'kernel.sched_domain.cpu49.domain1.flags'
p2769
I25647
sS'net.ipv6.neigh.default.gc_stale_time'
p2770
I60
sS'net.ipv6.conf.ens3.force_tllao'
p2771
I0
sS'net.ipv4.neigh.ens3.unres_qlen'
p2772
I101
sS'kernel.sched_domain.cpu11.domain1.busy_idx'
p2773
I3
sS'CONFIG_IP_PIMSM_V1'
p2774
S'y'
sS'kernel.sched_domain.cpu28.domain1.busy_idx'
p2775
I3
sS'CONFIG_MICROCODE'
p2776
S'y'
sS'kernel.sched_domain.cpu27.domain0.forkexec_idx'
p2777
I0
sS'kernel.sched_domain.cpu3.domain1.max_newidle_lb_cost'
p2778
I758743
sS'CONFIG_TUN'
p2779
S'y'
sS'net.ipv6.conf.lo.autoconf'
p2780
I1
sS'CONFIG_NET_VENDOR_SEEQ'
p2781
S'y'
sS'CONFIG_IP_PIMSM_V2'
p2782
S'y'
sS'net.ipv4.tcp_low_latency'
p2783
I0
sS'kernel.sched_domain.cpu18.domain1.newidle_idx'
p2784
I0
sS'vm.nr_hugepages'
p2785
I0
sS'CONFIG_VIRTIO'
p2786
S'y'
sS'kernel.randomize_va_space'
p2787
I2
sS'vm.legacy_va_layout'
p2788
I0
sS'kernel.sched_domain.cpu38.domain0.busy_idx'
p2789
I2
sS'CONFIG_PARAVIRT'
p2790
S'y'
sS'CONFIG_HAVE_OPTPROBES'
p2791
S'y'
sS'CONFIG_XZ_DEC_BCJ'
p2792
S'y'
sS'net.ipv4.icmp_echo_ignore_all'
p2793
I0
sS'net.ipv4.ip_dynaddr'
p2794
I0
sS'CONFIG_SYSFS'
p2795
S'y'
sS'dev.cdrom.autoeject'
p2796
I0
sS'CONFIG_PROFILING'
p2797
S'y'
sS'kernel.sched_domain.cpu19.domain0.max_newidle_lb_cost'
p2798
I772192
sS'kernel.sched_domain.cpu6.domain1.name'
p2799
S'NUMA'
p2800
sS'kernel.sched_domain.cpu43.domain1.max_interval'
p2801
I100
sS'kernel.sched_domain.cpu31.domain0.idle_idx'
p2802
I1
sS'CONFIG_THREAD_INFO_IN_TASK'
p2803
S'y'
sS'CONFIG_NET_VENDOR_INTEL'
p2804
S'y'
sS'CONFIG_TASKSTATS'
p2805
S'y'
sS'vm.memory_failure_early_kill'
p2806
I0
sS'kernel.sched_domain.cpu6.domain1.busy_factor'
p2807
I32
sS'net.ipv6.conf.default.use_tempaddr'
p2808
I2
sS'CONFIG_DEVTMPFS'
p2809
S'y'
sS'CONFIG_CFS_BANDWIDTH'
p2810
S'y'
sS'CONFIG_ACPI_I2C_OPREGION'
p2811
S'y'
sS'kernel.sched_domain.cpu12.domain0.idle_idx'
p2812
I1
sS'net.ipv6.route.gc_timeout'
p2813
I60
sS'CONFIG_HAVE_MOD_ARCH_SPECIFIC'
p2814
S'y'
sS'net.ipv6.neigh.ens3.base_reachable_time_ms'
p2815
I30000
sS'CONFIG_FB_MODE_HELPERS'
p2816
S'y'
sS'CONFIG_USB_OHCI_LITTLE_ENDIAN'
p2817
S'y'
sS'kernel.sched_domain.cpu35.domain1.wake_idx'
p2818
I0
sS'net.ipv4.conf.default.ignore_routes_with_linkdown'
p2819
I0
sS'kernel.sched_domain.cpu46.domain1.max_interval'
p2820
I100
sS'net.ipv6.flowlabel_consistency'
p2821
I1
sS'net.ipv4.icmp_echo_ignore_broadcasts'
p2822
I1
sS'CONFIG_IRQ_WORK'
p2823
S'y'
sS'CONFIG_TCG_TIS'
p2824
S'y'
sS'CONFIG_XZ_DEC_POWERPC'
p2825
S'y'
sS'kernel.sched_domain.cpu43.domain0.max_newidle_lb_cost'
p2826
I440049
sS'CONFIG_HZ_250'
p2827
S'y'
sS'kernel.sched_domain.cpu0.domain1.flags'
p2828
I25647
sS'kernel.sched_domain.cpu30.domain0.min_interval'
p2829
I10
sS'kernel.sched_domain.cpu31.domain1.min_interval'
p2830
I50
sS'kernel.pid_max'
p2831
I124928
sS'CONFIG_REGMAP_I2C'
p2832
S'y'
sS'net.ipv6.neigh.ens3.locktime'
p2833
I0
sS'kernel.sched_domain.cpu20.domain0.max_newidle_lb_cost'
p2834
I681835
sS'kernel.sched_domain.cpu24.domain0.forkexec_idx'
p2835
I0
sS'net.ipv4.conf.all.arp_filter'
p2836
I0
sS'kernel.sched_domain.cpu46.domain0.newidle_idx'
p2837
I0
sS'CONFIG_THERMAL_GOV_BANG_BANG'
p2838
S'y'
sS'CONFIG_MFD_MAX8997'
p2839
S'y'
sS'CONFIG_HAVE_ACPI_APEI'
p2840
S'y'
sS'kernel.sched_domain.cpu13.domain1.imbalance_pct'
p2841
I125
sS'CONFIG_FONT_SUPPORT'
p2842
S'y'
sS'kernel.sched_domain.cpu9.domain0.flags'
p2843
I4143
sS'kernel.sched_domain.cpu43.domain1.imbalance_pct'
p2844
I125
sS'CONFIG_X86_PMEM_LEGACY_DEVICE'
p2845
S'y'
sS'kernel.sched_domain.cpu1.domain1.wake_idx'
p2846
I0
sS'CONFIG_REGMAP_IRQ'
p2847
S'y'
sS'CONFIG_ASSOCIATIVE_ARRAY'
p2848
S'y'
sS'kernel.sched_domain.cpu7.domain1.name'
p2849
S'NUMA'
p2850
sS'CONFIG_EZX_PCAP'
p2851
S'y'
sS'CONFIG_SCSI_MOD'
p2852
S'y'
sS'CONFIG_CRYPTO_HASH_INFO'
p2853
S'y'
sS'kernel.sched_domain.cpu24.domain0.imbalance_pct'
p2854
I125
sS'net.ipv4.conf.all.shared_media'
p2855
I1
sS'CONFIG_IOMMU_API'
p2856
S'y'
sS'CONFIG_INLINE_SPIN_UNLOCK_IRQ'
p2857
S'y'
sS'CONFIG_BLOCK'
p2858
S'y'
sS'CONFIG_MEMORY_FAILURE'
p2859
S'y'
sS'CONFIG_FB_NOTIFY'
p2860
S'y'
sS'CONFIG_NET_VENDOR_EZCHIP'
p2861
S'y'
sS'kernel.sched_domain.cpu40.domain1.wake_idx'
p2862
I0
sS'CONFIG_TIMERFD'
p2863
S'y'
sS'kernel.sched_domain.cpu1.domain0.max_interval'
p2864
I20
sS'kernel.sched_domain.cpu14.domain0.newidle_idx'
p2865
I0
sS'CONFIG_CPU_RMAP'
p2866
S'y'
sS'net.netfilter.nf_log.11'
p2867
S'NONE'
p2868
sS'net.netfilter.nf_log.10'
p2869
S'NONE'
p2870
sS'net.netfilter.nf_log.12'
p2871
S'NONE'
p2872
sS'CONFIG_ARCH_HAS_PMEM_API'
p2873
S'y'
sS'net.ipv6.conf.all.drop_unicast_in_l2_multicast'
p2874
I0
sS'kernel.sched_domain.cpu31.domain0.max_interval'
p2875
I20
sS'CONFIG_64BIT'
p2876
S'y'
sS'net.core.rmem_max'
p2877
I212992
sS'CONFIG_CRYPTO_DRBG_HASH'
p2878
S'y'
sS'CONFIG_SECURITY_PATH'
p2879
S'y'
sS'CONFIG_THERMAL_EMERGENCY_POWEROFF_DELAY_MS'
p2880
I0
sS'CONFIG_DEBUG_FS'
p2881
S'y'
sS'kernel.sched_domain.cpu24.domain0.max_newidle_lb_cost'
p2882
I564741
sS'kernel.sched_domain.cpu30.domain1.flags'
p2883
I25647
sS'kernel.sched_domain.cpu19.domain0.forkexec_idx'
p2884
I0
sS'CONFIG_STACK_TRACER'
p2885
S'y'
sS'net.core.dev_weight'
p2886
I64
sS'kernel.sched_domain.cpu22.domain0.cache_nice_tries'
p2887
I1
sS'CONFIG_X86_MPPARSE'
p2888
S'y'
sS'CONFIG_NET_VENDOR_SYNOPSYS'
p2889
S'y'
sS'CONFIG_SECURITY_TOMOYO_MAX_AUDIT_LOG'
p2890
I1024
sS'CONFIG_PCIE_PME'
p2891
S'y'
sS'kernel.sched_domain.cpu6.domain1.max_newidle_lb_cost'
p2892
I868032
sS'CONFIG_HAVE_CC_STACKPROTECTOR'
p2893
S'y'
sS'kernel.sched_domain.cpu46.domain1.busy_idx'
p2894
I3
sS'kernel.sched_domain.cpu15.domain1.idle_idx'
p2895
I2
sS'CONFIG_MEGARAID_NEWGEN'
p2896
S'y'
sS'CONFIG_BLK_DEV_LOOP_MIN_COUNT'
p2897
I8
sS'kernel.sched_domain.cpu32.domain0.max_interval'
p2898
I20
sS'net.ipv6.conf.ens3.proxy_ndp'
p2899
I0
sS'CONFIG_DEFAULT_TCP_CONG'
p2900
S'"cubic"'
p2901
sS'CONFIG_CRYPTO_CBC'
p2902
S'y'
sS'CONFIG_HAVE_DEBUG_STACKOVERFLOW'
p2903
S'y'
sS'CONFIG_PGTABLE_MAPPING'
p2904
S'y'
sS'kernel.sched_domain.cpu34.domain0.busy_factor'
p2905
I32
sS'CONFIG_HAVE_EBPF_JIT'
p2906
S'y'
sS'kernel.shmmax'
p2907
L18446744073692774399L
sS'net.ipv6.conf.all.accept_ra_min_hop_limit'
p2908
I1
sS'kernel.sched_domain.cpu19.domain1.newidle_idx'
p2909
I0
sS'CONFIG_PARAVIRT_SPINLOCKS'
p2910
S'y'
sS'CONFIG_FB_SIMPLE'
p2911
S'y'
sS'net.ipv6.neigh.default.proxy_delay'
p2912
I80
sS'CONFIG_QUEUED_RWLOCKS'
p2913
S'y'
sS'CONFIG_SUSPEND_FREEZER'
p2914
S'y'
sS'kernel.sched_domain.cpu9.domain1.min_interval'
p2915
I50
sS'CONFIG_VHOST_NET'
p2916
S'm'
sS'net.ipv4.conf.ens3.forwarding'
p2917
I0
sS'kernel.sched_domain.cpu2.domain1.cache_nice_tries'
p2918
I2
sS'kernel.sched_domain.cpu6.domain0.cache_nice_tries'
p2919
I1
sS'net.ipv6.conf.default.autoconf'
p2920
I1
sS'fs.pipe-user-pages-soft'
p2921
I16384
sS'CONFIG_CRYPTO_SIMD'
p2922
S'm'
sS'CONFIG_SND_PCM_TIMER'
p2923
S'y'
sS'kernel.sched_domain.cpu43.domain0.max_interval'
p2924
I20
sS'CONFIG_X86_INTEL_PSTATE'
p2925
S'y'
sS'net.ipv4.tcp_mtu_probing'
p2926
I0
sS'kernel.sched_domain.cpu20.domain0.wake_idx'
p2927
I0
sS'CONFIG_MFD_TWL4030_AUDIO'
p2928
S'y'
sS'CONFIG_CGROUP_PERF'
p2929
S'y'
sS'CONFIG_WATCHDOG_HANDLE_BOOT_ENABLED'
p2930
S'y'
sS'CONFIG_SOLARIS_X86_PARTITION'
p2931
S'y'
sS'kernel.sched_domain.cpu12.domain1.newidle_idx'
p2932
I0
sS'kernel.sched_domain.cpu11.domain0.idle_idx'
p2933
I1
sS'kernel.sched_domain.cpu5.domain1.name'
p2934
S'NUMA'
p2935
sS'CONFIG_LEGACY_PTY_COUNT'
p2936
I0
sS'CONFIG_NEED_SG_DMA_LENGTH'
p2937
S'y'
sS'vm.hugepages_treat_as_movable'
p2938
I0
sS'CONFIG_GENERIC_CALIBRATE_DELAY'
p2939
S'y'
sS'CONFIG_ARCH_HAS_DEVMEM_IS_ALLOWED'
p2940
S'y'
sS'kernel.sched_domain.cpu45.domain0.cache_nice_tries'
p2941
I1
sS'CONFIG_ACPI_CONTAINER'
p2942
S'y'
sS'kernel.ftrace_enabled'
p2943
I1
sS'kernel.sched_domain.cpu32.domain1.imbalance_pct'
p2944
I125
sS'CONFIG_CRYPTO_RNG'
p2945
S'y'
sS'CONFIG_MODULES_TREE_LOOKUP'
p2946
S'y'
sS'CONFIG_ECRYPT_FS_MESSAGING'
p2947
S'y'
sS'CONFIG_RTC_HCTOSYS_DEVICE'
p2948
S'"rtc0"'
p2949
sS'net.ipv4.conf.ens3.src_valid_mark'
p2950
I0
sS'CONFIG_EFI_VARS'
p2951
S'y'
sS'kernel.sched_domain.cpu16.domain0.idle_idx'
p2952
I1
sS'CONFIG_KEXEC_FILE'
p2953
S'y'
sS'CONFIG_I2C_BOARDINFO'
p2954
S'y'
sS'net.ipv4.tcp_mem'
p2955
S'768591\t1024791\t1537182'
p2956
sS'CONFIG_SECCOMP'
p2957
S'y'
sS'CONFIG_CRYPTO_RNG2'
p2958
S'y'
sS'kernel.sched_domain.cpu10.domain0.newidle_idx'
p2959
I0
sS'CONFIG_ARCH_MMAP_RND_BITS'
p2960
I28
sS'kernel.sched_domain.cpu36.domain0.imbalance_pct'
p2961
I125
sS'CONFIG_GENERIC_STRNLEN_USER'
p2962
S'y'
sS'kernel.sched_domain.cpu39.domain1.newidle_idx'
p2963
I0
sS'kernel.sched_domain.cpu22.domain1.newidle_idx'
p2964
I0
sS'CONFIG_PMIC_DA9052'
p2965
S'y'
sS'CONFIG_KGDB_SERIAL_CONSOLE'
p2966
S'y'
sS'kernel.sched_domain.cpu23.domain1.max_newidle_lb_cost'
p2967
I554541
sS'CONFIG_IMA_DEFAULT_TEMPLATE'
p2968
S'"ima-ng"'
p2969
sS'kernel.printk_devkmsg'
p2970
S'ratelimit'
p2971
sS'kernel.sched_domain.cpu6.domain0.busy_idx'
p2972
I2
sS'CONFIG_CRYPTO_SHA1'
p2973
S'y'
sS'CONFIG_MMIOTRACE'
p2974
S'y'
sS'kernel.sched_domain.cpu10.domain1.busy_factor'
p2975
I32
sS'CONFIG_HW_RANDOM'
p2976
S'y'
sS'CONFIG_ARCH_HAS_CPU_RELAX'
p2977
S'y'
sS'kernel.sched_domain.cpu11.domain1.wake_idx'
p2978
I0
sS'CONFIG_ARCH_ENABLE_THP_MIGRATION'
p2979
S'y'
sS'vm.user_reserve_kbytes'
p2980
I131072
sS'CONFIG_PARAVIRT_TIME_ACCOUNTING'
p2981
S'y'
sS'kernel.sched_domain.cpu7.domain0.name'
p2982
S'DIE'
p2983
sS'net.ipv4.neigh.ens3.delay_first_probe_time'
p2984
I5
sS'net.ipv4.neigh.ens3.retrans_time_ms'
p2985
I1000
sS'CONFIG_KALLSYMS'
p2986
S'y'
sS'CONFIG_SND_SPI'
p2987
S'y'
sS'kernel.sched_domain.cpu44.domain0.max_interval'
p2988
I20
sS'kernel.sched_domain.cpu42.domain0.busy_factor'
p2989
I32
sS'net.ipv4.route.gc_timeout'
p2990
I300
sS'CONFIG_ARCH_MMAP_RND_COMPAT_BITS_MAX'
p2991
I16
sS'CONFIG_SPARSEMEM'
p2992
S'y'
sS'kernel.sched_domain.cpu39.domain0.cache_nice_tries'
p2993
I1
sS'kernel.sched_domain.cpu17.domain0.idle_idx'
p2994
I1
sS'CONFIG_HAVE_DMA_API_DEBUG'
p2995
S'y'
sS'CONFIG_ACPI_BUTTON'
p2996
S'y'
sS'CONFIG_PINMUX'
p2997
S'y'
sS'CONFIG_TTY'
p2998
S'y'
sS'kernel.sched_domain.cpu45.domain1.idle_idx'
p2999
I2
sS'CONFIG_XZ_DEC'
p3000
S'y'
sS'kernel.sched_domain.cpu34.domain0.cache_nice_tries'
p3001
I1
sS'CONFIG_BOUNCE'
p3002
S'y'
sS'CONFIG_X86_PM_TIMER'
p3003
S'y'
sS'net.ipv4.conf.ens3.arp_notify'
p3004
I0
sS'CONFIG_FB_CFB_IMAGEBLIT'
p3005
S'y'
sS'CONFIG_NET_VENDOR_VIA'
p3006
S'y'
sS'CONFIG_SERIAL_8250_LPSS'
p3007
S'y'
sS'net.ipv6.conf.all.accept_ra_rtr_pref'
p3008
I1
sS'CONFIG_RPS'
p3009
S'y'
sS'kernel.sched_domain.cpu47.domain0.wake_idx'
p3010
I0
sS'CONFIG_PM_WAKELOCKS_LIMIT'
p3011
I100
sS'kernel.sched_domain.cpu9.domain0.busy_factor'
p3012
I32
sS'CONFIG_DMAR_TABLE'
p3013
S'y'
sS'CONFIG_SYSTEM_EXTRA_CERTIFICATE_SIZE'
p3014
I4096
sS'net.ipv4.conf.ens3.send_redirects'
p3015
I1
sS'net.ipv6.conf.default.accept_ra'
p3016
I1
sS'CONFIG_PREEMPT_VOLUNTARY'
p3017
S'y'
sS'CONFIG_DEVMEM'
p3018
S'y'
sS'CONFIG_FUSE_FS'
p3019
S'y'
sS'CONFIG_USER_RETURN_NOTIFIER'
p3020
S'y'
sS'kernel.sched_domain.cpu11.domain0.imbalance_pct'
p3021
I125
sS'net.ipv4.tcp_max_reordering'
p3022
I300
sS'net.ipv4.neigh.default.gc_interval'
p3023
I30
sS'kernel.sched_domain.cpu20.domain1.busy_idx'
p3024
I3
sS'kernel.sg-big-buff'
p3025
I32768
sS'net.ipv6.route.gc_elasticity'
p3026
I9
sS'CONFIG_ARCH_SPARSEMEM_ENABLE'
p3027
S'y'
sS'CONFIG_NETFILTER_INGRESS'
p3028
S'y'
sS'CONFIG_HAVE_MEMBLOCK'
p3029
S'y'
sS'CONFIG_SCHED_TRACER'
p3030
S'y'
sS'CONFIG_AUDIT_WATCH'
p3031
S'y'
sS'CONFIG_SQUASHFS_DECOMP_SINGLE'
p3032
S'y'
sS'kernel.sched_domain.cpu30.domain1.max_newidle_lb_cost'
p3033
I671985
sS'net.ipv6.conf.default.temp_valid_lft'
p3034
I604800
sS'kernel.sched_domain.cpu0.domain1.newidle_idx'
p3035
I0
sS'kernel.sched_domain.cpu3.domain1.idle_idx'
p3036
I2
sS'CONFIG_ZONE_DMA32'
p3037
S'y'
sS'net.ipv6.neigh.default.app_solicit'
p3038
I0
sS'net.ipv4.tcp_timestamps'
p3039
I1
sS'kernel.sched_domain.cpu5.domain0.busy_idx'
p3040
I2
sS'CONFIG_AUDITSYSCALL'
p3041
S'y'
sS'kernel.sched_domain.cpu35.domain0.flags'
p3042
I4143
sS'kernel.sched_domain.cpu47.domain1.busy_idx'
p3043
I3
sS'CONFIG_GENERIC_CPU_AUTOPROBE'
p3044
S'y'
sS'CONFIG_SCSI_LOGGING'
p3045
S'y'
sS'CONFIG_NR_CPUS'
p3046
I512
sS'CONFIG_ACPI_APEI_PCIEAER'
p3047
S'y'
sS'CONFIG_ARCH_USE_CMPXCHG_LOCKREF'
p3048
S'y'
sS'user.max_user_namespaces'
p3049
I257592
sS'kernel.sched_domain.cpu44.domain0.flags'
p3050
I4143
sS'kernel.sched_domain.cpu44.domain0.busy_idx'
p3051
I2
sS'CONFIG_BIG_KEYS'
p3052
S'y'
sS'kernel.sched_domain.cpu4.domain0.flags'
p3053
I4143
sS'kernel.keys.root_maxkeys'
p3054
I1000000
sS'kernel.sched_domain.cpu25.domain0.busy_idx'
p3055
I2
sS'CONFIG_POSIX_MQUEUE_SYSCTL'
p3056
S'y'
sS'kernel.sched_domain.cpu35.domain1.busy_idx'
p3057
I3
sS'kernel.sched_domain.cpu4.domain0.min_interval'
p3058
I10
sS'net.ipv6.conf.ens3.disable_policy'
p3059
I0
sS'CONFIG_IOMMU_SUPPORT'
p3060
S'y'
sS'kernel.sched_domain.cpu10.domain1.busy_idx'
p3061
I3
sS'net.ipv6.neigh.lo.delay_first_probe_time'
p3062
I5
sS'kernel.sched_domain.cpu36.domain1.name'
p3063
S'NUMA'
p3064
sS'CONFIG_AMD_NUMA'
p3065
S'y'
sS'net.core.somaxconn'
p3066
I128
sS'CONFIG_AMIGA_PARTITION'
p3067
S'y'
sS'CONFIG_CONSOLE_LOGLEVEL_DEFAULT'
p3068
I7
sS'CONFIG_SQUASHFS_LZ4'
p3069
S'y'
sS'kernel.sched_domain.cpu40.domain0.flags'
p3070
I4143
sS'net.ipv6.conf.ens3.accept_ra_pinfo'
p3071
I1
sS'CONFIG_SCSI_CONSTANTS'
p3072
S'y'
sS'CONFIG_CRYPTO_DRBG_CTR'
p3073
S'y'
sS'kernel.sched_domain.cpu17.domain0.max_newidle_lb_cost'
p3074
I598923
sS'CONFIG_CRYPTO_AES'
p3075
S'y'
sS'kernel.sched_domain.cpu19.domain0.imbalance_pct'
p3076
I125
sS'CONFIG_XZ_DEC_SPARC'
p3077
S'y'
sS'CONFIG_SECURITY_SELINUX_DEVELOP'
p3078
S'y'
sS'kernel.sched_domain.cpu28.domain1.wake_idx'
p3079
I0
sS'net.ipv4.conf.lo.mc_forwarding'
p3080
I0
sS'net.ipv6.conf.ens3.autoconf'
p3081
I1
sS'kernel.sched_domain.cpu48.domain0.flags'
p3082
I4143
sS'vm.hugetlb_shm_group'
p3083
I0
sS'CONFIG_X86_TSC'
p3084
S'y'
sS'CONFIG_SECURITY_SELINUX_BOOTPARAM'
p3085
S'y'
sS'net.ipv6.flowlabel_state_ranges'
p3086
I0
sS'kernel.sched_domain.cpu15.domain1.newidle_idx'
p3087
I0
sS'CONFIG_X86_MCE_AMD'
p3088
S'y'
sS'CONFIG_PARAVIRT_CLOCK'
p3089
S'y'
sg3
(lp3090
S'HostInfo'
p3091
ag6
aS'object'
p3092
asS'CONFIG_MICROCODE_AMD'
p3093
S'y'
sS'kernel.sched_domain.cpu25.domain0.idle_idx'
p3094
I1
sS'CONFIG_LIBNVDIMM'
p3095
S'y'
sS'kernel.random.read_wakeup_threshold'
p3096
I64
sS'CONFIG_QUOTA_NETLINK_INTERFACE'
p3097
S'y'
sS'kernel.sched_domain.cpu1.domain0.wake_idx'
p3098
I0
sS'kernel.sched_domain.cpu27.domain0.busy_idx'
p3099
I2
sS'CONFIG_RESET_CONTROLLER'
p3100
S'y'
sS'net.ipv4.tcp_no_metrics_save'
p3101
I0
sS'CONFIG_I2C_HELPER_AUTO'
p3102
S'y'
sS'kernel.sched_domain.cpu38.domain1.cache_nice_tries'
p3103
I2
sS'CONFIG_JBD2'
p3104
S'y'
sS'kernel.sched_domain.cpu1.domain0.forkexec_idx'
p3105
I0
sS'kernel.sched_domain.cpu15.domain0.busy_factor'
p3106
I32
sS'CONFIG_PARTITION_ADVANCED'
p3107
S'y'
sS'CONFIG_EFI_STUB'
p3108
S'y'
sS'net.ipv6.neigh.ens3.mcast_resolicit'
p3109
I0
sS'kernel.sched_domain.cpu35.domain1.busy_factor'
p3110
I32
sS'kernel.sched_domain.cpu37.domain0.busy_factor'
p3111
I32
sS'net.ipv4.conf.all.arp_announce'
p3112
I0
sS'kernel.sched_domain.cpu29.domain1.busy_factor'
p3113
I32
sS'kernel.sched_domain.cpu24.domain1.idle_idx'
p3114
I2
sS'CONFIG_RTC_INTF_DEV'
p3115
S'y'
sS'CONFIG_EXT4_FS_POSIX_ACL'
p3116
S'y'
sS'CONFIG_SRCU'
p3117
S'y'
sS'kernel.sched_domain.cpu46.domain1.busy_factor'
p3118
I32
sS'CONFIG_SND_VMASTER'
p3119
S'y'
sS'CONFIG_INPUT_EVDEV'
p3120
S'y'
sS'net.ipv4.conf.all.arp_ignore'
p3121
I0
sS'kernel.sched_domain.cpu13.domain0.busy_idx'
p3122
I2
sS'kernel.sched_domain.cpu43.domain0.flags'
p3123
I4143
sS'kernel.sched_domain.cpu33.domain0.forkexec_idx'
p3124
I0
sS'CONFIG_SECCOMP_FILTER'
p3125
S'y'
sS'kernel.sched_domain.cpu25.domain1.imbalance_pct'
p3126
I125
sS'kernel.sched_domain.cpu3.domain0.flags'
p3127
I4143
sS'kernel.sched_domain.cpu12.domain1.max_interval'
p3128
I100
sS'CONFIG_SERIO'
p3129
S'y'
sS'net.ipv6.conf.ens3.accept_ra_min_hop_limit'
p3130
I1
sS'CONFIG_HPET_EMULATE_RTC'
p3131
S'y'
sS'kernel.sched_domain.cpu31.domain1.name'
p3132
S'NUMA'
p3133
sS'CONFIG_SERIAL_8250_RUNTIME_UARTS'
p3134
I32
sS'CONFIG_FB_EFI'
p3135
S'y'
sS'CONFIG_MMU_NOTIFIER'
p3136
S'y'
sS'kernel.sched_domain.cpu29.domain0.max_newidle_lb_cost'
p3137
I475385
sS'CONFIG_ACPI_SYSTEM_POWER_STATES_SUPPORT'
p3138
S'y'
sS'CONFIG_SQUASHFS_LZO'
p3139
S'y'
sS'kernel.sched_domain.cpu42.domain1.busy_factor'
p3140
I32
sS'kernel.sched_domain.cpu45.domain0.min_interval'
p3141
I10
sS'CONFIG_SCSI_DH'
p3142
S'y'
sS'kernel.sched_domain.cpu32.domain0.flags'
p3143
I4143
sS'kernel.sched_domain.cpu4.domain1.name'
p3144
S'NUMA'
p3145
sS'kernel.unknown_nmi_panic'
p3146
I0
sS'CONFIG_NVDIMM_PFN'
p3147
S'y'
sS'kernel.sched_domain.cpu39.domain0.idle_idx'
p3148
I1
sS'net.ipv4.conf.all.route_localnet'
p3149
I0
sS'kernel.seccomp.actions_logged'
p3150
S'kill_process kill_thread trap errno trace log'
p3151
sS'kernel.sched_domain.cpu1.domain1.flags'
p3152
I25647
sS'net.ipv6.conf.all.force_mld_version'
p3153
I0
sS'CONFIG_SECURITY_TOMOYO'
p3154
S'y'
sS'CONFIG_MSDOS_PARTITION'
p3155
S'y'
sS'kernel.sched_domain.cpu15.domain1.imbalance_pct'
p3156
I125
sS'CONFIG_SND_MAX_CARDS'
p3157
I32
sS'vm.overcommit_kbytes'
p3158
I0
sS'net.ipv4.conf.all.drop_unicast_in_l2_multicast'
p3159
I0
sS'CONFIG_POWER_SUPPLY'
p3160
S'y'
sS'kernel.sched_domain.cpu2.domain0.cache_nice_tries'
p3161
I1
sS'CONFIG_DECOMPRESS_LZMA'
p3162
S'y'
sS'net.ipv6.conf.all.ndisc_notify'
p3163
I0
sS'kernel.sched_domain.cpu7.domain0.max_interval'
p3164
I20
sS'CONFIG_CALGARY_IOMMU'
p3165
S'y'
sS'net.ipv4.neigh.lo.unres_qlen'
p3166
I101
sS'kernel.sched_domain.cpu38.domain1.max_interval'
p3167
I100
sS'CONFIG_IO_DELAY_TYPE_0X80'
p3168
I0
sS'CONFIG_SND_JACK'
p3169
S'y'
sS'CONFIG_DYNAMIC_DEBUG'
p3170
S'y'
sS'CONFIG_CRYPTO_HW'
p3171
S'y'
sS'kernel.printk_ratelimit_burst'
p3172
I10
sS'CONFIG_CRYPTO_SEQIV'
p3173
S'y'
sS'CONFIG_NET_VENDOR_OKI'
p3174
S'y'
sS'kernel.sched_domain.cpu3.domain0.busy_factor'
p3175
I32
sS'fs.nr_open'
p3176
I1048576
sS'CONFIG_DECOMPRESS_GZIP'
p3177
S'y'
sS'net.ipv6.conf.lo.accept_ra_mtu'
p3178
I1
sS'kernel.sched_domain.cpu16.domain0.flags'
p3179
I4143
sS'CONFIG_RAID6_PQ'
p3180
S'm'
sS'CONFIG_CFQ_GROUP_IOSCHED'
p3181
S'y'
sS'CONFIG_HAVE_ARCH_MMAP_RND_BITS'
p3182
S'y'
sS'fs.quota.reads'
p3183
I0
sS'kernel.sched_domain.cpu5.domain1.newidle_idx'
p3184
I0
sS'kernel.numa_balancing_scan_size_mb'
p3185
I256
sS'CONFIG_OID_REGISTRY'
p3186
S'y'
sS'net.ipv4.conf.lo.shared_media'
p3187
I1
sS'CONFIG_NLS'
p3188
S'y'
sS'kernel.sched_domain.cpu22.domain0.max_interval'
p3189
I20
sS'kernel.sched_domain.cpu39.domain1.max_interval'
p3190
I100
sS'CONFIG_NODES_SHIFT'
p3191
I6
sS'CONFIG_ARCH_HAS_STRICT_MODULE_RWX'
p3192
S'y'
sS'net.ipv6.conf.lo.regen_max_retry'
p3193
I3
sS'kernel.sched_domain.cpu45.domain1.max_newidle_lb_cost'
p3194
I528919
sS'CONFIG_ATA'
p3195
S'y'
sS'CONFIG_CGROUP_FREEZER'
p3196
S'y'
sS'CONFIG_NET_VENDOR_CHELSIO'
p3197
S'y'
sS'CONFIG_FRAMEBUFFER_CONSOLE_DETECT_PRIMARY'
p3198
S'y'
sS'CONFIG_ASN1'
p3199
S'y'
sS'kernel.sched_domain.cpu24.domain1.max_interval'
p3200
I100
sS'CONFIG_PCIEASPM'
p3201
S'y'
sS'kernel.sched_domain.cpu46.domain0.busy_factor'
p3202
I32
sS'CONFIG_PARPORT'
p3203
S'm'
sS'CONFIG_CROSS_MEMORY_ATTACH'
p3204
S'y'
sS'CONFIG_COMPACTION'
p3205
S'y'
sS'kernel.io_delay_type'
p3206
I1
sS'CONFIG_HAVE_KRETPROBES'
p3207
S'y'
sS'CONFIG_MPLS'
p3208
S'y'
sS'kernel.sched_domain.cpu30.domain0.max_interval'
p3209
I20
sS'CONFIG_CPU_IDLE_GOV_LADDER'
p3210
S'y'
sS'CONFIG_UNISYSSPAR'
p3211
S'y'
sS'CONFIG_X86_EXTENDED_PLATFORM'
p3212
S'y'
sS'net.ipv6.conf.all.autoconf'
p3213
I1
sS'CONFIG_CRC16'
p3214
S'y'
sS'CONFIG_CPU_FREQ_GOV_ONDEMAND'
p3215
S'y'
sS'CONFIG_CROSS_COMPILE'
p3216
S'""'
p3217
sS'CONFIG_ARCH_HAS_SET_MEMORY'
p3218
S'y'
sS'CONFIG_SYSCTL_SYSCALL'
p3219
S'y'
sS'kernel.sched_domain.cpu48.domain0.idle_idx'
p3220
I1
sS'net.ipv4.neigh.ens3.mcast_solicit'
p3221
I3
sS'CONFIG_PRINTK_SAFE_LOG_BUF_SHIFT'
p3222
I13
sS'CONFIG_NET_RX_BUSY_POLL'
p3223
S'y'
sS'CONFIG_GENERIC_TIME_VSYSCALL'
p3224
S'y'
sS'CONFIG_HARDLOCKUP_DETECTOR_PERF'
p3225
S'y'
sS'CONFIG_USB_PHY'
p3226
S'y'
sS'CONFIG_LDM_PARTITION'
p3227
S'y'
sS'CONFIG_FUNCTION_PROFILER'
p3228
S'y'
sS'kernel.sched_domain.cpu14.domain0.max_newidle_lb_cost'
p3229
I480043
sS'kernel.sched_domain.cpu32.domain0.forkexec_idx'
p3230
I0
sS'CONFIG_RCU_NEED_SEGCBLIST'
p3231
S'y'
sS'kernel.sched_domain.cpu3.domain1.name'
p3232
S'NUMA'
p3233
sS'kernel.sched_domain.cpu38.domain0.wake_idx'
p3234
I0
sS'CONFIG_MULTIUSER'
p3235
S'y'
sS'net.ipv4.tcp_wmem'
p3236
S'4096\t16384\t4194304'
p3237
sS'kernel.sched_domain.cpu9.domain1.idle_idx'
p3238
I2
sS'CONFIG_VMAP_STACK'
p3239
S'y'
sS'kernel.sched_nr_migrate'
p3240
I32
sS'CONFIG_HAVE_KVM_MSI'
p3241
S'y'
sS'CONFIG_X86_PMEM_LEGACY'
p3242
S'y'
sS'kernel.sched_domain.cpu13.domain0.wake_idx'
p3243
I0
sS'kernel.sched_domain.cpu1.domain1.busy_idx'
p3244
I3
sS'kernel.sched_domain.cpu39.domain0.max_newidle_lb_cost'
p3245
I566743
sS'kernel.keys.root_maxbytes'
p3246
I25000000
sS'kernel.sched_domain.cpu25.domain0.max_newidle_lb_cost'
p3247
I644145
sS'CONFIG_NET_VENDOR_BROADCOM'
p3248
S'y'
sS'kernel.sched_domain.cpu24.domain0.min_interval'
p3249
I10
sS'CONFIG_PCIEAER'
p3250
S'y'
sS'net.ipv4.conf.ens3.bootp_relay'
p3251
I0
sS'CONFIG_MICROCODE_OLD_INTERFACE'
p3252
S'y'
sS'kernel.cap_last_cap'
p3253
I37
sS'kernel.sched_domain.cpu17.domain1.flags'
p3254
I25647
sS'CONFIG_ARCH_SUPPORTS_MEMORY_FAILURE'
p3255
S'y'
sS'CONFIG_TCP_MD5SIG'
p3256
S'y'
sS'CONFIG_ARCH_USE_QUEUED_RWLOCKS'
p3257
S'y'
sS'CONFIG_PNPACPI'
p3258
S'y'
sS'vm.nr_pdflush_threads'
p3259
I0
sS'net.ipv4.tcp_available_congestion_control'
p3260
S'cubic reno'
p3261
sS'kernel.sched_domain.cpu8.domain0.newidle_idx'
p3262
I0
sS'kernel.sched_domain.cpu13.domain1.cache_nice_tries'
p3263
I2
sS'kernel.sched_domain.cpu18.domain0.max_newidle_lb_cost'
p3264
I583114
sS'CONFIG_CRYPTO_CRC32C_INTEL'
p3265
S'y'
sS'CONFIG_ACPI_BATTERY'
p3266
S'y'
sS'kernel.sched_domain.cpu20.domain1.wake_idx'
p3267
I0
sS'CONFIG_ACPI_PROCESSOR_IDLE'
p3268
S'y'
sS'kernel.sched_domain.cpu13.domain0.flags'
p3269
I4143
sS'kernel.printk'
p3270
S'4\t4\t1\t7'
p3271
sS'CONFIG_PID_NS'
p3272
S'y'
sS'CONFIG_NETFILTER'
p3273
S'y'
sS'user.max_inotify_instances'
p3274
I1024
sS'CONFIG_ACPI_CPPC_LIB'
p3275
S'y'
sS'CONFIG_ACPI_AC'
p3276
S'y'
sS'kernel.sched_domain.cpu34.domain1.wake_idx'
p3277
I0
sS'CONFIG_BINFMT_SCRIPT'
p3278
S'y'
sS'CONFIG_TMPFS_POSIX_ACL'
p3279
S'y'
sS'net.ipv6.conf.default.max_desync_factor'
p3280
I600
sS'CONFIG_DEFAULT_DEADLINE'
p3281
S'y'
sS'CONFIG_MFD_SEC_CORE'
p3282
S'y'
sS'kernel.sched_domain.cpu10.domain1.min_interval'
p3283
I50
sS'CONFIG_NET_VENDOR_QUALCOMM'
p3284
S'y'
sS'kernel.sched_domain.cpu46.domain0.max_interval'
p3285
I20
sS'net.ipv4.igmp_max_memberships'
p3286
I20
sS'CONFIG_X86_REROUTE_FOR_BROKEN_BOOT_IRQS'
p3287
S'y'
sS'kernel.sched_domain.cpu18.domain1.max_interval'
p3288
I100
sS'kernel.sched_domain.cpu39.domain1.imbalance_pct'
p3289
I125
sS'net.ipv6.conf.lo.router_solicitation_interval'
p3290
I4
sS'CONFIG_MODULE_SIG_HASH'
p3291
S'"sha512"'
p3292
sS'net.ipv6.conf.lo.accept_ra_defrtr'
p3293
I1
sS'CONFIG_SOCK_CGROUP_DATA'
p3294
S'y'
sS'debug.exception-trace'
p3295
I1
sS'CONFIG_ACPI_NUMA'
p3296
S'y'
sS'CONFIG_SECURITY_SELINUX_AVC_STATS'
p3297
S'y'
sS'net.ipv4.udp_l3mdev_accept'
p3298
I0
sS'CONFIG_IMA_MEASURE_PCR_IDX'
p3299
I10
sS'CONFIG_MODULE_SRCVERSION_ALL'
p3300
S'y'
sS'CONFIG_X86'
p3301
S'y'
sS'CONFIG_CRC_T10DIF'
p3302
S'y'
sS'CONFIG_X86_MCE_THRESHOLD'
p3303
S'y'
sS'net.ipv6.neigh.lo.locktime'
p3304
I0
sS'kernel.sched_domain.cpu47.domain0.min_interval'
p3305
I10
sS'kernel.unprivileged_bpf_disabled'
p3306
I0
sS'CONFIG_NET_VENDOR_DLINK'
p3307
S'y'
sS'net.ipv6.conf.all.router_solicitation_delay'
p3308
I1
sS'CONFIG_EARLY_PRINTK_DBGP'
p3309
S'y'
sS'kernel.sched_domain.cpu35.domain1.max_interval'
p3310
I100
sS'kernel.sched_domain.cpu18.domain0.max_interval'
p3311
I20
sS'CONFIG_TREE_SRCU'
p3312
S'y'
sS'net.ipv4.tcp_rmem'
p3313
S'4096\t87380\t6291456'
p3314
sS'CONFIG_PCI_IOV'
p3315
S'y'
sS'CONFIG_ATA_PIIX'
p3316
S'y'
sS'kernel.sched_domain.cpu20.domain1.flags'
p3317
I25647
sS'CONFIG_CRYPTO_GF128MUL'
p3318
S'y'
sS'kernel.sched_domain.cpu1.domain0.max_newidle_lb_cost'
p3319
I863050
sS'kernel.sched_domain.cpu10.domain1.cache_nice_tries'
p3320
I2
sS'CONFIG_IP_ROUTE_VERBOSE'
p3321
S'y'
sS'kernel.sched_domain.cpu31.domain1.busy_idx'
p3322
I3
sS'CONFIG_SND_HDA_INPUT_BEEP'
p3323
S'y'
sS'fs.epoll.max_user_watches'
p3324
I13505269
sS'CONFIG_SERIAL_8250'
p3325
S'y'
sS'CONFIG_CRYPTO_BLKCIPHER'
p3326
S'y'
sS'net.ipv6.conf.default.temp_prefered_lft'
p3327
I86400
sS'kernel.sched_domain.cpu32.domain0.min_interval'
p3328
I10
sS'CONFIG_IP_NF_IPTABLES'
p3329
S'm'
sS'kernel.sched_domain.cpu49.domain1.cache_nice_tries'
p3330
I2
sS'kernel.sched_domain.cpu1.domain1.cache_nice_tries'
p3331
I2
sS'kernel.sched_domain.cpu17.domain1.busy_idx'
p3332
I3
sS'kernel.sched_domain.cpu36.domain0.wake_idx'
p3333
I0
sS'CONFIG_SND_X86'
p3334
S'y'
sS'kernel.sched_domain.cpu37.domain0.wake_idx'
p3335
I0
sS'kernel.sched_domain.cpu29.domain0.flags'
p3336
I4143
sS'kernel.pty.nr'
p3337
I0
sS'kernel.sched_domain.cpu29.domain1.newidle_idx'
p3338
I0
sS'net.ipv6.conf.lo.accept_dad'
p3339
S'-1'
p3340
sS'net.ipv6.conf.ens3.router_solicitation_delay'
p3341
I1
sS'net.ipv6.conf.lo.mldv1_unsolicited_report_interval'
p3342
I10000
sS'kernel.sched_domain.cpu9.domain1.name'
p3343
S'NUMA'
p3344
sS'net.ipv4.ip_forward_use_pmtu'
p3345
I0
sS'kernel.sched_domain.cpu32.domain0.busy_idx'
p3346
I2
sS'net.ipv6.conf.ens3.router_solicitation_max_interval'
p3347
I3600
sS'kernel.sched_domain.cpu8.domain0.imbalance_pct'
p3348
I125
sS'net.ipv4.tcp_base_mss'
p3349
I1024
sS'CONFIG_HAVE_PERF_EVENTS_NMI'
p3350
S'y'
sS'kernel.sched_domain.cpu41.domain0.flags'
p3351
I4143
sS'CONFIG_MFD_WM8350'
p3352
S'y'
sS'net.ipv6.conf.all.accept_ra_mtu'
p3353
I1
sS'kernel.sched_domain.cpu10.domain1.name'
p3354
S'NUMA'
p3355
sS'kernel.sched_domain.cpu46.domain1.min_interval'
p3356
I50
sS'kernel.sched_domain.cpu37.domain0.max_interval'
p3357
I20
sS'kernel.sched_domain.cpu9.domain0.max_interval'
p3358
I20
sS'CONFIG_FS_DAX'
p3359
S'y'
sS'kernel.sched_domain.cpu14.domain1.imbalance_pct'
p3360
I125
sS'kernel.sched_domain.cpu21.domain0.min_interval'
p3361
I10
sS'kernel.sched_domain.cpu43.domain1.wake_idx'
p3362
I0
sS'kernel.sched_domain.cpu48.domain1.idle_idx'
p3363
I2
sS'CONFIG_MFD_TPS65912'
p3364
S'y'
sS'kernel.sched_domain.cpu13.domain0.newidle_idx'
p3365
I0
sS'net.ipv6.neigh.lo.ucast_solicit'
p3366
I3
sS'kernel.sched_domain.cpu16.domain1.idle_idx'
p3367
I2
sS'kernel.core_uses_pid'
p3368
I0
sS'net.ipv6.conf.lo.drop_unicast_in_l2_multicast'
p3369
I0
sS'CONFIG_NET_FC'
p3370
S'y'
sS'net.ipv6.conf.default.router_solicitation_delay'
p3371
I1
sS'kernel.sched_domain.cpu24.domain1.imbalance_pct'
p3372
I125
sS'CONFIG_PCI_LOCKLESS_CONFIG'
p3373
S'y'
sS'kernel.sched_domain.cpu42.domain1.forkexec_idx'
p3374
I0
sS'CONFIG_UEVENT_HELPER_PATH'
p3375
S'""'
p3376
sS'net.ipv6.neigh.ens3.anycast_delay'
p3377
I100
sS'net.ipv6.neigh.default.proxy_qlen'
p3378
I64
sS'net.ipv4.conf.lo.drop_gratuitous_arp'
p3379
I0
sS'kernel.sched_domain.cpu4.domain1.newidle_idx'
p3380
I0
sS'net.ipv6.conf.ens3.mldv1_unsolicited_report_interval'
p3381
I10000
sS'net.ipv4.conf.lo.ignore_routes_with_linkdown'
p3382
I0
sS'CONFIG_NET_CORE'
p3383
S'y'
sS'kernel.panic_on_unrecovered_nmi'
p3384
I0
sS'kernel.sched_domain.cpu38.domain1.idle_idx'
p3385
I2
sS'net.ipv6.conf.default.keep_addr_on_down'
p3386
I0
sS'kernel.sched_domain.cpu4.domain0.max_newidle_lb_cost'
p3387
I749897
sS'kernel.sched_domain.cpu37.domain0.name'
p3388
S'DIE'
p3389
sS'kernel.sched_domain.cpu26.domain1.forkexec_idx'
p3390
I0
sS'kernel.sched_domain.cpu35.domain0.forkexec_idx'
p3391
I0
sS'CONFIG_NOP_TRACER'
p3392
S'y'
sS'CONFIG_FUNCTION_TRACER'
p3393
S'y'
sS'net.ipv4.tcp_stdurg'
p3394
I0
sS'CONFIG_CPU_FREQ_STAT'
p3395
S'y'
sS'net.ipv4.neigh.ens3.locktime'
p3396
I100
sS'net.ipv4.ipfrag_high_thresh'
p3397
I4194304
sS'net.ipv4.tcp_fwmark_accept'
p3398
I0
sS'net.ipv6.neigh.lo.unres_qlen_bytes'
p3399
I212992
sS'CONFIG_POSIX_TIMERS'
p3400
S'y'
sS'CONFIG_LWTUNNEL_BPF'
p3401
S'y'
sS'kernel.sched_domain.cpu12.domain1.cache_nice_tries'
p3402
I2
sS'net.ipv4.conf.default.disable_xfrm'
p3403
I0
sS'kernel.sched_domain.cpu13.domain0.imbalance_pct'
p3404
I125
sS'CONFIG_PHYSICAL_START'
p3405
S'0x1000000'
p3406
sS'CONFIG_COMPAT_OLD_SIGACTION'
p3407
S'y'
sS'net.ipv6.conf.lo.router_probe_interval'
p3408
I60
sS'kernel.sched_domain.cpu33.domain0.flags'
p3409
I4143
sS'kernel.sched_domain.cpu42.domain0.forkexec_idx'
p3410
I0
sS'kernel.sched_domain.cpu23.domain1.busy_idx'
p3411
I3
sS'net.ipv6.conf.ens3.max_addresses'
p3412
I16
sS'kernel.sched_domain.cpu25.domain1.cache_nice_tries'
p3413
I2
sS'CONFIG_SPARSEMEM_EXTREME'
p3414
S'y'
sS'kernel.sched_domain.cpu47.domain0.max_newidle_lb_cost'
p3415
I579028
sS'net.ipv4.conf.all.accept_source_route'
p3416
I0
sS'CONFIG_I2C'
p3417
S'y'
sS'CONFIG_X86_PAT'
p3418
S'y'
sS'CONFIG_GENERIC_HWEIGHT'
p3419
S'y'
sS'kernel.sched_domain.cpu6.domain0.max_interval'
p3420
I20
sS'CONFIG_X86_CHECK_BIOS_CORRUPTION'
p3421
S'y'
sS'kernel.sched_domain.cpu41.domain1.busy_factor'
p3422
I32
sS'kernel.sched_domain.cpu24.domain1.wake_idx'
p3423
I0
sS'CONFIG_ARCH_HAS_SG_CHAIN'
p3424
S'y'
sS'kernel.sched_domain.cpu49.domain1.forkexec_idx'
p3425
I0
sS'kernel.sched_domain.cpu26.domain0.max_newidle_lb_cost'
p3426
I23966220
sS'kernel.sched_domain.cpu39.domain0.busy_factor'
p3427
I32
sS'net.ipv4.tcp_l3mdev_accept'
p3428
I0
sS'CONFIG_RT_MUTEXES'
p3429
S'y'
sS'net.core.rmem_default'
p3430
I212992
sS'vm.min_unmapped_ratio'
p3431
I1
sS'CONFIG_RFKILL_LEDS'
p3432
S'y'
sS'CONFIG_ARCH_USES_HIGH_VMA_FLAGS'
p3433
S'y'
sS'kernel.sched_domain.cpu30.domain0.name'
p3434
S'DIE'
p3435
sS'kernel.sched_domain.cpu44.domain0.cache_nice_tries'
p3436
I1
sS'net.ipv4.conf.lo.drop_unicast_in_l2_multicast'
p3437
I0
sS'CONFIG_THIN_ARCHIVES'
p3438
S'y'
sS'kernel.sched_domain.cpu24.domain1.name'
p3439
S'NUMA'
p3440
sS'net.ipv6.conf.all.regen_max_retry'
p3441
I3
sS'net.ipv6.conf.all.accept_ra_defrtr'
p3442
I1
sS'kernel.numa_balancing_scan_delay_ms'
p3443
I1000
sS'kernel.sched_domain.cpu47.domain1.forkexec_idx'
p3444
I0
sS'net.ipv4.conf.all.arp_notify'
p3445
I0
sS'CONFIG_ARCH_DISCARD_MEMBLOCK'
p3446
S'y'
sS'CONFIG_VIRTIO_PCI'
p3447
S'y'
sS'kernel.kexec_load_disabled'
p3448
I0
sS'kernel.sched_domain.cpu0.domain1.busy_idx'
p3449
I3
sS'CONFIG_LEDS_TRIGGERS'
p3450
S'y'
sS'CONFIG_X86_64'
p3451
S'y'
sS'net.ipv6.conf.default.suppress_frag_ndisc'
p3452
I1
sS'CONFIG_CRYPTO_MANAGER2'
p3453
S'y'
sS'CONFIG_USB_ARCH_HAS_HCD'
p3454
S'y'
sS'fs.file-nr'
p3455
S'1832\t0\t6578986'
p3456
sS'CONFIG_OPROFILE_NMI_TIMER'
p3457
S'y'
sS'fs.quota.cache_hits'
p3458
I0
sS'CONFIG_X86_SMAP'
p3459
S'y'
sS'kernel.sched_domain.cpu42.domain1.flags'
p3460
I25647
sS'CONFIG_SLUB_CPU_PARTIAL'
p3461
S'y'
sS'kernel.sched_domain.cpu10.domain0.max_interval'
p3462
I20
sS'CONFIG_HAVE_MEMBLOCK_NODE_MAP'
p3463
S'y'
sS'kernel.sched_domain.cpu27.domain1.wake_idx'
p3464
I0
sS'CONFIG_CRYPTO_AEAD'
p3465
S'y'
sS'kernel.sched_domain.cpu34.domain1.idle_idx'
p3466
I2
sS'kernel.sched_domain.cpu38.domain1.newidle_idx'
p3467
I0
sS'kernel.sched_domain.cpu12.domain0.newidle_idx'
p3468
I0
sS'kernel.sched_domain.cpu44.domain0.idle_idx'
p3469
I1
sS'CONFIG_ARCH_MAY_HAVE_PC_FDC'
p3470
S'y'
sS'kernel.sched_domain.cpu23.domain1.name'
p3471
S'NUMA'
p3472
sS'net.ipv6.neigh.default.mcast_resolicit'
p3473
I0
sS'kernel.tainted'
p3474
I0
sS'kernel.sched_domain.cpu22.domain0.newidle_idx'
p3475
I0
sS'kernel.sched_domain.cpu8.domain1.flags'
p3476
I25647
sS'CONFIG_REGULATOR_TPS65217'
p3477
S'y'
sS'CONFIG_HIBERNATE_CALLBACKS'
p3478
S'y'
sS'CONFIG_CLKBLD_I8253'
p3479
S'y'
sS'CONFIG_IPV6_SUBTREES'
p3480
S'y'
sS'kernel.sched_domain.cpu4.domain0.wake_idx'
p3481
I0
sS'kernel.sched_latency_ns'
p3482
I24000000
sS'kernel.sched_domain.cpu13.domain0.min_interval'
p3483
I10
sS'CONFIG_NAMESPACES'
p3484
S'y'
sS'CONFIG_BPF_JIT'
p3485
S'y'
sS'CONFIG_DEFAULT_CUBIC'
p3486
S'y'
sS'kernel.sched_domain.cpu29.domain1.max_interval'
p3487
I100
sS'kernel.numa_balancing'
p3488
I1
sS'kernel.hardlockup_panic'
p3489
I0
sS'CONFIG_MFD_TPS65912_SPI'
p3490
S'y'
sS'CONFIG_PROC_CHILDREN'
p3491
S'y'
sS'CONFIG_PHYS_ADDR_T_64BIT'
p3492
S'y'
sS'CONFIG_HPET_TIMER'
p3493
S'y'
sS'net.ipv6.conf.all.accept_ra_rt_info_min_plen'
p3494
I0
sS'CONFIG_GENERIC_PENDING_IRQ'
p3495
S'y'
sS'net.ipv4.neigh.ens3.ucast_solicit'
p3496
I3
sS'CONFIG_KDB_CONTINUE_CATASTROPHIC'
p3497
I0
sS'kernel.sched_domain.cpu34.domain1.newidle_idx'
p3498
I0
sS'CONFIG_FB_BOOT_VESA_SUPPORT'
p3499
S'y'
sS'kernel.perf_event_max_contexts_per_stack'
p3500
I8
sS'CONFIG_DYNAMIC_FTRACE'
p3501
S'y'
sS'net.ipv6.conf.ens3.dad_transmits'
p3502
I1
sS'kernel.sched_domain.cpu45.domain0.name'
p3503
S'DIE'
p3504
sS'kernel.sched_domain.cpu10.domain0.flags'
p3505
I4143
sS'net.ipv6.conf.lo.mtu'
p3506
I65536
sS'net.ipv6.conf.all.disable_ipv6'
p3507
I0
sS'net.ipv6.conf.ens3.router_solicitations'
p3508
S'-1'
p3509
sS'kernel.sched_domain.cpu29.domain1.forkexec_idx'
p3510
I0
sS'net.ipv6.conf.lo.keep_addr_on_down'
p3511
I0
sS'CONFIG_USB_EHCI_PCI'
p3512
S'y'
sS'CONFIG_KVM_ASYNC_PF'
p3513
S'y'
sS'CONFIG_IP_MULTIPLE_TABLES'
p3514
S'y'
sS'net.ipv6.ip6frag_time'
p3515
I60
sS'CONFIG_EFIVAR_FS'
p3516
S'y'
sS'fs.aio-max-nr'
p3517
I65536
sS'CONFIG_ARCH_SUPPORTS_INT128'
p3518
S'y'
sS'kernel.sched_domain.cpu33.domain0.imbalance_pct'
p3519
I125
sS'kernel.sched_domain.cpu43.domain1.idle_idx'
p3520
I2
sS'CONFIG_SECURITY'
p3521
S'y'
sS'CONFIG_SPI'
p3522
S'y'
sS'net.ipv4.tcp_orphan_retries'
p3523
I0
sS'net.ipv4.tcp_fin_timeout'
p3524
I60
sS'CONFIG_IDLE_PAGE_TRACKING'
p3525
S'y'
sS'CONFIG_CRYPTO_CRYPTD'
p3526
S'm'
sS'CONFIG_DEVPORT'
p3527
S'y'
sS'kernel.sched_domain.cpu21.domain1.busy_idx'
p3528
I3
sS'CONFIG_MODULE_SIG'
p3529
S'y'
sS'CONFIG_HAS_IOMEM'
p3530
S'y'
sS'kernel.sched_domain.cpu28.domain1.imbalance_pct'
p3531
I125
sS'kernel.sched_domain.cpu47.domain0.idle_idx'
p3532
I1
sS'CONFIG_ARCH_PROC_KCORE_TEXT'
p3533
S'y'
sS'CONFIG_SPARSEMEM_VMEMMAP_ENABLE'
p3534
S'y'
sS'net.ipv6.conf.default.disable_policy'
p3535
I0
sS'kernel.sched_domain.cpu24.domain0.busy_factor'
p3536
I32
sS'CONFIG_NET_CADENCE'
p3537
S'y'
sS'kernel.sched_domain.cpu9.domain1.busy_factor'
p3538
I32
sS'kernel.sched_domain.cpu25.domain1.min_interval'
p3539
I50
sS'kernel.sched_domain.cpu12.domain0.max_newidle_lb_cost'
p3540
I67253022
sS'kernel.sched_domain.cpu39.domain0.forkexec_idx'
p3541
I0
sS'net.ipv4.tcp_autocorking'
p3542
I1
sS'net.ipv6.conf.ens3.forwarding'
p3543
I0
sS'CONFIG_NET_VENDOR_MYRI'
p3544
S'y'
sS'CONFIG_ARCH_SUPPORTS_NUMA_BALANCING'
p3545
S'y'
sS'kernel.sched_domain.cpu24.domain0.flags'
p3546
I4143
sS'net.ipv4.neigh.ens3.anycast_delay'
p3547
I100
sS'CONFIG_SND_PCM'
p3548
S'm'
sS'net.ipv6.conf.default.mldv1_unsolicited_report_interval'
p3549
I10000
sS'kernel.sched_domain.cpu29.domain0.idle_idx'
p3550
I1
sS'kernel.sched_domain.cpu36.domain1.newidle_idx'
p3551
I0
sS'CONFIG_ARCH_HAS_STRICT_KERNEL_RWX'
p3552
S'y'
sS'kernel.sched_domain.cpu39.domain1.name'
p3553
S'NUMA'
p3554
sS'CONFIG_TWL6040_CORE'
p3555
S'y'
sS'net.ipv4.tcp_sack'
p3556
I1
sS'kernel.sched_domain.cpu45.domain1.newidle_idx'
p3557
I0
sS'CONFIG_BLK_DEV_MD'
p3558
S'y'
sS'kernel.sched_domain.cpu9.domain0.min_interval'
p3559
I10
sS'net.ipv6.conf.ens3.mtu'
p3560
I1500
sS'CONFIG_IOMMU_HELPER'
p3561
S'y'
sS'kernel.ns_last_pid'
p3562
I106919
sS'kernel.sched_domain.cpu29.domain0.forkexec_idx'
p3563
I0
sS'kernel.sched_domain.cpu31.domain1.wake_idx'
p3564
I0
sS'CONFIG_RWSEM_XCHGADD_ALGORITHM'
p3565
S'y'
sS'CONFIG_HAVE_KERNEL_GZIP'
p3566
S'y'
sS'net.ipv4.route.redirect_load'
p3567
I5
sS'vm.overcommit_ratio'
p3568
I50
sS'CONFIG_MFD_TPS65217'
p3569
S'y'
sS'kernel.sched_domain.cpu8.domain1.idle_idx'
p3570
I2
sS'kernel.sched_domain.cpu16.domain0.wake_idx'
p3571
I0
sS'CONFIG_ENCRYPTED_KEYS'
p3572
S'y'
sS'kernel.sched_domain.cpu11.domain0.name'
p3573
S'DIE'
p3574
sS'kernel.sched_domain.cpu34.domain0.max_interval'
p3575
I20
sS'net.ipv6.neigh.ens3.retrans_time_ms'
p3576
I1000
sS'CONFIG_ACPI_PROCESSOR_CSTATE'
p3577
S'y'
sS'CONFIG_BLK_DEBUG_FS'
p3578
S'y'
sS'CONFIG_IPV6_PIMSM_V2'
p3579
S'y'
sS'CONFIG_INITRAMFS_SOURCE'
p3580
S'""'
p3581
sS'kernel.sched_domain.cpu10.domain0.cache_nice_tries'
p3582
I1
sS'CONFIG_NET_VENDOR_TI'
p3583
S'y'
sS'kernel.sched_domain.cpu46.domain0.min_interval'
p3584
I10
sS'CONFIG_HPET_MMAP_DEFAULT'
p3585
S'y'
sS'CONFIG_PROCESSOR_SELECT'
p3586
S'y'
sS'CONFIG_MQ_IOSCHED_KYBER'
p3587
S'y'
sS'user.max_cgroup_namespaces'
p3588
I257592
sS'dev.scsi.logging_level'
p3589
I0
sS'CONFIG_SLHC'
p3590
S'y'
sS'CONFIG_PREVENT_FIRMWARE_BUILD'
p3591
S'y'
sS'net.ipv4.conf.default.accept_redirects'
p3592
I1
sS'CONFIG_PWM_CRC'
p3593
S'y'
sS'CONFIG_ARCH_MMAP_RND_COMPAT_BITS_MIN'
p3594
I8
sS'kernel.hung_task_panic'
p3595
I0
sS'net.ipv4.tcp_retrans_collapse'
p3596
I1
sS'CONFIG_HAVE_KPROBES_ON_FTRACE'
p3597
S'y'
sS'fs.quota.writes'
p3598
I0
sS'CONFIG_ARCH_WANT_HUGE_PMD_SHARE'
p3599
S'y'
sS'kernel.sched_domain.cpu36.domain0.busy_idx'
p3600
I2
sS'CONFIG_PROC_VMCORE'
p3601
S'y'
sS'CONFIG_ARCH_MIGHT_HAVE_PC_PARPORT'
p3602
S'y'
sS'kernel.sched_domain.cpu7.domain0.wake_idx'
p3603
I0
sS'net.ipv6.conf.default.accept_ra_rt_info_max_plen'
p3604
I0
sS'CONFIG_ARCH_SUPPORTS_UPROBES'
p3605
S'y'
sS'CONFIG_FB_CFB_COPYAREA'
p3606
S'y'
sS'CONFIG_GENERIC_NET_UTILS'
p3607
S'y'
sS'CONFIG_SLAB_MERGE_DEFAULT'
p3608
S'y'
sS'kernel.sched_domain.cpu5.domain1.imbalance_pct'
p3609
I125
sS'CONFIG_MODULES'
p3610
S'y'
sS'CONFIG_PCI_DOMAINS'
p3611
S'y'
sS'kernel.sched_domain.cpu41.domain1.forkexec_idx'
p3612
I0
sS'CONFIG_HAVE_MMIOTRACE_SUPPORT'
p3613
S'y'
sS'CONFIG_WLAN_VENDOR_TI'
p3614
S'y'
sS'CONFIG_SND'
p3615
S'm'
sS'CONFIG_ARCH_CLOCKSOURCE_DATA'
p3616
S'y'
sS'kernel.sched_domain.cpu9.domain0.max_newidle_lb_cost'
p3617
I610219
sS'kernel.sched_domain.cpu39.domain1.busy_idx'
p3618
I3
sS'vm.dirty_background_bytes'
p3619
I0
sS'CONFIG_ARCH_SUSPEND_POSSIBLE'
p3620
S'y'
sS'kernel.hardlockup_all_cpu_backtrace'
p3621
I0
sS'kernel.sched_domain.cpu34.domain0.newidle_idx'
p3622
I0
sS'net.ipv6.conf.ens3.accept_source_route'
p3623
I0
sS'net.ipv6.conf.default.router_solicitation_max_interval'
p3624
I3600
sS'kernel.sched_domain.cpu31.domain1.forkexec_idx'
p3625
I0
sS'CONFIG_FRONTSWAP'
p3626
S'y'
sS'CONFIG_NET_VENDOR_EMULEX'
p3627
S'y'
sS'kernel.watchdog'
p3628
I1
sS'kernel.sched_domain.cpu40.domain0.max_newidle_lb_cost'
p3629
I530717
sS'kernel.sched_domain.cpu48.domain1.imbalance_pct'
p3630
I125
sS'CONFIG_HYPERVISOR_GUEST'
p3631
S'y'
sS'CONFIG_GART_IOMMU'
p3632
S'y'
sS'net.ipv6.conf.all.suppress_frag_ndisc'
p3633
I1
sS'kernel.sched_domain.cpu2.domain1.newidle_idx'
p3634
I0
sS'kernel.sched_domain.cpu19.domain1.imbalance_pct'
p3635
I125
sS'net.ipv6.conf.ens3.max_desync_factor'
p3636
I600
sS'net.ipv4.icmp_ratelimit'
p3637
I1000
sS'CONFIG_ALLOW_DEV_COREDUMP'
p3638
S'y'
sS'CONFIG_X86_PCC_CPUFREQ'
p3639
S'y'
sS'net.ipv4.neigh.lo.app_solicit'
p3640
I0
sS'kernel.sched_domain.cpu48.domain0.busy_factor'
p3641
I32
sS'CONFIG_ARCH_USES_PG_UNCACHED'
p3642
S'y'
sS'kernel.sched_domain.cpu46.domain1.imbalance_pct'
p3643
I125
sS'CONFIG_IMA_DEFAULT_HASH_SHA1'
p3644
S'y'
sS'kernel.sched_domain.cpu26.domain1.wake_idx'
p3645
I0
sS'net.ipv6.conf.all.use_oif_addrs_only'
p3646
I0
sS'kernel.sched_tunable_scaling'
p3647
I1
sS'CONFIG_RD_LZMA'
p3648
S'y'
sS'kernel.sched_domain.cpu11.domain0.wake_idx'
p3649
I0
sS'CONFIG_PCI_REALLOC_ENABLE_AUTO'
p3650
S'y'
sS'net.ipv6.conf.lo.mc_forwarding'
p3651
I0
sS'CONFIG_WLAN_VENDOR_ATH'
p3652
S'y'
sS'kernel.sched_domain.cpu32.domain1.busy_factor'
p3653
I32
sS'CONFIG_PM_ADVANCED_DEBUG'
p3654
S'y'
sS'kernel.bootloader_version'
p3655
I2
sS'kernel.sched_domain.cpu13.domain0.max_interval'
p3656
I20
sS'CONFIG_ARCH_MMAP_RND_COMPAT_BITS'
p3657
I8
sS'CONFIG_SND_HDA_INPUT_BEEP_MODE'
p3658
I0
sS'kernel.sched_domain.cpu26.domain0.newidle_idx'
p3659
I0
sS'net.ipv6.calipso_cache_enable'
p3660
I1
sS'fs.mount-max'
p3661
I100000
sS'net.ipv6.conf.all.force_tllao'
p3662
I0
sS'CONFIG_USERFAULTFD'
p3663
S'y'
sS'CONFIG_CHELSIO_T4'
p3664
S'm'
sS'kernel.sched_schedstats'
p3665
I0
sS'CONFIG_ACPI_BGRT'
p3666
S'y'
sS'net.ipv4.neigh.default.gc_thresh1'
p3667
I128
sS'net.ipv4.neigh.default.gc_thresh2'
p3668
I512
sS'net.ipv4.neigh.default.gc_thresh3'
p3669
I1024
sS'kernel.sched_domain.cpu42.domain1.cache_nice_tries'
p3670
I2
sS'kernel.sched_domain.cpu31.domain0.min_interval'
p3671
I10
sS'kernel.sched_domain.cpu30.domain1.name'
p3672
S'NUMA'
p3673
sS'CONFIG_MOUSE_PS2_FOCALTECH'
p3674
S'y'
sS'net.ipv4.fwmark_reflect'
p3675
I0
sS'CONFIG_IMA'
p3676
S'y'
sS'CONFIG_CPU_IDLE_GOV_MENU'
p3677
S'y'
sS'vm.dirty_background_ratio'
p3678
I10
sS'kernel.sched_domain.cpu27.domain0.imbalance_pct'
p3679
I125
sS'CONFIG_SCHED_OMIT_FRAME_POINTER'
p3680
S'y'
sS'kernel.hostname'
p3681
S'nestedvm'
p3682
sS'CONFIG_PINCTRL_AMD'
p3683
S'y'
sS'CONFIG_PROC_EVENTS'
p3684
S'y'
sS'kernel.sched_domain.cpu49.domain1.busy_idx'
p3685
I3
sS'net.ipv4.conf.ens3.drop_unicast_in_l2_multicast'
p3686
I0
sS'net.ipv4.conf.lo.proxy_arp_pvlan'
p3687
I0
sS'CONFIG_DDR'
p3688
S'y'
sS'net.ipv4.conf.lo.promote_secondaries'
p3689
I0
sS'CONFIG_SECTION_MISMATCH_WARN_ONLY'
p3690
S'y'
sS'CONFIG_SRAM'
p3691
S'y'
sS'CONFIG_ARCH_HAVE_NMI_SAFE_CMPXCHG'
p3692
S'y'
sS'vm.min_free_kbytes'
p3693
I225280
sS'kernel.sched_domain.cpu25.domain1.newidle_idx'
p3694
I0
sS'CONFIG_RING_BUFFER'
p3695
S'y'
sS'kernel.sched_domain.cpu21.domain1.max_interval'
p3696
I100
sS'net.ipv4.route.min_pmtu'
p3697
I552
sS'CONFIG_HAVE_ARCH_SOFT_DIRTY'
p3698
S'y'
sS'kernel.perf_cpu_time_max_percent'
p3699
I25
sS'kernel.sched_domain.cpu25.domain1.flags'
p3700
I25647
sS'CONFIG_UPROBE_EVENTS'
p3701
S'y'
sS'kernel.sched_domain.cpu10.domain0.min_interval'
p3702
I10
sS'CONFIG_PROC_KCORE'
p3703
S'y'
sS'vm.zone_reclaim_mode'
p3704
I0
sS'dev.raid.speed_limit_min'
p3705
I1000
sS'kernel.sched_domain.cpu36.domain0.forkexec_idx'
p3706
I0
sS'kernel.sched_domain.cpu8.domain1.max_newidle_lb_cost'
p3707
I664977
sS'CONFIG_SECURITY_TOMOYO_MAX_ACCEPT_ENTRY'
p3708
I2048
sS'net.ipv4.route.gc_min_interval'
p3709
I0
sS'CONFIG_MAGIC_SYSRQ_DEFAULT_ENABLE'
p3710
S'0x1'
p3711
sS'kernel.sched_domain.cpu48.domain1.max_newidle_lb_cost'
p3712
I521181
sS'kernel.sched_domain.cpu16.domain1.busy_idx'
p3713
I3
sS'kernel.sched_domain.cpu4.domain1.wake_idx'
p3714
I0
sS'CONFIG_TRACING_SUPPORT'
p3715
S'y'
sS'kernel.sched_domain.cpu42.domain0.min_interval'
p3716
I10
sS'kernel.sched_domain.cpu44.domain0.newidle_idx'
p3717
I0
sS'kernel.sched_domain.cpu15.domain0.name'
p3718
S'DIE'
p3719
sS'kernel.sched_domain.cpu18.domain1.cache_nice_tries'
p3720
I2
sS'net.ipv4.fib_multipath_use_neigh'
p3721
I0
sS'net.ipv4.icmp_msgs_per_sec'
p3722
I1000
sS'kernel.sched_domain.cpu15.domain0.idle_idx'
p3723
I1
sS'net.ipv4.tcp_retries1'
p3724
I3
sS'kernel.sched_domain.cpu49.domain1.newidle_idx'
p3725
I0
sS'net.ipv4.tcp_retries2'
p3726
I15
sS'kernel.sched_domain.cpu46.domain0.forkexec_idx'
p3727
I0
sS'CONFIG_PGTABLE_LEVELS'
p3728
I4
sS'kernel.sched_domain.cpu26.domain1.imbalance_pct'
p3729
I125
sS'kernel.sched_domain.cpu39.domain1.min_interval'
p3730
I50
sS'CONFIG_KRETPROBES'
p3731
S'y'
sS'CONFIG_NET_VENDOR_ALACRITECH'
p3732
S'y'
sS'CONFIG_KPROBES_ON_FTRACE'
p3733
S'y'
sS'kernel.sched_domain.cpu5.domain1.idle_idx'
p3734
I2
sS'CONFIG_ARCH_MEMORY_PROBE'
p3735
S'y'
sS'CONFIG_GPIO_ACPI'
p3736
S'y'
sS'kernel.sched_domain.cpu34.domain0.busy_idx'
p3737
I2
sS'kernel.sched_domain.cpu25.domain0.imbalance_pct'
p3738
I125
sS'CONFIG_RELAY'
p3739
S'y'
sS'kernel.sched_domain.cpu29.domain1.min_interval'
p3740
I50
sS'kernel.sched_domain.cpu7.domain1.forkexec_idx'
p3741
I0
sS'kernel.sched_domain.cpu1.domain1.max_interval'
p3742
I100
sS'kernel.domainname'
p3743
S'(none)'
p3744
sS'dev.raid.speed_limit_max'
p3745
I200000
sS'kernel.sched_domain.cpu46.domain1.max_newidle_lb_cost'
p3746
I2533827
sS'CONFIG_X86_BOOTPARAM_MEMORY_CORRUPTION_CHECK'
p3747
S'y'
sS'CONFIG_FB_ASILIANT'
p3748
S'y'
sS'kernel.sched_domain.cpu42.domain0.max_newidle_lb_cost'
p3749
I845133
sS'kernel.sched_domain.cpu45.domain1.name'
p3750
S'NUMA'
p3751
sS'CONFIG_MFD_WM831X_SPI'
p3752
S'y'
sS'net.ipv4.conf.default.disable_policy'
p3753
I0
sS'CONFIG_HAVE_FTRACE_MCOUNT_RECORD'
p3754
S'y'
sS'CONFIG_XZ_DEC_ARMTHUMB'
p3755
S'y'
sS'CONFIG_VGA_ARB'
p3756
S'y'
sS'CONFIG_INTEGRITY_TRUSTED_KEYRING'
p3757
S'y'
sS'CONFIG_HW_CONSOLE'
p3758
S'y'
sS'kernel.sched_domain.cpu46.domain1.wake_idx'
p3759
I0
sS'CONFIG_MFD_TPS65910'
p3760
S'y'
sS'net.ipv4.igmp_max_msf'
p3761
I10
sS'vm.percpu_pagelist_fraction'
p3762
I0
sS'net.ipv4.conf.all.disable_xfrm'
p3763
I0
sS'kernel.sched_domain.cpu29.domain0.imbalance_pct'
p3764
I125
sS'CONFIG_PM_SLEEP_DEBUG'
p3765
S'y'
sS'CONFIG_MFD_WM831X'
p3766
S'y'
sS'CONFIG_INLINE_WRITE_UNLOCK_IRQ'
p3767
S'y'
sS'CONFIG_NET_VENDOR_RDC'
p3768
S'y'
sS'CONFIG_MFD_MAX8925'
p3769
S'y'
sS'kernel.sched_domain.cpu41.domain0.newidle_idx'
p3770
I0
sS'CONFIG_XZ_DEC_X86'
p3771
S'y'
sS'kernel.sched_domain.cpu30.domain0.wake_idx'
p3772
I0
sS'CONFIG_X86_X32'
p3773
S'y'
sS'vm.vfs_cache_pressure'
p3774
I100
sS'kernel.msg_next_id'
p3775
S'-1'
p3776
sS'net.ipv4.tcp_allowed_congestion_control'
p3777
S'cubic reno'
p3778
sS'kernel.sched_wakeup_granularity_ns'
p3779
I4000000
sS'net.ipv4.neigh.ens3.mcast_resolicit'
p3780
I0
sS'net.ipv6.conf.lo.disable_policy'
p3781
I0
sS'net.ipv6.conf.lo.addr_gen_mode'
p3782
I0
sS'CONFIG_X86_SPEEDSTEP_CENTRINO'
p3783
S'y'
sS'net.ipv4.route.gc_elasticity'
p3784
I8
sS'kernel.sched_domain.cpu28.domain0.wake_idx'
p3785
I0
sS'CONFIG_HAVE_PCSPKR_PLATFORM'
p3786
S'y'
sS'kernel.sched_domain.cpu23.domain0.max_interval'
p3787
I20
sS'kernel.sched_domain.cpu36.domain1.idle_idx'
p3788
I2
sS'net.ipv4.tcp_syncookies'
p3789
I1
sS'kernel.sched_domain.cpu37.domain0.idle_idx'
p3790
I1
sS'fs.quota.lookups'
p3791
I0
sS'kernel.sched_domain.cpu24.domain1.cache_nice_tries'
p3792
I2
sS'net.ipv6.neigh.lo.mcast_solicit'
p3793
I3
sS'CONFIG_IO_DELAY_TYPE_NONE'
p3794
I3
sS'net.ipv4.tcp_slow_start_after_idle'
p3795
I1
sS'kernel.sched_domain.cpu25.domain0.min_interval'
p3796
I10
sS'CONFIG_EARLY_PRINTK_EFI'
p3797
S'y'
sS'CONFIG_PROBE_EVENTS'
p3798
S'y'
sS'CONFIG_WLAN_VENDOR_CISCO'
p3799
S'y'
sS'CONFIG_USB_DWC2_HOST'
p3800
S'y'
sS'kernel.sched_domain.cpu27.domain0.idle_idx'
p3801
I1
sS'kernel.sched_domain.cpu30.domain0.forkexec_idx'
p3802
I0
sS'CONFIG_FRAMEBUFFER_CONSOLE_ROTATION'
p3803
S'y'
sS'kernel.sched_domain.cpu34.domain0.forkexec_idx'
p3804
I0
sS'kernel.sched_domain.cpu1.domain1.idle_idx'
p3805
I2
sS'net.ipv4.conf.ens3.mc_forwarding'
p3806
I0
sS'net.core.tstamp_allow_data'
p3807
I1
sS'kernel.watchdog_thresh'
p3808
I10
sS'kernel.sched_domain.cpu18.domain0.wake_idx'
p3809
I0
sS'kernel.sched_domain.cpu0.domain1.wake_idx'
p3810
I0
sS'CONFIG_LOCALVERSION'
p3811
S'""'
p3812
sS'CONFIG_PWM'
p3813
S'y'
sS'kernel.sched_domain.cpu43.domain0.forkexec_idx'
p3814
I0
sS'net.unix.max_dgram_qlen'
p3815
I512
sS'kernel.sched_domain.cpu43.domain0.idle_idx'
p3816
I1
sS'kernel.sched_domain.cpu10.domain1.forkexec_idx'
p3817
I0
sS'CONFIG_TTY_PRINTK'
p3818
S'y'
sS'kernel.ctrl-alt-del'
p3819
I0
sS'kernel.sched_domain.cpu2.domain1.max_newidle_lb_cost'
p3820
I14355654
sS'net.ipv4.conf.default.rp_filter'
p3821
I1
sS'kernel.sched_domain.cpu49.domain0.forkexec_idx'
p3822
I0
sS'kernel.sched_domain.cpu3.domain0.imbalance_pct'
p3823
I125
sS'kernel.sched_domain.cpu15.domain1.max_interval'
p3824
I100
sS'CONFIG_CRC32_SLICEBY8'
p3825
S'y'
sS'kernel.sched_domain.cpu31.domain0.max_newidle_lb_cost'
p3826
I741677
sS'kernel.sched_domain.cpu45.domain1.cache_nice_tries'
p3827
I2
sS'net.ipv4.conf.lo.force_igmp_version'
p3828
I0
sS'CONFIG_INTEL_IOMMU_SVM'
p3829
S'y'
sS'kernel.sched_domain.cpu46.domain0.busy_idx'
p3830
I2
sS'kernel.sched_domain.cpu13.domain1.busy_idx'
p3831
I3
sS'CONFIG_TRACE_CLOCK'
p3832
S'y'
sS'kernel.sched_domain.cpu21.domain1.forkexec_idx'
p3833
I0
sS'kernel.sched_domain.cpu4.domain1.min_interval'
p3834
I50
sg10
g11
sS'kernel.sched_domain.cpu47.domain0.newidle_idx'
p3835
I0
sS'kernel.sched_domain.cpu15.domain1.min_interval'
p3836
I50
sS'CONFIG_NET_VENDOR_CISCO'
p3837
S'y'
sS'CONFIG_BASE_FULL'
p3838
S'y'
sS'kernel.sched_domain.cpu32.domain1.newidle_idx'
p3839
I0
sS'CONFIG_STP'
p3840
S'm'
sS'net.ipv4.conf.all.rp_filter'
p3841
I1
sS'kernel.sched_domain.cpu4.domain1.imbalance_pct'
p3842
I125
sS'kernel.sched_domain.cpu40.domain1.name'
p3843
S'NUMA'
p3844
sS'CONFIG_EVM_ATTR_FSUUID'
p3845
S'y'
sS'CONFIG_CRYPTO_GLUE_HELPER_X86'
p3846
S'm'
sS'net.ipv4.ip_early_demux'
p3847
I1
sS'CONFIG_BOOTPARAM_HARDLOCKUP_PANIC_VALUE'
p3848
I0
sS'CONFIG_SYSTEM_EXTRA_CERTIFICATE'
p3849
S'y'
sS'kernel.sched_domain.cpu34.domain0.max_newidle_lb_cost'
p3850
I13755560
sS'kernel.sched_domain.cpu5.domain1.busy_idx'
p3851
I3
sS'CONFIG_SYSTEM_TRUSTED_KEYS'
p3852
S'""'
p3853
sS'kernel.tracepoint_printk'
p3854
I0
sS'net.ipv6.conf.lo.router_solicitation_delay'
p3855
I1
sS'CONFIG_HOTPLUG_PCI'
p3856
S'y'
sS'kernel.sched_domain.cpu0.domain0.min_interval'
p3857
I10
sS'CONFIG_SERIAL_MAX310X'
p3858
S'y'
sS'kernel.sched_domain.cpu0.domain0.idle_idx'
p3859
I1
sS'CONFIG_BACKLIGHT_LCD_SUPPORT'
p3860
S'y'
sS'CONFIG_EDAC'
p3861
S'y'
sS'CONFIG_INPUT_TOUCHSCREEN'
p3862
S'y'
sS'kernel.sched_domain.cpu27.domain1.imbalance_pct'
p3863
I125
sS'kernel.sched_domain.cpu42.domain1.max_newidle_lb_cost'
p3864
I725911
sS'vm.numa_zonelist_order'
p3865
S'Node'
p3866
sS'kernel.sched_domain.cpu11.domain0.cache_nice_tries'
p3867
I1
sS'CONFIG_FANOTIFY'
p3868
S'y'
sS'kernel.sched_domain.cpu12.domain1.min_interval'
p3869
I50
sS'vm.memory_failure_recovery'
p3870
I1
sS'CONFIG_ACPI_HED'
p3871
S'y'
sS'kernel.sched_domain.cpu25.domain1.busy_factor'
p3872
I32
sS'net.ipv6.neigh.lo.unres_qlen'
p3873
I101
sS'CONFIG_X86_AMD_PLATFORM_DEVICE'
p3874
S'y'
sS'kernel.sched_domain.cpu27.domain0.cache_nice_tries'
p3875
I1
sS'CONFIG_FONT_8x16'
p3876
S'y'
sS'net.ipv6.mld_max_msf'
p3877
I64
sS'net.ipv4.neigh.default.proxy_delay'
p3878
I80
sS'net.ipv4.conf.default.bootp_relay'
p3879
I0
sS'CONFIG_USB_XHCI_PCI'
p3880
S'y'
sS'CONFIG_FUTEX_PI'
p3881
S'y'
sS'kernel.sched_domain.cpu34.domain1.cache_nice_tries'
p3882
I2
sS'kernel.numa_balancing_scan_period_min_ms'
p3883
I1000
sS'kernel.sched_domain.cpu18.domain0.flags'
p3884
I4143
sS'net.ipv4.tcp_early_retrans'
p3885
I3
sS'kernel.sched_domain.cpu17.domain0.busy_idx'
p3886
I2
sS'CONFIG_NET_VENDOR_SUN'
p3887
S'y'
sS'CONFIG_KERNEL_GZIP'
p3888
S'y'
sS'kernel.sched_domain.cpu9.domain0.busy_idx'
p3889
I2
sS'net.ipv6.conf.default.ndisc_notify'
p3890
I0
sS'CONFIG_SOUND_OSS_CORE'
p3891
S'y'
sS'CONFIG_DEFAULT_SECURITY'
p3892
S'"apparmor"'
p3893
sS'kernel.sched_domain.cpu3.domain1.busy_idx'
p3894
I3
sS'net.ipv4.conf.ens3.route_localnet'
p3895
I0
sS'kernel.sched_domain.cpu40.domain0.newidle_idx'
p3896
I0
sS'net.ipv4.conf.default.igmpv3_unsolicited_report_interval'
p3897
I1000
sS'kernel.sched_domain.cpu9.domain1.wake_idx'
p3898
I0
sS'kernel.sched_domain.cpu40.domain1.max_newidle_lb_cost'
p3899
I817784
sS'kernel.sched_domain.cpu33.domain1.imbalance_pct'
p3900
I125
sS'CONFIG_GDB_SCRIPTS'
p3901
S'y'
sS'net.core.warnings'
p3902
I0
sS'kernel.sched_domain.cpu48.domain0.name'
p3903
S'DIE'
p3904
sS'CONFIG_CC_OPTIMIZE_FOR_PERFORMANCE'
p3905
S'y'
sS'net.ipv6.conf.default.accept_source_route'
p3906
I0
sS'kernel.sched_domain.cpu48.domain0.cache_nice_tries'
p3907
I1
sS'kernel.sched_domain.cpu7.domain1.busy_factor'
p3908
I32
sS'kernel.sched_domain.cpu15.domain0.wake_idx'
p3909
I0
sS'kernel.sched_domain.cpu13.domain1.flags'
p3910
I25647
sS'kernel.sched_cfs_bandwidth_slice_us'
p3911
I5000
sS'net.ipv6.conf.lo.mldv2_unsolicited_report_interval'
p3912
I1000
sS'kernel.sched_domain.cpu30.domain0.cache_nice_tries'
p3913
I1
sS'net.ipv6.conf.default.drop_unsolicited_na'
p3914
I0
sS'kernel.sched_domain.cpu29.domain0.cache_nice_tries'
p3915
I1
sS'CONFIG_SECURITY_NETWORK'
p3916
S'y'
sS'kernel.sched_domain.cpu21.domain0.flags'
p3917
I4143
sS'CONFIG_TRACER_SNAPSHOT'
p3918
S'y'
sS'net.core.message_cost'
p3919
I5
sS'net.ipv6.conf.all.router_solicitation_interval'
p3920
I4
sS'net.ipv6.neigh.lo.retrans_time_ms'
p3921
I1000
sS'vm.stat_interval'
p3922
I1
sS'CONFIG_CGROUP_CPUACCT'
p3923
S'y'
sS'CONFIG_INPUT_JOYSTICK'
p3924
S'y'
sS'kernel.sched_domain.cpu35.domain0.cache_nice_tries'
p3925
I1
sS'kernel.sched_domain.cpu38.domain0.min_interval'
p3926
I10
sS'net.ipv4.conf.all.igmpv2_unsolicited_report_interval'
p3927
I10000
sS'net.ipv4.conf.all.accept_local'
p3928
I0
sS'kernel.sched_domain.cpu36.domain1.max_interval'
p3929
I100
sS'CONFIG_MAC_EMUMOUSEBTN'
p3930
S'm'
sS'CONFIG_DW_DMAC_CORE'
p3931
S'y'
sS'CONFIG_HIBERNATION'
p3932
S'y'
sS'net.ipv4.udp_mem'
p3933
S'1537185\t2049582\t3074370'
p3934
sS'CONFIG_IMA_APPRAISE'
p3935
S'y'
sS'kernel.sched_domain.cpu41.domain1.busy_idx'
p3936
I3
sS'kernel.sched_domain.cpu6.domain1.idle_idx'
p3937
I2
sS'CONFIG_I8253_LOCK'
p3938
S'y'
sS'CONFIG_SND_JACK_INPUT_DEV'
p3939
S'y'
sS'CONFIG_INPUT_MOUSE'
p3940
S'y'
sS'kernel.sched_domain.cpu30.domain1.min_interval'
p3941
I50
sS'kernel.sched_domain.cpu7.domain1.wake_idx'
p3942
I0
sS'kernel.sched_domain.cpu32.domain1.min_interval'
p3943
I50
sS'CONFIG_MFD_WM8350_I2C'
p3944
S'y'
sS'net.ipv6.neigh.default.delay_first_probe_time'
p3945
I5
sS'CONFIG_CRYPTO_MD5'
p3946
S'y'
sS'kernel.sched_domain.cpu3.domain0.name'
p3947
S'DIE'
p3948
sS'kernel.sched_domain.cpu14.domain1.flags'
p3949
I25647
sS'kernel.sched_domain.cpu24.domain1.busy_idx'
p3950
I3
sS'CONFIG_USB_SUPPORT'
p3951
S'y'
sS'CONFIG_IOSF_MBI_DEBUG'
p3952
S'y'
sS'fs.leases-enable'
p3953
I1
sS'kernel.sched_domain.cpu28.domain0.forkexec_idx'
p3954
I0
sS'net.ipv6.conf.all.temp_prefered_lft'
p3955
I86400
sS'CONFIG_GENERIC_IO'
p3956
S'y'
sS'kernel.sched_domain.cpu22.domain1.busy_factor'
p3957
I32
sS'kernel.sched_domain.cpu47.domain1.wake_idx'
p3958
I0
sS'CONFIG_HAVE_IRQ_TIME_ACCOUNTING'
p3959
S'y'
sS'kernel.sched_domain.cpu4.domain0.cache_nice_tries'
p3960
I1
sS'CONFIG_AUDIT_ARCH'
p3961
S'y'
sS'kernel.sched_domain.cpu46.domain1.forkexec_idx'
p3962
I0
sS'fs.aio-nr'
p3963
I0
sS'CONFIG_THERMAL_HWMON'
p3964
S'y'
sS'net.ipv4.route.max_size'
p3965
I2147483647
sS'kernel.sched_domain.cpu46.domain0.imbalance_pct'
p3966
I125
sS'CONFIG_HZ'
p3967
I250
sS'kernel.sched_domain.cpu44.domain1.forkexec_idx'
p3968
I0
sS'CONFIG_X86_DEBUG_FPU'
p3969
S'y'
sS'CONFIG_MPILIB'
p3970
S'y'
sS'CONFIG_INTEGRITY_AUDIT'
p3971
S'y'
sS'CONFIG_GPIO_SYSFS'
p3972
S'y'
sS'CONFIG_KEXEC_CORE'
p3973
S'y'
sS'kernel.sched_domain.cpu9.domain0.forkexec_idx'
p3974
I0
sS'kernel.sched_domain.cpu6.domain1.imbalance_pct'
p3975
I125
sS'CONFIG_EFI'
p3976
S'y'
sS'kernel.sched_domain.cpu22.domain1.wake_idx'
p3977
I0
sS'CONFIG_NET_VENDOR_SMSC'
p3978
S'y'
sS'kernel.sched_domain.cpu0.domain1.idle_idx'
p3979
I2
sS'net.ipv6.conf.all.accept_redirects'
p3980
I1
sS'CONFIG_KEYS'
p3981
S'y'
sS'kernel.sched_domain.cpu6.domain1.min_interval'
p3982
I50
sS'kernel.sched_domain.cpu2.domain1.min_interval'
p3983
I50
sS'CONFIG_KVM_VFIO'
p3984
S'y'
sS'net.ipv4.conf.lo.disable_policy'
p3985
I1
sS'kernel.seccomp.actions_avail'
p3986
S'kill_process kill_thread trap errno trace log allow'
p3987
sS'CONFIG_MEMORY_HOTREMOVE'
p3988
S'y'
sS'kernel.sched_domain.cpu34.domain0.wake_idx'
p3989
I0
sS'CONFIG_SECURITY_TOMOYO_POLICY_LOADER'
p3990
S'"/sbin/tomoyo-init"'
p3991
sS'CONFIG_BINFMT_ELF'
p3992
S'y'
sS'net.ipv4.tcp_rfc1337'
p3993
I0
sS'kernel.sysrq'
p3994
I176
sS'CONFIG_TASK_IO_ACCOUNTING'
p3995
S'y'
sS'kernel.sched_domain.cpu36.domain0.max_newidle_lb_cost'
p3996
I52799042
sS'CONFIG_DOUBLEFAULT'
p3997
S'y'
sS'net.ipv6.conf.lo.router_solicitation_max_interval'
p3998
I3600
sa(dp3999
g3
(lp4000
S'Sleep'
p4001
ag6
aS'object'
p4002
asg8
S'Sleep.host-192.168.123.30'
p4003
sa(dp4004
g10
g11
sS'fstype'
p4005
S'tmpfs-separate'
p4006
sg3
(lp4007
S'FileSystem'
p4008
ag6
ag14
aS'object'
p4009
asg8
S'FileSystem.host-192.168.123.30.fstype-tmpfs-separate'
p4010
sa(dp4011
g8
S'SetCPUs.host-192.168.123.30'
p4012
sS'seq'
p4013
g4013
sg10
g11
sS'hotplug'
p4014
I01
sg3
(lp4015
S'SetCPUs'
p4016
ag6
ag14
aS'object'
p4017
asS'num'
p4018
I50
sa(dp4019
g8
S'EximDaemon.host-192.168.123.30'
p4020
sg3
(lp4021
S'EximDaemon'
p4022
ag6
aS'object'
p4023
asS'eximBuild'
p4024
S'exim-mod'
p4025
sg10
g11
sS'eximPath'
p4026
S'~/vm-scalability/bench/exim'
p4027
sS'port'
p4028
I2526
sS'spoolDir'
p4029
S'/tmp/mosbench/tmpfs-separate/spool'
p4030
sS'mailDir'
p4031
S'/tmp/mosbench/tmpfs-separate/0'
p4032
sa(dp4033
g10
g11
sg3
(lp4034
S'SystemMonitor'
p4035
ag6
ag14
aS'object'
p4036
asg8
S'SystemMonitor.host-192.168.123.30'
p4037
sa(dp4038
S'real'
p4039
F15.034800000000001
sS'time.iowait'
p4040
F0.02
sg8
S'EximLoad.trial-0.host-192.168.123.30'
p4041
sS'time.real'
p4042
F15.034800000000001
sS'time.idle'
p4043
F323.22800000000001
sS'time.sys'
p4044
F362.82999999999998
sS'clients'
p4045
I160
sg3
(lp4046
S'EximLoad'
p4047
ag6
aS'ResultsProvider'
p4048
aS'object'
p4049
asS'time.nice'
p4050
F0
sS'trial'
p4051
I0
sg10
g11
sS'result'
p4052
F168681
sS'time.softirq'
p4053
F297.19
sS'units'
p4054
S'messages'
p4055
sS'cores'
p4056
I50
sS'time.steal'
p4057
F0.34999999999999998
sS'time.irq'
p4058
F0
sg4026
g4027
sg4028
I2526
sS'unit'
p4059
S'message'
p4060
sS'time.user'
p4061
F65.680000000000007
sa.