(lp1
(dp2
S'classNames'
p3
(lp4
S'ResultPath'
p5
aS'Task'
p6
aS'object'
p7
asS'name'
p8
g5
sa(dp9
S'host'
p10
S'192.168.123.30'
p11
sg3
(lp12
S'Host'
p13
ag6
aS'SourceFileProvider'
p14
aS'object'
p15
asg8
S'Host.host-192.168.123.30'
p16
sa(dp17
S'CONFIG_USB_OHCI_HCD_PLATFORM'
p18
S'y'
sS'CONFIG_DEFAULT_IO_DELAY_TYPE'
p19
I1
sS'CONFIG_DNS_RESOLVER'
p20
S'y'
sS'net.ipv6.conf.lo.suppress_frag_ndisc'
p21
I1
sS'CONFIG_SGI_PARTITION'
p22
S'y'
sS'kernel.sched_domain.cpu38.domain1.imbalance_pct'
p23
I125
sS'CONFIG_GENERIC_STRNCPY_FROM_USER'
p24
S'y'
sS'net.netfilter.nf_log_all_netns'
p25
I0
sS'kernel.sched_domain.cpu1.domain1.forkexec_idx'
p26
I0
sS'CONFIG_KVM_SCHEDACT'
p27
S'y'
sS'CONFIG_WLAN_VENDOR_RALINK'
p28
S'y'
sS'CONFIG_HAVE_DYNAMIC_FTRACE_WITH_REGS'
p29
S'y'
sS'kernel.sched_domain.cpu5.domain0.newidle_idx'
p30
I0
sS'net.ipv4.conf.all.tag'
p31
I0
sS'CONFIG_TOUCHSCREEN_ELAN'
p32
S'y'
sS'kernel.sched_domain.cpu34.domain1.min_interval'
p33
I48
sS'CONFIG_EVENT_TRACING'
p34
S'y'
sS'CONFIG_LIVEPATCH'
p35
S'y'
sS'CONFIG_LEDS_TRIGGER_CPU'
p36
S'y'
sS'CONFIG_PCIEPORTBUS'
p37
S'y'
sS'CONFIG_INIT_ENV_ARG_LIMIT'
p38
I32
sS'net.ipv6.conf.default.accept_ra_min_hop_limit'
p39
I1
sS'CONFIG_LEDS_CLASS'
p40
S'y'
sS'kernel.sched_domain.cpu2.domain0.newidle_idx'
p41
I0
sS'net.ipv4.neigh.default.proxy_qlen'
p42
I64
sS'CONFIG_PMC_ATOM'
p43
S'y'
sS'CONFIG_MANDATORY_FILE_LOCKING'
p44
S'y'
sS'kernel.sched_domain.cpu37.domain1.imbalance_pct'
p45
I125
sS'CONFIG_NLS_CODEPAGE_437'
p46
S'y'
sS'fs.quota.free_dquots'
p47
I0
sS'CONFIG_PRINTK_NMI'
p48
S'y'
sS'CONFIG_NETDEVICES'
p49
S'y'
sS'CONFIG_HAVE_DYNAMIC_FTRACE'
p50
S'y'
sS'CONFIG_PINCTRL_SX150X'
p51
S'y'
sS'CONFIG_NET_SCHED'
p52
S'y'
sS'CONFIG_KGDB'
p53
S'y'
sS'CONFIG_UNIXWARE_DISKLABEL'
p54
S'y'
sS'kernel.sched_domain.cpu43.domain1.forkexec_idx'
p55
I0
sS'CONFIG_INLINE_WRITE_UNLOCK'
p56
S'y'
sS'net.ipv6.conf.ens3.ignore_routes_with_linkdown'
p57
I0
sS'CONFIG_ACPI_REV_OVERRIDE_POSSIBLE'
p58
S'y'
sS'CONFIG_HAVE_ARCH_AUDITSYSCALL'
p59
S'y'
sS'kernel.sched_domain.cpu39.domain1.max_newidle_lb_cost'
p60
I36851
sS'kernel.sched_domain.cpu11.domain0.flags'
p61
I4143
sS'CONFIG_NET_VENDOR_RENESAS'
p62
S'y'
sS'CONFIG_FIRMWARE_EDID'
p63
S'y'
sS'CONFIG_CGROUPS'
p64
S'y'
sS'kernel.sched_domain.cpu45.domain0.busy_factor'
p65
I32
sS'net.ipv6.conf.ens3.regen_max_retry'
p66
I3
sS'net.ipv4.conf.lo.medium_id'
p67
I0
sS'CONFIG_DEFAULT_MMAP_MIN_ADDR'
p68
I65536
sS'kernel.sched_domain.cpu30.domain0.busy_factor'
p69
I32
sS'CONFIG_X86_DEBUGCTLMSR'
p70
S'y'
sS'CONFIG_ARCH_HIBERNATION_HEADER'
p71
S'y'
sS'net.ipv4.tcp_synack_retries'
p72
I5
sS'net.ipv6.conf.ens3.accept_ra_rt_info_max_plen'
p73
I0
sS'CONFIG_SECURITY_YAMA'
p74
S'y'
sS'kernel.sched_domain.cpu18.domain0.idle_idx'
p75
I1
sS'CONFIG_CRYPTO_ECB'
p76
S'y'
sS'CONFIG_ACPI_HOTPLUG_MEMORY'
p77
S'y'
sS'CONFIG_SELECT_MEMORY_MODEL'
p78
S'y'
sS'net.ipv4.tcp_notsent_lowat'
p79
I4294967295
sS'kernel.sched_domain.cpu17.domain0.name'
p80
S'DIE'
p81
sS'CONFIG_FS_DAX_PMD'
p82
S'y'
sS'kernel.sched_domain.cpu16.domain1.busy_factor'
p83
I32
sS'CONFIG_GENERIC_SMP_IDLE_THREAD'
p84
S'y'
sS'kernel.sched_domain.cpu18.domain0.imbalance_pct'
p85
I125
sS'CONFIG_GENERIC_CLOCKEVENTS_MIN_ADJUST'
p86
S'y'
sS'net.ipv6.conf.all.disable_policy'
p87
I0
sS'kernel.sched_domain.cpu27.domain1.forkexec_idx'
p88
I0
sS'kernel.sched_domain.cpu33.domain1.flags'
p89
I25647
sS'kernel.sched_domain.cpu43.domain1.min_interval'
p90
I48
sS'kernel.sched_domain.cpu36.domain0.cache_nice_tries'
p91
I1
sS'CONFIG_TASK_XACCT'
p92
S'y'
sS'CONFIG_KEXEC_BZIMAGE_VERIFY_SIG'
p93
S'y'
sS'CONFIG_EVENTFD'
p94
S'y'
sS'CONFIG_FTRACE_MCOUNT_RECORD'
p95
S'y'
sS'CONFIG_HAVE_PERF_EVENTS'
p96
S'y'
sS'CONFIG_SND_HDA_CORE'
p97
S'm'
sS'CONFIG_CHECKPOINT_RESTORE'
p98
S'y'
sS'CONFIG_PACKET'
p99
S'y'
sS'kernel.sched_domain.cpu28.domain0.min_interval'
p100
I24
sS'net.ipv6.conf.ens3.use_oif_addrs_only'
p101
I0
sS'kernel.sched_domain.cpu10.domain0.name'
p102
S'DIE'
p103
sS'kernel.sched_domain.cpu45.domain0.flags'
p104
I4143
sS'net.ipv6.conf.all.router_solicitation_max_interval'
p105
I3600
sS'CONFIG_IMA_LSM_RULES'
p106
S'y'
sS'net.ipv4.neigh.lo.proxy_delay'
p107
I80
sS'CONFIG_PARPORT_PC'
p108
S'm'
sS'CONFIG_NLATTR'
p109
S'y'
sS'kernel.sched_domain.cpu39.domain0.busy_idx'
p110
I2
sS'kernel.sched_domain.cpu41.domain0.min_interval'
p111
I24
sS'kernel.sched_domain.cpu30.domain0.imbalance_pct'
p112
I125
sS'CONFIG_ARCH_HAS_GCOV_PROFILE_ALL'
p113
S'y'
sS'net.ipv6.conf.default.addr_gen_mode'
p114
I0
sS'kernel.hung_task_check_count'
p115
I4194304
sS'CONFIG_INFINIBAND_ADDR_TRANS'
p116
S'y'
sS'CONFIG_CRYPTO_SHA512'
p117
S'y'
sS'CONFIG_WLAN_VENDOR_INTERSIL'
p118
S'y'
sS'CONFIG_CRYPTO_NULL'
p119
S'y'
sS'net.ipv6.conf.ens3.force_mld_version'
p120
I0
sS'CONFIG_INTEGRITY_ASYMMETRIC_KEYS'
p121
S'y'
sS'CONFIG_BLK_MQ_RDMA'
p122
S'y'
sS'CONFIG_FRAME_POINTER_UNWINDER'
p123
S'y'
sS'CONFIG_HAVE_IRQ_EXIT_ON_IRQ_STACK'
p124
S'y'
sS'CONFIG_CRYPTO_AES_NI_INTEL'
p125
S'm'
sS'CONFIG_MOUSE_PS2'
p126
S'm'
sS'CONFIG_EFI_PARTITION'
p127
S'y'
sS'kernel.sched_domain.cpu8.domain0.imbalance_pct'
p128
I125
sS'kernel.sched_domain.cpu13.domain1.busy_factor'
p129
I32
sS'CONFIG_NODES_SPAN_OTHER_NODES'
p130
S'y'
sS'kernel.sched_domain.cpu46.domain0.wake_idx'
p131
I0
sS'CONFIG_FUNCTION_GRAPH_TRACER'
p132
S'y'
sS'net.ipv6.conf.all.seg6_enabled'
p133
I0
sS'CONFIG_IPV6_MROUTE'
p134
S'y'
sS'kernel.sched_domain.cpu2.domain0.busy_idx'
p135
I2
sS'kernel.sched_domain.cpu21.domain0.idle_idx'
p136
I1
sS'CONFIG_WQ_POWER_EFFICIENT_DEFAULT'
p137
S'y'
sS'kernel.sched_domain.cpu40.domain0.name'
p138
S'DIE'
p139
sS'CONFIG_FHANDLE'
p140
S'y'
sS'CONFIG_HAVE_FUNCTION_GRAPH_TRACER'
p141
S'y'
sS'kernel.sched_domain.cpu41.domain1.wake_idx'
p142
I0
sS'CONFIG_FS_IOMAP'
p143
S'y'
sS'kernel.sched_domain.cpu17.domain0.flags'
p144
I4143
sS'CONFIG_CRYPTO_ACOMP2'
p145
S'y'
sS'CONFIG_HAVE_KERNEL_LZMA'
p146
S'y'
sS'CONFIG_ARCH_HAS_DEBUG_VIRTUAL'
p147
S'y'
sS'net.ipv6.neigh.default.unres_qlen_bytes'
p148
I212992
sS'kernel.sem_next_id'
p149
S'-1'
p150
sS'kernel.random.write_wakeup_threshold'
p151
I896
sS'net.ipv6.conf.lo.use_oif_addrs_only'
p152
I0
sS'kernel.sched_domain.cpu37.domain0.busy_idx'
p153
I2
sS'net.ipv6.conf.ens3.accept_ra_defrtr'
p154
I1
sS'kernel.sched_domain.cpu11.domain0.max_newidle_lb_cost'
p155
I19573
sS'kernel.sched_domain.cpu3.domain0.max_newidle_lb_cost'
p156
I31175
sS'net.ipv4.neigh.ens3.proxy_delay'
p157
I80
sS'kernel.sched_domain.cpu37.domain1.max_newidle_lb_cost'
p158
I94850
sS'kernel.sched_domain.cpu24.domain0.idle_idx'
p159
I1
sS'CONFIG_ASYMMETRIC_KEY_TYPE'
p160
S'y'
sS'kernel.sched_domain.cpu4.domain0.busy_idx'
p161
I2
sS'CONFIG_DEFAULT_IOSCHED'
p162
S'"deadline"'
p163
sS'kernel.sched_domain.cpu22.domain0.flags'
p164
I4143
sS'CONFIG_FUSION_LOGGING'
p165
S'y'
sS'kernel.sched_domain.cpu17.domain1.idle_idx'
p166
I2
sS'kernel.sched_domain.cpu13.domain1.wake_idx'
p167
I0
sS'CONFIG_NET_PACKET_ENGINE'
p168
S'y'
sS'CONFIG_DQL'
p169
S'y'
sS'kernel.sched_domain.cpu22.domain0.min_interval'
p170
I24
sS'net.ipv6.conf.lo.force_tllao'
p171
I0
sS'kernel.sched_domain.cpu7.domain1.busy_idx'
p172
I3
sS'CONFIG_IP_ADVANCED_ROUTER'
p173
S'y'
sS'CONFIG_SERIAL_SCCNXP_CONSOLE'
p174
S'y'
sS'kernel.modprobe'
p175
S'/sbin/modprobe'
p176
sS'CONFIG_NOP_USB_XCEIV'
p177
S'y'
sS'kernel.sched_domain.cpu16.domain1.max_interval'
p178
I96
sS'kernel.sched_domain.cpu40.domain0.max_interval'
p179
I48
sS'kernel.print-fatal-signals'
p180
I0
sS'CONFIG_INET'
p181
S'y'
sS'net.ipv4.tcp_probe_interval'
p182
I600
sS'kernel.sched_domain.cpu10.domain0.max_newidle_lb_cost'
p183
I60678
sS'CONFIG_EXTRA_FIRMWARE'
p184
S'""'
p185
sS'CONFIG_I2C_DESIGNWARE_CORE'
p186
S'y'
sS'net.ipv4.conf.lo.arp_accept'
p187
I0
sS'CONFIG_REGMAP_MMIO'
p188
S'y'
sS'CONFIG_MFD_TPS65090'
p189
S'y'
sS'kernel.sched_domain.cpu3.domain1.flags'
p190
I25647
sS'CONFIG_SND_HDA_POWER_SAVE_DEFAULT'
p191
I0
sS'kernel.sched_domain.cpu19.domain1.wake_idx'
p192
I0
sS'CONFIG_SFI'
p193
S'y'
sS'kernel.sched_domain.cpu0.domain0.cache_nice_tries'
p194
I1
sS'net.ipv6.conf.lo.forwarding'
p195
I0
sS'CONFIG_NET_VENDOR_SOLARFLARE'
p196
S'y'
sS'CONFIG_FIXED_PHY'
p197
S'y'
sS'kernel.sched_domain.cpu35.domain1.forkexec_idx'
p198
I0
sS'net.ipv4.conf.default.shared_media'
p199
I1
sS'CONFIG_NET_VENDOR_TEHUTI'
p200
S'y'
sS'net.ipv6.conf.default.router_solicitations'
p201
S'-1'
p202
sS'CONFIG_MFD_DA9063'
p203
S'y'
sS'CONFIG_CRYPTO'
p204
S'y'
sS'CONFIG_WLAN_VENDOR_ZYDAS'
p205
S'y'
sS'CONFIG_STRICT_KERNEL_RWX'
p206
S'y'
sS'net.ipv6.mld_qrv'
p207
I2
sS'CONFIG_SND_HDA_PATCH_LOADER'
p208
S'y'
sS'net.ipv4.conf.all.disable_policy'
p209
I0
sS'kernel.sched_domain.cpu3.domain1.cache_nice_tries'
p210
I2
sS'kernel.sched_domain.cpu40.domain0.imbalance_pct'
p211
I125
sS'CONFIG_PPP_FILTER'
p212
S'y'
sS'CONFIG_CPU_FREQ'
p213
S'y'
sS'net.core.netdev_tstamp_prequeue'
p214
I1
sS'kernel.sched_domain.cpu37.domain1.name'
p215
S'NUMA'
p216
sS'kernel.sched_domain.cpu18.domain0.forkexec_idx'
p217
I0
sS'net.ipv6.conf.all.accept_dad'
p218
I1
sS'kernel.sched_domain.cpu15.domain1.busy_idx'
p219
I3
sS'CONFIG_DCB'
p220
S'y'
sS'kernel.sched_domain.cpu4.domain1.max_newidle_lb_cost'
p221
I20148
sS'kernel.panic_on_oops'
p222
I0
sS'kernel.sched_domain.cpu10.domain0.imbalance_pct'
p223
I125
sS'kernel.sched_domain.cpu21.domain0.max_interval'
p224
I48
sS'CONFIG_MEMORY_HOTPLUG'
p225
S'y'
sS'dev.cdrom.debug'
p226
I0
sS'CONFIG_SUSPEND'
p227
S'y'
sS'kernel.sched_domain.cpu15.domain0.forkexec_idx'
p228
I0
sS'kernel.sched_domain.cpu18.domain1.wake_idx'
p229
I0
sS'kernel.sched_domain.cpu29.domain0.busy_idx'
p230
I2
sS'CONFIG_UNIX98_PTYS'
p231
S'y'
sS'CONFIG_MOUSE_PS2_SYNAPTICS'
p232
S'y'
sS'kernel.sched_domain.cpu23.domain0.wake_idx'
p233
I0
sS'CONFIG_SECURITY_SELINUX'
p234
S'y'
sS'kernel.sched_domain.cpu22.domain1.flags'
p235
I25647
sS'kernel.sched_domain.cpu30.domain1.busy_factor'
p236
I32
sS'CONFIG_SCSI_LOWLEVEL'
p237
S'y'
sS'net.ipv6.conf.all.dad_transmits'
p238
I1
sS'CONFIG_GENERIC_MSI_IRQ'
p239
S'y'
sS'kernel.ngroups_max'
p240
I65536
sS'kernel.sched_domain.cpu40.domain1.newidle_idx'
p241
I0
sS'kernel.sched_domain.cpu37.domain0.newidle_idx'
p242
I0
sS'CONFIG_EXTCON'
p243
S'y'
sS'CONFIG_PM_DEVFREQ_EVENT'
p244
S'y'
sS'CONFIG_POWER_RESET_RESTART'
p245
S'y'
sS'kernel.sched_domain.cpu28.domain1.name'
p246
S'NUMA'
p247
sS'kernel.max_lock_depth'
p248
I1024
sS'kernel.sched_domain.cpu40.domain1.min_interval'
p249
I48
sS'CONFIG_NEED_MULTIPLE_NODES'
p250
S'y'
sS'kernel.sched_domain.cpu33.domain0.cache_nice_tries'
p251
I1
sS'kernel.sched_domain.cpu5.domain1.flags'
p252
I25647
sS'CONFIG_ZPOOL'
p253
S'y'
sS'CONFIG_PATA_SIS'
p254
S'y'
sS'CONFIG_GENERIC_ALLOCATOR'
p255
S'y'
sS'kernel.sched_domain.cpu18.domain1.forkexec_idx'
p256
I0
sS'kernel.sched_domain.cpu0.domain1.max_interval'
p257
I96
sS'kernel.sched_domain.cpu36.domain0.max_interval'
p258
I48
sS'CONFIG_MESSAGE_LOGLEVEL_DEFAULT'
p259
I4
sS'kernel.sched_domain.cpu38.domain0.flags'
p260
I4143
sS'CONFIG_ARCH_HAS_UACCESS_FLUSHCACHE'
p261
S'y'
sS'CONFIG_SYN_COOKIES'
p262
S'y'
sS'net.ipv6.conf.default.max_addresses'
p263
I16
sS'net.ipv4.inet_peer_maxttl'
p264
I600
sS'CONFIG_CGROUP_WRITEBACK'
p265
S'y'
sS'CONFIG_X86_ACPI_CPUFREQ'
p266
S'y'
sS'CONFIG_DUMMY_CONSOLE'
p267
S'y'
sS'kernel.sched_domain.cpu7.domain1.max_newidle_lb_cost'
p268
I155426
sS'kernel.sched_domain.cpu23.domain0.name'
p269
S'DIE'
p270
sS'CONFIG_RWSEM_SPIN_ON_OWNER'
p271
S'y'
sS'CONFIG_SECURITY_APPARMOR_BOOTPARAM_VALUE'
p272
I1
sS'vm.dirtytime_expire_seconds'
p273
I43200
sS'net.ipv4.tcp_challenge_ack_limit'
p274
I1000
sS'CONFIG_HOTPLUG_PCI_ACPI'
p275
S'y'
sS'CONFIG_KARMA_PARTITION'
p276
S'y'
sS'CONFIG_INFINIBAND_ISER'
p277
S'm'
sS'kernel.sched_domain.cpu35.domain1.cache_nice_tries'
p278
I2
sS'vm.min_slab_ratio'
p279
I5
sS'kernel.sched_domain.cpu40.domain0.min_interval'
p280
I24
sS'CONFIG_CLZ_TAB'
p281
S'y'
sS'kernel.sched_domain.cpu21.domain1.min_interval'
p282
I48
sS'kernel.sched_domain.cpu40.domain1.busy_idx'
p283
I3
sS'CONFIG_X86_THERMAL_VECTOR'
p284
S'y'
sS'CONFIG_RCU_CPU_STALL_TIMEOUT'
p285
I60
sS'kernel.sched_domain.cpu23.domain1.min_interval'
p286
I48
sS'CONFIG_BOOTPARAM_SOFTLOCKUP_PANIC_VALUE'
p287
I0
sS'CONFIG_PM_WAKELOCKS'
p288
S'y'
sS'CONFIG_GPIOLIB_IRQCHIP'
p289
S'y'
sS'kernel.sched_domain.cpu1.domain0.idle_idx'
p290
I1
sS'CONFIG_MTRR_SANITIZER_ENABLE_DEFAULT'
p291
I1
sS'CONFIG_BLK_DEV_INTEGRITY'
p292
S'y'
sS'kernel.sched_domain.cpu11.domain0.busy_idx'
p293
I2
sS'CONFIG_ARCH_HAS_HMM'
p294
S'y'
sS'CONFIG_SQUASHFS_FILE_DIRECT'
p295
S'y'
sS'CONFIG_MODULE_SIG_KEY'
p296
S'"certs/signing_key.pem"'
p297
sS'CONFIG_NETWORK_FILESYSTEMS'
p298
S'y'
sS'CONFIG_SERIAL_8250_RSA'
p299
S'y'
sS'net.ipv4.tcp_min_tso_segs'
p300
I2
sS'CONFIG_SCHED_STACK_END_CHECK'
p301
S'y'
sS'CONFIG_LEGACY_VSYSCALL_EMULATE'
p302
S'y'
sS'CONFIG_POWERCAP'
p303
S'y'
sS'CONFIG_UNUSED_SYMBOLS'
p304
S'y'
sS'kernel.sched_domain.cpu43.domain1.busy_idx'
p305
I3
sS'CONFIG_FB_TILEBLITTING'
p306
S'y'
sS'kernel.sched_domain.cpu15.domain1.max_newidle_lb_cost'
p307
I12684
sS'CONFIG_INTEGRITY'
p308
S'y'
sS'kernel.sched_domain.cpu6.domain1.cache_nice_tries'
p309
I2
sS'kernel.sched_domain.cpu47.domain1.max_newidle_lb_cost'
p310
I15468
sS'kernel.sched_domain.cpu46.domain0.cache_nice_tries'
p311
I1
sS'kernel.sched_domain.cpu41.domain0.imbalance_pct'
p312
I125
sS'kernel.sched_domain.cpu24.domain0.name'
p313
S'DIE'
p314
sS'kernel.sched_domain.cpu38.domain0.max_interval'
p315
I48
sS'kernel.sched_domain.cpu2.domain0.imbalance_pct'
p316
I125
sS'fs.mqueue.msg_default'
p317
I10
sS'CONFIG_MD_LINEAR'
p318
S'm'
sS'net.ipv4.tcp_max_orphans'
p319
I262144
sS'kernel.sched_domain.cpu6.domain1.flags'
p320
I25647
sS'kernel.sched_domain.cpu15.domain1.cache_nice_tries'
p321
I2
sS'CONFIG_MFD_MAX77843'
p322
S'y'
sS'CONFIG_CONSOLE_TRANSLATIONS'
p323
S'y'
sS'CONFIG_SLABINFO'
p324
S'y'
sS'kernel.perf_event_max_stack'
p325
I127
sS'CONFIG_PCI'
p326
S'y'
sS'CONFIG_GENERIC_MSI_IRQ_DOMAIN'
p327
S'y'
sS'kernel.sched_domain.cpu4.domain0.name'
p328
S'DIE'
p329
sS'kernel.sched_domain.cpu33.domain0.busy_idx'
p330
I2
sS'CONFIG_SYSTEM_BLACKLIST_KEYRING'
p331
S'y'
sS'kernel.sched_domain.cpu6.domain0.wake_idx'
p332
I0
sS'CONFIG_IP_ROUTE_MULTIPATH'
p333
S'y'
sS'CONFIG_SCHED_SMT'
p334
S'y'
sS'kernel.sched_domain.cpu39.domain1.flags'
p335
I25647
sS'net.ipv4.tcp_adv_win_scale'
p336
I1
sS'CONFIG_INTEL_IDLE'
p337
S'y'
sS'CONFIG_ASYNC_CORE'
p338
S'm'
sS'net.ipv4.udp_rmem_min'
p339
I4096
sS'CONFIG_FIRMWARE_IN_KERNEL'
p340
S'y'
sS'CONFIG_IP6_NF_FILTER'
p341
S'm'
sS'CONFIG_SCHED_INFO'
p342
S'y'
sS'CONFIG_GPIO_TPS65910'
p343
S'y'
sS'kernel.sched_domain.cpu39.domain0.imbalance_pct'
p344
I125
sS'CONFIG_CRC_CCITT'
p345
S'y'
sS'CONFIG_PERSISTENT_KEYRINGS'
p346
S'y'
sS'CONFIG_MOUSE_PS2_LIFEBOOK'
p347
S'y'
sS'CONFIG_ARCH_WANT_COMPAT_IPC_PARSE_VERSION'
p348
S'y'
sS'kernel.sched_domain.cpu29.domain0.name'
p349
S'DIE'
p350
sS'kernel.sched_domain.cpu11.domain1.imbalance_pct'
p351
I125
sS'kernel.sched_domain.cpu0.domain1.busy_factor'
p352
I32
sS'kernel.sched_domain.cpu7.domain1.min_interval'
p353
I48
sS'kernel.sched_domain.cpu37.domain1.cache_nice_tries'
p354
I2
sS'kernel.sched_domain.cpu35.domain0.max_interval'
p355
I48
sS'CONFIG_ASYNC_RAID6_RECOV'
p356
S'm'
sS'net.ipv6.conf.default.ignore_routes_with_linkdown'
p357
I0
sS'kernel.sched_domain.cpu8.domain1.imbalance_pct'
p358
I125
sS'CONFIG_BLK_DEV_SR'
p359
S'y'
sS'kernel.sched_domain.cpu10.domain1.imbalance_pct'
p360
I125
sS'net.ipv6.conf.lo.accept_ra_from_local'
p361
I0
sS'CONFIG_EXPORTFS'
p362
S'y'
sS'CONFIG_CRYPTO_CRC32_PCLMUL'
p363
S'm'
sS'CONFIG_INPUT'
p364
S'y'
sS'CONFIG_THERMAL_DEFAULT_GOV_STEP_WISE'
p365
S'y'
sS'fs.suid_dumpable'
p366
I2
sS'CONFIG_AIO'
p367
S'y'
sS'kernel.sched_domain.cpu10.domain1.flags'
p368
I25647
sS'kernel.sched_domain.cpu33.domain1.name'
p369
S'NUMA'
p370
sS'CONFIG_SERIAL_8250_DMA'
p371
S'y'
sS'kernel.sched_domain.cpu8.domain0.busy_factor'
p372
I32
sS'CONFIG_SCHED_AUTOGROUP'
p373
S'y'
sS'kernel.sched_domain.cpu20.domain1.max_newidle_lb_cost'
p374
I17618
sS'net.core.optmem_max'
p375
I20480
sS'user.max_inotify_watches'
p376
I8192
sS'vm.nr_overcommit_hugepages'
p377
I0
sS'net.ipv6.conf.default.accept_ra_defrtr'
p378
I1
sS'net.ipv6.conf.default.accept_ra_rt_info_min_plen'
p379
I0
sS'kernel.sched_domain.cpu7.domain0.flags'
p380
I4143
sS'kernel.sched_domain.cpu45.domain1.imbalance_pct'
p381
I125
sS'kernel.sched_domain.cpu40.domain1.forkexec_idx'
p382
I0
sS'kernel.sched_domain.cpu29.domain1.max_newidle_lb_cost'
p383
I20071
sS'CONFIG_NET_EMATCH'
p384
S'y'
sS'kernel.sched_domain.cpu16.domain1.cache_nice_tries'
p385
I2
sS'CONFIG_CPU_SUP_CENTAUR'
p386
S'y'
sS'kernel.sched_domain.cpu3.domain0.cache_nice_tries'
p387
I1
sS'kernel.sched_domain.cpu20.domain1.imbalance_pct'
p388
I125
sS'net.core.message_burst'
p389
I10
sS'CONFIG_SERIAL_NONSTANDARD'
p390
S'y'
sS'kernel.sched_domain.cpu14.domain0.idle_idx'
p391
I1
sS'user.max_uts_namespaces'
p392
I257513
sS'net.ipv6.route.gc_interval'
p393
I30
sS'CONFIG_TRACER_MAX_TRACE'
p394
S'y'
sS'CONFIG_VIRT_DRIVERS'
p395
S'y'
sS'net.ipv6.bindv6only'
p396
I0
sS'kernel.sched_domain.cpu23.domain0.idle_idx'
p397
I1
sS'kernel.sched_domain.cpu31.domain0.cache_nice_tries'
p398
I1
sS'net.ipv6.conf.ens3.accept_ra_rtr_pref'
p399
I1
sS'CONFIG_SUN_PARTITION'
p400
S'y'
sS'kernel.sched_domain.cpu35.domain1.newidle_idx'
p401
I0
sS'kernel.sched_domain.cpu32.domain0.busy_factor'
p402
I32
sS'kernel.sched_domain.cpu30.domain0.busy_idx'
p403
I2
sS'net.ipv4.conf.all.drop_gratuitous_arp'
p404
I0
sS'kernel.sched_domain.cpu34.domain1.max_newidle_lb_cost'
p405
I128049
sS'CONFIG_PINCTRL'
p406
S'y'
sS'CONFIG_THERMAL_GOV_FAIR_SHARE'
p407
S'y'
sS'CONFIG_NET_TULIP'
p408
S'y'
sS'kernel.sched_domain.cpu21.domain1.newidle_idx'
p409
I0
sS'kernel.sched_domain.cpu5.domain1.forkexec_idx'
p410
I0
sS'CONFIG_MOUSE_PS2_LOGIPS2PP'
p411
S'y'
sS'kernel.sched_domain.cpu36.domain0.min_interval'
p412
I24
sS'net.ipv6.route.gc_min_interval_ms'
p413
I500
sS'CONFIG_IRQ_FORCED_THREADING'
p414
S'y'
sS'CONFIG_MTRR_SANITIZER_SPARE_REG_NR_DEFAULT'
p415
I1
sS'CONFIG_BLK_MQ_PCI'
p416
S'y'
sS'CONFIG_DEBUG_BUGVERBOSE'
p417
S'y'
sS'CONFIG_HAVE_MEMORY_PRESENT'
p418
S'y'
sS'CONFIG_LSM_MMAP_MIN_ADDR'
p419
I0
sS'kernel.sched_domain.cpu36.domain1.wake_idx'
p420
I0
sS'CONFIG_KVM_INTEL'
p421
S'm'
sS'net.ipv6.neigh.ens3.proxy_qlen'
p422
I64
sS'net.ipv6.conf.lo.ndisc_notify'
p423
I0
sS'kernel.sched_domain.cpu25.domain1.forkexec_idx'
p424
I0
sS'kernel.sched_domain.cpu31.domain1.imbalance_pct'
p425
I125
sS'kernel.sched_domain.cpu33.domain0.min_interval'
p426
I24
sS'kernel.sched_domain.cpu8.domain1.busy_idx'
p427
I3
sS'kernel.sched_domain.cpu32.domain1.max_interval'
p428
I96
sS'CONFIG_SND_DYNAMIC_MINORS'
p429
S'y'
sS'CONFIG_MD_RAID1'
p430
S'm'
sS'CONFIG_HAVE_SETUP_PER_CPU_AREA'
p431
S'y'
sS'user.max_net_namespaces'
p432
I257513
sS'kernel.sched_domain.cpu12.domain0.max_interval'
p433
I48
sS'vm.laptop_mode'
p434
I0
sS'CONFIG_SIGNED_PE_FILE_VERIFICATION'
p435
S'y'
sS'CONFIG_NET_VENDOR_CAVIUM'
p436
S'y'
sS'CONFIG_IMA_NG_TEMPLATE'
p437
S'y'
sS'CONFIG_X86_FEATURE_NAMES'
p438
S'y'
sS'net.ipv6.ip6frag_low_thresh'
p439
I3145728
sS'CONFIG_KEXEC'
p440
S'y'
sS'CONFIG_CRYPTO_DEV_PADLOCK'
p441
S'y'
sS'kernel.sched_domain.cpu45.domain0.max_interval'
p442
I48
sS'kernel.sched_domain.cpu2.domain0.wake_idx'
p443
I0
sS'kernel.sched_domain.cpu47.domain1.idle_idx'
p444
I2
sS'net.ipv4.conf.all.secure_redirects'
p445
I1
sS'kernel.sched_domain.cpu5.domain0.cache_nice_tries'
p446
I1
sS'CONFIG_HAVE_REGS_AND_STACK_ACCESS_API'
p447
S'y'
sS'kernel.sched_domain.cpu21.domain0.wake_idx'
p448
I0
sS'CONFIG_ZLIB_INFLATE'
p449
S'y'
sS'kernel.sched_domain.cpu22.domain1.max_interval'
p450
I96
sS'CONFIG_DEVFREQ_GOV_SIMPLE_ONDEMAND'
p451
S'y'
sS'net.ipv4.conf.lo.igmpv2_unsolicited_report_interval'
p452
I10000
sS'kernel.sched_domain.cpu4.domain0.idle_idx'
p453
I1
sS'kernel.sched_domain.cpu29.domain0.wake_idx'
p454
I0
sS'CONFIG_INPUT_JOYDEV'
p455
S'm'
sS'net.ipv6.conf.ens3.accept_ra_mtu'
p456
I1
sS'kernel.sched_domain.cpu37.domain1.busy_idx'
p457
I3
sS'CONFIG_INPUT_MISC'
p458
S'y'
sS'kernel.sched_domain.cpu37.domain0.cache_nice_tries'
p459
I1
sS'net.ipv4.conf.all.force_igmp_version'
p460
I0
sS'CONFIG_RFS_ACCEL'
p461
S'y'
sS'CONFIG_UTS_NS'
p462
S'y'
sS'kernel.sched_domain.cpu21.domain0.name'
p463
S'DIE'
p464
sS'kernel.sched_domain.cpu11.domain1.name'
p465
S'NUMA'
p466
sS'CONFIG_X86_LOCAL_APIC'
p467
S'y'
sS'CONFIG_MFD_MAX14577'
p468
S'y'
sS'kernel.sched_domain.cpu41.domain0.max_interval'
p469
I48
sS'CONFIG_CPU_FREQ_GOV_PERFORMANCE'
p470
S'y'
sS'net.ipv6.neigh.lo.mcast_resolicit'
p471
I0
sS'CONFIG_PREEMPT_NOTIFIERS'
p472
S'y'
sS'CONFIG_IO_DELAY_0XED'
p473
S'y'
sS'kernel.sched_domain.cpu31.domain0.busy_factor'
p474
I32
sS'CONFIG_AGP_AMD64'
p475
S'y'
sS'kernel.sched_domain.cpu19.domain0.flags'
p476
I4143
sS'CONFIG_MTRR'
p477
S'y'
sS'kernel.sched_domain.cpu28.domain1.idle_idx'
p478
I2
sS'kernel.overflowgid'
p479
I65534
sS'CONFIG_CRYPTO_RNG_DEFAULT'
p480
S'y'
sS'kernel.sched_domain.cpu7.domain0.busy_idx'
p481
I2
sS'CONFIG_X86_MCE'
p482
S'y'
sS'CONFIG_KALLSYMS_BASE_RELATIVE'
p483
S'y'
sS'CONFIG_ISA_DMA_API'
p484
S'y'
sS'CONFIG_ASYMMETRIC_PUBLIC_KEY_SUBTYPE'
p485
S'y'
sS'kernel.sched_domain.cpu15.domain1.name'
p486
S'NUMA'
p487
sS'CONFIG_HAVE_FENTRY'
p488
S'y'
sS'CONFIG_ELF_CORE'
p489
S'y'
sS'net.ipv6.conf.lo.router_solicitations'
p490
S'-1'
p491
sS'kernel.ftrace_dump_on_oops'
p492
I0
sS'net.ipv4.conf.default.arp_filter'
p493
I0
sS'kernel.sched_domain.cpu14.domain1.busy_idx'
p494
I3
sS'kernel.sched_autogroup_enabled'
p495
I1
sS'net.ipv6.neigh.default.unres_qlen'
p496
I101
sS'kernel.sched_domain.cpu14.domain0.cache_nice_tries'
p497
I1
sS'net.ipv6.neigh.lo.anycast_delay'
p498
I100
sS'CONFIG_USB_DYNAMIC_MINORS'
p499
S'y'
sS'CONFIG_ARCH_HAS_FORTIFY_SOURCE'
p500
S'y'
sS'kernel.sched_domain.cpu12.domain1.busy_factor'
p501
I32
sS'CONFIG_THERMAL_GOV_USER_SPACE'
p502
S'y'
sS'net.ipv4.icmp_ratemask'
p503
I6168
sS'CONFIG_SERIAL_8250_EXAR'
p504
S'y'
sS'kernel.hung_task_warnings'
p505
I10
sS'CONFIG_PARPORT_1284'
p506
S'y'
sS'CONFIG_SYSTEM_BLACKLIST_HASH_LIST'
p507
S'""'
p508
sS'CONFIG_ARCH_MMAP_RND_BITS_MIN'
p509
I28
sS'CONFIG_EXPERT'
p510
S'y'
sS'net.ipv4.tcp_abort_on_overflow'
p511
I0
sS'CONFIG_WLAN_VENDOR_ATMEL'
p512
S'y'
sS'CONFIG_HAVE_MIXED_BREAKPOINTS_REGS'
p513
S'y'
sS'kernel.sched_domain.cpu29.domain1.busy_idx'
p514
I3
sS'CONFIG_SWIOTLB'
p515
S'y'
sS'kernel.sched_domain.cpu9.domain0.busy_factor'
p516
I32
sS'net.ipv4.conf.lo.bootp_relay'
p517
I0
sS'kernel.sched_domain.cpu28.domain0.name'
p518
S'DIE'
p519
sS'kernel.sched_domain.cpu18.domain0.busy_idx'
p520
I2
sS'CONFIG_SCSI_PROC_FS'
p521
S'y'
sS'CONFIG_RD_BZIP2'
p522
S'y'
sS'CONFIG_MFD_LP8788'
p523
S'y'
sS'CONFIG_CGROUP_HUGETLB'
p524
S'y'
sS'net.ipv6.conf.ens3.accept_ra_rt_info_min_plen'
p525
I0
sS'CONFIG_FDDI'
p526
S'y'
sS'kernel.sched_domain.cpu32.domain0.wake_idx'
p527
I0
sS'kernel.sched_domain.cpu38.domain0.max_newidle_lb_cost'
p528
I69636
sS'CONFIG_MMC'
p529
S'y'
sS'kernel.sched_domain.cpu20.domain0.min_interval'
p530
I24
sS'net.ipv4.tcp_keepalive_time'
p531
I7200
sS'vm.nr_hugepages_mempolicy'
p532
I0
sS'net.ipv4.conf.all.ignore_routes_with_linkdown'
p533
I0
sS'kernel.sched_domain.cpu29.domain0.min_interval'
p534
I24
sS'kernel.sched_domain.cpu30.domain0.newidle_idx'
p535
I0
sS'CONFIG_XOR_BLOCKS'
p536
S'm'
sS'kernel.sched_domain.cpu1.domain0.name'
p537
S'DIE'
p538
sS'kernel.sched_domain.cpu38.domain1.name'
p539
S'NUMA'
p540
sS'CONFIG_MAILBOX'
p541
S'y'
sS'kernel.sched_domain.cpu5.domain1.min_interval'
p542
I48
sS'kernel.sched_domain.cpu26.domain0.min_interval'
p543
I24
sS'kernel.sched_domain.cpu5.domain0.wake_idx'
p544
I0
sS'kernel.sched_domain.cpu10.domain0.idle_idx'
p545
I1
sS'kernel.sched_domain.cpu23.domain0.min_interval'
p546
I24
sS'kernel.sched_domain.cpu35.domain1.idle_idx'
p547
I2
sS'net.ipv6.conf.default.proxy_ndp'
p548
I0
sS'kernel.sched_domain.cpu44.domain0.forkexec_idx'
p549
I0
sS'CONFIG_MEMTEST'
p550
S'y'
sS'net.ipv4.ip_unprivileged_port_start'
p551
I1024
sS'net.ipv6.neigh.lo.app_solicit'
p552
I0
sS'kernel.sched_domain.cpu43.domain0.imbalance_pct'
p553
I125
sS'CONFIG_PCI_BUS_ADDR_T_64BIT'
p554
S'y'
sS'CONFIG_VM_EVENT_COUNTERS'
p555
S'y'
sS'kernel.sched_domain.cpu25.domain0.cache_nice_tries'
p556
I1
sS'kernel.sched_domain.cpu27.domain1.min_interval'
p557
I48
sS'CONFIG_VGA_SWITCHEROO'
p558
S'y'
sS'CONFIG_XZ_DEC_IA64'
p559
S'y'
sS'kernel.sched_domain.cpu8.domain0.newidle_idx'
p560
I0
sS'CONFIG_CRYPTO_CRCT10DIF_PCLMUL'
p561
S'm'
sS'CONFIG_ARCH_USE_QUEUED_SPINLOCKS'
p562
S'y'
sS'kernel.sched_domain.cpu3.domain1.wake_idx'
p563
I0
sS'kernel.sched_domain.cpu39.domain1.forkexec_idx'
p564
I0
sS'kernel.sched_domain.cpu42.domain1.wake_idx'
p565
I0
sS'CONFIG_NET_EMATCH_STACK'
p566
I32
sS'kernel.sched_domain.cpu1.domain1.min_interval'
p567
I48
sS'kernel.panic_on_warn'
p568
I0
sS'net.ipv6.conf.lo.enhanced_dad'
p569
I1
sS'CONFIG_GPIOLIB'
p570
S'y'
sS'kernel.sched_domain.cpu31.domain1.cache_nice_tries'
p571
I2
sS'kernel.keys.maxkeys'
p572
I200
sS'kernel.sched_domain.cpu16.domain0.name'
p573
S'DIE'
p574
sS'CONFIG_GPIO_PALMAS'
p575
S'y'
sS'kernel.sched_domain.cpu42.domain0.flags'
p576
I4143
sS'CONFIG_UEVENT_HELPER'
p577
S'y'
sS'CONFIG_HOTPLUG_PCI_CPCI'
p578
S'y'
sS'kernel.sched_domain.cpu20.domain0.newidle_idx'
p579
I0
sS'vm.panic_on_oom'
p580
I0
sS'CONFIG_NET_VENDOR_AMD'
p581
S'y'
sS'kernel.sched_domain.cpu16.domain1.newidle_idx'
p582
I0
sS'CONFIG_COREDUMP'
p583
S'y'
sS'net.ipv4.neigh.ens3.app_solicit'
p584
I0
sS'CONFIG_HAVE_KVM_IRQ_BYPASS'
p585
S'y'
sS'CONFIG_CRASH_CORE'
p586
S'y'
sS'kernel.sched_domain.cpu29.domain1.idle_idx'
p587
I2
sS'kernel.sched_domain.cpu30.domain1.busy_idx'
p588
I3
sS'fs.inotify.max_user_instances'
p589
I1024
sS'CONFIG_SYSCTL'
p590
S'y'
sS'CONFIG_MD_RAID0'
p591
S'm'
sS'net.ipv4.icmp_ignore_bogus_error_responses'
p592
I1
sS'kernel.sched_domain.cpu47.domain1.cache_nice_tries'
p593
I2
sS'kernel.sched_domain.cpu20.domain0.max_interval'
p594
I48
sS'kernel.sched_domain.cpu37.domain1.forkexec_idx'
p595
I0
sS'fs.quota.syncs'
p596
I0
sS'CONFIG_SECURITY_SMACK_NETFILTER'
p597
S'y'
sS'kernel.sched_domain.cpu27.domain1.idle_idx'
p598
I2
sS'kernel.sched_domain.cpu2.domain1.busy_idx'
p599
I3
sS'net.ipv6.neigh.ens3.delay_first_probe_time'
p600
I5
sS'CONFIG_AGP'
p601
S'y'
sS'kernel.stack_tracer_enabled'
p602
I0
sS'kernel.sched_domain.cpu47.domain1.flags'
p603
I25647
sS'kernel.sched_domain.cpu0.domain0.flags'
p604
I4143
sS'CONFIG_CRYPTO_DRBG_HMAC'
p605
S'y'
sS'CONFIG_MAC_PARTITION'
p606
S'y'
sS'CONFIG_MISC_FILESYSTEMS'
p607
S'y'
sS'abi.vsyscall32'
p608
I1
sS'net.ipv4.route.error_cost'
p609
I250
sS'CONFIG_CGROUP_NET_CLASSID'
p610
S'y'
sS'CONFIG_CRYPTO_SKEIN'
p611
S'y'
sS'kernel.sched_domain.cpu37.domain1.flags'
p612
I25647
sS'kernel.sched_domain.cpu32.domain1.busy_idx'
p613
I3
sS'CONFIG_GENERIC_PCI_IOMAP'
p614
S'y'
sS'kernel.sched_domain.cpu39.domain1.idle_idx'
p615
I2
sS'CONFIG_DEBUG_KERNEL'
p616
S'y'
sS'net.ipv4.igmp_qrv'
p617
I2
sS'CONFIG_PSTORE'
p618
S'y'
sS'CONFIG_RANDOMIZE_BASE'
p619
S'y'
sS'CONFIG_MODULE_SIG_SHA512'
p620
S'y'
sS'CONFIG_CHELSIO_T3'
p621
S'm'
sS'kernel.sched_domain.cpu23.domain0.flags'
p622
I4143
sS'user.max_mnt_namespaces'
p623
I257513
sS'net.core.wmem_max'
p624
I212992
sS'vm.swappiness'
p625
I60
sS'kernel.sched_domain.cpu9.domain1.forkexec_idx'
p626
I0
sS'kernel.sched_domain.cpu3.domain1.imbalance_pct'
p627
I125
sS'kernel.sched_domain.cpu5.domain1.busy_factor'
p628
I32
sS'net.ipv4.conf.ens3.shared_media'
p629
I1
sS'CONFIG_SBITMAP'
p630
S'y'
sS'net.ipv4.cipso_cache_bucket_size'
p631
I10
sS'net.ipv4.ipfrag_low_thresh'
p632
I3145728
sS'kernel.sched_domain.cpu15.domain1.flags'
p633
I25647
sS'net.ipv4.route.mtu_expires'
p634
I600
sS'CONFIG_KPROBE_EVENTS'
p635
S'y'
sS'net.ipv6.conf.default.drop_unicast_in_l2_multicast'
p636
I0
sS'CONFIG_USB_EHCI_TT_NEWSCHED'
p637
S'y'
sS'CONFIG_X86_16BIT'
p638
S'y'
sS'kernel.sched_domain.cpu40.domain0.wake_idx'
p639
I0
sS'net.iw_cm.default_backlog'
p640
I256
sS'CONFIG_CRYPTO_CTR'
p641
S'y'
sS'kernel.sched_domain.cpu24.domain1.forkexec_idx'
p642
I0
sS'net.ipv4.tcp_reordering'
p643
I3
sS'kernel.sched_domain.cpu44.domain1.newidle_idx'
p644
I0
sS'CONFIG_NET'
p645
S'y'
sS'CONFIG_TWL4030_CORE'
p646
S'y'
sS'kernel.sched_domain.cpu18.domain1.name'
p647
S'NUMA'
p648
sS'CONFIG_HAS_DMA'
p649
S'y'
sS'kernel.random.uuid'
p650
S'd720ce48-159d-44f1-93a7-5a654ec9ee7c'
p651
sS'net.ipv6.conf.ens3.mc_forwarding'
p652
I0
sS'net.ipv4.conf.lo.secure_redirects'
p653
I1
sS'kernel.sched_domain.cpu10.domain0.forkexec_idx'
p654
I0
sS'fs.overflowgid'
p655
I65534
sS'kernel.sched_domain.cpu38.domain0.busy_factor'
p656
I32
sS'net.ipv4.tcp_dsack'
p657
I1
sS'CONFIG_CPU_SUP_INTEL'
p658
S'y'
sS'CONFIG_USER_STACKTRACE_SUPPORT'
p659
S'y'
sS'CONFIG_TRANSPARENT_HUGEPAGE'
p660
S'y'
sS'kernel.sched_domain.cpu41.domain0.busy_idx'
p661
I2
sS'CONFIG_MQ_IOSCHED_DEADLINE'
p662
S'y'
sS'CONFIG_CRYPTO_HMAC'
p663
S'y'
sS'kernel.sched_domain.cpu12.domain0.imbalance_pct'
p664
I125
sS'CONFIG_VT_CONSOLE'
p665
S'y'
sS'kernel.acpi_video_flags'
p666
I0
sS'CONFIG_WAN'
p667
S'y'
sS'kernel.sched_domain.cpu9.domain1.imbalance_pct'
p668
I125
sS'CONFIG_VGA_ARB_MAX_GPUS'
p669
I16
sS'CONFIG_BUILDTIME_EXTABLE_SORT'
p670
S'y'
sS'kernel.sched_domain.cpu17.domain1.newidle_idx'
p671
I0
sS'net.ipv4.route.redirect_silence'
p672
I5120
sS'CONFIG_KEXEC_JUMP'
p673
S'y'
sS'kernel.sched_domain.cpu33.domain0.newidle_idx'
p674
I0
sS'kernel.sched_domain.cpu7.domain0.imbalance_pct'
p675
I125
sS'net.ipv4.conf.lo.forwarding'
p676
I0
sS'kernel.sched_domain.cpu17.domain0.forkexec_idx'
p677
I0
sS'kernel.sched_domain.cpu8.domain1.name'
p678
S'NUMA'
p679
sS'kernel.sched_domain.cpu10.domain0.wake_idx'
p680
I0
sS'dev.cdrom.lock'
p681
I1
sS'CONFIG_HAVE_HW_BREAKPOINT'
p682
S'y'
sS'CONFIG_MACINTOSH_DRIVERS'
p683
S'y'
sS'CONFIG_HAVE_DEBUG_KMEMLEAK'
p684
S'y'
sS'CONFIG_ISDN'
p685
S'y'
sS'CONFIG_MFD_CORE'
p686
S'y'
sS'CONFIG_ACPI_FAN'
p687
S'y'
sS'kernel.sched_domain.cpu40.domain1.cache_nice_tries'
p688
I2
sS'net.ipv4.conf.lo.src_valid_mark'
p689
I0
sS'CONFIG_AIX_PARTITION'
p690
S'y'
sS'kernel.sched_domain.cpu16.domain0.cache_nice_tries'
p691
I1
sS'kernel.sched_domain.cpu1.domain0.cache_nice_tries'
p692
I1
sS'CONFIG_MD_RAID456'
p693
S'm'
sS'net.ipv4.conf.ens3.arp_ignore'
p694
I0
sS'CONFIG_TICK_CPU_ACCOUNTING'
p695
S'y'
sS'kernel.sched_domain.cpu39.domain0.wake_idx'
p696
I0
sS'kernel.sched_domain.cpu31.domain1.flags'
p697
I25647
sS'kernel.sched_domain.cpu42.domain1.busy_idx'
p698
I3
sS'fs.inode-nr'
p699
S'100538\t517'
p700
sS'CONFIG_NET_SCH_FIFO'
p701
S'y'
sS'net.core.netdev_rss_key'
p702
S'00:00:00:00:00:00:00:00:00:00:00:00:00:00:00:00:00:00:00:00:00:00:00:00:00:00:00:00:00:00:00:00:00:00:00:00:00:00:00:00:00:00:00:00:00:00:00:00:00:00:00:00'
p703
sS'kernel.sched_domain.cpu18.domain1.max_newidle_lb_cost'
p704
I14625
sS'net.ipv4.conf.default.igmpv2_unsolicited_report_interval'
p705
I10000
sS'CONFIG_X86_64_ACPI_NUMA'
p706
S'y'
sS'CONFIG_SYSFS_SYSCALL'
p707
S'y'
sS'kernel.sched_domain.cpu38.domain1.wake_idx'
p708
I0
sS'kernel.sched_domain.cpu12.domain0.busy_factor'
p709
I32
sS'CONFIG_ARCH_WANT_GENERAL_HUGETLB'
p710
S'y'
sS'CONFIG_XPS'
p711
S'y'
sS'CONFIG_GENERIC_CMOS_UPDATE'
p712
S'y'
sS'net.ipv4.tcp_max_tw_buckets'
p713
I262144
sS'CONFIG_SERIAL_8250_EXTENDED'
p714
S'y'
sS'kernel.sched_domain.cpu0.domain0.max_newidle_lb_cost'
p715
I29534
sS'CONFIG_NET_VENDOR_ADAPTEC'
p716
S'y'
sS'CONFIG_EPOLL'
p717
S'y'
sS'net.ipv4.conf.lo.disable_xfrm'
p718
I1
sS'kernel.sched_domain.cpu20.domain0.cache_nice_tries'
p719
I1
sS'kernel.sched_domain.cpu23.domain0.max_newidle_lb_cost'
p720
I20407
sS'kernel.panic'
p721
I0
sS'CONFIG_FAT_DEFAULT_CODEPAGE'
p722
I437
sS'CONFIG_X86_SUPPORTS_MEMORY_FAILURE'
p723
S'y'
sS'CONFIG_SND_OSSEMUL'
p724
S'y'
sS'kernel.sched_domain.cpu11.domain0.newidle_idx'
p725
I0
sS'kernel.sched_domain.cpu0.domain1.forkexec_idx'
p726
I0
sS'CONFIG_SCHED_HRTICK'
p727
S'y'
sS'CONFIG_SECURITY_SELINUX_DISABLE'
p728
S'y'
sS'kernel.sched_domain.cpu41.domain1.name'
p729
S'NUMA'
p730
sS'net.ipv4.conf.default.disable_policy'
p731
I0
sS'kernel.sched_domain.cpu9.domain0.idle_idx'
p732
I1
sS'CONFIG_NET_VENDOR_REALTEK'
p733
S'y'
sS'CONFIG_FAT_DEFAULT_IOCHARSET'
p734
S'"iso8859-1"'
p735
sS'net.ipv6.route.min_adv_mss'
p736
I1220
sS'kernel.sched_domain.cpu40.domain1.busy_factor'
p737
I32
sS'CONFIG_BLK_DEV_SD'
p738
S'y'
sS'net.ipv4.conf.ens3.arp_filter'
p739
I0
sS'CONFIG_USB_OHCI_HCD'
p740
S'y'
sS'CONFIG_VIRTIO_CONSOLE'
p741
S'y'
sS'net.ipv6.neigh.ens3.app_solicit'
p742
I0
sS'kernel.sched_domain.cpu5.domain1.wake_idx'
p743
I0
sS'CONFIG_USB_UHCI_HCD'
p744
S'y'
sS'CONFIG_BSD_DISKLABEL'
p745
S'y'
sS'kernel.sched_domain.cpu28.domain0.max_interval'
p746
I48
sS'kernel.sched_domain.cpu19.domain0.min_interval'
p747
I24
sS'net.core.flow_limit_cpu_bitmap'
p748
S'000000,00000000,00000000,00000000,00000000,00000000,00000000,00000000'
p749
sS'CONFIG_SECURITY_WRITABLE_HOOKS'
p750
S'y'
sS'CONFIG_NVM'
p751
S'y'
sS'net.ipv6.conf.ens3.accept_dad'
p752
I1
sS'kernel.sched_domain.cpu33.domain1.max_newidle_lb_cost'
p753
I19962
sS'CONFIG_TRACING_EVENTS_GPIO'
p754
S'y'
sS'kernel.sched_domain.cpu23.domain1.max_interval'
p755
I96
sS'fs.quota.allocated_dquots'
p756
I0
sS'CONFIG_X509_CERTIFICATE_PARSER'
p757
S'y'
sS'kernel.sched_domain.cpu11.domain1.idle_idx'
p758
I2
sS'net.ipv6.neigh.lo.proxy_delay'
p759
I80
sS'kernel.sched_domain.cpu23.domain1.wake_idx'
p760
I0
sS'CONFIG_WLAN_VENDOR_ADMTEK'
p761
S'y'
sS'net.ipv4.conf.lo.send_redirects'
p762
I1
sS'kernel.sched_domain.cpu30.domain0.flags'
p763
I4143
sS'kernel.sched_domain.cpu16.domain0.max_interval'
p764
I48
sS'net.ipv6.conf.all.proxy_ndp'
p765
I0
sS'CONFIG_OPTPROBES'
p766
S'y'
sS'net.ipv4.tcp_pacing_ss_ratio'
p767
I200
sS'kernel.keys.persistent_keyring_expiry'
p768
I259200
sS'CONFIG_MD'
p769
S'y'
sS'kernel.sched_domain.cpu7.domain0.forkexec_idx'
p770
I0
sS'kernel.sched_domain.cpu11.domain1.max_newidle_lb_cost'
p771
I18322
sS'CONFIG_DETECT_HUNG_TASK'
p772
S'y'
sS'CONFIG_DMI'
p773
S'y'
sS'kernel.sched_domain.cpu47.domain1.min_interval'
p774
I48
sS'net.ipv4.conf.lo.arp_notify'
p775
I0
sS'CONFIG_BQL'
p776
S'y'
sS'kernel.softlockup_all_cpu_backtrace'
p777
I0
sS'CONFIG_VIRTIO_MMIO_CMDLINE_DEVICES'
p778
S'y'
sS'kernel.sched_domain.cpu17.domain0.min_interval'
p779
I24
sS'kernel.version'
p780
S'#3 SMP Tue Mar 13 14:28:42 EDT 2018'
p781
sS'net.ipv6.neigh.default.gc_interval'
p782
I30
sS'kernel.sched_domain.cpu36.domain1.imbalance_pct'
p783
I125
sS'kernel.sched_domain.cpu38.domain0.idle_idx'
p784
I1
sS'kernel.sched_domain.cpu0.domain0.busy_idx'
p785
I2
sS'CONFIG_CGROUP_SCHED'
p786
S'y'
sS'CONFIG_HT_IRQ'
p787
S'y'
sS'CONFIG_NET_VENDOR_ATHEROS'
p788
S'y'
sS'net.ipv6.neigh.ens3.unres_qlen_bytes'
p789
I212992
sS'kernel.panic_on_io_nmi'
p790
I0
sS'net.ipv4.tcp_congestion_control'
p791
S'cubic'
p792
sS'CONFIG_HAVE_ARCH_MMAP_RND_COMPAT_BITS'
p793
S'y'
sS'kernel.sched_domain.cpu31.domain1.max_interval'
p794
I96
sS'CONFIG_PANIC_TIMEOUT'
p795
I0
sS'kernel.bootloader_type'
p796
I114
sS'kernel.sched_domain.cpu39.domain1.cache_nice_tries'
p797
I2
sS'kernel.sched_domain.cpu7.domain0.newidle_idx'
p798
I0
sS'CONFIG_SERIAL_CORE'
p799
S'y'
sS'kernel.sched_domain.cpu47.domain0.max_interval'
p800
I48
sS'net.ipv6.idgen_delay'
p801
I1
sS'CONFIG_HAVE_HARDENED_USERCOPY_ALLOCATOR'
p802
S'y'
sS'kernel.sched_domain.cpu37.domain1.min_interval'
p803
I48
sS'net.ipv6.conf.ens3.disable_ipv6'
p804
I0
sS'CONFIG_MMU'
p805
S'y'
sS'net.ipv4.conf.ens3.disable_xfrm'
p806
I0
sS'CONFIG_MFD_DA9052_SPI'
p807
S'y'
sS'CONFIG_USE_PERCPU_NUMA_NODE_ID'
p808
S'y'
sS'CONFIG_NET_INGRESS'
p809
S'y'
sS'kernel.sched_domain.cpu19.domain1.name'
p810
S'NUMA'
p811
sS'kernel.sched_domain.cpu28.domain1.max_interval'
p812
I96
sS'kernel.msgmax'
p813
I8192
sS'CONFIG_ARCH_ENABLE_HUGEPAGE_MIGRATION'
p814
S'y'
sS'kernel.sched_domain.cpu28.domain1.max_newidle_lb_cost'
p815
I16808
sS'kernel.sched_domain.cpu21.domain0.cache_nice_tries'
p816
I1
sS'kernel.sched_domain.cpu31.domain1.idle_idx'
p817
I2
sS'CONFIG_CHARGER_MANAGER'
p818
S'y'
sS'net.ipv6.conf.lo.drop_unsolicited_na'
p819
I0
sS'net.ipv4.conf.ens3.medium_id'
p820
I0
sS'kernel.sched_domain.cpu19.domain1.busy_idx'
p821
I3
sS'CONFIG_SYSVIPC'
p822
S'y'
sS'kernel.sched_domain.cpu47.domain1.newidle_idx'
p823
I0
sS'net.ipv6.neigh.ens3.ucast_solicit'
p824
I3
sS'CONFIG_PARPORT_PC_FIFO'
p825
S'y'
sS'CONFIG_WIRELESS'
p826
S'y'
sS'CONFIG_FANOTIFY_ACCESS_PERMISSIONS'
p827
S'y'
sS'CONFIG_DAX'
p828
S'y'
sS'CONFIG_RD_XZ'
p829
S'y'
sS'kernel.sched_domain.cpu17.domain0.busy_factor'
p830
I32
sS'kernel.sched_domain.cpu17.domain1.wake_idx'
p831
I0
sS'CONFIG_CONNECTOR'
p832
S'y'
sS'net.ipv4.conf.default.arp_accept'
p833
I0
sS'kernel.sched_domain.cpu44.domain1.wake_idx'
p834
I0
sS'kernel.sched_domain.cpu34.domain1.busy_factor'
p835
I32
sS'net.ipv4.udp_early_demux'
p836
I1
sS'CONFIG_MFD_88PM860X'
p837
S'y'
sS'kernel.sched_domain.cpu6.domain0.min_interval'
p838
I24
sS'kernel.sched_domain.cpu15.domain0.imbalance_pct'
p839
I125
sS'CONFIG_MODVERSIONS'
p840
S'y'
sS'kernel.sched_migration_cost_ns'
p841
I500000
sS'CONFIG_HAVE_INTEL_TXT'
p842
S'y'
sS'CONFIG_ARCH_HAS_UBSAN_SANITIZE_ALL'
p843
S'y'
sS'kernel.sched_domain.cpu20.domain0.forkexec_idx'
p844
I0
sS'CONFIG_OLD_SIGSUSPEND3'
p845
S'y'
sS'kernel.sched_domain.cpu44.domain0.imbalance_pct'
p846
I125
sS'net.ipv6.conf.ens3.use_tempaddr'
p847
I0
sS'dev.mac_hid.mouse_button2_keycode'
p848
I97
sS'net.ipv6.neigh.lo.proxy_qlen'
p849
I64
sS'kernel.sched_domain.cpu27.domain1.max_interval'
p850
I96
sS'net.ipv6.conf.default.router_probe_interval'
p851
I60
sS'kernel.sched_domain.cpu14.domain1.busy_factor'
p852
I32
sS'net.ipv4.route.error_burst'
p853
I1250
sS'CONFIG_NET_VENDOR_ARC'
p854
S'y'
sS'net.ipv6.conf.all.keep_addr_on_down'
p855
I0
sS'kernel.sched_domain.cpu16.domain1.forkexec_idx'
p856
I0
sS'CONFIG_EDAC_ATOMIC_SCRUB'
p857
S'y'
sS'CONFIG_TRUSTED_KEYS'
p858
S'y'
sS'CONFIG_PWM_SYSFS'
p859
S'y'
sS'kernel.sched_domain.cpu47.domain0.forkexec_idx'
p860
I0
sS'net.ipv4.tcp_fastopen'
p861
I1
sS'net.ipv6.conf.lo.proxy_ndp'
p862
I0
sS'CONFIG_HAVE_KVM_EVENTFD'
p863
S'y'
sS'CONFIG_HAVE_ARCH_KMEMCHECK'
p864
S'y'
sS'CONFIG_PM_DEVFREQ'
p865
S'y'
sS'CONFIG_UID16'
p866
S'y'
sS'kernel.sched_domain.cpu41.domain1.imbalance_pct'
p867
I125
sS'net.ipv6.calipso_cache_bucket_size'
p868
I10
sS'CONFIG_ACPI_SLEEP'
p869
S'y'
sS'kernel.watchdog_cpumask'
p870
S'0-247'
p871
sS'CONFIG_SND_SUPPORT_OLD_API'
p872
S'y'
sS'kernel.sched_domain.cpu39.domain0.newidle_idx'
p873
I0
sS'net.ipv6.conf.all.max_addresses'
p874
I16
sS'kernel.sched_domain.cpu45.domain1.forkexec_idx'
p875
I0
sS'kernel.sched_domain.cpu32.domain0.name'
p876
S'DIE'
p877
sS'kernel.sched_child_runs_first'
p878
I0
sS'net.ipv6.conf.all.accept_ra_from_local'
p879
I0
sS'CONFIG_PINCONF'
p880
S'y'
sS'CONFIG_RTC_HCTOSYS'
p881
S'y'
sS'CONFIG_CRYPTO_GCM'
p882
S'y'
sS'kernel.sched_domain.cpu31.domain0.forkexec_idx'
p883
I0
sS'kernel.softlockup_panic'
p884
I0
sS'kernel.sched_domain.cpu18.domain1.imbalance_pct'
p885
I125
sS'kernel.sched_domain.cpu25.domain0.max_interval'
p886
I48
sS'CONFIG_RTC_I2C_AND_SPI'
p887
S'y'
sS'CONFIG_USB_EHCI_HCD'
p888
S'y'
sS'kernel.sched_domain.cpu36.domain1.forkexec_idx'
p889
I0
sS'CONFIG_CHROME_PLATFORMS'
p890
S'y'
sS'kernel.sched_domain.cpu7.domain1.max_interval'
p891
I96
sS'CONFIG_HAVE_ARCH_KGDB'
p892
S'y'
sS'CONFIG_IO_DELAY_TYPE_0XED'
p893
I1
sS'net.ipv6.conf.ens3.drop_unicast_in_l2_multicast'
p894
I0
sS'net.ipv6.conf.default.force_mld_version'
p895
I0
sS'kernel.sched_domain.cpu35.domain0.min_interval'
p896
I24
sS'net.ipv4.ip_no_pmtu_disc'
p897
I0
sS'CONFIG_GENERIC_CLOCKEVENTS_BROADCAST'
p898
S'y'
sS'CONFIG_WLAN_VENDOR_MEDIATEK'
p899
S'y'
sS'vm.dirty_writeback_centisecs'
p900
I500
sS'net.ipv4.conf.all.send_redirects'
p901
I1
sS'CONFIG_SCSI_CXGB3_ISCSI'
p902
S'm'
sS'net.ipv6.conf.lo.accept_ra'
p903
I1
sS'kernel.sched_domain.cpu2.domain0.max_newidle_lb_cost'
p904
I109777
sS'CONFIG_ARCH_SUPPORTS_OPTIMIZED_INLINING'
p905
S'y'
sS'net.ipv4.conf.default.proxy_arp_pvlan'
p906
I0
sS'kernel.sched_domain.cpu27.domain0.max_newidle_lb_cost'
p907
I26263
sS'kernel.sched_domain.cpu33.domain1.idle_idx'
p908
I2
sS'CONFIG_PM_STD_PARTITION'
p909
S'""'
p910
sS'net.ipv4.conf.ens3.secure_redirects'
p911
I1
sS'kernel.sched_domain.cpu27.domain1.name'
p912
S'NUMA'
p913
sS'CONFIG_ULTRIX_PARTITION'
p914
S'y'
sS'CONFIG_HAVE_NMI'
p915
S'y'
sS'kernel.sched_domain.cpu19.domain1.busy_factor'
p916
I32
sS'CONFIG_NET_VENDOR_3COM'
p917
S'y'
sS'kernel.sched_domain.cpu16.domain1.name'
p918
S'NUMA'
p919
sS'net.ipv6.conf.ens3.seg6_enabled'
p920
I0
sS'kernel.sched_domain.cpu13.domain1.idle_idx'
p921
I2
sS'fs.mqueue.msgsize_max'
p922
I8192
sS'kernel.sched_domain.cpu45.domain1.flags'
p923
I25647
sS'kernel.sched_domain.cpu13.domain0.name'
p924
S'DIE'
p925
sS'CONFIG_HAVE_KERNEL_XZ'
p926
S'y'
sS'net.ipv4.conf.all.forwarding'
p927
I0
sS'CONFIG_USB_DEFAULT_PERSIST'
p928
S'y'
sS'CONFIG_NEW_LEDS'
p929
S'y'
sS'kernel.sched_domain.cpu28.domain0.flags'
p930
I4143
sS'kernel.perf_event_paranoid'
p931
I2
sS'net.ipv4.conf.all.bootp_relay'
p932
I0
sS'net.ipv6.neigh.default.base_reachable_time_ms'
p933
I30000
sS'kernel.sched_domain.cpu24.domain1.flags'
p934
I25647
sS'kernel.perf_event_mlock_kb'
p935
I516
sS'vm.block_dump'
p936
I0
sS'kernel.sched_domain.cpu16.domain0.busy_factor'
p937
I32
sS'CONFIG_PHYLIB'
p938
S'y'
sS'net.ipv4.tcp_keepalive_intvl'
p939
I75
sS'net.ipv4.conf.all.igmpv3_unsolicited_report_interval'
p940
I1000
sS'CONFIG_PCI_MSI'
p941
S'y'
sS'net.ipv4.conf.default.send_redirects'
p942
I1
sS'net.ipv6.conf.default.disable_ipv6'
p943
I0
sS'kernel.sched_domain.cpu26.domain1.min_interval'
p944
I48
sS'kernel.sched_domain.cpu20.domain1.newidle_idx'
p945
I0
sS'kernel.sched_domain.cpu35.domain0.idle_idx'
p946
I1
sS'fs.pipe-user-pages-hard'
p947
I0
sS'net.ipv4.route.redirect_number'
p948
I9
sS'net.ipv6.conf.lo.hop_limit'
p949
I64
sS'kernel.sched_domain.cpu7.domain1.newidle_idx'
p950
I0
sS'net.ipv4.conf.all.arp_accept'
p951
I0
sS'kernel.sched_domain.cpu36.domain1.busy_factor'
p952
I32
sS'CONFIG_BINARY_PRINTF'
p953
S'y'
sS'kernel.numa_balancing_scan_period_max_ms'
p954
I60000
sS'kernel.msgmnb'
p955
I16384
sS'CONFIG_IRQ_BYPASS_MANAGER'
p956
S'm'
sS'kernel.sched_domain.cpu34.domain0.imbalance_pct'
p957
I125
sS'kernel.msgmni'
p958
I32000
sS'CONFIG_SLUB'
p959
S'y'
sS'kernel.soft_watchdog'
p960
I1
sS'kernel.sched_domain.cpu40.domain0.cache_nice_tries'
p961
I1
sS'kernel.sched_time_avg_ms'
p962
I1000
sS'kernel.sched_domain.cpu21.domain0.busy_idx'
p963
I2
sS'net.ipv4.conf.lo.rp_filter'
p964
I0
sS'CONFIG_X86_INTEL_MPX'
p965
S'y'
sS'CONFIG_X86_ACPI_CPUFREQ_CPB'
p966
S'y'
sS'net.ipv6.conf.default.mc_forwarding'
p967
I0
sS'kernel.threads-max'
p968
I515027
sS'kernel.sched_domain.cpu1.domain1.busy_factor'
p969
I32
sS'kernel.sched_domain.cpu18.domain1.busy_idx'
p970
I3
sS'kernel.overflowuid'
p971
I65534
sS'net.ipv4.conf.default.arp_announce'
p972
I0
sS'CONFIG_ACPI_DOCK'
p973
S'y'
sS'CONFIG_X86_INTEL_MEMORY_PROTECTION_KEYS'
p974
S'y'
sS'kernel.sched_domain.cpu40.domain1.idle_idx'
p975
I2
sS'net.ipv4.neigh.ens3.base_reachable_time_ms'
p976
I30000
sS'CONFIG_SCHED_MC'
p977
S'y'
sS'CONFIG_ARCH_HAS_MEM_ENCRYPT'
p978
S'y'
sS'kernel.sched_domain.cpu35.domain1.min_interval'
p979
I48
sS'kernel.sched_domain.cpu43.domain1.flags'
p980
I25647
sS'kernel.sched_domain.cpu17.domain1.min_interval'
p981
I48
sS'kernel.keys.gc_delay'
p982
I300
sS'CONFIG_HAVE_ARCH_TRANSPARENT_HUGEPAGE_PUD'
p983
S'y'
sS'kernel.hung_task_timeout_secs'
p984
I120
sS'kernel.sched_domain.cpu44.domain1.idle_idx'
p985
I2
sS'CONFIG_X86_MINIMUM_CPU_FAMILY'
p986
I64
sS'CONFIG_CRYPTO_KPP2'
p987
S'y'
sS'CONFIG_SQUASHFS_ZLIB'
p988
S'y'
sS'CONFIG_X86_PLATFORM_DEVICES'
p989
S'y'
sS'CONFIG_CONTEXT_SWITCH_TRACER'
p990
S'y'
sS'net.ipv4.conf.default.accept_source_route'
p991
I1
sS'kernel.core_pipe_limit'
p992
I0
sS'kernel.sched_domain.cpu32.domain1.idle_idx'
p993
I2
sS'kernel.timer_migration'
p994
I1
sS'kernel.sched_domain.cpu7.domain1.imbalance_pct'
p995
I125
sS'CONFIG_CC_STACKPROTECTOR'
p996
S'y'
sS'kernel.sched_domain.cpu38.domain0.name'
p997
S'DIE'
p998
sS'kernel.sched_domain.cpu19.domain1.max_interval'
p999
I96
sS'CONFIG_PERF_EVENTS_INTEL_RAPL'
p1000
S'y'
sS'CONFIG_HAVE_PERF_USER_STACK_DUMP'
p1001
S'y'
sS'CONFIG_SERIAL_SCCNXP'
p1002
S'y'
sS'kernel.sched_domain.cpu28.domain1.cache_nice_tries'
p1003
I2
sS'CONFIG_EFI_RUNTIME_MAP'
p1004
S'y'
sS'kernel.sched_domain.cpu18.domain1.flags'
p1005
I25647
sS'net.ipv6.neigh.lo.base_reachable_time_ms'
p1006
I30000
sS'kernel.sched_domain.cpu34.domain1.max_interval'
p1007
I96
sS'debug.kprobes-optimization'
p1008
I1
sS'kernel.sched_domain.cpu6.domain0.idle_idx'
p1009
I1
sS'CONFIG_BPF_SYSCALL'
p1010
S'y'
sS'net.ipv6.conf.default.accept_ra_pinfo'
p1011
I1
sS'kernel.sched_domain.cpu19.domain0.name'
p1012
S'DIE'
p1013
sS'CONFIG_VIRTIO_PCI_LEGACY'
p1014
S'y'
sS'kernel.sched_domain.cpu2.domain1.max_interval'
p1015
I96
sS'CONFIG_WLAN_VENDOR_QUANTENNA'
p1016
S'y'
sS'kernel.sched_domain.cpu25.domain0.forkexec_idx'
p1017
I0
sS'net.ipv4.neigh.lo.retrans_time_ms'
p1018
I1000
sS'CONFIG_CRYPTO_DEV_CCP'
p1019
S'y'
sS'CONFIG_HAVE_EFFICIENT_UNALIGNED_ACCESS'
p1020
S'y'
sS'CONFIG_USB_ANNOUNCE_NEW_DEVICES'
p1021
S'y'
sS'CONFIG_AUTOFS4_FS'
p1022
S'm'
sS'kernel.sched_domain.cpu46.domain1.name'
p1023
S'NUMA'
p1024
sS'CONFIG_STAGING'
p1025
S'y'
sS'CONFIG_SYSVIPC_COMPAT'
p1026
S'y'
sS'CONFIG_ARCH_HAS_FAST_MULTIPLIER'
p1027
S'y'
sS'CONFIG_IPV6_MROUTE_MULTIPLE_TABLES'
p1028
S'y'
sS'CONFIG_NET_VENDOR_STMICRO'
p1029
S'y'
sS'CONFIG_NUMA_BALANCING_DEFAULT_ENABLED'
p1030
S'y'
sS'kernel.sched_domain.cpu12.domain0.flags'
p1031
I4143
sS'kernel.sched_domain.cpu31.domain1.newidle_idx'
p1032
I0
sS'kernel.sched_domain.cpu15.domain1.forkexec_idx'
p1033
I0
sS'net.ipv6.conf.all.accept_ra_rt_info_max_plen'
p1034
I0
sS'CONFIG_X86_DEV_DMA_OPS'
p1035
S'y'
sS'CONFIG_PCI_ATS'
p1036
S'y'
sS'CONFIG_RD_LZO'
p1037
S'y'
sS'kernel.sched_domain.cpu7.domain1.cache_nice_tries'
p1038
I2
sS'kernel.sched_domain.cpu32.domain0.max_newidle_lb_cost'
p1039
I98944
sS'CONFIG_BLK_DEV'
p1040
S'y'
sS'CONFIG_HARDLOCKUP_CHECK_TIMESTAMP'
p1041
S'y'
sS'CONFIG_INLINE_READ_UNLOCK_IRQ'
p1042
S'y'
sS'CONFIG_SQUASHFS_XZ'
p1043
S'y'
sS'kernel.sched_domain.cpu10.domain0.busy_factor'
p1044
I32
sS'CONFIG_MDIO_DEVICE'
p1045
S'y'
sS'CONFIG_GPIO_RC5T583'
p1046
S'y'
sS'net.ipv4.tcp_moderate_rcvbuf'
p1047
I1
sS'kernel.sched_domain.cpu41.domain0.name'
p1048
S'DIE'
p1049
sS'CONFIG_STACKTRACE'
p1050
S'y'
sS'CONFIG_ATA_BMDMA'
p1051
S'y'
sS'kernel.sched_domain.cpu20.domain1.forkexec_idx'
p1052
I0
sS'kernel.sched_domain.cpu46.domain1.flags'
p1053
I25647
sS'net.ipv4.tcp_min_rtt_wlen'
p1054
I300
sS'net.ipv6.fwmark_reflect'
p1055
I0
sS'CONFIG_MOUSE_PS2_VMMOUSE'
p1056
S'y'
sS'kernel.sched_domain.cpu22.domain0.wake_idx'
p1057
I0
sS'CONFIG_SECURITY_APPARMOR'
p1058
S'y'
sS'CONFIG_WATCHDOG_CORE'
p1059
S'y'
sS'CONFIG_SERIAL_KGDB_NMI'
p1060
S'y'
sS'CONFIG_INSTRUCTION_DECODER'
p1061
S'y'
sS'kernel.sched_domain.cpu44.domain1.max_interval'
p1062
I96
sS'net.ipv6.neigh.ens3.proxy_delay'
p1063
I80
sS'CONFIG_SOC_TI'
p1064
S'y'
sS'net.ipv4.neigh.default.gc_stale_time'
p1065
I60
sS'CONFIG_MFD_TPS80031'
p1066
S'y'
sS'kernel.sched_domain.cpu2.domain1.forkexec_idx'
p1067
I0
sS'CONFIG_MEMCG'
p1068
S'y'
sS'net.ipv6.conf.default.dad_transmits'
p1069
I1
sS'kernel.sched_domain.cpu12.domain1.max_newidle_lb_cost'
p1070
I19624
sS'net.ipv4.neigh.lo.ucast_solicit'
p1071
I3
sS'kernel.sched_domain.cpu8.domain1.busy_factor'
p1072
I32
sS'CONFIG_IOSCHED_CFQ'
p1073
S'y'
sS'kernel.sched_domain.cpu34.domain0.min_interval'
p1074
I24
sS'net.ipv6.conf.all.mldv1_unsolicited_report_interval'
p1075
I10000
sS'kernel.sched_domain.cpu2.domain0.idle_idx'
p1076
I1
sS'CONFIG_BLK_DEV_DM'
p1077
S'y'
sS'CONFIG_DEFAULT_HUNG_TASK_TIMEOUT'
p1078
I120
sS'CONFIG_CPU_FREQ_GOV_ATTR_SET'
p1079
S'y'
sS'net.ipv6.conf.default.regen_max_retry'
p1080
I3
sS'CONFIG_SND_PCI'
p1081
S'y'
sS'CONFIG_GENERIC_CPU'
p1082
S'y'
sS'net.ipv4.conf.default.accept_local'
p1083
I0
sS'net.ipv6.conf.default.forwarding'
p1084
I0
sS'net.core.dev_weight_rx_bias'
p1085
I1
sS'CONFIG_CPU_SUP_AMD'
p1086
S'y'
sS'kernel.sched_domain.cpu44.domain0.wake_idx'
p1087
I0
sS'CONFIG_GENERIC_FIND_FIRST_BIT'
p1088
S'y'
sS'CONFIG_HAVE_USER_RETURN_NOTIFIER'
p1089
S'y'
sS'kernel.core_pattern'
p1090
S'|/usr/share/apport/apport %p %s %c %d %P'
p1091
sS'kernel.perf_event_max_sample_rate'
p1092
I100000
sS'CONFIG_SCSI'
p1093
S'y'
sS'kernel.sched_domain.cpu26.domain0.cache_nice_tries'
p1094
I1
sS'CONFIG_HAVE_GCC_PLUGINS'
p1095
S'y'
sS'CONFIG_GENERIC_EARLY_IOREMAP'
p1096
S'y'
sS'kernel.random.poolsize'
p1097
I4096
sS'CONFIG_GLOB'
p1098
S'y'
sS'CONFIG_ZBUD'
p1099
S'y'
sS'CONFIG_ARCH_MMAP_RND_BITS_MAX'
p1100
I32
sS'net.ipv6.conf.lo.force_mld_version'
p1101
I0
sS'CONFIG_NUMA_BALANCING'
p1102
S'y'
sS'net.ipv4.conf.ens3.accept_redirects'
p1103
I1
sS'kernel.sched_domain.cpu1.domain0.busy_factor'
p1104
I32
sS'CONFIG_EDD_OFF'
p1105
S'y'
sS'CONFIG_THERMAL'
p1106
S'y'
sS'CONFIG_BPF'
p1107
S'y'
sS'CONFIG_HUGETLBFS'
p1108
S'y'
sS'net.ipv4.tcp_frto'
p1109
I2
sS'CONFIG_ETHERNET'
p1110
S'y'
sS'net.ipv4.tcp_probe_threshold'
p1111
I8
sS'kernel.sched_domain.cpu20.domain0.name'
p1112
S'DIE'
p1113
sS'kernel.sched_domain.cpu35.domain1.name'
p1114
S'NUMA'
p1115
sS'net.ipv4.conf.default.forwarding'
p1116
I0
sS'CONFIG_DECOMPRESS_BZIP2'
p1117
S'y'
sS'net.ipv6.conf.default.accept_ra_rtr_pref'
p1118
I1
sS'net.ipv4.neigh.lo.delay_first_probe_time'
p1119
I5
sS'kernel.sched_domain.cpu9.domain0.cache_nice_tries'
p1120
I1
sS'CONFIG_MFD_MAX8998'
p1121
S'y'
sS'CONFIG_AB3100_CORE'
p1122
S'y'
sS'CONFIG_PM'
p1123
S'y'
sS'kernel.sched_domain.cpu43.domain0.wake_idx'
p1124
I0
sS'CONFIG_FAIR_GROUP_SCHED'
p1125
S'y'
sS'CONFIG_HAVE_ARCH_HUGE_VMAP'
p1126
S'y'
sS'net.ipv4.ip_forward'
p1127
I0
sS'CONFIG_COMPAT_32'
p1128
S'y'
sS'kernel.sched_domain.cpu12.domain0.forkexec_idx'
p1129
I0
sS'kernel.sched_domain.cpu23.domain1.forkexec_idx'
p1130
I0
sS'kernel.sched_domain.cpu7.domain0.busy_factor'
p1131
I32
sS'kernel.sched_domain.cpu0.domain0.name'
p1132
S'DIE'
p1133
sS'kernel.sched_domain.cpu3.domain0.busy_idx'
p1134
I2
sS'kernel.sched_domain.cpu0.domain0.max_interval'
p1135
I48
sS'kernel.sched_domain.cpu14.domain1.min_interval'
p1136
I48
sS'kernel.sched_domain.cpu21.domain1.idle_idx'
p1137
I2
sS'kernel.sched_domain.cpu12.domain1.flags'
p1138
I25647
sS'kernel.sched_domain.cpu18.domain0.name'
p1139
S'DIE'
p1140
sS'CONFIG_NETFILTER_ADVANCED'
p1141
S'y'
sS'CONFIG_RANDOMIZE_MEMORY'
p1142
S'y'
sS'CONFIG_ASYNC_MEMCPY'
p1143
S'm'
sS'net.ipv6.conf.default.accept_ra_from_local'
p1144
I0
sS'CONFIG_WLAN_VENDOR_REALTEK'
p1145
S'y'
sS'kernel.sched_domain.cpu32.domain1.name'
p1146
S'NUMA'
p1147
sS'kernel.sched_domain.cpu42.domain0.busy_idx'
p1148
I2
sS'kernel.sched_domain.cpu26.domain1.cache_nice_tries'
p1149
I2
sS'net.ipv4.conf.lo.accept_redirects'
p1150
I1
sS'net.core.flow_limit_table_len'
p1151
I4096
sS'kernel.sched_domain.cpu6.domain0.imbalance_pct'
p1152
I125
sS'kernel.sched_domain.cpu17.domain0.wake_idx'
p1153
I0
sS'CONFIG_MOUSE_PS2_SYNAPTICS_SMBUS'
p1154
S'y'
sS'CONFIG_ZONE_DMA'
p1155
S'y'
sS'net.core.max_skb_frags'
p1156
I17
sS'CONFIG_TCP_CONG_CUBIC'
p1157
S'y'
sS'CONFIG_COMPAT_FOR_U64_ALIGNMENT'
p1158
S'y'
sS'kernel.sched_domain.cpu23.domain1.busy_factor'
p1159
I32
sS'CONFIG_HAVE_KVM_CPU_RELAX_INTERCEPT'
p1160
S'y'
sS'CONFIG_VHOST'
p1161
S'm'
sS'kernel.sched_domain.cpu26.domain1.flags'
p1162
I25647
sS'net.ipv6.neigh.ens3.gc_stale_time'
p1163
I60
sS'kernel.sched_domain.cpu15.domain1.busy_factor'
p1164
I32
sS'CONFIG_HAVE_NET_DSA'
p1165
S'y'
sS'kernel.sched_domain.cpu34.domain1.forkexec_idx'
p1166
I0
sS'CONFIG_PCI_LABEL'
p1167
S'y'
sS'CONFIG_IOMMU_IOVA'
p1168
S'y'
sS'kernel.sched_domain.cpu23.domain1.imbalance_pct'
p1169
I125
sS'kernel.sched_domain.cpu6.domain0.max_newidle_lb_cost'
p1170
I99096
sS'CONFIG_GENERIC_IOMAP'
p1171
S'y'
sS'CONFIG_ISCSI_IBFT_FIND'
p1172
S'y'
sS'kernel.sched_domain.cpu6.domain1.busy_idx'
p1173
I3
sS'kernel.sched_domain.cpu5.domain1.max_interval'
p1174
I96
sS'CONFIG_USB_DWC2'
p1175
S'y'
sS'kernel.sched_domain.cpu38.domain0.imbalance_pct'
p1176
I125
sS'kernel.sched_domain.cpu45.domain1.wake_idx'
p1177
I0
sS'CONFIG_EVM'
p1178
S'y'
sS'CONFIG_PKCS7_MESSAGE_PARSER'
p1179
S'y'
sS'kernel.sched_domain.cpu43.domain0.busy_idx'
p1180
I2
sS'CONFIG_IA32_EMULATION'
p1181
S'y'
sS'net.ipv4.tcp_workaround_signed_windows'
p1182
I0
sS'kernel.sched_domain.cpu44.domain1.busy_idx'
p1183
I3
sS'CONFIG_IP_MROUTE'
p1184
S'y'
sS'kernel.sched_domain.cpu22.domain0.name'
p1185
S'DIE'
p1186
sS'net.ipv4.ipfrag_secret_interval'
p1187
I0
sS'CONFIG_ZSTD_DECOMPRESS'
p1188
S'm'
sS'kernel.sched_domain.cpu29.domain1.cache_nice_tries'
p1189
I2
sS'net.ipv6.neigh.default.ucast_solicit'
p1190
I3
sS'net.ipv6.neigh.default.locktime'
p1191
I0
sS'CONFIG_AGP_VIA'
p1192
S'y'
sS'net.ipv6.auto_flowlabels'
p1193
I1
sS'kernel.sched_domain.cpu28.domain0.max_newidle_lb_cost'
p1194
I23334
sS'kernel.sched_domain.cpu46.domain1.cache_nice_tries'
p1195
I2
sS'kernel.sched_domain.cpu19.domain0.cache_nice_tries'
p1196
I1
sS'kernel.sched_domain.cpu28.domain1.newidle_idx'
p1197
I0
sS'kernel.sched_domain.cpu14.domain0.flags'
p1198
I4143
sS'kernel.sched_domain.cpu31.domain1.max_newidle_lb_cost'
p1199
I25500
sS'CONFIG_ELFCORE'
p1200
S'y'
sS'CONFIG_BPF_EVENTS'
p1201
S'y'
sS'net.ipv4.neigh.lo.mcast_solicit'
p1202
I3
sS'CONFIG_BUILD_BIN2C'
p1203
S'y'
sS'kernel.sched_domain.cpu14.domain1.max_interval'
p1204
I96
sS'CONFIG_I2C_PIIX4'
p1205
S'm'
sS'CONFIG_SND_HDA_GENERIC'
p1206
S'm'
sS'net.core.bpf_jit_enable'
p1207
I0
sS'CONFIG_SND_HDA'
p1208
S'm'
sS'fs.quota.drops'
p1209
I0
sS'kernel.acct'
p1210
S'4\t2\t30'
p1211
sS'kernel.sched_domain.cpu8.domain0.name'
p1212
S'DIE'
p1213
sS'fs.mqueue.msg_max'
p1214
I10
sS'kernel.yama.ptrace_scope'
p1215
I1
sS'kernel.sched_domain.cpu19.domain0.idle_idx'
p1216
I1
sS'kernel.sched_domain.cpu35.domain1.flags'
p1217
I25647
sS'dev.parport.default.timeslice'
p1218
I200
sS'net.ipv4.inet_peer_threshold'
p1219
I65664
sS'kernel.sched_domain.cpu21.domain0.max_newidle_lb_cost'
p1220
I142389
sS'CONFIG_HAVE_ARCH_TRACEHOOK'
p1221
S'y'
sS'net.ipv6.conf.all.ignore_routes_with_linkdown'
p1222
I0
sS'net.core.rps_sock_flow_entries'
p1223
I0
sS'CONFIG_ARCH_SELECT_MEMORY_MODEL'
p1224
S'y'
sS'CONFIG_FONT_8x8'
p1225
S'y'
sS'kernel.sched_domain.cpu1.domain0.min_interval'
p1226
I24
sS'net.ipv4.tcp_recovery'
p1227
I1
sS'CONFIG_EARLY_PRINTK_USB'
p1228
S'y'
sS'kernel.sched_domain.cpu26.domain1.max_interval'
p1229
I96
sS'CONFIG_EDD'
p1230
S'y'
sS'kernel.sched_domain.cpu26.domain1.name'
p1231
S'NUMA'
p1232
sS'net.ipv6.route.max_size'
p1233
I4096
sS'kernel.sched_domain.cpu37.domain0.flags'
p1234
I4143
sS'kernel.sched_domain.cpu5.domain0.imbalance_pct'
p1235
I125
sS'kernel.sched_domain.cpu13.domain1.name'
p1236
S'NUMA'
p1237
sS'CONFIG_FTRACE_SYSCALLS'
p1238
S'y'
sS'net.ipv6.conf.lo.accept_ra_rt_info_min_plen'
p1239
I0
sS'CONFIG_GENERIC_IRQ_MIGRATION'
p1240
S'y'
sS'kernel.sched_domain.cpu5.domain0.max_interval'
p1241
I48
sS'fs.inode-state'
p1242
S'100538\t517\t0\t0\t0\t0\t0'
p1243
sS'CONFIG_HTC_I2CPLD'
p1244
S'y'
sS'kernel.sched_domain.cpu27.domain0.newidle_idx'
p1245
I0
sS'kernel.sched_domain.cpu35.domain0.busy_factor'
p1246
I32
sS'kernel.sched_domain.cpu25.domain0.flags'
p1247
I4143
sS'net.ipv4.ipfrag_max_dist'
p1248
I64
sS'kernel.sched_rt_period_us'
p1249
I1000000
sS'CONFIG_HAVE_CONTEXT_TRACKING'
p1250
S'y'
sS'CONFIG_CRYPTO_DRBG'
p1251
S'y'
sS'CONFIG_ADVISE_SYSCALLS'
p1252
S'y'
sS'CONFIG_STRICT_MODULE_RWX'
p1253
S'y'
sS'kernel.sched_domain.cpu19.domain0.busy_idx'
p1254
I2
sS'kernel.printk_delay'
p1255
I0
sS'kernel.sched_domain.cpu8.domain0.forkexec_idx'
p1256
I0
sS'kernel.sched_domain.cpu41.domain1.max_newidle_lb_cost'
p1257
I18835
sS'CONFIG_GENERIC_ISA_DMA'
p1258
S'y'
sS'net.ipv4.neigh.default.retrans_time_ms'
p1259
I1000
sS'net.core.wmem_default'
p1260
I212992
sS'CONFIG_RATIONAL'
p1261
S'y'
sS'kernel.sched_domain.cpu16.domain1.max_newidle_lb_cost'
p1262
I22611
sS'CONFIG_ARCH_DMA_ADDR_T_64BIT'
p1263
S'y'
sS'kernel.sched_domain.cpu22.domain0.busy_idx'
p1264
I2
sS'CONFIG_IP_NF_FILTER'
p1265
S'm'
sS'kernel.sched_domain.cpu20.domain1.min_interval'
p1266
I48
sS'net.ipv4.conf.default.route_localnet'
p1267
I0
sS'net.ipv4.conf.lo.proxy_arp'
p1268
I0
sS'CONFIG_PMIC_DA903X'
p1269
S'y'
sS'CONFIG_X86_POWERNOW_K8'
p1270
S'y'
sS'CONFIG_ACPI_APEI_MEMORY_FAILURE'
p1271
S'y'
sS'net.ipv4.ip_local_reserved_ports'
p1272
S''
sS'CONFIG_NET_VENDOR_QLOGIC'
p1273
S'y'
sS'CONFIG_PCSPKR_PLATFORM'
p1274
S'y'
sS'kernel.sched_domain.cpu17.domain0.max_interval'
p1275
I48
sS'net.ipv6.conf.lo.max_addresses'
p1276
I16
sS'kernel.sched_domain.cpu20.domain1.name'
p1277
S'NUMA'
p1278
sS'kernel.sched_domain.cpu7.domain0.min_interval'
p1279
I24
sS'kernel.sched_domain.cpu36.domain0.busy_factor'
p1280
I32
sS'kernel.sysctl_writes_strict'
p1281
I1
sS'vm.drop_caches'
p1282
I0
sS'kernel.sched_domain.cpu45.domain0.wake_idx'
p1283
I0
sS'kernel.sched_domain.cpu21.domain0.newidle_idx'
p1284
I0
sS'kernel.sched_domain.cpu37.domain0.min_interval'
p1285
I24
sS'net.ipv6.conf.ens3.temp_valid_lft'
p1286
I604800
sS'CONFIG_HAVE_FUNCTION_TRACER'
p1287
S'y'
sS'kernel.sched_domain.cpu45.domain0.forkexec_idx'
p1288
I0
sS'kernel.sched_domain.cpu22.domain0.max_newidle_lb_cost'
p1289
I22762
sS'kernel.sched_domain.cpu35.domain0.busy_idx'
p1290
I2
sS'kernel.sched_domain.cpu2.domain1.flags'
p1291
I25647
sS'CONFIG_PCI_PASID'
p1292
S'y'
sS'dev.cdrom.info'
p1293
S''
sS'kernel.sched_domain.cpu21.domain1.name'
p1294
S'NUMA'
p1295
sS'kernel.sched_domain.cpu47.domain0.imbalance_pct'
p1296
I125
sS'CONFIG_NET_VENDOR_AQUANTIA'
p1297
S'y'
sS'kernel.sched_domain.cpu9.domain0.wake_idx'
p1298
I0
sS'CONFIG_TRANSPARENT_HUGEPAGE_ALWAYS'
p1299
S'y'
sS'CONFIG_LZO_DECOMPRESS'
p1300
S'y'
sg8
S'HostInfo.host-192.168.123.30'
p1301
sS'CONFIG_X86_L1_CACHE_SHIFT'
p1302
I6
sS'kernel.sched_domain.cpu41.domain1.min_interval'
p1303
I48
sS'kernel.sched_domain.cpu12.domain0.wake_idx'
p1304
I0
sS'kernel.sched_domain.cpu13.domain0.busy_factor'
p1305
I32
sS'CONFIG_NET_VENDOR_HP'
p1306
S'y'
sS'CONFIG_NET_VENDOR_MELLANOX'
p1307
S'y'
sS'CONFIG_SHMEM'
p1308
S'y'
sS'CONFIG_EFI_RUNTIME_WRAPPERS'
p1309
S'y'
sS'net.core.netdev_max_backlog'
p1310
I1000
sS'kernel.sched_domain.cpu8.domain0.max_newidle_lb_cost'
p1311
I55042
sS'CONFIG_PM_TRACE_RTC'
p1312
S'y'
sS'kernel.sched_domain.cpu32.domain0.newidle_idx'
p1313
I0
sS'kernel.sched_domain.cpu41.domain1.newidle_idx'
p1314
I0
sS'CONFIG_VIRTIO_BLK'
p1315
S'y'
sS'net.ipv6.neigh.ens3.unres_qlen'
p1316
I101
sS'CONFIG_ARCH_HIBERNATION_POSSIBLE'
p1317
S'y'
sS'kernel.hotplug'
p1318
S''
sS'kernel.sched_domain.cpu36.domain0.newidle_idx'
p1319
I0
sS'CONFIG_SERIAL_CORE_CONSOLE'
p1320
S'y'
sS'kernel.sched_domain.cpu4.domain1.cache_nice_tries'
p1321
I2
sS'kernel.sched_domain.cpu9.domain0.busy_idx'
p1322
I2
sS'CONFIG_ARCH_WANTS_THP_SWAP'
p1323
S'y'
sS'kernel.ostype'
p1324
S'Linux'
p1325
sS'CONFIG_PNP'
p1326
S'y'
sS'CONFIG_MTRR_SANITIZER'
p1327
S'y'
sS'kernel.sched_domain.cpu9.domain0.imbalance_pct'
p1328
I125
sS'CONFIG_MOUSE_PS2_TOUCHKIT'
p1329
S'y'
sS'CONFIG_IPV6'
p1330
S'y'
sS'CONFIG_GENERIC_CLOCKEVENTS'
p1331
S'y'
sS'CONFIG_MICROCODE_INTEL'
p1332
S'y'
sS'kernel.sched_domain.cpu33.domain0.name'
p1333
S'DIE'
p1334
sS'CONFIG_PM_CLK'
p1335
S'y'
sS'CONFIG_RFKILL_INPUT'
p1336
S'y'
sS'CONFIG_I2C_COMPAT'
p1337
S'y'
sS'kernel.sched_domain.cpu36.domain0.flags'
p1338
I4143
sS'kernel.sched_domain.cpu12.domain0.min_interval'
p1339
I24
sS'kernel.sched_domain.cpu11.domain1.newidle_idx'
p1340
I0
sS'CONFIG_SERIAL_8250_NR_UARTS'
p1341
I48
sS'CONFIG_KVM_COMPAT'
p1342
S'y'
sS'CONFIG_TCG_TPM'
p1343
S'y'
sS'CONFIG_I2C_DESIGNWARE_PLATFORM'
p1344
S'y'
sS'kernel.sched_domain.cpu47.domain0.cache_nice_tries'
p1345
I1
sS'kernel.sched_domain.cpu29.domain0.newidle_idx'
p1346
I0
sS'CONFIG_X86_INTEL_LPSS'
p1347
S'y'
sS'kernel.sched_domain.cpu39.domain0.name'
p1348
S'DIE'
p1349
sS'kernel.sched_domain.cpu29.domain1.flags'
p1350
I25647
sS'kernel.sched_domain.cpu27.domain0.flags'
p1351
I4143
sS'net.ipv4.conf.all.log_martians'
p1352
I0
sS'kernel.sched_domain.cpu6.domain0.busy_factor'
p1353
I32
sS'kernel.sched_domain.cpu4.domain0.imbalance_pct'
p1354
I125
sS'CONFIG_SQUASHFS'
p1355
S'y'
sS'kernel.sched_domain.cpu28.domain0.cache_nice_tries'
p1356
I1
sS'CONFIG_MFD_MAX77693'
p1357
S'y'
sS'kernel.sched_domain.cpu0.domain1.max_newidle_lb_cost'
p1358
I16903
sS'kernel.sched_domain.cpu23.domain0.newidle_idx'
p1359
I0
sS'kernel.sched_domain.cpu17.domain1.cache_nice_tries'
p1360
I2
sS'CONFIG_CGROUP_DEVICE'
p1361
S'y'
sS'CONFIG_NET_VENDOR_ALTEON'
p1362
S'y'
sS'CONFIG_BSD_PROCESS_ACCT_V3'
p1363
S'y'
sS'net.ipv4.conf.ens3.tag'
p1364
I0
sS'CONFIG_AMD_NB'
p1365
S'y'
sS'net.ipv4.conf.default.tag'
p1366
I0
sS'net.ipv4.tcp_max_syn_backlog'
p1367
I2048
sS'kernel.sched_domain.cpu10.domain1.idle_idx'
p1368
I2
sS'CONFIG_DECOMPRESS_XZ'
p1369
S'y'
sS'kernel.sched_domain.cpu23.domain1.cache_nice_tries'
p1370
I2
sS'kernel.sched_domain.cpu16.domain1.flags'
p1371
I25647
sS'kernel.sched_domain.cpu39.domain0.flags'
p1372
I4143
sS'net.ipv6.ip6frag_high_thresh'
p1373
I4194304
sS'kernel.sched_domain.cpu21.domain0.busy_factor'
p1374
I32
sS'CONFIG_HAVE_ARCH_JUMP_LABEL'
p1375
S'y'
sS'vm.dirty_expire_centisecs'
p1376
I3000
sS'kernel.sched_domain.cpu17.domain1.name'
p1377
S'NUMA'
p1378
sS'CONFIG_KERNFS'
p1379
S'y'
sS'CONFIG_TCG_TIS_CORE'
p1380
S'y'
sS'CONFIG_IP_MULTICAST'
p1381
S'y'
sS'CONFIG_PM_WAKELOCKS_GC'
p1382
S'y'
sS'kernel.sched_domain.cpu3.domain0.wake_idx'
p1383
I0
sS'kernel.sched_domain.cpu18.domain0.newidle_idx'
p1384
I0
sS'CONFIG_GENERIC_IRQ_SHOW'
p1385
S'y'
sS'CONFIG_MFD_WM8400'
p1386
S'y'
sS'net.ipv6.conf.all.forwarding'
p1387
I0
sS'CONFIG_SERIAL_8250_MANY_PORTS'
p1388
S'y'
sS'net.ipv4.conf.default.medium_id'
p1389
I0
sS'CONFIG_ARCH_HAS_GIGANTIC_PAGE'
p1390
S'y'
sS'vm.oom_dump_tasks'
p1391
I1
sS'net.ipv6.ip6frag_secret_interval'
p1392
I0
sS'CONFIG_PMIC_ADP5520'
p1393
S'y'
sS'CONFIG_USER_NS'
p1394
S'y'
sS'CONFIG_HAVE_ARCH_WITHIN_STACK_FRAMES'
p1395
S'y'
sS'kernel.sched_domain.cpu24.domain0.newidle_idx'
p1396
I0
sS'kernel.sched_domain.cpu3.domain1.busy_factor'
p1397
I32
sS'kernel.sched_domain.cpu8.domain1.min_interval'
p1398
I48
sS'CONFIG_ARCH_WANTS_DYNAMIC_TASK_STRUCT'
p1399
S'y'
sS'net.ipv4.conf.ens3.accept_source_route'
p1400
I1
sS'CONFIG_SYSTEM_TRUSTED_KEYRING'
p1401
S'y'
sS'net.ipv6.icmp.ratelimit'
p1402
I1000
sS'net.ipv4.conf.lo.log_martians'
p1403
I0
sS'CONFIG_HAVE_ALIGNED_STRUCT_PAGE'
p1404
S'y'
sS'dev.cdrom.check_media'
p1405
I0
sS'CONFIG_INTEL_SOC_PMIC'
p1406
S'y'
sS'kernel.panic_on_rcu_stall'
p1407
I0
sS'net.ipv6.conf.ens3.keep_addr_on_down'
p1408
I0
sS'net.ipv4.conf.default.mc_forwarding'
p1409
I0
sS'net.core.dev_weight_tx_bias'
p1410
I1
sS'CONFIG_MDIO'
p1411
S'm'
sS'kernel.sched_domain.cpu39.domain0.max_interval'
p1412
I48
sS'kernel.sched_domain.cpu40.domain1.imbalance_pct'
p1413
I125
sS'net.ipv6.neigh.default.retrans_time_ms'
p1414
I1000
sS'kernel.sched_domain.cpu14.domain1.cache_nice_tries'
p1415
I2
sS'net.ipv6.conf.ens3.drop_unsolicited_na'
p1416
I0
sS'CONFIG_NLS_ISO8859_1'
p1417
S'y'
sS'kernel.sem'
p1418
S'32000\t1024000000\t500\t32000'
p1419
sS'kernel.sched_domain.cpu9.domain1.max_interval'
p1420
I96
sS'net.ipv4.tcp_window_scaling'
p1421
I1
sS'net.ipv4.tcp_available_ulp'
p1422
S''
sS'CONFIG_NEED_DMA_MAP_STATE'
p1423
S'y'
sS'net.ipv6.conf.lo.temp_prefered_lft'
p1424
I86400
sS'CONFIG_HAVE_ARCH_SECCOMP_FILTER'
p1425
S'y'
sS'kernel.sched_domain.cpu35.domain1.imbalance_pct'
p1426
I125
sS'CONFIG_INPUT_MOUSEDEV_SCREEN_X'
p1427
I1024
sS'CONFIG_INPUT_MOUSEDEV_SCREEN_Y'
p1428
I768
sS'CONFIG_DMIID'
p1429
S'y'
sS'CONFIG_SND_HDA_RECONFIG'
p1430
S'y'
sS'net.ipv4.conf.default.arp_notify'
p1431
I0
sS'CONFIG_INPUT_UINPUT'
p1432
S'y'
sS'net.ipv6.flowlabel_reflect'
p1433
I0
sS'CONFIG_NET_L3_MASTER_DEV'
p1434
S'y'
sS'CONFIG_VIRTIO_NET'
p1435
S'y'
sS'CONFIG_SERIAL_EARLYCON'
p1436
S'y'
sS'kernel.sched_domain.cpu21.domain1.cache_nice_tries'
p1437
I2
sS'kernel.sched_domain.cpu23.domain1.idle_idx'
p1438
I2
sS'CONFIG_BTT'
p1439
S'y'
sS'CONFIG_ARCH_HAS_ACPI_TABLE_UPGRADE'
p1440
S'y'
sS'kernel.sched_domain.cpu45.domain0.imbalance_pct'
p1441
I125
sS'CONFIG_IRQ_REMAP'
p1442
S'y'
sS'CONFIG_GENERIC_TRACER'
p1443
S'y'
sS'kernel.sched_domain.cpu35.domain0.max_newidle_lb_cost'
p1444
I19850
sS'CONFIG_ARCH_HAS_ELF_RANDOMIZE'
p1445
S'y'
sS'kernel.sched_domain.cpu15.domain0.busy_idx'
p1446
I2
sS'kernel.sched_domain.cpu15.domain0.newidle_idx'
p1447
I0
sS'CONFIG_BE2ISCSI'
p1448
S'm'
sS'kernel.sched_domain.cpu14.domain1.forkexec_idx'
p1449
I0
sS'CONFIG_NET_VENDOR_DEC'
p1450
S'y'
sS'CONFIG_FUTEX'
p1451
S'y'
sS'kernel.sched_domain.cpu31.domain0.newidle_idx'
p1452
I0
sS'CONFIG_ARCH_WANT_OLD_COMPAT_IPC'
p1453
S'y'
sS'CONFIG_SSB_POSSIBLE'
p1454
S'y'
sS'net.ipv4.conf.default.arp_ignore'
p1455
I0
sS'kernel.sched_domain.cpu19.domain1.flags'
p1456
I25647
sS'kernel.sched_domain.cpu26.domain1.busy_factor'
p1457
I32
sS'net.ipv4.tcp_ecn'
p1458
I2
sS'CONFIG_ZSTD_COMPRESS'
p1459
S'm'
sS'CONFIG_HWMON'
p1460
S'y'
sS'net.ipv4.neigh.default.anycast_delay'
p1461
I100
sS'CONFIG_MFD_DA9052_I2C'
p1462
S'y'
sS'CONFIG_LOG_BUF_SHIFT'
p1463
I18
sS'CONFIG_INTEL_IOMMU'
p1464
S'y'
sS'CONFIG_IRQ_DOMAIN_HIERARCHY'
p1465
S'y'
sS'CONFIG_NET_VENDOR_BROCADE'
p1466
S'y'
sS'CONFIG_ACPI_CUSTOM_DSDT_FILE'
p1467
S'""'
p1468
sS'net.ipv6.neigh.default.gc_thresh2'
p1469
I512
sS'net.ipv6.neigh.default.gc_thresh3'
p1470
I1024
sS'kernel.sched_domain.cpu35.domain0.name'
p1471
S'DIE'
p1472
sS'net.ipv6.neigh.default.gc_thresh1'
p1473
I128
sS'CONFIG_NET_VENDOR_NATSEMI'
p1474
S'y'
sS'kernel.sched_domain.cpu1.domain1.imbalance_pct'
p1475
I125
sS'CONFIG_NO_HZ_IDLE'
p1476
S'y'
sS'user.max_ipc_namespaces'
p1477
I257513
sS'kernel.sched_domain.cpu15.domain0.flags'
p1478
I4143
sS'kernel.sched_domain.cpu25.domain0.busy_factor'
p1479
I32
sS'CONFIG_CRYPTO_SHA256'
p1480
S'y'
sS'net.ipv4.neigh.ens3.unres_qlen_bytes'
p1481
I212992
sS'kernel.sched_domain.cpu41.domain1.max_interval'
p1482
I96
sS'vm.overcommit_memory'
p1483
I0
sS'CONFIG_MODULE_UNLOAD'
p1484
S'y'
sS'CONFIG_NLS_DEFAULT'
p1485
S'"utf8"'
p1486
sS'CONFIG_MFD_RC5T583'
p1487
S'y'
sS'CONFIG_BTRFS_FS_POSIX_ACL'
p1488
S'y'
sS'CONFIG_BLOCK_COMPAT'
p1489
S'y'
sS'kernel.sched_domain.cpu28.domain1.forkexec_idx'
p1490
I0
sS'CONFIG_GENERIC_PHY'
p1491
S'y'
sS'net.ipv6.conf.lo.accept_source_route'
p1492
I0
sS'CONFIG_CHELSIO_LIB'
p1493
S'm'
sS'kernel.sched_domain.cpu18.domain0.cache_nice_tries'
p1494
I1
sS'kernel.sched_domain.cpu41.domain1.cache_nice_tries'
p1495
I2
sS'CONFIG_FB_VESA'
p1496
S'y'
sS'kernel.sched_domain.cpu4.domain1.max_interval'
p1497
I96
sS'CONFIG_X86_RESERVE_LOW'
p1498
I64
sS'kernel.modules_disabled'
p1499
I0
sS'kernel.sched_domain.cpu38.domain0.newidle_idx'
p1500
I0
sS'CONFIG_X86_NUMACHIP'
p1501
S'y'
sS'CONFIG_DMI_SCAN_MACHINE_NON_EFI_FALLBACK'
p1502
S'y'
sS'net.ipv6.ip_nonlocal_bind'
p1503
I0
sS'kernel.sched_domain.cpu23.domain0.forkexec_idx'
p1504
I0
sS'kernel.sched_domain.cpu0.domain1.imbalance_pct'
p1505
I125
sS'kernel.sched_domain.cpu16.domain0.busy_idx'
p1506
I2
sS'kernel.sched_domain.cpu8.domain1.cache_nice_tries'
p1507
I2
sS'CONFIG_INOTIFY_USER'
p1508
S'y'
sS'net.core.busy_poll'
p1509
I0
sS'CONFIG_UEFI_CPER'
p1510
S'y'
sS'CONFIG_RTC_DRV_CMOS'
p1511
S'y'
sS'CONFIG_TRANSPARENT_HUGE_PAGECACHE'
p1512
S'y'
sS'net.ipv4.neigh.lo.base_reachable_time_ms'
p1513
I30000
sS'net.ipv4.tcp_tw_reuse'
p1514
I0
sS'CONFIG_MOUSE_PS2_SENTELIC'
p1515
S'y'
sS'CONFIG_LOCKUP_DETECTOR'
p1516
S'y'
sS'kernel.sched_domain.cpu42.domain1.idle_idx'
p1517
I2
sS'kernel.sched_domain.cpu12.domain1.name'
p1518
S'NUMA'
p1519
sS'CONFIG_RAPIDIO'
p1520
S'y'
sS'CONFIG_STAGING_MEDIA'
p1521
S'y'
sS'net.ipv4.conf.ens3.igmpv3_unsolicited_report_interval'
p1522
I1000
sS'kernel.sched_domain.cpu42.domain0.newidle_idx'
p1523
I0
sS'CONFIG_DEFCONFIG_LIST'
p1524
S'"/lib/modules/$UNAME_RELEASE/.config"'
p1525
sS'net.ipv4.ip_local_port_range'
p1526
S'32768\t60999'
p1527
sS'kernel.sched_domain.cpu2.domain0.min_interval'
p1528
I24
sS'kernel.sched_domain.cpu35.domain1.max_newidle_lb_cost'
p1529
I155158
sS'CONFIG_HUGETLB_PAGE'
p1530
S'y'
sS'CONFIG_PERF_EVENTS'
p1531
S'y'
sS'kernel.sched_domain.cpu41.domain0.forkexec_idx'
p1532
I0
sS'kernel.sched_domain.cpu32.domain1.wake_idx'
p1533
I0
sS'net.ipv4.neigh.lo.locktime'
p1534
I100
sS'CONFIG_SECURITY_TOMOYO_ACTIVATION_TRIGGER'
p1535
S'"/sbin/init"'
p1536
sS'kernel.sched_domain.cpu13.domain1.min_interval'
p1537
I48
sS'CONFIG_MODIFY_LDT_SYSCALL'
p1538
S'y'
sS'CONFIG_UCS2_STRING'
p1539
S'y'
sS'kernel.sched_domain.cpu10.domain1.wake_idx'
p1540
I0
sS'kernel.sched_domain.cpu6.domain1.newidle_idx'
p1541
I0
sS'CONFIG_SOUND'
p1542
S'm'
sS'CONFIG_ARCH_SPARSEMEM_DEFAULT'
p1543
S'y'
sS'CONFIG_IPV6_ROUTE_INFO'
p1544
S'y'
sS'CONFIG_CLKEVT_I8253'
p1545
S'y'
sS'CONFIG_RAPIDIO_DMA_ENGINE'
p1546
S'y'
sS'CONFIG_MFD_SMSC'
p1547
S'y'
sS'kernel.sched_domain.cpu12.domain1.idle_idx'
p1548
I2
sS'CONFIG_SERIAL_8250_PCI'
p1549
S'y'
sS'CONFIG_PCIEASPM_DEFAULT'
p1550
S'y'
sS'kernel.sched_domain.cpu42.domain0.wake_idx'
p1551
I0
sS'CONFIG_HAVE_EXIT_THREAD'
p1552
S'y'
sS'CONFIG_SND_HDA_HWDEP'
p1553
S'y'
sS'CONFIG_SOFTLOCKUP_DETECTOR'
p1554
S'y'
sS'kernel.sched_domain.cpu14.domain1.wake_idx'
p1555
I0
sS'CONFIG_EARLY_PRINTK'
p1556
S'y'
sS'net.ipv6.conf.ens3.ndisc_notify'
p1557
I0
sS'net.ipv4.conf.all.proxy_arp_pvlan'
p1558
I0
sS'kernel'
p1559
S'4.14.0-rc8-stock'
p1560
sS'kernel.sched_domain.cpu3.domain0.max_interval'
p1561
I48
sS'kernel.sched_domain.cpu40.domain0.forkexec_idx'
p1562
I0
sS'CONFIG_DUMMY_CONSOLE_ROWS'
p1563
I25
sS'CONFIG_MOUSE_PS2_ELANTECH'
p1564
S'y'
sS'CONFIG_PCI_MMCONFIG'
p1565
S'y'
sS'CONFIG_KVM_MMIO'
p1566
S'y'
sS'net.ipv4.neigh.default.unres_qlen_bytes'
p1567
I212992
sS'kernel.sched_domain.cpu14.domain0.busy_factor'
p1568
I32
sS'CONFIG_PINCTRL_BAYTRAIL'
p1569
S'y'
sS'kernel.sched_domain.cpu44.domain1.min_interval'
p1570
I48
sS'net.ipv4.icmp_errors_use_inbound_ifaddr'
p1571
I0
sS'net.ipv6.conf.all.addr_gen_mode'
p1572
I0
sS'kernel.sched_domain.cpu8.domain1.wake_idx'
p1573
I0
sS'kernel.sched_domain.cpu45.domain0.idle_idx'
p1574
I1
sS'CONFIG_HAVE_ACPI_APEI_NMI'
p1575
S'y'
sS'vm.page-cluster'
p1576
I3
sS'kernel.sched_domain.cpu9.domain1.newidle_idx'
p1577
I0
sS'CONFIG_BACKLIGHT_CLASS_DEVICE'
p1578
S'y'
sS'CONFIG_MOUSE_PS2_CYPRESS'
p1579
S'y'
sS'kernel.sched_rt_runtime_us'
p1580
I950000
sS'kernel.sched_domain.cpu29.domain0.busy_factor'
p1581
I32
sS'CONFIG_X86_CMOV'
p1582
S'y'
sS'CONFIG_ARCH_HAS_CACHE_LINE_SIZE'
p1583
S'y'
sS'net.ipv4.tcp_fastopen_blackhole_timeout_sec'
p1584
I3600
sS'CONFIG_SIGNATURE'
p1585
S'y'
sS'net.ipv4.conf.all.mc_forwarding'
p1586
I0
sS'CONFIG_PM_DEBUG'
p1587
S'y'
sS'net.ipv4.neigh.default.ucast_solicit'
p1588
I3
sS'kernel.pty.reserve'
p1589
I1024
sS'kernel.sched_domain.cpu33.domain1.wake_idx'
p1590
I0
sS'kernel.sched_domain.cpu6.domain0.flags'
p1591
I4143
sS'CONFIG_SERIO_I8042'
p1592
S'y'
sS'CONFIG_NET_VENDOR_NETRONOME'
p1593
S'y'
sS'CONFIG_BLK_DEV_LOOP'
p1594
S'y'
sS'vm.mmap_min_addr'
p1595
I65536
sS'kernel.sched_domain.cpu44.domain1.flags'
p1596
I25647
sS'kernel.sched_domain.cpu37.domain1.wake_idx'
p1597
I0
sS'CONFIG_HAVE_CMPXCHG_LOCAL'
p1598
S'y'
sS'net.ipv6.route.mtu_expires'
p1599
I600
sS'CONFIG_SND_USB'
p1600
S'y'
sS'CONFIG_DNOTIFY'
p1601
S'y'
sS'CONFIG_CMDLINE_PARTITION'
p1602
S'y'
sS'CONFIG_NETWORK_SECMARK'
p1603
S'y'
sS'CONFIG_SND_HDA_INTEL'
p1604
S'm'
sS'kernel.sched_domain.cpu38.domain1.max_newidle_lb_cost'
p1605
I17162
sS'net.ipv4.ping_group_range'
p1606
S'1\t0'
p1607
sS'CONFIG_PERF_EVENTS_INTEL_CSTATE'
p1608
S'y'
sS'kernel.sched_domain.cpu5.domain0.max_newidle_lb_cost'
p1609
I38002
sS'CONFIG_SERIAL_8250_CONSOLE'
p1610
S'y'
sS'net.ipv4.icmp_msgs_burst'
p1611
I50
sS'CONFIG_PPP_MULTILINK'
p1612
S'y'
sS'CONFIG_BLK_DEV_FD'
p1613
S'm'
sS'kernel.sched_domain.cpu16.domain0.forkexec_idx'
p1614
I0
sS'CONFIG_SND_DRIVERS'
p1615
S'y'
sS'CONFIG_SCSI_CXGB4_ISCSI'
p1616
S'm'
sS'CONFIG_CRASH_DUMP'
p1617
S'y'
sS'vm.watermark_scale_factor'
p1618
I10
sS'CONFIG_HAVE_UID16'
p1619
S'y'
sS'CONFIG_NET_VENDOR_WIZNET'
p1620
S'y'
sS'CONFIG_SCSI_ISCSI_ATTRS'
p1621
S'm'
sS'kernel.sched_domain.cpu14.domain0.max_interval'
p1622
I48
sS'kernel.sched_domain.cpu0.domain1.cache_nice_tries'
p1623
I2
sS'dev.parport.default.spintime'
p1624
I500
sS'kernel.sched_domain.cpu24.domain0.wake_idx'
p1625
I0
sS'CONFIG_IOSF_MBI'
p1626
S'y'
sS'net.ipv4.fib_multipath_hash_policy'
p1627
I0
sS'CONFIG_BLK_DEV_BSG'
p1628
S'y'
sS'CONFIG_INPUT_KEYBOARD'
p1629
S'y'
sS'kernel.sched_domain.cpu5.domain0.flags'
p1630
I4143
sS'kernel.sched_domain.cpu19.domain0.newidle_idx'
p1631
I0
sS'CONFIG_CPU_FREQ_GOV_CONSERVATIVE'
p1632
S'y'
sS'CONFIG_MEMORY_HOTPLUG_SPARSE'
p1633
S'y'
sS'CONFIG_ZSWAP'
p1634
S'y'
sS'kernel.sched_domain.cpu42.domain1.imbalance_pct'
p1635
I125
sS'CONFIG_CRYPTO_AEAD2'
p1636
S'y'
sS'kernel.sched_domain.cpu10.domain1.max_newidle_lb_cost'
p1637
I31833
sS'CONFIG_PCIEASPM_DEBUG'
p1638
S'y'
sS'CONFIG_PROC_PID_CPUSET'
p1639
S'y'
sS'CONFIG_MEMORY_BALLOON'
p1640
S'y'
sS'CONFIG_INFINIBAND'
p1641
S'm'
sS'CONFIG_NET_VENDOR_SILAN'
p1642
S'y'
sS'kernel.sched_domain.cpu27.domain1.cache_nice_tries'
p1643
I2
sS'net.ipv4.conf.ens3.log_martians'
p1644
I0
sS'CONFIG_CC_STACKPROTECTOR_STRONG'
p1645
S'y'
sS'CONFIG_HOTPLUG_CPU'
p1646
S'y'
sS'CONFIG_PROC_FS'
p1647
S'y'
sS'kernel.sched_domain.cpu0.domain0.imbalance_pct'
p1648
I125
sS'kernel.sched_domain.cpu27.domain0.busy_factor'
p1649
I32
sS'kernel.sched_domain.cpu22.domain1.busy_idx'
p1650
I3
sS'CONFIG_MOUSE_PS2_ALPS'
p1651
S'y'
sS'kernel.sched_domain.cpu3.domain0.min_interval'
p1652
I24
sS'kernel.sched_domain.cpu14.domain0.busy_idx'
p1653
I2
sS'CONFIG_THERMAL_WRITABLE_TRIPS'
p1654
S'y'
sS'CONFIG_TOUCHSCREEN_PROPERTIES'
p1655
S'y'
sS'vm.extfrag_threshold'
p1656
I500
sS'CONFIG_BLK_DEV_THROTTLING'
p1657
S'y'
sS'CONFIG_SWAP'
p1658
S'y'
sS'kernel.osrelease'
p1659
S'4.14.0-rc8-stock'
p1660
sS'kernel.sched_domain.cpu8.domain0.busy_idx'
p1661
I2
sS'CONFIG_AMD_IOMMU'
p1662
S'y'
sS'CONFIG_PAGE_COUNTER'
p1663
S'y'
sS'CONFIG_ARCH_MIGHT_HAVE_ACPI_PDC'
p1664
S'y'
sS'kernel.sched_domain.cpu14.domain1.idle_idx'
p1665
I2
sS'kernel.sched_domain.cpu33.domain0.max_newidle_lb_cost'
p1666
I147849
sS'kernel.sched_domain.cpu14.domain0.forkexec_idx'
p1667
I0
sS'CONFIG_MFD_AS3711'
p1668
S'y'
sS'kernel.sched_domain.cpu30.domain1.cache_nice_tries'
p1669
I2
sS'CONFIG_IO_DELAY_TYPE_UDELAY'
p1670
I2
sS'CONFIG_CPU_FREQ_DEFAULT_GOV_PERFORMANCE'
p1671
S'y'
sS'CONFIG_HAVE_CMPXCHG_DOUBLE'
p1672
S'y'
sS'kernel.sched_domain.cpu27.domain0.max_interval'
p1673
I48
sS'kernel.sched_domain.cpu30.domain0.max_newidle_lb_cost'
p1674
I27247
sS'CONFIG_ATA_ACPI'
p1675
S'y'
sS'net.ipv4.conf.lo.route_localnet'
p1676
I0
sS'kernel.sched_domain.cpu47.domain1.busy_factor'
p1677
I32
sS'CONFIG_ACPI_APEI'
p1678
S'y'
sS'kernel.sched_domain.cpu1.domain1.name'
p1679
S'NUMA'
p1680
sS'CONFIG_IRQ_DOMAIN'
p1681
S'y'
sS'net.ipv4.udp_wmem_min'
p1682
I4096
sS'net.ipv4.tcp_invalid_ratelimit'
p1683
I500
sS'net.ipv4.neigh.ens3.proxy_qlen'
p1684
I64
sS'CONFIG_NET_VENDOR_AMAZON'
p1685
S'y'
sS'kernel.sched_domain.cpu33.domain0.busy_factor'
p1686
I32
sS'kernel.sched_domain.cpu2.domain0.busy_factor'
p1687
I32
sS'CONFIG_VT'
p1688
S'y'
sS'net.ipv4.conf.lo.arp_announce'
p1689
I0
sS'kernel.sched_domain.cpu17.domain0.cache_nice_tries'
p1690
I1
sS'CONFIG_HAVE_IDE'
p1691
S'y'
sS'kernel.sched_domain.cpu6.domain0.forkexec_idx'
p1692
I0
sS'CONFIG_NET_VENDOR_8390'
p1693
S'y'
sS'kernel.sched_domain.cpu40.domain0.busy_factor'
p1694
I32
sS'kernel.sched_domain.cpu3.domain1.max_interval'
p1695
I96
sS'fs.mqueue.queues_max'
p1696
I256
sS'net.ipv4.conf.ens3.rp_filter'
p1697
I0
sS'kernel.sched_domain.cpu43.domain1.cache_nice_tries'
p1698
I2
sS'CONFIG_IMA_TRUSTED_KEYRING'
p1699
S'y'
sS'CONFIG_HAVE_LIVEPATCH'
p1700
S'y'
sS'CONFIG_KGDB_LOW_LEVEL_TRAP'
p1701
S'y'
sS'CONFIG_HAVE_OPROFILE'
p1702
S'y'
sS'CONFIG_NVDIMM_DAX'
p1703
S'y'
sS'CONFIG_IMA_DEFAULT_HASH'
p1704
S'"sha1"'
p1705
sS'CONFIG_ACPI_THERMAL'
p1706
S'y'
sS'CONFIG_BLK_DEV_BSGLIB'
p1707
S'y'
sS'CONFIG_USB_LED_TRIG'
p1708
S'y'
sS'CONFIG_EFI_MIXED'
p1709
S'y'
sS'kernel.sched_domain.cpu2.domain1.wake_idx'
p1710
I0
sS'net.ipv4.neigh.default.locktime'
p1711
I100
sS'CONFIG_DUMMY_CONSOLE_COLUMNS'
p1712
I80
sS'CONFIG_HPET_MMAP'
p1713
S'y'
sS'CONFIG_SERIAL_8250_RT288X'
p1714
S'y'
sS'kernel.sched_domain.cpu41.domain0.idle_idx'
p1715
I1
sS'kernel.sched_domain.cpu43.domain1.busy_factor'
p1716
I32
sS'kernel.sched_domain.cpu14.domain1.max_newidle_lb_cost'
p1717
I28071
sS'kernel.sched_domain.cpu8.domain0.cache_nice_tries'
p1718
I1
sS'net.core.busy_read'
p1719
I0
sS'CONFIG_BTRFS_FS'
p1720
S'm'
sS'CONFIG_DCACHE_WORD_ACCESS'
p1721
S'y'
sS'net.ipv6.conf.default.mtu'
p1722
I1280
sS'kernel.sched_domain.cpu7.domain0.idle_idx'
p1723
I1
sS'kernel.sched_domain.cpu22.domain0.imbalance_pct'
p1724
I125
sS'net.ipv4.conf.default.drop_gratuitous_arp'
p1725
I0
sS'kernel.sched_domain.cpu31.domain0.flags'
p1726
I4143
sS'CONFIG_UPROBES'
p1727
S'y'
sS'kernel.sched_domain.cpu16.domain0.imbalance_pct'
p1728
I125
sS'CONFIG_ARCH_ENABLE_MEMORY_HOTPLUG'
p1729
S'y'
sS'kernel.sched_domain.cpu4.domain1.forkexec_idx'
p1730
I0
sS'CONFIG_FIRMWARE_MEMMAP'
p1731
S'y'
sS'kernel.sched_domain.cpu11.domain1.busy_factor'
p1732
I32
sS'CONFIG_IPV6_ROUTER_PREF'
p1733
S'y'
sS'kernel.sched_domain.cpu25.domain1.name'
p1734
S'NUMA'
p1735
sS'CONFIG_BOOT_PRINTK_DELAY'
p1736
S'y'
sS'CONFIG_TMPFS'
p1737
S'y'
sS'kernel.sched_domain.cpu32.domain1.flags'
p1738
I25647
sS'kernel.sched_domain.cpu14.domain1.name'
p1739
S'NUMA'
p1740
sS'kernel.sched_domain.cpu20.domain1.idle_idx'
p1741
I2
sS'CONFIG_X86_MCE_INTEL'
p1742
S'y'
sS'CONFIG_RTC_INTF_PROC'
p1743
S'y'
sS'kernel.sched_domain.cpu1.domain0.busy_idx'
p1744
I2
sS'CONFIG_MD_AUTODETECT'
p1745
S'y'
sS'net.ipv6.conf.lo.max_desync_factor'
p1746
I600
sS'kernel.sched_domain.cpu4.domain1.flags'
p1747
I25647
sS'kernel.sched_domain.cpu1.domain1.newidle_idx'
p1748
I0
sS'kernel.sched_domain.cpu29.domain0.max_interval'
p1749
I48
sS'CONFIG_X86_ESPFIX64'
p1750
S'y'
sS'net.ipv4.neigh.lo.gc_stale_time'
p1751
I60
sS'CONFIG_NET_VENDOR_MICROCHIP'
p1752
S'y'
sS'kernel.traceoff_on_warning'
p1753
I0
sS'kernel.sched_domain.cpu2.domain1.busy_factor'
p1754
I32
sS'CONFIG_DW_DMAC_PCI'
p1755
S'y'
sS'net.ipv4.conf.all.proxy_arp'
p1756
I0
sS'kernel.sched_domain.cpu15.domain0.max_newidle_lb_cost'
p1757
I92005
sS'CONFIG_ARCH_USE_BUILTIN_BSWAP'
p1758
S'y'
sS'CONFIG_PROC_SYSCTL'
p1759
S'y'
sS'fs.file-max'
p1760
I6576659
sS'CONFIG_ACPI_APEI_GHES'
p1761
S'y'
sS'kernel.sched_domain.cpu11.domain0.busy_factor'
p1762
I32
sS'kernel.sched_domain.cpu19.domain0.wake_idx'
p1763
I0
sS'net.ipv4.tcp_limit_output_bytes'
p1764
I262144
sS'CONFIG_NET_VENDOR_NVIDIA'
p1765
S'y'
sS'net.ipv4.neigh.default.mcast_resolicit'
p1766
I0
sS'CONFIG_ACPI_HOTPLUG_CPU'
p1767
S'y'
sS'kernel.sched_domain.cpu41.domain0.wake_idx'
p1768
I0
sS'CONFIG_FRAME_WARN'
p1769
I1024
sS'kernel.sched_domain.cpu11.domain0.max_interval'
p1770
I48
sS'CONFIG_FAT_FS'
p1771
S'y'
sS'CONFIG_IRQ_POLL'
p1772
S'y'
sS'net.ipv6.conf.all.hop_limit'
p1773
I64
sS'CONFIG_VT_CONSOLE_SLEEP'
p1774
S'y'
sS'kernel.random.entropy_avail'
p1775
I847
sS'net.ipv4.conf.default.force_igmp_version'
p1776
I0
sS'kernel.sched_domain.cpu29.domain1.name'
p1777
S'NUMA'
p1778
sS'net.ipv4.ip_default_ttl'
p1779
I64
sS'CONFIG_CLEANCACHE'
p1780
S'y'
sS'kernel.nmi_watchdog'
p1781
I0
sS'kernel.sched_domain.cpu27.domain1.busy_idx'
p1782
I3
sS'CONFIG_PCI_PRI'
p1783
S'y'
sS'kernel.sched_domain.cpu9.domain1.flags'
p1784
I25647
sS'CONFIG_CRYPTO_ALGAPI'
p1785
S'y'
sS'kernel.random.boot_id'
p1786
S'a97ed727-4789-4e94-ac9a-6034a0a169b8'
p1787
sS'kernel.sched_domain.cpu41.domain0.max_newidle_lb_cost'
p1788
I27071
sS'net.ipv4.conf.lo.accept_local'
p1789
I0
sS'kernel.sched_domain.cpu2.domain0.max_interval'
p1790
I48
sS'CONFIG_QUOTA'
p1791
S'y'
sS'CONFIG_HAVE_IOREMAP_PROT'
p1792
S'y'
sS'net.ipv4.neigh.default.app_solicit'
p1793
I0
sS'kernel.sched_domain.cpu13.domain0.forkexec_idx'
p1794
I0
sS'CONFIG_CPUSETS'
p1795
S'y'
sS'kernel.sched_domain.cpu27.domain1.busy_factor'
p1796
I32
sS'kernel.sched_domain.cpu28.domain0.busy_factor'
p1797
I32
sS'CONFIG_CMA'
p1798
S'y'
sS'CONFIG_TRACING'
p1799
S'y'
sS'kernel.sched_domain.cpu43.domain1.name'
p1800
S'NUMA'
p1801
sS'CONFIG_KDB_KEYBOARD'
p1802
S'y'
sS'CONFIG_RADIX_TREE_MULTIORDER'
p1803
S'y'
sS'net.ipv4.conf.all.promote_secondaries'
p1804
I0
sS'CONFIG_LWTUNNEL'
p1805
S'y'
sS'CONFIG_ARCH_MIGHT_HAVE_PC_SERIO'
p1806
S'y'
sS'kernel.sched_domain.cpu7.domain1.flags'
p1807
I25647
sS'net.ipv4.neigh.lo.proxy_qlen'
p1808
I64
sS'kernel.sched_domain.cpu46.domain1.idle_idx'
p1809
I2
sS'kernel.sched_domain.cpu30.domain1.imbalance_pct'
p1810
I125
sS'CONFIG_PINCTRL_CHERRYVIEW'
p1811
S'y'
sS'CONFIG_FIB_RULES'
p1812
S'y'
sS'net.ipv4.neigh.lo.unres_qlen_bytes'
p1813
I212992
sS'CONFIG_COMPAT_BINFMT_ELF'
p1814
S'y'
sS'kernel.sched_domain.cpu10.domain0.busy_idx'
p1815
I2
sS'CONFIG_HAVE_KPROBES'
p1816
S'y'
sS'kernel.sched_domain.cpu26.domain0.idle_idx'
p1817
I1
sS'CONFIG_VME_BUS'
p1818
S'y'
sS'CONFIG_FW_LOADER'
p1819
S'y'
sS'CONFIG_ATA_VERBOSE_ERROR'
p1820
S'y'
sS'CONFIG_IOSCHED_DEADLINE'
p1821
S'y'
sS'net.ipv6.conf.all.max_desync_factor'
p1822
I600
sS'kernel.sched_domain.cpu8.domain1.max_interval'
p1823
I96
sS'kernel.sched_domain.cpu42.domain0.name'
p1824
S'DIE'
p1825
sS'kernel.sched_domain.cpu4.domain0.busy_factor'
p1826
I32
sS'CONFIG_KVM'
p1827
S'm'
sS'CONFIG_EXT4_USE_FOR_EXT2'
p1828
S'y'
sS'kernel.sched_domain.cpu22.domain1.cache_nice_tries'
p1829
I2
sS'kernel.sched_domain.cpu25.domain1.max_newidle_lb_cost'
p1830
I22391
sS'CONFIG_INPUT_MOUSEDEV_PSAUX'
p1831
S'y'
sS'kernel.sched_domain.cpu30.domain0.idle_idx'
p1832
I1
sS'CONFIG_ATH5K_PCI'
p1833
S'y'
sS'kernel.sched_domain.cpu6.domain1.forkexec_idx'
p1834
I0
sS'kernel.sched_domain.cpu31.domain0.imbalance_pct'
p1835
I125
sS'kernel.sched_domain.cpu13.domain1.newidle_idx'
p1836
I0
sS'CONFIG_NET_CLS'
p1837
S'y'
sS'CONFIG_CALGARY_IOMMU_ENABLED_BY_DEFAULT'
p1838
S'y'
sS'CONFIG_ACPI_LEGACY_TABLES_LOOKUP'
p1839
S'y'
sS'CONFIG_INPUT_TABLET'
p1840
S'y'
sS'CONFIG_ILLEGAL_POINTER_VALUE'
p1841
S'0xdead000000000000'
p1842
sS'CONFIG_THERMAL_GOV_STEP_WISE'
p1843
S'y'
sS'CONFIG_PRINTK'
p1844
S'y'
sS'net.ipv4.conf.default.promote_secondaries'
p1845
I0
sS'kernel.sched_domain.cpu20.domain0.busy_idx'
p1846
I2
sS'CONFIG_WLAN_VENDOR_MARVELL'
p1847
S'y'
sS'CONFIG_MINIX_SUBPARTITION'
p1848
S'y'
sS'kernel.sched_domain.cpu26.domain0.max_interval'
p1849
I48
sS'kernel.sched_domain.cpu20.domain1.cache_nice_tries'
p1850
I2
sS'kernel.sched_domain.cpu33.domain1.busy_idx'
p1851
I3
sS'kernel.sched_domain.cpu13.domain1.max_newidle_lb_cost'
p1852
I16030
sS'kernel.sched_domain.cpu21.domain1.imbalance_pct'
p1853
I125
sS'CONFIG_FRAMEBUFFER_CONSOLE'
p1854
S'y'
sS'CONFIG_BRIDGE'
p1855
S'm'
sS'net.ipv6.conf.lo.accept_ra_pinfo'
p1856
I1
sS'kernel.sched_domain.cpu19.domain1.forkexec_idx'
p1857
I0
sS'CONFIG_NET_VENDOR_AGERE'
p1858
S'y'
sS'CONFIG_ASYNC_XOR'
p1859
S'm'
sS'CONFIG_SND_HDA_PREALLOC_SIZE'
p1860
I64
sS'CONFIG_ACPI_HOTPLUG_IOAPIC'
p1861
S'y'
sS'kernel.sched_domain.cpu1.domain0.flags'
p1862
I4143
sS'fs.mqueue.msgsize_default'
p1863
I8192
sS'CONFIG_SATA_PMP'
p1864
S'y'
sS'CONFIG_TRACE_IRQFLAGS_SUPPORT'
p1865
S'y'
sS'CONFIG_PM_SLEEP'
p1866
S'y'
sS'CONFIG_KEYBOARD_ATKBD'
p1867
S'y'
sS'net.core.default_qdisc'
p1868
S'pfifo_fast'
p1869
sS'kernel.sched_domain.cpu19.domain1.cache_nice_tries'
p1870
I2
sS'kernel.sched_domain.cpu14.domain0.min_interval'
p1871
I24
sS'CONFIG_VIRTIO_MMIO'
p1872
S'y'
sS'CONFIG_VIRT_TO_BUS'
p1873
S'y'
sS'kernel.sched_domain.cpu12.domain1.wake_idx'
p1874
I0
sS'kernel.sched_domain.cpu32.domain1.cache_nice_tries'
p1875
I2
sS'CONFIG_ARCH_SUPPORTS_DEFERRED_STRUCT_PAGE_INIT'
p1876
S'y'
sS'kernel.sched_domain.cpu2.domain0.name'
p1877
S'DIE'
p1878
sS'kernel.sched_domain.cpu21.domain1.max_newidle_lb_cost'
p1879
I24593
sS'kernel.sched_domain.cpu26.domain0.name'
p1880
S'DIE'
p1881
sS'kernel.sched_domain.cpu40.domain0.idle_idx'
p1882
I1
sS'kernel.sched_domain.cpu25.domain0.wake_idx'
p1883
I0
sS'kernel.sched_domain.cpu14.domain0.wake_idx'
p1884
I0
sS'kernel.sched_domain.cpu5.domain0.idle_idx'
p1885
I1
sS'CONFIG_NET_VENDOR_ROCKER'
p1886
S'y'
sS'kernel.sched_domain.cpu37.domain1.idle_idx'
p1887
I2
sS'kernel.sched_domain.cpu23.domain1.flags'
p1888
I25647
sS'CONFIG_BUG'
p1889
S'y'
sS'kernel.sched_domain.cpu42.domain1.min_interval'
p1890
I48
sS'CONFIG_CPU_FREQ_GOV_COMMON'
p1891
S'y'
sS'CONFIG_PHYSICAL_ALIGN'
p1892
S'0x1000000'
p1893
sS'kernel.sched_domain.cpu11.domain1.cache_nice_tries'
p1894
I2
sS'kernel.dmesg_restrict'
p1895
I0
sS'CONFIG_HAVE_ARCH_VMAP_STACK'
p1896
S'y'
sS'kernel.sched_domain.cpu9.domain0.name'
p1897
S'DIE'
p1898
sS'kernel.sched_domain.cpu9.domain1.max_newidle_lb_cost'
p1899
I21067
sS'kernel.sched_domain.cpu35.domain0.wake_idx'
p1900
I0
sS'CONFIG_GPIO_TPS6586X'
p1901
S'y'
sS'CONFIG_PSTORE_ZLIB_COMPRESS'
p1902
S'y'
sS'CONFIG_CRYPTO_BLKCIPHER2'
p1903
S'y'
sS'CONFIG_GENERIC_IRQ_EFFECTIVE_AFF_MASK'
p1904
S'y'
sS'CONFIG_CHR_DEV_SG'
p1905
S'y'
sS'kernel.sched_domain.cpu30.domain1.idle_idx'
p1906
I2
sS'CONFIG_ARCH_HAS_PKEYS'
p1907
S'y'
sS'CONFIG_SIGNALFD'
p1908
S'y'
sS'kernel.sched_domain.cpu42.domain0.cache_nice_tries'
p1909
I1
sS'CONFIG_MD_MULTIPATH'
p1910
S'm'
sS'net.ipv4.neigh.default.mcast_solicit'
p1911
I3
sS'kernel.sched_domain.cpu13.domain0.idle_idx'
p1912
I1
sS'CONFIG_SYSTEM_DATA_VERIFICATION'
p1913
S'y'
sS'CONFIG_ACPI'
p1914
S'y'
sS'CONFIG_RTC_MC146818_LIB'
p1915
S'y'
sS'kernel.sched_domain.cpu5.domain0.forkexec_idx'
p1916
I0
sS'CONFIG_STACKTRACE_SUPPORT'
p1917
S'y'
sS'kernel.sched_domain.cpu8.domain0.flags'
p1918
I4143
sS'kernel.sched_domain.cpu27.domain1.flags'
p1919
I25647
sS'CONFIG_INTEL_GTT'
p1920
S'y'
sS'CONFIG_THERMAL_EMULATION'
p1921
S'y'
sS'CONFIG_HAVE_DMA_CONTIGUOUS'
p1922
S'y'
sS'kernel.sched_domain.cpu18.domain1.busy_factor'
p1923
I32
sS'net.netfilter.nf_log.5'
p1924
S'NONE'
p1925
sS'net.netfilter.nf_log.4'
p1926
S'NONE'
p1927
sS'net.netfilter.nf_log.7'
p1928
S'NONE'
p1929
sS'net.netfilter.nf_log.6'
p1930
S'NONE'
p1931
sS'net.netfilter.nf_log.1'
p1932
S'NONE'
p1933
sS'net.netfilter.nf_log.0'
p1934
S'NONE'
p1935
sS'net.netfilter.nf_log.3'
p1936
S'NONE'
p1937
sS'net.netfilter.nf_log.2'
p1938
S'NONE'
p1939
sS'kernel.sched_domain.cpu9.domain1.busy_idx'
p1940
I3
sS'net.netfilter.nf_log.9'
p1941
S'NONE'
p1942
sS'net.netfilter.nf_log.8'
p1943
S'NONE'
p1944
sS'net.ipv4.conf.ens3.arp_announce'
p1945
I0
sS'kernel.real-root-dev'
p1946
I0
sS'vm.vfs_cache_pressure'
p1947
I100
sS'net.ipv6.conf.all.accept_source_route'
p1948
I0
sS'kernel.sched_domain.cpu38.domain0.forkexec_idx'
p1949
I0
sS'CONFIG_REGMAP_SPI'
p1950
S'y'
sS'CONFIG_HAVE_KERNEL_LZO'
p1951
S'y'
sS'kernel.sched_domain.cpu4.domain0.forkexec_idx'
p1952
I0
sS'kernel.sched_domain.cpu9.domain1.cache_nice_tries'
p1953
I2
sS'CONFIG_IP_FIB_TRIE_STATS'
p1954
S'y'
sS'CONFIG_DEVFREQ_GOV_PERFORMANCE'
p1955
S'y'
sS'kernel.sched_domain.cpu20.domain0.busy_factor'
p1956
I32
sS'CONFIG_IPV6_MULTIPLE_TABLES'
p1957
S'y'
sS'CONFIG_MFD_SYSCON'
p1958
S'y'
sS'kernel.sched_domain.cpu22.domain1.name'
p1959
S'NUMA'
p1960
sS'kernel.sched_domain.cpu3.domain0.newidle_idx'
p1961
I0
sS'kernel.sched_domain.cpu16.domain1.min_interval'
p1962
I48
sS'kernel.sched_domain.cpu47.domain1.imbalance_pct'
p1963
I125
sS'CONFIG_QUOTACTL'
p1964
S'y'
sS'kernel.sched_domain.cpu23.domain0.busy_idx'
p1965
I2
sS'kernel.sched_domain.cpu33.domain1.forkexec_idx'
p1966
I0
sS'CONFIG_ARCH_WANT_BATCHED_UNMAP_TLB_FLUSH'
p1967
S'y'
sS'CONFIG_SCSI_QLA_ISCSI'
p1968
S'm'
sS'net.ipv6.conf.lo.temp_valid_lft'
p1969
I604800
sS'CONFIG_RTC_LIB'
p1970
S'y'
sS'kernel.pty.max'
p1971
I4096
sS'CONFIG_ISCSI_BOOT_SYSFS'
p1972
S'm'
sS'CONFIG_HAVE_KERNEL_LZ4'
p1973
S'y'
sS'kernel.sched_domain.cpu36.domain1.cache_nice_tries'
p1974
I2
sS'CONFIG_SQUASHFS_XATTR'
p1975
S'y'
sS'kernel.sched_domain.cpu39.domain1.wake_idx'
p1976
I0
sS'net.ipv6.conf.default.use_oif_addrs_only'
p1977
I0
sS'kernel.sched_domain.cpu4.domain1.busy_factor'
p1978
I32
sS'vm.lowmem_reserve_ratio'
p1979
S'256\t256\t32\t1'
p1980
sS'kernel.sched_domain.cpu0.domain0.newidle_idx'
p1981
I0
sS'kernel.sched_domain.cpu27.domain0.name'
p1982
S'DIE'
p1983
sS'kernel.sched_domain.cpu20.domain1.max_interval'
p1984
I96
sS'CONFIG_MODULE_SIG_ALL'
p1985
S'y'
sS'CONFIG_CONSOLE_POLL'
p1986
S'y'
sS'kernel.sched_domain.cpu43.domain1.newidle_idx'
p1987
I0
sS'kernel.sched_domain.cpu0.domain1.name'
p1988
S'NUMA'
p1989
sS'net.ipv4.cipso_rbm_strictvalid'
p1990
I1
sS'CONFIG_HAVE_CLK_PREPARE'
p1991
S'y'
sS'kernel.sched_domain.cpu47.domain0.flags'
p1992
I4143
sS'kernel.sched_domain.cpu8.domain1.newidle_idx'
p1993
I0
sS'net.ipv6.conf.ens3.router_solicitation_interval'
p1994
I4
sS'kernel.sched_domain.cpu43.domain0.name'
p1995
S'DIE'
p1996
sS'kernel.sched_domain.cpu22.domain0.forkexec_idx'
p1997
I0
sS'kernel.sched_domain.cpu33.domain1.cache_nice_tries'
p1998
I2
sS'kernel.sched_domain.cpu32.domain1.forkexec_idx'
p1999
I0
sS'kernel.sched_domain.cpu15.domain0.min_interval'
p2000
I24
sS'CONFIG_POSIX_MQUEUE'
p2001
S'y'
sS'CONFIG_MDIO_BUS'
p2002
S'y'
sS'CONFIG_KALLSYMS_ALL'
p2003
S'y'
sS'net.ipv4.conf.lo.igmpv3_unsolicited_report_interval'
p2004
I1000
sS'CONFIG_ANON_INODES'
p2005
S'y'
sS'kernel.sched_domain.cpu39.domain0.min_interval'
p2006
I24
sS'kernel.sched_domain.cpu39.domain1.busy_factor'
p2007
I32
sS'kernel.sched_domain.cpu5.domain1.max_newidle_lb_cost'
p2008
I44641
sS'kernel.shmmni'
p2009
I4096
sS'CONFIG_ATARI_PARTITION'
p2010
S'y'
sS'kernel.sched_domain.cpu8.domain0.min_interval'
p2011
I24
sS'CONFIG_SECURITY_SELINUX_CHECKREQPROT_VALUE'
p2012
I1
sS'net.ipv4.conf.ens3.proxy_arp'
p2013
I0
sS'CONFIG_NETLABEL'
p2014
S'y'
sS'kernel.sched_domain.cpu40.domain1.flags'
p2015
I25647
sS'CONFIG_CRYPTO_CRCT10DIF'
p2016
S'y'
sS'kernel.sched_domain.cpu10.domain1.max_interval'
p2017
I96
sS'kernel.sched_domain.cpu19.domain1.min_interval'
p2018
I48
sS'kernel.sched_domain.cpu20.domain0.imbalance_pct'
p2019
I125
sS'kernel.sched_domain.cpu45.domain0.newidle_idx'
p2020
I0
sS'kernel.sched_domain.cpu38.domain1.forkexec_idx'
p2021
I0
sS'kernel.sched_domain.cpu45.domain1.max_interval'
p2022
I96
sS'CONFIG_ARCH_HAS_KCOV'
p2023
S'y'
sS'net.ipv6.conf.lo.accept_ra_rtr_pref'
p2024
I1
sS'CONFIG_RAPIDIO_DISC_TIMEOUT'
p2025
I30
sS'CONFIG_GPIO_SX150X'
p2026
S'y'
sS'kernel.sched_domain.cpu17.domain0.imbalance_pct'
p2027
I125
sS'net.ipv6.conf.ens3.enhanced_dad'
p2028
I1
sS'net.ipv6.conf.all.router_probe_interval'
p2029
I60
sS'CONFIG_BSD_PROCESS_ACCT'
p2030
S'y'
sS'kernel.sched_domain.cpu37.domain1.max_interval'
p2031
I96
sS'kernel.sched_domain.cpu33.domain1.busy_factor'
p2032
I32
sS'CONFIG_SPI_MASTER'
p2033
S'y'
sS'kernel.sched_domain.cpu17.domain1.busy_factor'
p2034
I32
sS'kernel.sched_domain.cpu22.domain0.idle_idx'
p2035
I1
sS'kernel.sched_domain.cpu2.domain1.idle_idx'
p2036
I2
sS'CONFIG_KALLSYMS_ABSOLUTE_PERCPU'
p2037
S'y'
sS'kernel.sched_domain.cpu6.domain0.name'
p2038
S'DIE'
p2039
sS'CONFIG_INTEL_IOMMU_FLOPPY_WA'
p2040
S'y'
sS'net.ipv6.conf.all.temp_valid_lft'
p2041
I604800
sS'CONFIG_LZ4_DECOMPRESS'
p2042
S'y'
sS'CONFIG_CRYPTO_MANAGER'
p2043
S'y'
sS'kernel.sched_domain.cpu12.domain1.forkexec_idx'
p2044
I0
sS'net.ipv4.conf.default.drop_unicast_in_l2_multicast'
p2045
I0
sS'CONFIG_SND_PROC_FS'
p2046
S'y'
sS'net.ipv6.conf.ens3.hop_limit'
p2047
I64
sS'CONFIG_VGA_CONSOLE'
p2048
S'y'
sS'CONFIG_RANDOMIZE_MEMORY_PHYSICAL_PADDING'
p2049
S'0xa'
p2050
sS'CONFIG_ECRYPT_FS'
p2051
S'y'
sS'CONFIG_QUOTACTL_COMPAT'
p2052
S'y'
sS'vm.oom_kill_allocating_task'
p2053
I0
sS'kernel.sched_domain.cpu8.domain0.idle_idx'
p2054
I1
sS'CONFIG_X86_MCE_THRESHOLD'
p2055
S'y'
sS'CONFIG_CGROUP_PIDS'
p2056
S'y'
sS'kernel.sched_domain.cpu33.domain0.idle_idx'
p2057
I1
sS'kernel.sched_domain.cpu41.domain0.busy_factor'
p2058
I32
sS'net.ipv4.conf.ens3.accept_local'
p2059
I0
sS'net.ipv4.neigh.ens3.gc_stale_time'
p2060
I60
sS'CONFIG_SND_TIMER'
p2061
S'm'
sS'kernel.sched_domain.cpu40.domain0.busy_idx'
p2062
I2
sS'CONFIG_CRYPTO_AES_X86_64'
p2063
S'm'
sS'net.ipv6.neigh.lo.gc_stale_time'
p2064
I60
sS'CONFIG_HID_PID'
p2065
S'y'
sS'CONFIG_NET_VENDOR_SAMSUNG'
p2066
S'y'
sS'CONFIG_SPLIT_PTLOCK_CPUS'
p2067
I4
sS'dev.cdrom.autoclose'
p2068
I1
sS'CONFIG_LIBCRC32C'
p2069
S'm'
sS'kernel.sched_domain.cpu26.domain0.imbalance_pct'
p2070
I125
sS'kernel.sched_domain.cpu36.domain1.busy_idx'
p2071
I3
sS'kernel.sched_domain.cpu33.domain1.newidle_idx'
p2072
I0
sS'CONFIG_WLAN_VENDOR_BROADCOM'
p2073
S'y'
sS'CONFIG_EDAC_SUPPORT'
p2074
S'y'
sS'CONFIG_HAVE_ARCH_COMPAT_MMAP_BASES'
p2075
S'y'
sS'CONFIG_TASK_DELAY_ACCT'
p2076
S'y'
sS'net.ipv4.cipso_rbm_optfmt'
p2077
I0
sS'CONFIG_BRIDGE_EBT_T_FILTER'
p2078
S'm'
sS'net.ipv4.route.gc_interval'
p2079
I60
sS'kernel.sched_domain.cpu26.domain0.flags'
p2080
I4143
sS'kernel.sched_domain.cpu34.domain1.imbalance_pct'
p2081
I125
sS'kernel.sched_domain.cpu20.domain0.flags'
p2082
I4143
sS'kernel.sched_domain.cpu44.domain0.busy_factor'
p2083
I32
sS'CONFIG_DMA_ACPI'
p2084
S'y'
sS'kernel.kptr_restrict'
p2085
I1
sS'kernel.sched_domain.cpu43.domain1.max_newidle_lb_cost'
p2086
I14304
sS'CONFIG_INPUT_MOUSEDEV'
p2087
S'y'
sS'CONFIG_X86_DIRECT_GBPAGES'
p2088
S'y'
sS'kernel.sched_domain.cpu28.domain1.busy_factor'
p2089
I32
sS'net.ipv6.conf.ens3.accept_redirects'
p2090
I1
sS'vm.compact_unevictable_allowed'
p2091
I1
sS'CONFIG_ZLIB_DEFLATE'
p2092
S'y'
sS'kernel.sched_domain.cpu18.domain0.busy_factor'
p2093
I32
sS'CONFIG_ACPI_CPU_FREQ_PSS'
p2094
S'y'
sS'kernel.sched_domain.cpu41.domain0.cache_nice_tries'
p2095
I1
sS'CONFIG_X86_VSYSCALL_EMULATION'
p2096
S'y'
sS'net.ipv6.conf.all.use_tempaddr'
p2097
I2
sS'net.ipv4.neigh.lo.anycast_delay'
p2098
I100
sS'CONFIG_NO_HZ_COMMON'
p2099
S'y'
sS'CONFIG_I2C_DESIGNWARE_BAYTRAIL'
p2100
S'y'
sS'kernel.sched_domain.cpu31.domain0.busy_idx'
p2101
I2
sS'kernel.sched_domain.cpu37.domain1.newidle_idx'
p2102
I0
sS'CONFIG_FILE_LOCKING'
p2103
S'y'
sS'net.ipv4.conf.ens3.force_igmp_version'
p2104
I0
sS'CONFIG_FTRACE'
p2105
S'y'
sS'CONFIG_MFD_WM831X_I2C'
p2106
S'y'
sS'kernel.sched_domain.cpu28.domain1.min_interval'
p2107
I48
sS'CONFIG_DEVFREQ_GOV_USERSPACE'
p2108
S'y'
sS'CONFIG_AUDIT_TREE'
p2109
S'y'
sS'kernel.sched_domain.cpu47.domain0.busy_idx'
p2110
I2
sS'CONFIG_USB_OHCI_HCD_PCI'
p2111
S'y'
sS'kernel.sched_domain.cpu36.domain0.name'
p2112
S'DIE'
p2113
sS'net.ipv4.route.min_adv_mss'
p2114
I256
sS'CONFIG_HAVE_KVM_IRQFD'
p2115
S'y'
sS'CONFIG_ARCH_DEFCONFIG'
p2116
S'"arch/x86/configs/x86_64_defconfig"'
p2117
sS'kernel.sched_domain.cpu3.domain1.forkexec_idx'
p2118
I0
sS'net.ipv4.tcp_thin_linear_timeouts'
p2119
I0
sS'CONFIG_CRYPTO_ALGAPI2'
p2120
S'y'
sS'CONFIG_NUMA'
p2121
S'y'
sS'kernel.sched_domain.cpu30.domain1.max_interval'
p2122
I96
sS'kernel.sched_domain.cpu16.domain1.wake_idx'
p2123
I0
sS'CONFIG_LZO_COMPRESS'
p2124
S'y'
sS'CONFIG_INTEL_TXT'
p2125
S'y'
sS'CONFIG_KVM_GENERIC_DIRTYLOG_READ_PROTECT'
p2126
S'y'
sS'CONFIG_LLC'
p2127
S'm'
sS'kernel.sched_domain.cpu26.domain1.newidle_idx'
p2128
I0
sS'kernel.sched_domain.cpu12.domain0.cache_nice_tries'
p2129
I1
sS'CONFIG_QUEUED_SPINLOCKS'
p2130
S'y'
sS'kernel.sched_domain.cpu11.domain0.min_interval'
p2131
I24
sS'kernel.sched_domain.cpu43.domain0.busy_factor'
p2132
I32
sS'CONFIG_ATA_SFF'
p2133
S'y'
sS'CONFIG_NVMEM'
p2134
S'y'
sS'CONFIG_SERIO_RAW'
p2135
S'm'
sS'CONFIG_HAVE_KVM_IRQ_ROUTING'
p2136
S'y'
sS'dev.mac_hid.mouse_button3_keycode'
p2137
I100
sS'CONFIG_GENERIC_BUG'
p2138
S'y'
sS'CONFIG_BLK_DEV_IO_TRACE'
p2139
S'y'
sS'kernel.sched_domain.cpu47.domain1.max_interval'
p2140
I96
sS'net.ipv4.conf.ens3.drop_gratuitous_arp'
p2141
I0
sS'CONFIG_MUTEX_SPIN_ON_OWNER'
p2142
S'y'
sS'CONFIG_MEMORY_ISOLATION'
p2143
S'y'
sS'net.ipv6.conf.all.accept_ra_pinfo'
p2144
I1
sS'kernel.shm_next_id'
p2145
S'-1'
p2146
sS'kernel.sched_domain.cpu22.domain1.imbalance_pct'
p2147
I125
sS'CONFIG_NET_VENDOR_AURORA'
p2148
S'y'
sS'CONFIG_LOCKDEP_SUPPORT'
p2149
S'y'
sS'net.ipv4.conf.ens3.ignore_routes_with_linkdown'
p2150
I0
sS'kernel.sched_domain.cpu34.domain0.flags'
p2151
I4143
sS'net.ipv6.conf.ens3.accept_ra'
p2152
I1
sS'kernel.sched_domain.cpu1.domain1.max_newidle_lb_cost'
p2153
I18075
sS'kernel.sched_domain.cpu25.domain0.newidle_idx'
p2154
I0
sS'net.ipv6.conf.all.mtu'
p2155
I1280
sS'kernel.sched_domain.cpu5.domain0.busy_factor'
p2156
I32
sS'net.ipv6.conf.default.mldv2_unsolicited_report_interval'
p2157
I1000
sS'CONFIG_ZONE_DEVICE'
p2158
S'y'
sS'CONFIG_VIRTUALIZATION'
p2159
S'y'
sS'kernel.sched_domain.cpu32.domain0.imbalance_pct'
p2160
I125
sS'net.ipv6.route.gc_min_interval'
p2161
I0
sS'kernel.sched_domain.cpu7.domain0.cache_nice_tries'
p2162
I1
sS'kernel.sched_domain.cpu6.domain1.max_interval'
p2163
I96
sS'CONFIG_HAVE_VIRT_CPU_ACCOUNTING_GEN'
p2164
S'y'
sS'CONFIG_MOUSE_PS2_BYD'
p2165
S'y'
sS'kernel.sched_domain.cpu36.domain1.min_interval'
p2166
I48
sS'CONFIG_HAVE_ARCH_TRANSPARENT_HUGEPAGE'
p2167
S'y'
sS'CONFIG_PROC_PAGE_MONITOR'
p2168
S'y'
sS'dev.hpet.max-user-freq'
p2169
I64
sS'kernel.sched_domain.cpu16.domain0.max_newidle_lb_cost'
p2170
I148959
sS'net.ipv4.route.gc_thresh'
p2171
S'-1'
p2172
sS'CONFIG_THERMAL_GOV_POWER_ALLOCATOR'
p2173
S'y'
sS'CONFIG_HAVE_CLK'
p2174
S'y'
sS'kernel.sched_domain.cpu44.domain1.busy_factor'
p2175
I32
sS'dev.mac_hid.mouse_button_emulation'
p2176
I0
sS'CONFIG_SND_DMA_SGBUF'
p2177
S'y'
sS'CONFIG_ATA_GENERIC'
p2178
S'y'
sS'CONFIG_MOUSE_PS2_TRACKPOINT'
p2179
S'y'
sS'CONFIG_BLK_MQ_VIRTIO'
p2180
S'y'
sS'CONFIG_RD_LZ4'
p2181
S'y'
sS'CONFIG_STRICT_DEVMEM'
p2182
S'y'
sS'CONFIG_ARCH_ENABLE_MEMORY_HOTREMOVE'
p2183
S'y'
sS'kernel.sched_domain.cpu29.domain1.imbalance_pct'
p2184
I125
sS'net.ipv4.conf.all.medium_id'
p2185
I0
sS'net.ipv6.conf.lo.use_tempaddr'
p2186
S'-1'
p2187
sS'kernel.sched_domain.cpu7.domain1.idle_idx'
p2188
I2
sS'kernel.sched_domain.cpu38.domain1.busy_factor'
p2189
I32
sS'kernel.sched_domain.cpu5.domain1.cache_nice_tries'
p2190
I2
sS'CONFIG_DMA_ENGINE'
p2191
S'y'
sS'kernel.sched_domain.cpu22.domain1.min_interval'
p2192
I48
sS'net.ipv6.conf.all.mldv2_unsolicited_report_interval'
p2193
I1000
sS'CONFIG_OUTPUT_FORMAT'
p2194
S'"elf64-x86-64"'
p2195
sS'CONFIG_X86_X2APIC'
p2196
S'y'
sS'CONFIG_CGROUP_BPF'
p2197
S'y'
sS'CONFIG_ARCH_ENABLE_SPLIT_PMD_PTLOCK'
p2198
S'y'
sS'CONFIG_NET_CLS_ACT'
p2199
S'y'
sS'CONFIG_DECOMPRESS_LZO'
p2200
S'y'
sS'net.ipv4.conf.default.src_valid_mark'
p2201
I0
sS'kernel.sched_domain.cpu16.domain0.newidle_idx'
p2202
I0
sS'CONFIG_NETFILTER_XTABLES'
p2203
S'm'
sS'CONFIG_DEBUG_INFO_DWARF4'
p2204
S'y'
sS'kernel.poweroff_cmd'
p2205
S'/sbin/poweroff'
p2206
sS'CONFIG_SCSI_BNX2_ISCSI'
p2207
S'm'
sS'net.ipv4.conf.default.log_martians'
p2208
I0
sS'CONFIG_FREEZER'
p2209
S'y'
sS'kernel.sched_domain.cpu15.domain0.cache_nice_tries'
p2210
I1
sS'net.ipv4.tcp_ecn_fallback'
p2211
I1
sS'kernel.sched_domain.cpu40.domain1.max_interval'
p2212
I96
sS'kernel.sched_domain.cpu44.domain1.imbalance_pct'
p2213
I125
sS'CONFIG_FB'
p2214
S'y'
sS'kernel.sched_domain.cpu25.domain1.busy_idx'
p2215
I3
sS'CONFIG_MFD_WM831X'
p2216
S'y'
sS'kernel.sched_domain.cpu24.domain1.max_newidle_lb_cost'
p2217
I72116
sS'CONFIG_SLUB_DEBUG'
p2218
S'y'
sS'CONFIG_MFD_DA9055'
p2219
S'y'
sS'CONFIG_CGROUP_NET_PRIO'
p2220
S'y'
sS'net.ipv6.neigh.default.mcast_solicit'
p2221
I3
sS'CONFIG_GPIO_LYNXPOINT'
p2222
S'y'
sS'CONFIG_IPC_NS'
p2223
S'y'
sS'CONFIG_PRINTK_TIME'
p2224
S'y'
sS'CONFIG_PCI_MSI_IRQ_DOMAIN'
p2225
S'y'
sS'CONFIG_HAVE_C_RECORDMCOUNT'
p2226
S'y'
sS'net.ipv6.neigh.default.anycast_delay'
p2227
I100
sS'CONFIG_MFD_TPS6586X'
p2228
S'y'
sS'net.ipv6.conf.lo.seg6_enabled'
p2229
I0
sS'kernel.sched_domain.cpu11.domain1.max_interval'
p2230
I96
sS'net.ipv4.conf.ens3.disable_policy'
p2231
I0
sS'CONFIG_PCC'
p2232
S'y'
sS'CONFIG_REGMAP'
p2233
S'y'
sS'CONFIG_SCHEDSTATS'
p2234
S'y'
sS'CONFIG_CLOCKSOURCE_WATCHDOG'
p2235
S'y'
sS'CONFIG_PCI_QUIRKS'
p2236
S'y'
sS'CONFIG_USB_DWC2_PCI'
p2237
S'y'
sS'CONFIG_WLAN'
p2238
S'y'
sS'CONFIG_NET_VENDOR_EXAR'
p2239
S'y'
sS'kernel.sched_domain.cpu47.domain0.name'
p2240
S'DIE'
p2241
sS'CONFIG_GENERIC_IRQ_PROBE'
p2242
S'y'
sS'kernel.sched_domain.cpu28.domain0.newidle_idx'
p2243
I0
sS'kernel.sched_domain.cpu33.domain0.max_interval'
p2244
I48
sS'kernel.sched_domain.cpu31.domain1.busy_factor'
p2245
I32
sS'CONFIG_DECOMPRESS_LZ4'
p2246
S'y'
sS'net.ipv6.conf.lo.ignore_routes_with_linkdown'
p2247
I0
sS'CONFIG_HARDLOCKUP_DETECTOR'
p2248
S'y'
sS'kernel.sched_domain.cpu14.domain0.imbalance_pct'
p2249
I125
sS'CONFIG_RTC_SYSTOHC'
p2250
S'y'
sS'CONFIG_USB_XHCI_HCD'
p2251
S'y'
sS'CONFIG_SERIO_LIBPS2'
p2252
S'y'
sS'CONFIG_UNIX'
p2253
S'y'
sS'CONFIG_BASE_SMALL'
p2254
I0
sS'net.ipv4.tcp_fack'
p2255
I0
sS'net.ipv6.conf.ens3.mldv2_unsolicited_report_interval'
p2256
I1000
sS'kernel.sched_domain.cpu22.domain1.idle_idx'
p2257
I2
sS'net.ipv4.neigh.lo.mcast_resolicit'
p2258
I0
sS'kernel.sched_domain.cpu38.domain1.min_interval'
p2259
I48
sS'uname'
p2260
S'Linux nestedvm 4.14.0-rc8-stock #3 SMP Tue Mar 13 14:28:42 EDT 2018 x86_64 x86_64 x86_64 GNU/Linux'
p2261
sS'CONFIG_DMADEVICES'
p2262
S'y'
sS'kernel.sched_domain.cpu23.domain0.busy_factor'
p2263
I32
sS'CONFIG_DEFAULT_HOSTNAME'
p2264
S'"(none)"'
p2265
sS'kernel.sched_domain.cpu35.domain0.imbalance_pct'
p2266
I125
sS'CONFIG_X86_IO_APIC'
p2267
S'y'
sS'CONFIG_CRYPTO_LZO'
p2268
S'y'
sS'CONFIG_HAVE_STACK_VALIDATION'
p2269
S'y'
sS'CONFIG_SCHED_MC_PRIO'
p2270
S'y'
sS'kernel.sched_domain.cpu11.domain1.flags'
p2271
I25647
sS'CONFIG_VFAT_FS'
p2272
S'y'
sS'kernel.sched_domain.cpu20.domain0.idle_idx'
p2273
I1
sS'CONFIG_HAVE_KVM'
p2274
S'y'
sS'CONFIG_USB_PCI'
p2275
S'y'
sS'kernel.sched_domain.cpu44.domain0.min_interval'
p2276
I24
sS'CONFIG_SATA_ZPODD'
p2277
S'y'
sS'CONFIG_SPARSEMEM_VMEMMAP'
p2278
S'y'
sS'CONFIG_NET_VENDOR_SIS'
p2279
S'y'
sS'net.core.netdev_budget_usecs'
p2280
I2000
sS'CONFIG_TCP_CONG_ADVANCED'
p2281
S'y'
sS'CONFIG_USB_EHCI_HCD_PLATFORM'
p2282
S'y'
sS'kernel.sched_domain.cpu34.domain0.name'
p2283
S'DIE'
p2284
sS'net.ipv6.conf.all.drop_unsolicited_na'
p2285
I0
sS'CONFIG_FSNOTIFY'
p2286
S'y'
sS'kernel.sched_domain.cpu24.domain1.newidle_idx'
p2287
I0
sS'CONFIG_POWER_RESET'
p2288
S'y'
sS'CONFIG_REGULATOR'
p2289
S'y'
sS'CONFIG_RFKILL'
p2290
S'y'
sS'kernel.sched_domain.cpu43.domain0.newidle_idx'
p2291
I0
sS'CONFIG_ARCH_HAS_ZONE_DEVICE'
p2292
S'y'
sS'CONFIG_BCMA_POSSIBLE'
p2293
S'y'
sS'CONFIG_OPTIMIZE_INLINING'
p2294
S'y'
sS'net.ipv4.ipfrag_time'
p2295
I30
sS'net.ipv4.conf.default.secure_redirects'
p2296
I1
sS'kernel.sched_domain.cpu23.domain0.imbalance_pct'
p2297
I125
sS'CONFIG_MOUSE_PS2_SMBUS'
p2298
S'y'
sS'CONFIG_MD_RAID10'
p2299
S'm'
sS'kernel.sched_domain.cpu26.domain1.busy_idx'
p2300
I3
sS'CONFIG_PPDEV'
p2301
S'm'
sS'CONFIG_BLK_DEV_INITRD'
p2302
S'y'
sS'CONFIG_CNIC'
p2303
S'm'
sS'CONFIG_DM_UEVENT'
p2304
S'y'
sS'kernel.sched_domain.cpu29.domain1.wake_idx'
p2305
I0
sS'kernel.sched_domain.cpu28.domain0.imbalance_pct'
p2306
I125
sS'CONFIG_LEGACY_PTYS'
p2307
S'y'
sS'CONFIG_FS_POSIX_ACL'
p2308
S'y'
sS'kernel.auto_msgmni'
p2309
I0
sS'CONFIG_VIRTIO_BALLOON'
p2310
S'y'
sS'kernel.sched_domain.cpu45.domain1.busy_factor'
p2311
I32
sS'kernel.sched_domain.cpu28.domain0.idle_idx'
p2312
I1
sS'kernel.sched_domain.cpu44.domain0.max_newidle_lb_cost'
p2313
I26306
sS'CONFIG_KEXEC_VERIFY_SIG'
p2314
S'y'
sS'fs.inotify.max_user_watches'
p2315
I8192
sS'CONFIG_IMA_APPRAISE_BOOTPARAM'
p2316
S'y'
sS'CONFIG_HPET'
p2317
S'y'
sS'CONFIG_CRYPTO_WORKQUEUE'
p2318
S'y'
sS'kernel.sched_domain.cpu28.domain1.flags'
p2319
I25647
sS'CONFIG_INTEGRITY_SIGNATURE'
p2320
S'y'
sS'kernel.sched_domain.cpu12.domain1.busy_idx'
p2321
I3
sS'CONFIG_SPARSE_IRQ'
p2322
S'y'
sS'kernel.sched_domain.cpu25.domain1.idle_idx'
p2323
I2
sS'CONFIG_BLK_SCSI_REQUEST'
p2324
S'y'
sS'kernel.sched_domain.cpu12.domain0.name'
p2325
S'DIE'
p2326
sS'kernel.sched_domain.cpu42.domain1.name'
p2327
S'NUMA'
p2328
sS'kernel.sched_domain.cpu27.domain1.newidle_idx'
p2329
I0
sS'net.ipv6.conf.lo.accept_ra_rt_info_max_plen'
p2330
I0
sS'CONFIG_NET_VENDOR_MICREL'
p2331
S'y'
sS'kernel.sched_domain.cpu15.domain1.wake_idx'
p2332
I0
sS'kernel.sched_domain.cpu17.domain0.newidle_idx'
p2333
I0
sS'CONFIG_DEBUG_INFO'
p2334
S'y'
sS'kernel.sched_domain.cpu18.domain1.idle_idx'
p2335
I2
sS'CONFIG_MAGIC_SYSRQ'
p2336
S'y'
sS'CONFIG_SERIAL_8250_PNP'
p2337
S'y'
sS'CONFIG_CLKDEV_LOOKUP'
p2338
S'y'
sS'kernel.sched_domain.cpu11.domain0.forkexec_idx'
p2339
I0
sS'kernel.keys.maxbytes'
p2340
I20000
sS'CONFIG_BRANCH_PROFILE_NONE'
p2341
S'y'
sS'CONFIG_NO_BOOTMEM'
p2342
S'y'
sS'CONFIG_XXHASH'
p2343
S'm'
sS'CONFIG_PCI_DIRECT'
p2344
S'y'
sS'vm.dirty_ratio'
p2345
I20
sS'net.ipv6.idgen_retries'
p2346
I3
sS'CONFIG_MAGIC_SYSRQ_SERIAL'
p2347
S'y'
sS'CONFIG_CRYPTO_HASH2'
p2348
S'y'
sS'CONFIG_HAVE_ARCH_KASAN'
p2349
S'y'
sS'CONFIG_MEMCG_SWAP'
p2350
S'y'
sS'CONFIG_IOSCHED_NOOP'
p2351
S'y'
sS'CONFIG_USB_COMMON'
p2352
S'y'
sS'kernel.sched_domain.cpu0.domain0.wake_idx'
p2353
I0
sS'CONFIG_SND_VERBOSE_PROCFS'
p2354
S'y'
sS'net.ipv6.conf.ens3.temp_prefered_lft'
p2355
I86400
sS'CONFIG_BRIDGE_NF_EBTABLES'
p2356
S'm'
sS'CONFIG_CRYPTO_JITTERENTROPY'
p2357
S'y'
sS'CONFIG_CRYPTO_DRBG_MENU'
p2358
S'y'
sS'kernel.sched_domain.cpu47.domain1.name'
p2359
S'NUMA'
p2360
sS'kernel.sched_domain.cpu37.domain1.busy_factor'
p2361
I32
sS'CONFIG_RD_GZIP'
p2362
S'y'
sS'user.max_pid_namespaces'
p2363
I257513
sS'kernel.sched_domain.cpu24.domain1.min_interval'
p2364
I48
sS'kernel.sched_domain.cpu0.domain1.min_interval'
p2365
I48
sS'CONFIG_NET_VENDOR_MARVELL'
p2366
S'y'
sS'CONFIG_PANIC_ON_OOPS_VALUE'
p2367
I0
sS'CONFIG_USB_EHCI_ROOT_HUB_TT'
p2368
S'y'
sS'kernel.sched_min_granularity_ns'
p2369
I3000000
sS'kernel.sched_domain.cpu24.domain1.busy_factor'
p2370
I32
sS'CONFIG_X86_NEED_RELOCS'
p2371
S'y'
sS'kernel.sched_domain.cpu26.domain0.busy_idx'
p2372
I2
sS'kernel.sched_domain.cpu4.domain1.busy_idx'
p2373
I3
sS'CONFIG_XZ_DEC_ARM'
p2374
S'y'
sS'CONFIG_SCSI_DMA'
p2375
S'y'
sS'kernel.sched_domain.cpu4.domain0.max_interval'
p2376
I48
sS'kernel.sched_domain.cpu21.domain0.imbalance_pct'
p2377
I125
sS'CONFIG_HVC_DRIVER'
p2378
S'y'
sS'CONFIG_HAVE_RCU_TABLE_FREE'
p2379
S'y'
sS'CONFIG_ZSMALLOC'
p2380
S'y'
sS'CONFIG_HAVE_PERF_REGS'
p2381
S'y'
sS'CONFIG_SND_HWDEP'
p2382
S'm'
sS'CONFIG_CRYPTO_HASH'
p2383
S'y'
sS'kernel.sched_domain.cpu9.domain0.newidle_idx'
p2384
I0
sS'CONFIG_SPARSEMEM_MANUAL'
p2385
S'y'
sS'CONFIG_KEYS_COMPAT'
p2386
S'y'
sS'kernel.sched_domain.cpu15.domain0.max_interval'
p2387
I48
sS'kernel.sched_domain.cpu3.domain1.newidle_idx'
p2388
I0
sS'CONFIG_CRYPTO_NULL2'
p2389
S'y'
sS'CONFIG_RCU_STALL_COMMON'
p2390
S'y'
sS'net.ipv6.conf.lo.accept_ra_min_hop_limit'
p2391
I1
sS'kernel.sched_domain.cpu22.domain1.forkexec_idx'
p2392
I0
sS'net.ipv4.conf.default.proxy_arp'
p2393
I0
sS'kernel.sched_rr_timeslice_ms'
p2394
I100
sS'net.ipv6.conf.lo.disable_ipv6'
p2395
I0
sS'kernel.sched_domain.cpu16.domain0.min_interval'
p2396
I24
sS'kernel.sched_domain.cpu44.domain1.name'
p2397
S'NUMA'
p2398
sS'CONFIG_NEED_PER_CPU_PAGE_FIRST_CHUNK'
p2399
S'y'
sS'CONFIG_KGDB_KDB'
p2400
S'y'
sS'kernel.sched_domain.cpu19.domain0.busy_factor'
p2401
I32
sS'net.ipv4.conf.all.src_valid_mark'
p2402
I0
sS'fs.overflowuid'
p2403
I65534
sS'kernel.sched_domain.cpu14.domain1.newidle_idx'
p2404
I0
sS'net.ipv4.conf.ens3.arp_accept'
p2405
I0
sS'CONFIG_CLOCKSOURCE_VALIDATE_LAST_CYCLE'
p2406
S'y'
sS'CONFIG_FB_CFB_FILLRECT'
p2407
S'y'
sS'CONFIG_SECURITYFS'
p2408
S'y'
sS'CONFIG_OSF_PARTITION'
p2409
S'y'
sS'CONFIG_CRYPTO_AKCIPHER'
p2410
S'y'
sS'kernel.sched_domain.cpu31.domain0.name'
p2411
S'DIE'
p2412
sS'kernel.sched_domain.cpu47.domain0.busy_factor'
p2413
I32
sS'kernel.sched_domain.cpu17.domain1.imbalance_pct'
p2414
I125
sS'net.ipv6.conf.default.accept_redirects'
p2415
I1
sS'CONFIG_BNX2'
p2416
S'm'
sS'kernel.sched_domain.cpu43.domain0.min_interval'
p2417
I24
sS'CONFIG_I2C_CHARDEV'
p2418
S'y'
sS'CONFIG_CMA_AREAS'
p2419
I7
sS'CONFIG_ARM_GIC_MAX_NR'
p2420
I1
sS'net.ipv4.conf.all.accept_redirects'
p2421
I1
sS'kernel.sched_domain.cpu42.domain0.imbalance_pct'
p2422
I125
sS'kernel.sched_domain.cpu28.domain0.busy_idx'
p2423
I2
sS'kernel.sched_domain.cpu2.domain1.imbalance_pct'
p2424
I125
sS'vm.max_map_count'
p2425
I65530
sS'CONFIG_SCSI_SCAN_ASYNC'
p2426
S'y'
sS'CONFIG_FS_MBCACHE'
p2427
S'y'
sS'net.ipv6.conf.default.enhanced_dad'
p2428
I1
sS'net.ipv4.conf.lo.arp_ignore'
p2429
I0
sS'kernel.sched_domain.cpu13.domain1.forkexec_idx'
p2430
I0
sS'CONFIG_HAVE_KVM_IRQCHIP'
p2431
S'y'
sS'CONFIG_INLINE_READ_UNLOCK'
p2432
S'y'
sS'CONFIG_PM_SLEEP_SMP'
p2433
S'y'
sS'kernel.sched_domain.cpu42.domain1.newidle_idx'
p2434
I0
sS'kernel.sched_domain.cpu32.domain0.cache_nice_tries'
p2435
I1
sS'net.ipv4.conf.ens3.proxy_arp_pvlan'
p2436
I0
sS'CONFIG_FIX_EARLYCON_MEM'
p2437
S'y'
sS'kernel.sched_domain.cpu3.domain0.forkexec_idx'
p2438
I0
sS'CONFIG_DYNAMIC_FTRACE_WITH_REGS'
p2439
S'y'
sS'CONFIG_SCHED_DEBUG'
p2440
S'y'
sS'net.ipv4.conf.ens3.promote_secondaries'
p2441
I0
sS'CONFIG_VT_HW_CONSOLE_BINDING'
p2442
S'y'
sS'CONFIG_MIGRATION'
p2443
S'y'
sS'CONFIG_SYSVIPC_SYSCTL'
p2444
S'y'
sS'CONFIG_HAMRADIO'
p2445
S'y'
sS'kernel.sched_domain.cpu25.domain0.name'
p2446
S'DIE'
p2447
sS'CONFIG_SECURITY_APPARMOR_HASH'
p2448
S'y'
sS'kernel.sched_domain.cpu22.domain0.busy_factor'
p2449
I32
sS'CONFIG_NET_NS'
p2450
S'y'
sS'CONFIG_EFI_ESRT'
p2451
S'y'
sS'CONFIG_RAS'
p2452
S'y'
sS'CONFIG_GENERIC_PINCONF'
p2453
S'y'
sS'kernel.sched_domain.cpu44.domain1.max_newidle_lb_cost'
p2454
I93538
sS'CONFIG_MEMBARRIER'
p2455
S'y'
sS'CONFIG_USB'
p2456
S'y'
sS'kernel.sched_domain.cpu23.domain1.newidle_idx'
p2457
I0
sS'kernel.sched_domain.cpu46.domain0.name'
p2458
S'DIE'
p2459
sS'kernel.sched_domain.cpu8.domain0.max_interval'
p2460
I48
sS'CONFIG_HIGH_RES_TIMERS'
p2461
S'y'
sS'CONFIG_PPP'
p2462
S'y'
sS'CONFIG_HAVE_GENERIC_GUP'
p2463
S'y'
sS'kernel.sched_domain.cpu42.domain0.max_interval'
p2464
I48
sS'kernel.sched_domain.cpu33.domain1.max_interval'
p2465
I96
sS'CONFIG_NET_VENDOR_HUAWEI'
p2466
S'y'
sS'kernel.sched_domain.cpu43.domain0.cache_nice_tries'
p2467
I1
sS'CONFIG_CORE_DUMP_DEFAULT_ELF_HEADERS'
p2468
S'y'
sS'CONFIG_POWER_AVS'
p2469
S'y'
sS'CONFIG_MFD_AAT2870_CORE'
p2470
S'y'
sS'CONFIG_QED'
p2471
S'm'
sS'CONFIG_NET_VENDOR_I825XX'
p2472
S'y'
sS'kernel.sched_domain.cpu45.domain0.busy_idx'
p2473
I2
sS'CONFIG_COMPAT'
p2474
S'y'
sS'net.ipv6.conf.default.force_tllao'
p2475
I0
sS'CONFIG_AGP_INTEL'
p2476
S'y'
sS'CONFIG_CRYPTO_CRC32C'
p2477
S'y'
sS'kernel.sched_domain.cpu3.domain1.min_interval'
p2478
I48
sS'kernel.sched_domain.cpu30.domain1.wake_idx'
p2479
I0
sS'CONFIG_LOCK_SPIN_ON_OWNER'
p2480
S'y'
sS'CONFIG_CRYPTO_GHASH'
p2481
S'y'
sS'kernel.sched_domain.cpu27.domain0.wake_idx'
p2482
I0
sS'kernel.sched_domain.cpu25.domain1.wake_idx'
p2483
I0
sS'CONFIG_ACPI_TABLE_UPGRADE'
p2484
S'y'
sS'CONFIG_BLK_CMDLINE_PARSER'
p2485
S'y'
sS'net.ipv4.inet_peer_minttl'
p2486
I120
sS'net.core.netdev_budget'
p2487
I300
sS'kernel.sched_domain.cpu42.domain1.max_interval'
p2488
I96
sS'kernel.shmall'
p2489
L18446744073692774399L
sS'CONFIG_ABX500_CORE'
p2490
S'y'
sS'kernel.sched_domain.cpu32.domain0.idle_idx'
p2491
I1
sS'CONFIG_CRYPTO_MANAGER_DISABLE_TESTS'
p2492
S'y'
sS'kernel.sched_domain.cpu12.domain0.busy_idx'
p2493
I2
sS'CONFIG_GENERIC_BUG_RELATIVE_POINTERS'
p2494
S'y'
sS'CONFIG_TICK_ONESHOT'
p2495
S'y'
sS'CONFIG_LOG_CPU_MAX_BUF_SHIFT'
p2496
I12
sS'CONFIG_WLAN_VENDOR_INTEL'
p2497
S'y'
sS'net.ipv6.conf.default.seg6_enabled'
p2498
I0
sS'net.ipv4.ip_nonlocal_bind'
p2499
I0
sS'CONFIG_EXT4_FS'
p2500
S'y'
sS'CONFIG_BOOTPARAM_HUNG_TASK_PANIC_VALUE'
p2501
I0
sS'kernel.sched_domain.cpu1.domain0.newidle_idx'
p2502
I0
sS'net.ipv4.neigh.default.base_reachable_time_ms'
p2503
I30000
sS'CONFIG_BALLOON_COMPACTION'
p2504
S'y'
sS'kernel.sched_domain.cpu42.domain0.idle_idx'
p2505
I1
sS'CONFIG_ASYNC_PQ'
p2506
S'm'
sS'CONFIG_USELIB'
p2507
S'y'
sS'kernel.sched_domain.cpu46.domain0.max_newidle_lb_cost'
p2508
I120638
sS'kernel.sched_domain.cpu24.domain0.busy_idx'
p2509
I2
sS'net.ipv6.conf.default.hop_limit'
p2510
I64
sS'CONFIG_FB_IMSTT'
p2511
S'y'
sS'CONFIG_X86_64_SMP'
p2512
S'y'
sS'CONFIG_PM_OPP'
p2513
S'y'
sS'kernel.sched_domain.cpu5.domain0.min_interval'
p2514
I24
sS'kernel.sched_domain.cpu21.domain1.busy_factor'
p2515
I32
sS'CONFIG_KSM'
p2516
S'y'
sS'CONFIG_RTC_INTF_SYSFS'
p2517
S'y'
sS'kernel.sched_domain.cpu14.domain0.name'
p2518
S'DIE'
p2519
sS'net.ipv6.conf.all.accept_ra'
p2520
I1
sS'CONFIG_MFD_TPS65912_I2C'
p2521
S'y'
sS'net.ipv4.conf.lo.arp_filter'
p2522
I0
sS'kernel.sched_domain.cpu44.domain1.cache_nice_tries'
p2523
I2
sS'kernel.sched_domain.cpu26.domain1.max_newidle_lb_cost'
p2524
I30884
sS'CONFIG_SERIAL_8250_SHARE_IRQ'
p2525
S'y'
sS'kernel.sched_domain.cpu2.domain0.forkexec_idx'
p2526
I0
sS'net.ipv6.conf.all.router_solicitations'
p2527
S'-1'
p2528
sS'kernel.sched_domain.cpu37.domain0.imbalance_pct'
p2529
I125
sS'kernel.sched_domain.cpu1.domain0.imbalance_pct'
p2530
I125
sS'kernel.sched_domain.cpu21.domain1.flags'
p2531
I25647
sS'CONFIG_FUSION_MAX_SGE'
p2532
I128
sS'CONFIG_HAS_IOPORT_MAP'
p2533
S'y'
sS'kernel.sched_domain.cpu46.domain0.flags'
p2534
I4143
sS'kernel.sched_domain.cpu46.domain0.idle_idx'
p2535
I1
sS'CONFIG_JUMP_LABEL'
p2536
S'y'
sS'kernel.sched_domain.cpu27.domain0.min_interval'
p2537
I24
sS'kernel.sched_domain.cpu34.domain1.flags'
p2538
I25647
sS'CONFIG_INPUT_LEDS'
p2539
S'm'
sS'net.ipv4.tcp_app_win'
p2540
I31
sS'CONFIG_MAY_USE_DEVLINK'
p2541
S'y'
sS'net.ipv4.cipso_cache_enable'
p2542
I1
sS'CONFIG_SYSV68_PARTITION'
p2543
S'y'
sS'CONFIG_EVM_EXTRA_SMACK_XATTRS'
p2544
S'y'
sS'net.ipv4.tcp_keepalive_probes'
p2545
I9
sS'kernel.sched_domain.cpu24.domain0.cache_nice_tries'
p2546
I1
sS'CONFIG_IKCONFIG'
p2547
S'm'
sS'kernel.sched_domain.cpu19.domain0.max_interval'
p2548
I48
sS'CONFIG_MEMORY'
p2549
S'y'
sS'kernel.sched_domain.cpu16.domain1.imbalance_pct'
p2550
I125
sS'CONFIG_KDB_DEFAULT_ENABLE'
p2551
S'0x1'
p2552
sS'fs.inotify.max_queued_events'
p2553
I16384
sS'CONFIG_TREE_RCU'
p2554
S'y'
sS'CONFIG_SG_POOL'
p2555
S'y'
sS'CONFIG_CRYPTO_RSA'
p2556
S'y'
sS'net.ipv4.tcp_pacing_ca_ratio'
p2557
I120
sS'CONFIG_CPU_FREQ_GOV_POWERSAVE'
p2558
S'y'
sS'CONFIG_HAVE_BOOTMEM_INFO_NODE'
p2559
S'y'
sS'kernel.sched_domain.cpu17.domain1.forkexec_idx'
p2560
I0
sS'CONFIG_SPARSEMEM_ALLOC_MEM_MAP_TOGETHER'
p2561
S'y'
sS'CONFIG_ACPI_PROCESSOR'
p2562
S'y'
sS'CONFIG_ARCH_PHYS_ADDR_T_64BIT'
p2563
S'y'
sS'kernel.sched_domain.cpu8.domain0.wake_idx'
p2564
I0
sS'CONFIG_ACPI_PCI_SLOT'
p2565
S'y'
sS'CONFIG_CPU_FREQ_GOV_USERSPACE'
p2566
S'y'
sS'kernel.sched_domain.cpu19.domain1.idle_idx'
p2567
I2
sS'kernel.sched_domain.cpu22.domain1.max_newidle_lb_cost'
p2568
I20321
sS'CONFIG_HAVE_UNSTABLE_SCHED_CLOCK'
p2569
S'y'
sS'kernel.sched_domain.cpu8.domain1.forkexec_idx'
p2570
I0
sS'net.ipv4.igmp_link_local_mcast_reports'
p2571
I1
sS'CONFIG_MAC80211_STA_HASH_MAX_SIZE'
p2572
I0
sS'CONFIG_BITREVERSE'
p2573
S'y'
sS'CONFIG_MEM_SOFT_DIRTY'
p2574
S'y'
sS'CONFIG_MODULES_USE_ELF_RELA'
p2575
S'y'
sS'CONFIG_SECURITY_SMACK'
p2576
S'y'
sS'net.ipv6.anycast_src_echo_reply'
p2577
I0
sS'CONFIG_KPROBES'
p2578
S'y'
sS'CONFIG_FRAME_POINTER'
p2579
S'y'
sS'CONFIG_SGETMASK_SYSCALL'
p2580
S'y'
sS'CONFIG_BLK_DEV_DM_BUILTIN'
p2581
S'y'
sS'net.ipv4.conf.lo.tag'
p2582
I0
sS'kernel.sched_domain.cpu30.domain1.forkexec_idx'
p2583
I0
sS'CONFIG_SQUASHFS_FRAGMENT_CACHE_SIZE'
p2584
I3
sS'kernel.sched_domain.cpu30.domain1.newidle_idx'
p2585
I0
sS'kernel.sched_domain.cpu3.domain0.idle_idx'
p2586
I1
sS'CONFIG_AUDIT'
p2587
S'y'
sS'kernel.sched_domain.cpu32.domain1.max_newidle_lb_cost'
p2588
I73972
sS'CONFIG_ARCH_SUPPORTS_DEBUG_PAGEALLOC'
p2589
S'y'
sS'kernel.random.urandom_min_reseed_secs'
p2590
I60
sS'CONFIG_X86_CMPXCHG64'
p2591
S'y'
sS'CONFIG_NET_FLOW_LIMIT'
p2592
S'y'
sS'CONFIG_ND_CLAIM'
p2593
S'y'
sS'kernel.sched_domain.cpu21.domain1.wake_idx'
p2594
I0
sS'kernel.sched_domain.cpu4.domain0.newidle_idx'
p2595
I0
sS'kernel.sched_domain.cpu34.domain1.name'
p2596
S'NUMA'
p2597
sS'net.ipv6.conf.default.accept_ra_mtu'
p2598
I1
sS'fs.dir-notify-enable'
p2599
I1
sS'CONFIG_HAVE_HARDLOCKUP_DETECTOR_PERF'
p2600
S'y'
sS'kernel.sched_domain.cpu25.domain1.max_interval'
p2601
I96
sS'kernel.sched_domain.cpu0.domain0.busy_factor'
p2602
I32
sS'kernel.sched_domain.cpu17.domain1.max_newidle_lb_cost'
p2603
I10703
sS'kernel.sched_domain.cpu26.domain1.idle_idx'
p2604
I2
sS'kernel.sched_domain.cpu12.domain1.imbalance_pct'
p2605
I125
sS'CONFIG_HAVE_COPY_THREAD_TLS'
p2606
S'y'
sS'net.ipv6.route.gc_thresh'
p2607
I1024
sS'CONFIG_ARCH_RANDOM'
p2608
S'y'
sS'net.ipv6.conf.ens3.router_probe_interval'
p2609
I60
sS'kernel.sched_domain.cpu21.domain0.forkexec_idx'
p2610
I0
sS'CONFIG_PM_TRACE'
p2611
S'y'
sS'CONFIG_SYSCTL_EXCEPTION_TRACE'
p2612
S'y'
sS'CONFIG_X86_INTERNODE_CACHE_SHIFT'
p2613
I6
sS'CONFIG_HAVE_SYSCALL_TRACEPOINTS'
p2614
S'y'
sS'kernel.sched_domain.cpu13.domain1.max_interval'
p2615
I96
sS'CONFIG_CRC32'
p2616
S'y'
sS'kernel.sched_domain.cpu45.domain0.max_newidle_lb_cost'
p2617
I15657
sS'CONFIG_FUSION'
p2618
S'y'
sS'net.ipv4.conf.lo.accept_source_route'
p2619
I1
sS'net.ipv6.conf.ens3.suppress_frag_ndisc'
p2620
I1
sS'CONFIG_SWPHY'
p2621
S'y'
sS'kernel.sched_domain.cpu33.domain1.min_interval'
p2622
I48
sS'kernel.sched_domain.cpu6.domain1.wake_idx'
p2623
I0
sS'kernel.sched_domain.cpu36.domain0.idle_idx'
p2624
I1
sS'kernel.sched_cfs_bandwidth_slice_us'
p2625
I5000
sS'vm.admin_reserve_kbytes'
p2626
I8192
sS'CONFIG_ASYNC_TX_DMA'
p2627
S'y'
sS'kernel.sched_domain.cpu33.domain0.wake_idx'
p2628
I0
sS'CONFIG_RTC_NVMEM'
p2629
S'y'
sS'kernel.sched_domain.cpu6.domain0.newidle_idx'
p2630
I0
sS'kernel.sched_domain.cpu5.domain0.name'
p2631
S'DIE'
p2632
sS'net.ipv4.tcp_early_demux'
p2633
I1
sS'CONFIG_EXT4_FS_SECURITY'
p2634
S'y'
sS'kernel.sched_domain.cpu34.domain0.idle_idx'
p2635
I1
sS'kernel.sched_domain.cpu45.domain1.busy_idx'
p2636
I3
sS'kernel.sched_domain.cpu19.domain1.max_newidle_lb_cost'
p2637
I16261
sS'net.ipv4.neigh.default.unres_qlen'
p2638
I101
sS'kernel.sched_domain.cpu4.domain1.idle_idx'
p2639
I2
sS'CONFIG_COMMON_CLK'
p2640
S'y'
sS'CONFIG_MFD_PALMAS'
p2641
S'y'
sS'CONFIG_AUXDISPLAY'
p2642
S'y'
sS'CONFIG_WLAN_VENDOR_ST'
p2643
S'y'
sS'kernel.printk_ratelimit'
p2644
I5
sS'net.ipv6.conf.all.enhanced_dad'
p2645
I1
sS'kernel.sched_domain.cpu38.domain1.busy_idx'
p2646
I3
sS'net.ipv4.neigh.default.delay_first_probe_time'
p2647
I5
sS'CONFIG_SECURITY_SELINUX_BOOTPARAM_VALUE'
p2648
I0
sS'fs.lease-break-time'
p2649
I45
sS'kernel.sched_domain.cpu26.domain0.busy_factor'
p2650
I32
sS'vm.dirty_bytes'
p2651
I0
sS'net.ipv6.conf.lo.accept_redirects'
p2652
I1
sS'kernel.sched_domain.cpu36.domain1.max_newidle_lb_cost'
p2653
I14561
sS'CONFIG_KVM_GUEST'
p2654
S'y'
sS'net.ipv4.tcp_syn_retries'
p2655
I6
sS'kernel.shm_rmid_forced'
p2656
I0
sS'CONFIG_PERF_EVENTS_INTEL_UNCORE'
p2657
S'y'
sS'net.ipv4.conf.ens3.igmpv2_unsolicited_report_interval'
p2658
I10000
sS'kernel.sched_domain.cpu17.domain1.max_interval'
p2659
I96
sS'kernel.sched_domain.cpu13.domain0.cache_nice_tries'
p2660
I1
sS'kernel.sched_domain.cpu11.domain1.forkexec_idx'
p2661
I0
sS'kernel.sched_domain.cpu7.domain0.max_newidle_lb_cost'
p2662
I24846
sS'CONFIG_X86_FAST_FEATURE_TESTS'
p2663
S'y'
sS'CONFIG_BRIDGE_IGMP_SNOOPING'
p2664
S'y'
sS'kernel.sched_domain.cpu2.domain0.flags'
p2665
I4143
sS'kernel.sched_domain.cpu20.domain1.busy_factor'
p2666
I32
sS'kernel.sched_domain.cpu44.domain0.name'
p2667
S'DIE'
p2668
sS'CONFIG_CRYPTO_GHASH_CLMUL_NI_INTEL'
p2669
S'm'
sS'CONFIG_DEVFREQ_GOV_POWERSAVE'
p2670
S'y'
sS'kernel.sched_domain.cpu11.domain1.min_interval'
p2671
I48
sS'net.ipv6.conf.ens3.accept_ra_from_local'
p2672
I0
sS'kernel.sched_domain.cpu34.domain1.busy_idx'
p2673
I3
sS'kernel.sched_domain.cpu38.domain1.flags'
p2674
I25647
sS'net.ipv6.conf.default.router_solicitation_interval'
p2675
I4
sS'kernel.sched_domain.cpu26.domain0.wake_idx'
p2676
I0
sS'net.ipv4.tcp_tso_win_divisor'
p2677
I3
sS'CONFIG_RELOCATABLE'
p2678
S'y'
sS'kernel.sched_domain.cpu24.domain0.max_interval'
p2679
I48
sS'fs.pipe-max-size'
p2680
I1048576
sS'CONFIG_NO_HZ'
p2681
S'y'
sS'CONFIG_CHELSIO_T4_DCB'
p2682
S'y'
sS'kernel.sched_domain.cpu26.domain0.forkexec_idx'
p2683
I0
sS'kernel.sched_domain.cpu41.domain1.flags'
p2684
I25647
sS'CONFIG_RTC_SYSTOHC_DEVICE'
p2685
S'"rtc0"'
p2686
sS'CONFIG_DEFAULT_SECURITY_APPARMOR'
p2687
S'y'
sS'kernel.sched_domain.cpu18.domain0.min_interval'
p2688
I24
sS'CONFIG_HAVE_KERNEL_BZIP2'
p2689
S'y'
sS'net.ipv6.conf.ens3.addr_gen_mode'
p2690
I0
sS'CONFIG_QED_SRIOV'
p2691
S'y'
sS'net.ipv4.route.gc_min_interval_ms'
p2692
I500
sS'kernel.sched_domain.cpu23.domain0.cache_nice_tries'
p2693
I1
sS'CONFIG_WLAN_VENDOR_RSI'
p2694
S'y'
sS'CONFIG_CPU_IDLE'
p2695
S'y'
sS'kernel.sched_domain.cpu2.domain1.name'
p2696
S'NUMA'
p2697
sS'CONFIG_HOTPLUG_PCI_PCIE'
p2698
S'y'
sS'net.ipv6.neigh.ens3.mcast_solicit'
p2699
I3
sS'kernel.sched_domain.cpu37.domain0.forkexec_idx'
p2700
I0
sS'kernel.sched_domain.cpu31.domain0.wake_idx'
p2701
I0
sS'CONFIG_FB_CMDLINE'
p2702
S'y'
sS'kernel.sched_domain.cpu45.domain1.min_interval'
p2703
I48
sS'CONFIG_THP_SWAP'
p2704
S'y'
sS'kernel.sched_domain.cpu41.domain1.idle_idx'
p2705
I2
sS'fs.dentry-state'
p2706
S'127354\t94643\t45\t0\t0\t0'
p2707
sS'CONFIG_TRACEPOINTS'
p2708
S'y'
sS'CONFIG_IP6_NF_IPTABLES'
p2709
S'm'
sS'CONFIG_CRYPTO_AKCIPHER2'
p2710
S'y'
sS'CONFIG_ARCH_HAS_ADD_PAGES'
p2711
S'y'
sS'net.ipv6.conf.lo.dad_transmits'
p2712
I1
sS'CONFIG_SECURITY_APPARMOR_HASH_DEFAULT'
p2713
S'y'
sS'CONFIG_SMP'
p2714
S'y'
sS'CONFIG_NEED_PER_CPU_EMBED_FIRST_CHUNK'
p2715
S'y'
sS'kernel.sched_domain.cpu0.domain0.forkexec_idx'
p2716
I0
sS'kernel.sched_domain.cpu36.domain1.flags'
p2717
I25647
sS'net.ipv6.conf.default.accept_dad'
p2718
I1
sS'kernel.sched_domain.cpu10.domain1.newidle_idx'
p2719
I0
sS'kernel.sched_domain.cpu46.domain1.newidle_idx'
p2720
I0
sS'kernel.sched_domain.cpu35.domain0.newidle_idx'
p2721
I0
sS'CONFIG_TMPFS_XATTR'
p2722
S'y'
sS'CONFIG_BLK_CGROUP'
p2723
S'y'
sS'CONFIG_PATA_ACPI'
p2724
S'm'
sS'kernel.sched_domain.cpu27.domain1.max_newidle_lb_cost'
p2725
I16725
sS'CONFIG_WATCHDOG'
p2726
S'y'
sS'CONFIG_RTC_CLASS'
p2727
S'y'
sS'CONFIG_ISCSI_TCP'
p2728
S'm'
sS'CONFIG_HAVE_DEBUG_STACKOVERFLOW'
p2729
S'y'
sS'net.ipv6.neigh.default.gc_stale_time'
p2730
I60
sS'net.ipv6.conf.ens3.force_tllao'
p2731
I0
sS'net.ipv4.neigh.ens3.unres_qlen'
p2732
I101
sS'kernel.sched_domain.cpu11.domain1.busy_idx'
p2733
I3
sS'CONFIG_IP_PIMSM_V1'
p2734
S'y'
sS'kernel.sched_domain.cpu28.domain1.busy_idx'
p2735
I3
sS'CONFIG_MICROCODE'
p2736
S'y'
sS'kernel.sched_domain.cpu27.domain0.forkexec_idx'
p2737
I0
sS'kernel.sched_domain.cpu3.domain1.max_newidle_lb_cost'
p2738
I21284
sS'CONFIG_TUN'
p2739
S'y'
sS'net.ipv6.conf.lo.autoconf'
p2740
I1
sS'CONFIG_NET_VENDOR_SEEQ'
p2741
S'y'
sS'CONFIG_IP_PIMSM_V2'
p2742
S'y'
sS'net.ipv4.tcp_low_latency'
p2743
I0
sS'kernel.sched_domain.cpu18.domain1.newidle_idx'
p2744
I0
sS'vm.nr_hugepages'
p2745
I0
sS'CONFIG_VIRTIO'
p2746
S'y'
sS'kernel.randomize_va_space'
p2747
I2
sS'vm.legacy_va_layout'
p2748
I0
sS'kernel.sched_domain.cpu38.domain0.busy_idx'
p2749
I2
sS'CONFIG_PARAVIRT'
p2750
S'y'
sS'CONFIG_HAVE_OPTPROBES'
p2751
S'y'
sS'CONFIG_XZ_DEC_BCJ'
p2752
S'y'
sS'net.ipv4.icmp_echo_ignore_all'
p2753
I0
sS'net.ipv4.ip_dynaddr'
p2754
I0
sS'CONFIG_SYSFS'
p2755
S'y'
sS'dev.cdrom.autoeject'
p2756
I0
sS'CONFIG_PROFILING'
p2757
S'y'
sS'kernel.sched_domain.cpu19.domain0.max_newidle_lb_cost'
p2758
I31475
sS'kernel.sched_domain.cpu6.domain1.name'
p2759
S'NUMA'
p2760
sS'kernel.sched_domain.cpu43.domain1.max_interval'
p2761
I96
sS'kernel.sched_domain.cpu31.domain0.idle_idx'
p2762
I1
sS'CONFIG_THREAD_INFO_IN_TASK'
p2763
S'y'
sS'CONFIG_NET_VENDOR_INTEL'
p2764
S'y'
sS'CONFIG_TASKSTATS'
p2765
S'y'
sS'vm.memory_failure_early_kill'
p2766
I0
sS'kernel.sched_domain.cpu6.domain1.busy_factor'
p2767
I32
sS'net.ipv6.conf.default.use_tempaddr'
p2768
I2
sS'CONFIG_DEVTMPFS'
p2769
S'y'
sS'CONFIG_CFS_BANDWIDTH'
p2770
S'y'
sS'kernel.sched_domain.cpu12.domain0.idle_idx'
p2771
I1
sS'net.ipv6.route.gc_timeout'
p2772
I60
sS'CONFIG_HAVE_MOD_ARCH_SPECIFIC'
p2773
S'y'
sS'net.ipv6.neigh.ens3.base_reachable_time_ms'
p2774
I30000
sS'CONFIG_FB_MODE_HELPERS'
p2775
S'y'
sS'CONFIG_USB_OHCI_LITTLE_ENDIAN'
p2776
S'y'
sS'kernel.sched_domain.cpu35.domain1.wake_idx'
p2777
I0
sS'net.ipv4.conf.default.ignore_routes_with_linkdown'
p2778
I0
sS'kernel.sched_domain.cpu46.domain1.max_interval'
p2779
I96
sS'net.ipv6.flowlabel_consistency'
p2780
I1
sS'net.ipv4.icmp_echo_ignore_broadcasts'
p2781
I1
sS'CONFIG_IRQ_WORK'
p2782
S'y'
sS'CONFIG_TCG_TIS'
p2783
S'y'
sS'CONFIG_XZ_DEC_POWERPC'
p2784
S'y'
sS'kernel.sched_domain.cpu43.domain0.max_newidle_lb_cost'
p2785
I123451
sS'CONFIG_HZ_250'
p2786
S'y'
sS'kernel.sched_domain.cpu0.domain1.flags'
p2787
I25647
sS'kernel.sched_domain.cpu30.domain0.min_interval'
p2788
I24
sS'kernel.sched_domain.cpu31.domain1.min_interval'
p2789
I48
sS'kernel.pid_max'
p2790
I253952
sS'CONFIG_REGMAP_I2C'
p2791
S'y'
sS'net.ipv6.neigh.ens3.locktime'
p2792
I0
sS'kernel.sched_domain.cpu20.domain0.max_newidle_lb_cost'
p2793
I25888
sS'kernel.sched_domain.cpu24.domain0.forkexec_idx'
p2794
I0
sS'net.ipv4.conf.all.arp_filter'
p2795
I0
sS'kernel.sched_domain.cpu46.domain0.newidle_idx'
p2796
I0
sS'CONFIG_THERMAL_GOV_BANG_BANG'
p2797
S'y'
sS'CONFIG_MFD_MAX8997'
p2798
S'y'
sS'CONFIG_HAVE_ACPI_APEI'
p2799
S'y'
sS'kernel.sched_domain.cpu13.domain1.imbalance_pct'
p2800
I125
sS'CONFIG_FONT_SUPPORT'
p2801
S'y'
sS'kernel.sched_domain.cpu9.domain0.flags'
p2802
I4143
sS'kernel.sched_domain.cpu43.domain1.imbalance_pct'
p2803
I125
sS'CONFIG_X86_PMEM_LEGACY_DEVICE'
p2804
S'y'
sS'kernel.sched_domain.cpu1.domain1.wake_idx'
p2805
I0
sS'CONFIG_REGMAP_IRQ'
p2806
S'y'
sS'CONFIG_ASSOCIATIVE_ARRAY'
p2807
S'y'
sS'kernel.sched_domain.cpu7.domain1.name'
p2808
S'NUMA'
p2809
sS'CONFIG_EZX_PCAP'
p2810
S'y'
sS'CONFIG_SCSI_MOD'
p2811
S'y'
sS'CONFIG_CRYPTO_HASH_INFO'
p2812
S'y'
sS'kernel.sched_domain.cpu24.domain0.imbalance_pct'
p2813
I125
sS'net.ipv4.conf.all.shared_media'
p2814
I1
sS'CONFIG_IOMMU_API'
p2815
S'y'
sS'CONFIG_INLINE_SPIN_UNLOCK_IRQ'
p2816
S'y'
sS'CONFIG_BLOCK'
p2817
S'y'
sS'CONFIG_MEMORY_FAILURE'
p2818
S'y'
sS'CONFIG_FB_NOTIFY'
p2819
S'y'
sS'CONFIG_NET_VENDOR_EZCHIP'
p2820
S'y'
sS'kernel.sched_domain.cpu40.domain1.wake_idx'
p2821
I0
sS'CONFIG_TIMERFD'
p2822
S'y'
sS'kernel.sched_domain.cpu1.domain0.max_interval'
p2823
I48
sS'kernel.sched_domain.cpu14.domain0.newidle_idx'
p2824
I0
sS'CONFIG_CPU_RMAP'
p2825
S'y'
sS'net.netfilter.nf_log.11'
p2826
S'NONE'
p2827
sS'net.netfilter.nf_log.10'
p2828
S'NONE'
p2829
sS'net.netfilter.nf_log.12'
p2830
S'NONE'
p2831
sS'CONFIG_ARCH_HAS_PMEM_API'
p2832
S'y'
sS'net.ipv6.conf.all.drop_unicast_in_l2_multicast'
p2833
I0
sS'kernel.sched_domain.cpu31.domain0.max_interval'
p2834
I48
sS'CONFIG_64BIT'
p2835
S'y'
sS'net.core.rmem_max'
p2836
I212992
sS'CONFIG_CRYPTO_DRBG_HASH'
p2837
S'y'
sS'CONFIG_SECURITY_PATH'
p2838
S'y'
sS'CONFIG_THERMAL_EMERGENCY_POWEROFF_DELAY_MS'
p2839
I0
sS'CONFIG_DEBUG_FS'
p2840
S'y'
sS'kernel.sched_domain.cpu24.domain0.max_newidle_lb_cost'
p2841
I18850
sS'kernel.sched_domain.cpu30.domain1.flags'
p2842
I25647
sS'kernel.sched_domain.cpu19.domain0.forkexec_idx'
p2843
I0
sS'CONFIG_STACK_TRACER'
p2844
S'y'
sS'net.core.dev_weight'
p2845
I64
sS'kernel.sched_domain.cpu22.domain0.cache_nice_tries'
p2846
I1
sS'CONFIG_X86_MPPARSE'
p2847
S'y'
sS'CONFIG_NET_VENDOR_SYNOPSYS'
p2848
S'y'
sS'CONFIG_SECURITY_TOMOYO_MAX_AUDIT_LOG'
p2849
I1024
sS'CONFIG_PCIE_PME'
p2850
S'y'
sS'kernel.sched_domain.cpu6.domain1.max_newidle_lb_cost'
p2851
I50353
sS'CONFIG_HAVE_CC_STACKPROTECTOR'
p2852
S'y'
sS'kernel.sched_domain.cpu46.domain1.busy_idx'
p2853
I3
sS'kernel.sched_domain.cpu15.domain1.idle_idx'
p2854
I2
sS'CONFIG_MEGARAID_NEWGEN'
p2855
S'y'
sS'CONFIG_BLK_DEV_LOOP_MIN_COUNT'
p2856
I8
sS'kernel.sched_domain.cpu32.domain0.max_interval'
p2857
I48
sS'net.ipv6.conf.ens3.proxy_ndp'
p2858
I0
sS'CONFIG_DEFAULT_TCP_CONG'
p2859
S'"cubic"'
p2860
sS'CONFIG_CRYPTO_CBC'
p2861
S'y'
sS'CONFIG_PGTABLE_MAPPING'
p2862
S'y'
sS'kernel.sched_domain.cpu34.domain0.busy_factor'
p2863
I32
sS'CONFIG_HAVE_EBPF_JIT'
p2864
S'y'
sS'kernel.shmmax'
p2865
L18446744073692774399L
sS'net.ipv6.conf.all.accept_ra_min_hop_limit'
p2866
I1
sS'kernel.sched_domain.cpu19.domain1.newidle_idx'
p2867
I0
sS'CONFIG_PARAVIRT_SPINLOCKS'
p2868
S'y'
sS'CONFIG_FB_SIMPLE'
p2869
S'y'
sS'net.ipv6.neigh.default.proxy_delay'
p2870
I80
sS'CONFIG_QUEUED_RWLOCKS'
p2871
S'y'
sS'CONFIG_SUSPEND_FREEZER'
p2872
S'y'
sS'kernel.sched_domain.cpu9.domain1.min_interval'
p2873
I48
sS'CONFIG_VHOST_NET'
p2874
S'm'
sS'net.ipv4.conf.ens3.forwarding'
p2875
I0
sS'kernel.sched_domain.cpu2.domain1.cache_nice_tries'
p2876
I2
sS'kernel.sched_domain.cpu6.domain0.cache_nice_tries'
p2877
I1
sS'net.ipv6.conf.default.autoconf'
p2878
I1
sS'fs.pipe-user-pages-soft'
p2879
I16384
sS'CONFIG_CRYPTO_SIMD'
p2880
S'm'
sS'CONFIG_SND_PCM_TIMER'
p2881
S'y'
sS'kernel.sched_domain.cpu43.domain0.max_interval'
p2882
I48
sS'CONFIG_X86_INTEL_PSTATE'
p2883
S'y'
sS'net.ipv4.tcp_mtu_probing'
p2884
I0
sS'kernel.sched_domain.cpu20.domain0.wake_idx'
p2885
I0
sS'CONFIG_MFD_TWL4030_AUDIO'
p2886
S'y'
sS'CONFIG_CGROUP_PERF'
p2887
S'y'
sS'CONFIG_WATCHDOG_HANDLE_BOOT_ENABLED'
p2888
S'y'
sS'CONFIG_SOLARIS_X86_PARTITION'
p2889
S'y'
sS'kernel.sched_domain.cpu12.domain1.newidle_idx'
p2890
I0
sS'kernel.sched_domain.cpu11.domain0.idle_idx'
p2891
I1
sS'kernel.sched_domain.cpu5.domain1.name'
p2892
S'NUMA'
p2893
sS'CONFIG_LEGACY_PTY_COUNT'
p2894
I0
sS'CONFIG_NEED_SG_DMA_LENGTH'
p2895
S'y'
sS'vm.hugepages_treat_as_movable'
p2896
I0
sS'CONFIG_GENERIC_CALIBRATE_DELAY'
p2897
S'y'
sS'CONFIG_ARCH_HAS_DEVMEM_IS_ALLOWED'
p2898
S'y'
sS'kernel.sched_domain.cpu45.domain0.cache_nice_tries'
p2899
I1
sS'CONFIG_ACPI_CONTAINER'
p2900
S'y'
sS'kernel.ftrace_enabled'
p2901
I1
sS'kernel.sched_domain.cpu32.domain1.imbalance_pct'
p2902
I125
sS'CONFIG_CRYPTO_RNG'
p2903
S'y'
sS'CONFIG_MODULES_TREE_LOOKUP'
p2904
S'y'
sS'CONFIG_ECRYPT_FS_MESSAGING'
p2905
S'y'
sS'CONFIG_RTC_HCTOSYS_DEVICE'
p2906
S'"rtc0"'
p2907
sS'net.ipv4.conf.ens3.src_valid_mark'
p2908
I0
sS'CONFIG_EFI_VARS'
p2909
S'y'
sS'kernel.sched_domain.cpu16.domain0.idle_idx'
p2910
I1
sS'CONFIG_KEXEC_FILE'
p2911
S'y'
sS'CONFIG_I2C_BOARDINFO'
p2912
S'y'
sS'net.ipv4.tcp_mem'
p2913
S'768357\t1024476\t1536714'
p2914
sS'CONFIG_SECCOMP'
p2915
S'y'
sS'CONFIG_CRYPTO_RNG2'
p2916
S'y'
sS'kernel.sched_domain.cpu10.domain0.newidle_idx'
p2917
I0
sS'CONFIG_ARCH_MMAP_RND_BITS'
p2918
I28
sS'kernel.sched_domain.cpu36.domain0.imbalance_pct'
p2919
I125
sS'CONFIG_GENERIC_STRNLEN_USER'
p2920
S'y'
sS'kernel.sched_domain.cpu39.domain1.newidle_idx'
p2921
I0
sS'kernel.sched_domain.cpu22.domain1.newidle_idx'
p2922
I0
sS'CONFIG_PMIC_DA9052'
p2923
S'y'
sS'CONFIG_KGDB_SERIAL_CONSOLE'
p2924
S'y'
sS'kernel.sched_domain.cpu23.domain1.max_newidle_lb_cost'
p2925
I18084
sS'CONFIG_IMA_DEFAULT_TEMPLATE'
p2926
S'"ima-ng"'
p2927
sS'kernel.printk_devkmsg'
p2928
S'ratelimit'
p2929
sS'kernel.sched_domain.cpu6.domain0.busy_idx'
p2930
I2
sS'CONFIG_CRYPTO_SHA1'
p2931
S'y'
sS'CONFIG_MMIOTRACE'
p2932
S'y'
sS'kernel.sched_domain.cpu10.domain1.busy_factor'
p2933
I32
sS'CONFIG_HW_RANDOM'
p2934
S'y'
sS'CONFIG_ARCH_HAS_CPU_RELAX'
p2935
S'y'
sS'kernel.sched_domain.cpu11.domain1.wake_idx'
p2936
I0
sS'CONFIG_ARCH_ENABLE_THP_MIGRATION'
p2937
S'y'
sS'vm.user_reserve_kbytes'
p2938
I131072
sS'CONFIG_PARAVIRT_TIME_ACCOUNTING'
p2939
S'y'
sS'kernel.sched_domain.cpu7.domain0.name'
p2940
S'DIE'
p2941
sS'net.ipv4.neigh.ens3.delay_first_probe_time'
p2942
I5
sS'net.ipv4.neigh.ens3.retrans_time_ms'
p2943
I1000
sS'CONFIG_KALLSYMS'
p2944
S'y'
sS'CONFIG_SND_SPI'
p2945
S'y'
sS'kernel.sched_domain.cpu44.domain0.max_interval'
p2946
I48
sS'kernel.sched_domain.cpu42.domain0.busy_factor'
p2947
I32
sS'net.ipv4.route.gc_timeout'
p2948
I300
sS'CONFIG_ARCH_MMAP_RND_COMPAT_BITS_MAX'
p2949
I16
sS'CONFIG_SPARSEMEM'
p2950
S'y'
sS'kernel.sched_domain.cpu39.domain0.cache_nice_tries'
p2951
I1
sS'kernel.sched_domain.cpu17.domain0.idle_idx'
p2952
I1
sS'CONFIG_HAVE_DMA_API_DEBUG'
p2953
S'y'
sS'CONFIG_ACPI_BUTTON'
p2954
S'y'
sS'CONFIG_PINMUX'
p2955
S'y'
sS'CONFIG_TTY'
p2956
S'y'
sS'kernel.sched_domain.cpu45.domain1.idle_idx'
p2957
I2
sS'CONFIG_XZ_DEC'
p2958
S'y'
sS'kernel.sched_domain.cpu34.domain0.cache_nice_tries'
p2959
I1
sS'CONFIG_BOUNCE'
p2960
S'y'
sS'CONFIG_X86_PM_TIMER'
p2961
S'y'
sS'net.ipv4.conf.ens3.arp_notify'
p2962
I0
sS'CONFIG_FB_CFB_IMAGEBLIT'
p2963
S'y'
sS'CONFIG_NET_VENDOR_VIA'
p2964
S'y'
sS'CONFIG_SERIAL_8250_LPSS'
p2965
S'y'
sS'net.ipv6.conf.all.accept_ra_rtr_pref'
p2966
I1
sS'CONFIG_RPS'
p2967
S'y'
sS'kernel.sched_domain.cpu47.domain0.wake_idx'
p2968
I0
sS'CONFIG_PM_WAKELOCKS_LIMIT'
p2969
I100
sS'CONFIG_DMAR_TABLE'
p2970
S'y'
sS'CONFIG_SYSTEM_EXTRA_CERTIFICATE_SIZE'
p2971
I4096
sS'net.ipv4.conf.ens3.send_redirects'
p2972
I1
sS'net.ipv6.conf.default.accept_ra'
p2973
I1
sS'CONFIG_PREEMPT_VOLUNTARY'
p2974
S'y'
sS'CONFIG_DEVMEM'
p2975
S'y'
sS'CONFIG_FUSE_FS'
p2976
S'y'
sS'CONFIG_USER_RETURN_NOTIFIER'
p2977
S'y'
sS'kernel.sched_domain.cpu11.domain0.imbalance_pct'
p2978
I125
sS'net.ipv4.tcp_max_reordering'
p2979
I300
sS'net.ipv4.neigh.default.gc_interval'
p2980
I30
sS'kernel.sched_domain.cpu20.domain1.busy_idx'
p2981
I3
sS'kernel.sg-big-buff'
p2982
I32768
sS'net.ipv6.route.gc_elasticity'
p2983
I9
sS'CONFIG_ARCH_SPARSEMEM_ENABLE'
p2984
S'y'
sS'CONFIG_NETFILTER_INGRESS'
p2985
S'y'
sS'CONFIG_HAVE_MEMBLOCK'
p2986
S'y'
sS'CONFIG_SCHED_TRACER'
p2987
S'y'
sS'CONFIG_AUDIT_WATCH'
p2988
S'y'
sS'CONFIG_SQUASHFS_DECOMP_SINGLE'
p2989
S'y'
sS'kernel.sched_domain.cpu30.domain1.max_newidle_lb_cost'
p2990
I15846
sS'net.ipv6.conf.default.temp_valid_lft'
p2991
I604800
sS'kernel.sched_domain.cpu0.domain1.newidle_idx'
p2992
I0
sS'kernel.sched_domain.cpu3.domain1.idle_idx'
p2993
I2
sS'CONFIG_ZONE_DMA32'
p2994
S'y'
sS'net.ipv6.neigh.default.app_solicit'
p2995
I0
sS'net.ipv4.tcp_timestamps'
p2996
I1
sS'kernel.sched_domain.cpu5.domain0.busy_idx'
p2997
I2
sS'CONFIG_AUDITSYSCALL'
p2998
S'y'
sS'kernel.sched_domain.cpu35.domain0.flags'
p2999
I4143
sS'kernel.sched_domain.cpu47.domain1.busy_idx'
p3000
I3
sS'CONFIG_GENERIC_CPU_AUTOPROBE'
p3001
S'y'
sS'CONFIG_SCSI_LOGGING'
p3002
S'y'
sS'CONFIG_NR_CPUS'
p3003
I512
sS'CONFIG_ACPI_APEI_PCIEAER'
p3004
S'y'
sS'CONFIG_ARCH_USE_CMPXCHG_LOCKREF'
p3005
S'y'
sS'user.max_user_namespaces'
p3006
I257513
sS'kernel.sched_domain.cpu44.domain0.flags'
p3007
I4143
sS'kernel.sched_domain.cpu44.domain0.busy_idx'
p3008
I2
sS'CONFIG_BIG_KEYS'
p3009
S'y'
sS'kernel.sched_domain.cpu4.domain0.flags'
p3010
I4143
sS'kernel.keys.root_maxkeys'
p3011
I1000000
sS'kernel.sched_domain.cpu25.domain0.busy_idx'
p3012
I2
sS'CONFIG_POSIX_MQUEUE_SYSCTL'
p3013
S'y'
sS'kernel.sched_domain.cpu35.domain1.busy_idx'
p3014
I3
sS'kernel.sched_domain.cpu4.domain0.min_interval'
p3015
I24
sS'net.ipv6.conf.ens3.disable_policy'
p3016
I0
sS'CONFIG_IOMMU_SUPPORT'
p3017
S'y'
sS'kernel.sched_domain.cpu10.domain1.busy_idx'
p3018
I3
sS'net.ipv6.neigh.lo.delay_first_probe_time'
p3019
I5
sS'kernel.sched_domain.cpu36.domain1.name'
p3020
S'NUMA'
p3021
sS'CONFIG_AMD_NUMA'
p3022
S'y'
sS'net.core.somaxconn'
p3023
I128
sS'CONFIG_AMIGA_PARTITION'
p3024
S'y'
sS'CONFIG_CONSOLE_LOGLEVEL_DEFAULT'
p3025
I7
sS'CONFIG_SQUASHFS_LZ4'
p3026
S'y'
sS'kernel.sched_domain.cpu40.domain0.flags'
p3027
I4143
sS'net.ipv6.conf.ens3.accept_ra_pinfo'
p3028
I1
sS'CONFIG_SCSI_CONSTANTS'
p3029
S'y'
sS'CONFIG_CRYPTO_DRBG_CTR'
p3030
S'y'
sS'kernel.sched_domain.cpu17.domain0.max_newidle_lb_cost'
p3031
I23053
sS'CONFIG_CRYPTO_AES'
p3032
S'y'
sS'kernel.sched_domain.cpu19.domain0.imbalance_pct'
p3033
I125
sS'CONFIG_XZ_DEC_SPARC'
p3034
S'y'
sS'CONFIG_SECURITY_SELINUX_DEVELOP'
p3035
S'y'
sS'kernel.sched_domain.cpu28.domain1.wake_idx'
p3036
I0
sS'net.ipv4.conf.lo.mc_forwarding'
p3037
I0
sS'net.ipv6.conf.ens3.autoconf'
p3038
I1
sS'CONFIG_ACPI_I2C_OPREGION'
p3039
S'y'
sS'vm.hugetlb_shm_group'
p3040
I0
sS'CONFIG_X86_TSC'
p3041
S'y'
sS'CONFIG_SECURITY_SELINUX_BOOTPARAM'
p3042
S'y'
sS'net.ipv6.flowlabel_state_ranges'
p3043
I0
sS'kernel.sched_domain.cpu15.domain1.newidle_idx'
p3044
I0
sS'CONFIG_X86_MCE_AMD'
p3045
S'y'
sS'CONFIG_PARAVIRT_CLOCK'
p3046
S'y'
sg3
(lp3047
S'HostInfo'
p3048
ag6
aS'object'
p3049
asS'CONFIG_MICROCODE_AMD'
p3050
S'y'
sS'kernel.sched_domain.cpu25.domain0.idle_idx'
p3051
I1
sS'CONFIG_LIBNVDIMM'
p3052
S'y'
sS'kernel.random.read_wakeup_threshold'
p3053
I64
sS'CONFIG_QUOTA_NETLINK_INTERFACE'
p3054
S'y'
sS'kernel.sched_domain.cpu1.domain0.wake_idx'
p3055
I0
sS'kernel.sched_domain.cpu27.domain0.busy_idx'
p3056
I2
sS'CONFIG_RESET_CONTROLLER'
p3057
S'y'
sS'net.ipv4.tcp_no_metrics_save'
p3058
I0
sS'CONFIG_I2C_HELPER_AUTO'
p3059
S'y'
sS'kernel.sched_domain.cpu38.domain1.cache_nice_tries'
p3060
I2
sS'CONFIG_JBD2'
p3061
S'y'
sS'kernel.sched_domain.cpu1.domain0.forkexec_idx'
p3062
I0
sS'kernel.sched_domain.cpu15.domain0.busy_factor'
p3063
I32
sS'CONFIG_PARTITION_ADVANCED'
p3064
S'y'
sS'CONFIG_EFI_STUB'
p3065
S'y'
sS'net.ipv6.neigh.ens3.mcast_resolicit'
p3066
I0
sS'kernel.sched_domain.cpu35.domain1.busy_factor'
p3067
I32
sS'kernel.sched_domain.cpu37.domain0.busy_factor'
p3068
I32
sS'net.ipv4.conf.all.arp_announce'
p3069
I0
sS'kernel.sched_domain.cpu29.domain1.busy_factor'
p3070
I32
sS'kernel.sched_domain.cpu24.domain1.idle_idx'
p3071
I2
sS'CONFIG_RTC_INTF_DEV'
p3072
S'y'
sS'CONFIG_EXT4_FS_POSIX_ACL'
p3073
S'y'
sS'CONFIG_SRCU'
p3074
S'y'
sS'kernel.sched_domain.cpu46.domain1.busy_factor'
p3075
I32
sS'CONFIG_SND_VMASTER'
p3076
S'y'
sS'CONFIG_INPUT_EVDEV'
p3077
S'y'
sS'net.ipv4.conf.all.arp_ignore'
p3078
I0
sS'kernel.sched_domain.cpu13.domain0.busy_idx'
p3079
I2
sS'kernel.sched_domain.cpu43.domain0.flags'
p3080
I4143
sS'kernel.sched_domain.cpu33.domain0.forkexec_idx'
p3081
I0
sS'CONFIG_SECCOMP_FILTER'
p3082
S'y'
sS'kernel.sched_domain.cpu25.domain1.imbalance_pct'
p3083
I125
sS'kernel.sched_domain.cpu3.domain0.flags'
p3084
I4143
sS'kernel.sched_domain.cpu12.domain1.max_interval'
p3085
I96
sS'CONFIG_SERIO'
p3086
S'y'
sS'net.ipv6.conf.ens3.accept_ra_min_hop_limit'
p3087
I1
sS'CONFIG_HPET_EMULATE_RTC'
p3088
S'y'
sS'kernel.sched_domain.cpu31.domain1.name'
p3089
S'NUMA'
p3090
sS'CONFIG_SERIAL_8250_RUNTIME_UARTS'
p3091
I32
sS'CONFIG_FB_EFI'
p3092
S'y'
sS'CONFIG_MMU_NOTIFIER'
p3093
S'y'
sS'kernel.sched_domain.cpu29.domain0.max_newidle_lb_cost'
p3094
I18248
sS'CONFIG_ACPI_SYSTEM_POWER_STATES_SUPPORT'
p3095
S'y'
sS'CONFIG_SQUASHFS_LZO'
p3096
S'y'
sS'kernel.sched_domain.cpu42.domain1.busy_factor'
p3097
I32
sS'kernel.sched_domain.cpu45.domain0.min_interval'
p3098
I24
sS'CONFIG_SCSI_DH'
p3099
S'y'
sS'kernel.sched_domain.cpu32.domain0.flags'
p3100
I4143
sS'kernel.sched_domain.cpu4.domain1.name'
p3101
S'NUMA'
p3102
sS'kernel.unknown_nmi_panic'
p3103
I0
sS'CONFIG_NVDIMM_PFN'
p3104
S'y'
sS'kernel.sched_domain.cpu39.domain0.idle_idx'
p3105
I1
sS'net.ipv4.conf.all.route_localnet'
p3106
I0
sS'kernel.seccomp.actions_logged'
p3107
S'kill_process kill_thread trap errno trace log'
p3108
sS'kernel.sched_domain.cpu1.domain1.flags'
p3109
I25647
sS'net.ipv6.conf.all.force_mld_version'
p3110
I0
sS'CONFIG_SECURITY_TOMOYO'
p3111
S'y'
sS'CONFIG_MSDOS_PARTITION'
p3112
S'y'
sS'kernel.sched_domain.cpu15.domain1.imbalance_pct'
p3113
I125
sS'CONFIG_SND_MAX_CARDS'
p3114
I32
sS'vm.overcommit_kbytes'
p3115
I0
sS'net.ipv4.conf.all.drop_unicast_in_l2_multicast'
p3116
I0
sS'CONFIG_POWER_SUPPLY'
p3117
S'y'
sS'kernel.sched_domain.cpu2.domain0.cache_nice_tries'
p3118
I1
sS'CONFIG_DECOMPRESS_LZMA'
p3119
S'y'
sS'net.ipv6.conf.all.ndisc_notify'
p3120
I0
sS'kernel.sched_domain.cpu7.domain0.max_interval'
p3121
I48
sS'CONFIG_CALGARY_IOMMU'
p3122
S'y'
sS'net.ipv4.neigh.lo.unres_qlen'
p3123
I101
sS'kernel.sched_domain.cpu38.domain1.max_interval'
p3124
I96
sS'CONFIG_IO_DELAY_TYPE_0X80'
p3125
I0
sS'CONFIG_SND_JACK'
p3126
S'y'
sS'CONFIG_DYNAMIC_DEBUG'
p3127
S'y'
sS'CONFIG_CRYPTO_HW'
p3128
S'y'
sS'kernel.printk_ratelimit_burst'
p3129
I10
sS'CONFIG_CRYPTO_SEQIV'
p3130
S'y'
sS'CONFIG_NET_VENDOR_OKI'
p3131
S'y'
sS'kernel.sched_domain.cpu3.domain0.busy_factor'
p3132
I32
sS'fs.nr_open'
p3133
I1048576
sS'CONFIG_DECOMPRESS_GZIP'
p3134
S'y'
sS'net.ipv6.conf.lo.accept_ra_mtu'
p3135
I1
sS'kernel.sched_domain.cpu16.domain0.flags'
p3136
I4143
sS'CONFIG_RAID6_PQ'
p3137
S'm'
sS'CONFIG_CFQ_GROUP_IOSCHED'
p3138
S'y'
sS'CONFIG_HAVE_ARCH_MMAP_RND_BITS'
p3139
S'y'
sS'fs.quota.reads'
p3140
I0
sS'kernel.sched_domain.cpu5.domain1.newidle_idx'
p3141
I0
sS'kernel.numa_balancing_scan_size_mb'
p3142
I256
sS'CONFIG_OID_REGISTRY'
p3143
S'y'
sS'net.ipv4.conf.lo.shared_media'
p3144
I1
sS'CONFIG_NLS'
p3145
S'y'
sS'kernel.sched_domain.cpu22.domain0.max_interval'
p3146
I48
sS'kernel.sched_domain.cpu39.domain1.max_interval'
p3147
I96
sS'CONFIG_NODES_SHIFT'
p3148
I6
sS'CONFIG_ARCH_HAS_STRICT_MODULE_RWX'
p3149
S'y'
sS'net.ipv6.conf.lo.regen_max_retry'
p3150
I3
sS'kernel.sched_domain.cpu45.domain1.max_newidle_lb_cost'
p3151
I11666
sS'CONFIG_ATA'
p3152
S'y'
sS'CONFIG_CGROUP_FREEZER'
p3153
S'y'
sS'CONFIG_NET_VENDOR_CHELSIO'
p3154
S'y'
sS'CONFIG_FRAMEBUFFER_CONSOLE_DETECT_PRIMARY'
p3155
S'y'
sS'CONFIG_ASN1'
p3156
S'y'
sS'kernel.sched_domain.cpu24.domain1.max_interval'
p3157
I96
sS'CONFIG_PCIEASPM'
p3158
S'y'
sS'kernel.sched_domain.cpu46.domain0.busy_factor'
p3159
I32
sS'CONFIG_PARPORT'
p3160
S'm'
sS'CONFIG_CROSS_MEMORY_ATTACH'
p3161
S'y'
sS'CONFIG_COMPACTION'
p3162
S'y'
sS'kernel.io_delay_type'
p3163
I1
sS'CONFIG_HAVE_KRETPROBES'
p3164
S'y'
sS'CONFIG_MPLS'
p3165
S'y'
sS'kernel.sched_domain.cpu30.domain0.max_interval'
p3166
I48
sS'CONFIG_CPU_IDLE_GOV_LADDER'
p3167
S'y'
sS'CONFIG_UNISYSSPAR'
p3168
S'y'
sS'CONFIG_X86_EXTENDED_PLATFORM'
p3169
S'y'
sS'net.ipv6.conf.all.autoconf'
p3170
I1
sS'CONFIG_CRC16'
p3171
S'y'
sS'CONFIG_CPU_FREQ_GOV_ONDEMAND'
p3172
S'y'
sS'CONFIG_CROSS_COMPILE'
p3173
S'""'
p3174
sS'CONFIG_ARCH_HAS_SET_MEMORY'
p3175
S'y'
sS'CONFIG_SYSCTL_SYSCALL'
p3176
S'y'
sS'net.ipv4.neigh.ens3.mcast_solicit'
p3177
I3
sS'CONFIG_PRINTK_SAFE_LOG_BUF_SHIFT'
p3178
I13
sS'CONFIG_NET_RX_BUSY_POLL'
p3179
S'y'
sS'CONFIG_GENERIC_TIME_VSYSCALL'
p3180
S'y'
sS'CONFIG_HARDLOCKUP_DETECTOR_PERF'
p3181
S'y'
sS'CONFIG_USB_PHY'
p3182
S'y'
sS'CONFIG_LDM_PARTITION'
p3183
S'y'
sS'CONFIG_FUNCTION_PROFILER'
p3184
S'y'
sS'kernel.sched_domain.cpu14.domain0.max_newidle_lb_cost'
p3185
I21402
sS'kernel.sched_domain.cpu32.domain0.forkexec_idx'
p3186
I0
sS'CONFIG_RCU_NEED_SEGCBLIST'
p3187
S'y'
sS'kernel.sched_domain.cpu3.domain1.name'
p3188
S'NUMA'
p3189
sS'kernel.sched_domain.cpu38.domain0.wake_idx'
p3190
I0
sS'CONFIG_MULTIUSER'
p3191
S'y'
sS'net.ipv4.tcp_wmem'
p3192
S'4096\t16384\t4194304'
p3193
sS'kernel.sched_domain.cpu9.domain1.idle_idx'
p3194
I2
sS'CONFIG_VMAP_STACK'
p3195
S'y'
sS'kernel.sched_nr_migrate'
p3196
I32
sS'CONFIG_HAVE_KVM_MSI'
p3197
S'y'
sS'CONFIG_X86_PMEM_LEGACY'
p3198
S'y'
sS'kernel.sched_domain.cpu13.domain0.wake_idx'
p3199
I0
sS'kernel.sched_domain.cpu1.domain1.busy_idx'
p3200
I3
sS'kernel.sched_domain.cpu39.domain0.max_newidle_lb_cost'
p3201
I155367
sS'kernel.keys.root_maxbytes'
p3202
I25000000
sS'kernel.sched_domain.cpu25.domain0.max_newidle_lb_cost'
p3203
I43042
sS'CONFIG_NET_VENDOR_BROADCOM'
p3204
S'y'
sS'kernel.sched_domain.cpu24.domain0.min_interval'
p3205
I24
sS'CONFIG_PCIEAER'
p3206
S'y'
sS'net.ipv4.conf.ens3.bootp_relay'
p3207
I0
sS'CONFIG_MICROCODE_OLD_INTERFACE'
p3208
S'y'
sS'kernel.cap_last_cap'
p3209
I37
sS'kernel.sched_domain.cpu17.domain1.flags'
p3210
I25647
sS'CONFIG_ARCH_SUPPORTS_MEMORY_FAILURE'
p3211
S'y'
sS'CONFIG_TCP_MD5SIG'
p3212
S'y'
sS'CONFIG_ARCH_USE_QUEUED_RWLOCKS'
p3213
S'y'
sS'CONFIG_PNPACPI'
p3214
S'y'
sS'vm.nr_pdflush_threads'
p3215
I0
sS'net.ipv4.tcp_available_congestion_control'
p3216
S'cubic reno'
p3217
sS'kernel.sched_domain.cpu18.domain1.min_interval'
p3218
I48
sS'kernel.sched_domain.cpu13.domain1.cache_nice_tries'
p3219
I2
sS'kernel.sched_domain.cpu18.domain0.max_newidle_lb_cost'
p3220
I137519
sS'CONFIG_CRYPTO_CRC32C_INTEL'
p3221
S'y'
sS'CONFIG_ACPI_BATTERY'
p3222
S'y'
sS'kernel.sched_domain.cpu20.domain1.wake_idx'
p3223
I0
sS'CONFIG_ACPI_PROCESSOR_IDLE'
p3224
S'y'
sS'kernel.sched_domain.cpu13.domain0.flags'
p3225
I4143
sS'kernel.printk'
p3226
S'4\t4\t1\t7'
p3227
sS'CONFIG_PID_NS'
p3228
S'y'
sS'CONFIG_NETFILTER'
p3229
S'y'
sS'user.max_inotify_instances'
p3230
I1024
sS'CONFIG_ACPI_CPPC_LIB'
p3231
S'y'
sS'CONFIG_ACPI_AC'
p3232
S'y'
sS'kernel.sched_domain.cpu34.domain1.wake_idx'
p3233
I0
sS'CONFIG_BINFMT_SCRIPT'
p3234
S'y'
sS'CONFIG_TMPFS_POSIX_ACL'
p3235
S'y'
sS'net.ipv6.conf.default.max_desync_factor'
p3236
I600
sS'CONFIG_DEFAULT_DEADLINE'
p3237
S'y'
sS'CONFIG_MFD_SEC_CORE'
p3238
S'y'
sS'kernel.sched_domain.cpu10.domain1.min_interval'
p3239
I48
sS'CONFIG_NET_VENDOR_QUALCOMM'
p3240
S'y'
sS'kernel.sched_domain.cpu46.domain0.max_interval'
p3241
I48
sS'net.ipv4.igmp_max_memberships'
p3242
I20
sS'CONFIG_X86_REROUTE_FOR_BROKEN_BOOT_IRQS'
p3243
S'y'
sS'kernel.sched_domain.cpu18.domain1.max_interval'
p3244
I96
sS'kernel.sched_domain.cpu39.domain1.imbalance_pct'
p3245
I125
sS'net.ipv6.conf.lo.router_solicitation_interval'
p3246
I4
sS'CONFIG_MODULE_SIG_HASH'
p3247
S'"sha512"'
p3248
sS'net.ipv6.conf.lo.accept_ra_defrtr'
p3249
I1
sS'CONFIG_SOCK_CGROUP_DATA'
p3250
S'y'
sS'debug.exception-trace'
p3251
I1
sS'CONFIG_ACPI_NUMA'
p3252
S'y'
sS'CONFIG_SECURITY_SELINUX_AVC_STATS'
p3253
S'y'
sS'net.ipv4.udp_l3mdev_accept'
p3254
I0
sS'CONFIG_IMA_MEASURE_PCR_IDX'
p3255
I10
sS'CONFIG_MODULE_SRCVERSION_ALL'
p3256
S'y'
sS'CONFIG_X86'
p3257
S'y'
sS'CONFIG_CRC_T10DIF'
p3258
S'y'
sS'net.ipv6.neigh.lo.locktime'
p3259
I0
sS'kernel.sched_domain.cpu47.domain0.min_interval'
p3260
I24
sS'kernel.unprivileged_bpf_disabled'
p3261
I0
sS'CONFIG_NET_VENDOR_DLINK'
p3262
S'y'
sS'net.ipv6.conf.all.router_solicitation_delay'
p3263
I1
sS'CONFIG_EARLY_PRINTK_DBGP'
p3264
S'y'
sS'kernel.sched_domain.cpu35.domain1.max_interval'
p3265
I96
sS'kernel.sched_domain.cpu18.domain0.max_interval'
p3266
I48
sS'CONFIG_TREE_SRCU'
p3267
S'y'
sS'net.ipv4.tcp_rmem'
p3268
S'4096\t87380\t6291456'
p3269
sS'CONFIG_PCI_IOV'
p3270
S'y'
sS'CONFIG_ATA_PIIX'
p3271
S'y'
sS'kernel.sched_domain.cpu20.domain1.flags'
p3272
I25647
sS'CONFIG_CRYPTO_GF128MUL'
p3273
S'y'
sS'kernel.sched_domain.cpu1.domain0.max_newidle_lb_cost'
p3274
I90635
sS'kernel.sched_domain.cpu10.domain1.cache_nice_tries'
p3275
I2
sS'CONFIG_IP_ROUTE_VERBOSE'
p3276
S'y'
sS'kernel.sched_domain.cpu31.domain1.busy_idx'
p3277
I3
sS'CONFIG_SND_HDA_INPUT_BEEP'
p3278
S'y'
sS'fs.epoll.max_user_watches'
p3279
I13501132
sS'CONFIG_SERIAL_8250'
p3280
S'y'
sS'CONFIG_CRYPTO_BLKCIPHER'
p3281
S'y'
sS'net.ipv6.conf.default.temp_prefered_lft'
p3282
I86400
sS'kernel.sched_domain.cpu32.domain0.min_interval'
p3283
I24
sS'CONFIG_IP_NF_IPTABLES'
p3284
S'm'
sS'kernel.sched_domain.cpu8.domain1.flags'
p3285
I25647
sS'kernel.sched_domain.cpu1.domain1.cache_nice_tries'
p3286
I2
sS'kernel.sched_domain.cpu17.domain1.busy_idx'
p3287
I3
sS'kernel.sched_domain.cpu36.domain0.wake_idx'
p3288
I0
sS'CONFIG_SND_X86'
p3289
S'y'
sS'kernel.sched_domain.cpu37.domain0.wake_idx'
p3290
I0
sS'kernel.sched_domain.cpu29.domain0.flags'
p3291
I4143
sS'kernel.pty.nr'
p3292
I0
sS'kernel.sched_domain.cpu29.domain1.newidle_idx'
p3293
I0
sS'net.ipv6.conf.lo.accept_dad'
p3294
S'-1'
p3295
sS'net.ipv6.conf.ens3.router_solicitation_delay'
p3296
I1
sS'net.ipv6.conf.lo.mldv1_unsolicited_report_interval'
p3297
I10000
sS'kernel.sched_domain.cpu9.domain1.name'
p3298
S'NUMA'
p3299
sS'net.ipv4.ip_forward_use_pmtu'
p3300
I0
sS'kernel.sched_domain.cpu32.domain0.busy_idx'
p3301
I2
sS'net.ipv6.conf.ens3.router_solicitation_max_interval'
p3302
I3600
sS'kernel.sched_domain.cpu38.domain0.cache_nice_tries'
p3303
I1
sS'net.ipv4.tcp_base_mss'
p3304
I1024
sS'CONFIG_HAVE_PERF_EVENTS_NMI'
p3305
S'y'
sS'kernel.sched_domain.cpu41.domain0.flags'
p3306
I4143
sS'CONFIG_MFD_WM8350'
p3307
S'y'
sS'net.ipv6.conf.all.accept_ra_mtu'
p3308
I1
sS'kernel.sched_domain.cpu10.domain1.name'
p3309
S'NUMA'
p3310
sS'kernel.sched_domain.cpu46.domain1.min_interval'
p3311
I48
sS'kernel.sched_domain.cpu37.domain0.max_interval'
p3312
I48
sS'kernel.sched_domain.cpu9.domain0.max_interval'
p3313
I48
sS'CONFIG_FS_DAX'
p3314
S'y'
sS'kernel.sched_domain.cpu14.domain1.imbalance_pct'
p3315
I125
sS'kernel.sched_domain.cpu21.domain0.min_interval'
p3316
I24
sS'kernel.sched_domain.cpu43.domain1.wake_idx'
p3317
I0
sS'CONFIG_MFD_TPS65912'
p3318
S'y'
sS'kernel.sched_domain.cpu13.domain0.newidle_idx'
p3319
I0
sS'net.ipv6.neigh.lo.ucast_solicit'
p3320
I3
sS'kernel.sched_domain.cpu16.domain1.idle_idx'
p3321
I2
sS'kernel.core_uses_pid'
p3322
I0
sS'net.ipv6.conf.lo.drop_unicast_in_l2_multicast'
p3323
I0
sS'CONFIG_NET_FC'
p3324
S'y'
sS'net.ipv6.conf.default.router_solicitation_delay'
p3325
I1
sS'kernel.sched_domain.cpu24.domain1.imbalance_pct'
p3326
I125
sS'CONFIG_PCI_LOCKLESS_CONFIG'
p3327
S'y'
sS'kernel.sched_domain.cpu42.domain1.forkexec_idx'
p3328
I0
sS'CONFIG_UEVENT_HELPER_PATH'
p3329
S'""'
p3330
sS'net.ipv6.neigh.ens3.anycast_delay'
p3331
I100
sS'net.ipv6.neigh.default.proxy_qlen'
p3332
I64
sS'net.ipv4.conf.lo.drop_gratuitous_arp'
p3333
I0
sS'kernel.sched_domain.cpu4.domain1.newidle_idx'
p3334
I0
sS'net.ipv6.conf.ens3.mldv1_unsolicited_report_interval'
p3335
I10000
sS'net.ipv4.conf.lo.ignore_routes_with_linkdown'
p3336
I0
sS'CONFIG_NET_CORE'
p3337
S'y'
sS'kernel.panic_on_unrecovered_nmi'
p3338
I0
sS'kernel.sched_domain.cpu38.domain1.idle_idx'
p3339
I2
sS'net.ipv6.conf.default.keep_addr_on_down'
p3340
I0
sS'kernel.sched_domain.cpu4.domain0.max_newidle_lb_cost'
p3341
I48555
sS'kernel.sched_domain.cpu37.domain0.name'
p3342
S'DIE'
p3343
sS'kernel.sched_domain.cpu26.domain1.forkexec_idx'
p3344
I0
sS'kernel.sched_domain.cpu35.domain0.forkexec_idx'
p3345
I0
sS'CONFIG_NOP_TRACER'
p3346
S'y'
sS'CONFIG_FUNCTION_TRACER'
p3347
S'y'
sS'net.ipv4.tcp_stdurg'
p3348
I0
sS'CONFIG_CPU_FREQ_STAT'
p3349
S'y'
sS'net.ipv4.neigh.ens3.locktime'
p3350
I100
sS'net.ipv4.ipfrag_high_thresh'
p3351
I4194304
sS'net.ipv4.tcp_fwmark_accept'
p3352
I0
sS'net.ipv6.neigh.lo.unres_qlen_bytes'
p3353
I212992
sS'CONFIG_POSIX_TIMERS'
p3354
S'y'
sS'CONFIG_LWTUNNEL_BPF'
p3355
S'y'
sS'kernel.sched_domain.cpu12.domain1.cache_nice_tries'
p3356
I2
sS'net.ipv4.conf.default.disable_xfrm'
p3357
I0
sS'kernel.sched_domain.cpu13.domain0.imbalance_pct'
p3358
I125
sS'CONFIG_PHYSICAL_START'
p3359
S'0x1000000'
p3360
sS'CONFIG_COMPAT_OLD_SIGACTION'
p3361
S'y'
sS'net.ipv6.conf.lo.router_probe_interval'
p3362
I60
sS'kernel.sched_domain.cpu33.domain0.flags'
p3363
I4143
sS'kernel.sched_domain.cpu42.domain0.forkexec_idx'
p3364
I0
sS'kernel.sched_domain.cpu23.domain1.busy_idx'
p3365
I3
sS'net.ipv6.conf.ens3.max_addresses'
p3366
I16
sS'kernel.sched_domain.cpu25.domain1.cache_nice_tries'
p3367
I2
sS'CONFIG_SPARSEMEM_EXTREME'
p3368
S'y'
sS'kernel.sched_domain.cpu47.domain0.max_newidle_lb_cost'
p3369
I21407
sS'net.ipv4.conf.all.accept_source_route'
p3370
I0
sS'CONFIG_I2C'
p3371
S'y'
sS'CONFIG_X86_PAT'
p3372
S'y'
sS'CONFIG_GENERIC_HWEIGHT'
p3373
S'y'
sS'kernel.sched_domain.cpu6.domain0.max_interval'
p3374
I48
sS'CONFIG_X86_CHECK_BIOS_CORRUPTION'
p3375
S'y'
sS'kernel.sched_domain.cpu41.domain1.busy_factor'
p3376
I32
sS'kernel.sched_domain.cpu24.domain1.wake_idx'
p3377
I0
sS'CONFIG_ARCH_HAS_SG_CHAIN'
p3378
S'y'
sS'CONFIG_ARCH_SUPPORTS_ATOMIC_RMW'
p3379
S'y'
sS'kernel.sched_domain.cpu26.domain0.max_newidle_lb_cost'
p3380
I24847
sS'kernel.sched_domain.cpu39.domain0.busy_factor'
p3381
I32
sS'net.ipv4.tcp_l3mdev_accept'
p3382
I0
sS'CONFIG_RT_MUTEXES'
p3383
S'y'
sS'net.core.rmem_default'
p3384
I212992
sS'vm.min_unmapped_ratio'
p3385
I1
sS'CONFIG_RFKILL_LEDS'
p3386
S'y'
sS'CONFIG_ARCH_USES_HIGH_VMA_FLAGS'
p3387
S'y'
sS'kernel.sched_domain.cpu30.domain0.name'
p3388
S'DIE'
p3389
sS'kernel.sched_domain.cpu44.domain0.cache_nice_tries'
p3390
I1
sS'net.ipv4.conf.lo.drop_unicast_in_l2_multicast'
p3391
I0
sS'CONFIG_THIN_ARCHIVES'
p3392
S'y'
sS'kernel.sched_domain.cpu24.domain1.name'
p3393
S'NUMA'
p3394
sS'net.ipv6.conf.all.regen_max_retry'
p3395
I3
sS'net.ipv6.conf.all.accept_ra_defrtr'
p3396
I1
sS'kernel.numa_balancing_scan_delay_ms'
p3397
I1000
sS'kernel.sched_domain.cpu47.domain1.forkexec_idx'
p3398
I0
sS'net.ipv4.conf.all.arp_notify'
p3399
I0
sS'CONFIG_ARCH_DISCARD_MEMBLOCK'
p3400
S'y'
sS'CONFIG_VIRTIO_PCI'
p3401
S'y'
sS'kernel.kexec_load_disabled'
p3402
I0
sS'kernel.sched_domain.cpu0.domain1.busy_idx'
p3403
I3
sS'CONFIG_LEDS_TRIGGERS'
p3404
S'y'
sS'CONFIG_X86_64'
p3405
S'y'
sS'net.ipv6.conf.default.suppress_frag_ndisc'
p3406
I1
sS'CONFIG_CRYPTO_MANAGER2'
p3407
S'y'
sS'CONFIG_USB_ARCH_HAS_HCD'
p3408
S'y'
sS'fs.file-nr'
p3409
S'2461\t0\t6576659'
p3410
sS'CONFIG_OPROFILE_NMI_TIMER'
p3411
S'y'
sS'fs.quota.cache_hits'
p3412
I0
sS'CONFIG_X86_SMAP'
p3413
S'y'
sS'kernel.sched_domain.cpu42.domain1.flags'
p3414
I25647
sS'CONFIG_SLUB_CPU_PARTIAL'
p3415
S'y'
sS'kernel.sched_domain.cpu10.domain0.max_interval'
p3416
I48
sS'CONFIG_HAVE_MEMBLOCK_NODE_MAP'
p3417
S'y'
sS'kernel.sched_domain.cpu27.domain1.wake_idx'
p3418
I0
sS'CONFIG_CRYPTO_AEAD'
p3419
S'y'
sS'kernel.sched_domain.cpu34.domain1.idle_idx'
p3420
I2
sS'kernel.sched_domain.cpu38.domain1.newidle_idx'
p3421
I0
sS'kernel.sched_domain.cpu12.domain0.newidle_idx'
p3422
I0
sS'kernel.sched_domain.cpu44.domain0.idle_idx'
p3423
I1
sS'CONFIG_ARCH_MAY_HAVE_PC_FDC'
p3424
S'y'
sS'kernel.sched_domain.cpu23.domain1.name'
p3425
S'NUMA'
p3426
sS'net.ipv6.neigh.default.mcast_resolicit'
p3427
I0
sS'kernel.tainted'
p3428
I0
sS'kernel.sched_domain.cpu22.domain0.newidle_idx'
p3429
I0
sS'CONFIG_REGULATOR_TPS65217'
p3430
S'y'
sS'CONFIG_HIBERNATE_CALLBACKS'
p3431
S'y'
sS'CONFIG_CLKBLD_I8253'
p3432
S'y'
sS'CONFIG_IPV6_SUBTREES'
p3433
S'y'
sS'kernel.sched_domain.cpu4.domain0.wake_idx'
p3434
I0
sS'kernel.sched_latency_ns'
p3435
I24000000
sS'kernel.sched_domain.cpu13.domain0.min_interval'
p3436
I24
sS'CONFIG_NAMESPACES'
p3437
S'y'
sS'CONFIG_BPF_JIT'
p3438
S'y'
sS'CONFIG_DEFAULT_CUBIC'
p3439
S'y'
sS'kernel.sched_domain.cpu29.domain1.max_interval'
p3440
I96
sS'kernel.numa_balancing'
p3441
I1
sS'kernel.hardlockup_panic'
p3442
I0
sS'CONFIG_MFD_TPS65912_SPI'
p3443
S'y'
sS'CONFIG_PROC_CHILDREN'
p3444
S'y'
sS'CONFIG_PHYS_ADDR_T_64BIT'
p3445
S'y'
sS'CONFIG_HPET_TIMER'
p3446
S'y'
sS'net.ipv6.conf.all.accept_ra_rt_info_min_plen'
p3447
I0
sS'CONFIG_GENERIC_PENDING_IRQ'
p3448
S'y'
sS'net.ipv4.neigh.ens3.ucast_solicit'
p3449
I3
sS'CONFIG_KDB_CONTINUE_CATASTROPHIC'
p3450
I0
sS'kernel.sched_domain.cpu34.domain1.newidle_idx'
p3451
I0
sS'CONFIG_FB_BOOT_VESA_SUPPORT'
p3452
S'y'
sS'kernel.perf_event_max_contexts_per_stack'
p3453
I8
sS'CONFIG_DYNAMIC_FTRACE'
p3454
S'y'
sS'net.ipv6.conf.ens3.dad_transmits'
p3455
I1
sS'kernel.sched_domain.cpu45.domain0.name'
p3456
S'DIE'
p3457
sS'kernel.sched_domain.cpu10.domain0.flags'
p3458
I4143
sS'net.ipv6.conf.lo.mtu'
p3459
I65536
sS'net.ipv6.conf.all.disable_ipv6'
p3460
I0
sS'net.ipv6.conf.ens3.router_solicitations'
p3461
S'-1'
p3462
sS'kernel.sched_domain.cpu29.domain1.forkexec_idx'
p3463
I0
sS'net.ipv6.conf.lo.keep_addr_on_down'
p3464
I0
sS'CONFIG_USB_EHCI_PCI'
p3465
S'y'
sS'CONFIG_KVM_ASYNC_PF'
p3466
S'y'
sS'CONFIG_IP_MULTIPLE_TABLES'
p3467
S'y'
sS'net.ipv6.ip6frag_time'
p3468
I60
sS'CONFIG_EFIVAR_FS'
p3469
S'y'
sS'fs.aio-max-nr'
p3470
I65536
sS'CONFIG_ARCH_SUPPORTS_INT128'
p3471
S'y'
sS'kernel.sched_domain.cpu33.domain0.imbalance_pct'
p3472
I125
sS'kernel.sched_domain.cpu43.domain1.idle_idx'
p3473
I2
sS'CONFIG_SECURITY'
p3474
S'y'
sS'CONFIG_SPI'
p3475
S'y'
sS'net.ipv4.tcp_orphan_retries'
p3476
I0
sS'net.ipv4.tcp_fin_timeout'
p3477
I60
sS'CONFIG_IDLE_PAGE_TRACKING'
p3478
S'y'
sS'CONFIG_CRYPTO_CRYPTD'
p3479
S'm'
sS'CONFIG_DEVPORT'
p3480
S'y'
sS'kernel.sched_domain.cpu21.domain1.busy_idx'
p3481
I3
sS'CONFIG_MODULE_SIG'
p3482
S'y'
sS'CONFIG_HAS_IOMEM'
p3483
S'y'
sS'kernel.sched_domain.cpu28.domain1.imbalance_pct'
p3484
I125
sS'kernel.sched_domain.cpu47.domain0.idle_idx'
p3485
I1
sS'CONFIG_ARCH_PROC_KCORE_TEXT'
p3486
S'y'
sS'CONFIG_SPARSEMEM_VMEMMAP_ENABLE'
p3487
S'y'
sS'net.ipv6.conf.default.disable_policy'
p3488
I0
sS'kernel.sched_domain.cpu24.domain0.busy_factor'
p3489
I32
sS'CONFIG_NET_CADENCE'
p3490
S'y'
sS'kernel.sched_domain.cpu9.domain1.busy_factor'
p3491
I32
sS'kernel.sched_domain.cpu25.domain1.min_interval'
p3492
I48
sS'kernel.sched_domain.cpu12.domain0.max_newidle_lb_cost'
p3493
I46461
sS'kernel.sched_domain.cpu39.domain0.forkexec_idx'
p3494
I0
sS'net.ipv4.tcp_autocorking'
p3495
I1
sS'net.ipv6.conf.ens3.forwarding'
p3496
I0
sS'CONFIG_NET_VENDOR_MYRI'
p3497
S'y'
sS'CONFIG_ARCH_SUPPORTS_NUMA_BALANCING'
p3498
S'y'
sS'kernel.sched_domain.cpu24.domain0.flags'
p3499
I4143
sS'net.ipv4.neigh.ens3.anycast_delay'
p3500
I100
sS'CONFIG_SND_PCM'
p3501
S'm'
sS'net.ipv6.conf.default.mldv1_unsolicited_report_interval'
p3502
I10000
sS'kernel.sched_domain.cpu29.domain0.idle_idx'
p3503
I1
sS'kernel.sched_domain.cpu36.domain1.newidle_idx'
p3504
I0
sS'CONFIG_ARCH_HAS_STRICT_KERNEL_RWX'
p3505
S'y'
sS'kernel.sched_domain.cpu39.domain1.name'
p3506
S'NUMA'
p3507
sS'CONFIG_TWL6040_CORE'
p3508
S'y'
sS'net.ipv4.tcp_sack'
p3509
I1
sS'kernel.sched_domain.cpu45.domain1.newidle_idx'
p3510
I0
sS'CONFIG_BLK_DEV_MD'
p3511
S'y'
sS'kernel.sched_domain.cpu9.domain0.min_interval'
p3512
I24
sS'net.ipv6.conf.ens3.mtu'
p3513
I1500
sS'CONFIG_IOMMU_HELPER'
p3514
S'y'
sS'kernel.ns_last_pid'
p3515
I154780
sS'kernel.sched_domain.cpu29.domain0.forkexec_idx'
p3516
I0
sS'kernel.sched_domain.cpu31.domain1.wake_idx'
p3517
I0
sS'CONFIG_RWSEM_XCHGADD_ALGORITHM'
p3518
S'y'
sS'CONFIG_HAVE_KERNEL_GZIP'
p3519
S'y'
sS'net.ipv4.route.redirect_load'
p3520
I5
sS'vm.overcommit_ratio'
p3521
I50
sS'CONFIG_MFD_TPS65217'
p3522
S'y'
sS'kernel.sched_domain.cpu8.domain1.idle_idx'
p3523
I2
sS'kernel.sched_domain.cpu16.domain0.wake_idx'
p3524
I0
sS'CONFIG_ENCRYPTED_KEYS'
p3525
S'y'
sS'kernel.sched_domain.cpu11.domain0.name'
p3526
S'DIE'
p3527
sS'kernel.sched_domain.cpu34.domain0.max_interval'
p3528
I48
sS'net.ipv6.neigh.ens3.retrans_time_ms'
p3529
I1000
sS'CONFIG_ACPI_PROCESSOR_CSTATE'
p3530
S'y'
sS'CONFIG_BLK_DEBUG_FS'
p3531
S'y'
sS'CONFIG_IPV6_PIMSM_V2'
p3532
S'y'
sS'CONFIG_INITRAMFS_SOURCE'
p3533
S'""'
p3534
sS'kernel.sched_domain.cpu10.domain0.cache_nice_tries'
p3535
I1
sS'CONFIG_NET_VENDOR_TI'
p3536
S'y'
sS'kernel.sched_domain.cpu46.domain0.min_interval'
p3537
I24
sS'CONFIG_HPET_MMAP_DEFAULT'
p3538
S'y'
sS'CONFIG_PROCESSOR_SELECT'
p3539
S'y'
sS'CONFIG_MQ_IOSCHED_KYBER'
p3540
S'y'
sS'user.max_cgroup_namespaces'
p3541
I257513
sS'dev.scsi.logging_level'
p3542
I0
sS'CONFIG_SLHC'
p3543
S'y'
sS'CONFIG_PREVENT_FIRMWARE_BUILD'
p3544
S'y'
sS'net.ipv4.conf.default.accept_redirects'
p3545
I1
sS'CONFIG_PWM_CRC'
p3546
S'y'
sS'CONFIG_ARCH_MMAP_RND_COMPAT_BITS_MIN'
p3547
I8
sS'kernel.hung_task_panic'
p3548
I0
sS'net.ipv4.tcp_retrans_collapse'
p3549
I1
sS'CONFIG_HAVE_KPROBES_ON_FTRACE'
p3550
S'y'
sS'fs.quota.writes'
p3551
I0
sS'CONFIG_ARCH_WANT_HUGE_PMD_SHARE'
p3552
S'y'
sS'kernel.sched_domain.cpu36.domain0.busy_idx'
p3553
I2
sS'CONFIG_PROC_VMCORE'
p3554
S'y'
sS'CONFIG_ARCH_MIGHT_HAVE_PC_PARPORT'
p3555
S'y'
sS'kernel.sched_domain.cpu7.domain0.wake_idx'
p3556
I0
sS'net.ipv6.conf.default.accept_ra_rt_info_max_plen'
p3557
I0
sS'CONFIG_ARCH_SUPPORTS_UPROBES'
p3558
S'y'
sS'CONFIG_FB_CFB_COPYAREA'
p3559
S'y'
sS'CONFIG_GENERIC_NET_UTILS'
p3560
S'y'
sS'CONFIG_SLAB_MERGE_DEFAULT'
p3561
S'y'
sS'kernel.sched_domain.cpu5.domain1.imbalance_pct'
p3562
I125
sS'CONFIG_MODULES'
p3563
S'y'
sS'CONFIG_PCI_DOMAINS'
p3564
S'y'
sS'kernel.sched_domain.cpu41.domain1.forkexec_idx'
p3565
I0
sS'CONFIG_HAVE_MMIOTRACE_SUPPORT'
p3566
S'y'
sS'CONFIG_WLAN_VENDOR_TI'
p3567
S'y'
sS'CONFIG_SND'
p3568
S'm'
sS'CONFIG_ARCH_CLOCKSOURCE_DATA'
p3569
S'y'
sS'kernel.sched_domain.cpu9.domain0.max_newidle_lb_cost'
p3570
I21113
sS'kernel.sched_domain.cpu39.domain1.busy_idx'
p3571
I3
sS'vm.dirty_background_bytes'
p3572
I0
sS'CONFIG_ARCH_SUSPEND_POSSIBLE'
p3573
S'y'
sS'kernel.hardlockup_all_cpu_backtrace'
p3574
I0
sS'kernel.sched_domain.cpu34.domain0.newidle_idx'
p3575
I0
sS'net.ipv6.conf.ens3.accept_source_route'
p3576
I0
sS'net.ipv6.conf.default.router_solicitation_max_interval'
p3577
I3600
sS'kernel.sched_domain.cpu31.domain1.forkexec_idx'
p3578
I0
sS'CONFIG_FRONTSWAP'
p3579
S'y'
sS'CONFIG_NET_VENDOR_EMULEX'
p3580
S'y'
sS'kernel.watchdog'
p3581
I1
sS'kernel.sched_domain.cpu40.domain0.max_newidle_lb_cost'
p3582
I20948
sS'CONFIG_HYPERVISOR_GUEST'
p3583
S'y'
sS'CONFIG_GART_IOMMU'
p3584
S'y'
sS'net.ipv6.conf.all.suppress_frag_ndisc'
p3585
I1
sS'kernel.sched_domain.cpu2.domain1.newidle_idx'
p3586
I0
sS'kernel.sched_domain.cpu19.domain1.imbalance_pct'
p3587
I125
sS'net.ipv6.conf.ens3.max_desync_factor'
p3588
I600
sS'net.ipv4.icmp_ratelimit'
p3589
I1000
sS'CONFIG_ALLOW_DEV_COREDUMP'
p3590
S'y'
sS'CONFIG_X86_PCC_CPUFREQ'
p3591
S'y'
sS'net.ipv4.neigh.lo.app_solicit'
p3592
I0
sS'CONFIG_ARCH_USES_PG_UNCACHED'
p3593
S'y'
sS'kernel.sched_domain.cpu46.domain1.imbalance_pct'
p3594
I125
sS'CONFIG_IMA_DEFAULT_HASH_SHA1'
p3595
S'y'
sS'kernel.sched_domain.cpu26.domain1.wake_idx'
p3596
I0
sS'net.ipv6.conf.all.use_oif_addrs_only'
p3597
I0
sS'kernel.sched_tunable_scaling'
p3598
I1
sS'CONFIG_RD_LZMA'
p3599
S'y'
sS'kernel.sched_domain.cpu11.domain0.wake_idx'
p3600
I0
sS'CONFIG_PCI_REALLOC_ENABLE_AUTO'
p3601
S'y'
sS'net.ipv6.conf.lo.mc_forwarding'
p3602
I0
sS'CONFIG_WLAN_VENDOR_ATH'
p3603
S'y'
sS'kernel.sched_domain.cpu32.domain1.busy_factor'
p3604
I32
sS'CONFIG_PM_ADVANCED_DEBUG'
p3605
S'y'
sS'kernel.bootloader_version'
p3606
I2
sS'kernel.sched_domain.cpu13.domain0.max_interval'
p3607
I48
sS'CONFIG_ARCH_MMAP_RND_COMPAT_BITS'
p3608
I8
sS'CONFIG_SND_HDA_INPUT_BEEP_MODE'
p3609
I0
sS'kernel.sched_domain.cpu26.domain0.newidle_idx'
p3610
I0
sS'net.ipv6.calipso_cache_enable'
p3611
I1
sS'fs.mount-max'
p3612
I100000
sS'net.ipv6.conf.all.force_tllao'
p3613
I0
sS'CONFIG_USERFAULTFD'
p3614
S'y'
sS'CONFIG_CHELSIO_T4'
p3615
S'm'
sS'kernel.sched_schedstats'
p3616
I0
sS'CONFIG_ACPI_BGRT'
p3617
S'y'
sS'net.ipv4.neigh.default.gc_thresh1'
p3618
I128
sS'net.ipv4.neigh.default.gc_thresh2'
p3619
I512
sS'net.ipv4.neigh.default.gc_thresh3'
p3620
I1024
sS'kernel.sched_domain.cpu42.domain1.cache_nice_tries'
p3621
I2
sS'kernel.sched_domain.cpu31.domain0.min_interval'
p3622
I24
sS'kernel.sched_domain.cpu30.domain1.name'
p3623
S'NUMA'
p3624
sS'CONFIG_MOUSE_PS2_FOCALTECH'
p3625
S'y'
sS'net.ipv4.fwmark_reflect'
p3626
I0
sS'CONFIG_IMA'
p3627
S'y'
sS'CONFIG_CPU_IDLE_GOV_MENU'
p3628
S'y'
sS'vm.dirty_background_ratio'
p3629
I10
sS'kernel.sched_domain.cpu27.domain0.imbalance_pct'
p3630
I125
sS'CONFIG_SCHED_OMIT_FRAME_POINTER'
p3631
S'y'
sS'kernel.hostname'
p3632
S'nestedvm'
p3633
sS'CONFIG_PINCTRL_AMD'
p3634
S'y'
sS'CONFIG_PROC_EVENTS'
p3635
S'y'
sS'CONFIG_UIO'
p3636
S'm'
sS'net.ipv4.conf.ens3.drop_unicast_in_l2_multicast'
p3637
I0
sS'net.ipv4.conf.lo.proxy_arp_pvlan'
p3638
I0
sS'CONFIG_DDR'
p3639
S'y'
sS'net.ipv4.conf.lo.promote_secondaries'
p3640
I0
sS'CONFIG_SECTION_MISMATCH_WARN_ONLY'
p3641
S'y'
sS'CONFIG_SRAM'
p3642
S'y'
sS'CONFIG_ARCH_HAVE_NMI_SAFE_CMPXCHG'
p3643
S'y'
sS'vm.min_free_kbytes'
p3644
I225280
sS'kernel.sched_domain.cpu25.domain1.newidle_idx'
p3645
I0
sS'CONFIG_RING_BUFFER'
p3646
S'y'
sS'kernel.sched_domain.cpu21.domain1.max_interval'
p3647
I96
sS'net.ipv4.route.min_pmtu'
p3648
I552
sS'CONFIG_HAVE_ARCH_SOFT_DIRTY'
p3649
S'y'
sS'kernel.perf_cpu_time_max_percent'
p3650
I25
sS'kernel.sched_domain.cpu25.domain1.flags'
p3651
I25647
sS'CONFIG_UPROBE_EVENTS'
p3652
S'y'
sS'kernel.sched_domain.cpu10.domain0.min_interval'
p3653
I24
sS'CONFIG_PROC_KCORE'
p3654
S'y'
sS'vm.zone_reclaim_mode'
p3655
I0
sS'dev.raid.speed_limit_min'
p3656
I1000
sS'kernel.sched_domain.cpu36.domain0.forkexec_idx'
p3657
I0
sS'kernel.sched_domain.cpu8.domain1.max_newidle_lb_cost'
p3658
I61472
sS'CONFIG_SECURITY_TOMOYO_MAX_ACCEPT_ENTRY'
p3659
I2048
sS'net.ipv4.route.gc_min_interval'
p3660
I0
sS'CONFIG_MAGIC_SYSRQ_DEFAULT_ENABLE'
p3661
S'0x1'
p3662
sS'CONFIG_DEVTMPFS_MOUNT'
p3663
S'y'
sS'kernel.sched_domain.cpu16.domain1.busy_idx'
p3664
I3
sS'kernel.sched_domain.cpu4.domain1.wake_idx'
p3665
I0
sS'CONFIG_TRACING_SUPPORT'
p3666
S'y'
sS'kernel.sched_domain.cpu42.domain0.min_interval'
p3667
I24
sS'kernel.sched_domain.cpu44.domain0.newidle_idx'
p3668
I0
sS'kernel.sched_domain.cpu15.domain0.name'
p3669
S'DIE'
p3670
sS'kernel.sched_domain.cpu18.domain1.cache_nice_tries'
p3671
I2
sS'net.ipv4.fib_multipath_use_neigh'
p3672
I0
sS'net.ipv4.icmp_msgs_per_sec'
p3673
I1000
sS'kernel.sched_domain.cpu15.domain0.idle_idx'
p3674
I1
sS'net.ipv4.tcp_retries1'
p3675
I3
sS'net.ipv4.tcp_retries2'
p3676
I15
sS'kernel.sched_domain.cpu46.domain0.forkexec_idx'
p3677
I0
sS'CONFIG_PGTABLE_LEVELS'
p3678
I4
sS'kernel.sched_domain.cpu26.domain1.imbalance_pct'
p3679
I125
sS'kernel.sched_domain.cpu39.domain1.min_interval'
p3680
I48
sS'CONFIG_KRETPROBES'
p3681
S'y'
sS'CONFIG_NET_VENDOR_ALACRITECH'
p3682
S'y'
sS'CONFIG_KPROBES_ON_FTRACE'
p3683
S'y'
sS'kernel.sched_domain.cpu5.domain1.idle_idx'
p3684
I2
sS'CONFIG_ARCH_MEMORY_PROBE'
p3685
S'y'
sS'CONFIG_GPIO_ACPI'
p3686
S'y'
sS'kernel.sched_domain.cpu34.domain0.busy_idx'
p3687
I2
sS'kernel.sched_domain.cpu25.domain0.imbalance_pct'
p3688
I125
sS'CONFIG_RELAY'
p3689
S'y'
sS'kernel.sched_domain.cpu29.domain1.min_interval'
p3690
I48
sS'kernel.sched_domain.cpu7.domain1.forkexec_idx'
p3691
I0
sS'kernel.sched_domain.cpu1.domain1.max_interval'
p3692
I96
sS'kernel.domainname'
p3693
S'(none)'
p3694
sS'dev.raid.speed_limit_max'
p3695
I200000
sS'kernel.sched_domain.cpu46.domain1.max_newidle_lb_cost'
p3696
I19688
sS'CONFIG_X86_BOOTPARAM_MEMORY_CORRUPTION_CHECK'
p3697
S'y'
sS'CONFIG_FB_ASILIANT'
p3698
S'y'
sS'kernel.sched_domain.cpu42.domain0.max_newidle_lb_cost'
p3699
I136998
sS'kernel.sched_domain.cpu45.domain1.name'
p3700
S'NUMA'
p3701
sS'CONFIG_MFD_WM831X_SPI'
p3702
S'y'
sS'CONFIG_HAVE_FTRACE_MCOUNT_RECORD'
p3703
S'y'
sS'CONFIG_XZ_DEC_ARMTHUMB'
p3704
S'y'
sS'CONFIG_VGA_ARB'
p3705
S'y'
sS'CONFIG_INTEGRITY_TRUSTED_KEYRING'
p3706
S'y'
sS'CONFIG_HW_CONSOLE'
p3707
S'y'
sS'kernel.sched_domain.cpu46.domain1.wake_idx'
p3708
I0
sS'CONFIG_MFD_TPS65910'
p3709
S'y'
sS'net.ipv4.igmp_max_msf'
p3710
I10
sS'vm.percpu_pagelist_fraction'
p3711
I0
sS'net.ipv4.conf.all.disable_xfrm'
p3712
I0
sS'kernel.sched_domain.cpu29.domain0.imbalance_pct'
p3713
I125
sS'CONFIG_PM_SLEEP_DEBUG'
p3714
S'y'
sS'CONFIG_INLINE_WRITE_UNLOCK_IRQ'
p3715
S'y'
sS'CONFIG_NET_VENDOR_RDC'
p3716
S'y'
sS'CONFIG_MFD_MAX8925'
p3717
S'y'
sS'kernel.sched_domain.cpu41.domain0.newidle_idx'
p3718
I0
sS'CONFIG_XZ_DEC_X86'
p3719
S'y'
sS'kernel.sched_domain.cpu30.domain0.wake_idx'
p3720
I0
sS'CONFIG_X86_X32'
p3721
S'y'
sS'kernel.sched_domain.cpu37.domain0.max_newidle_lb_cost'
p3722
I20641
sS'kernel.msg_next_id'
p3723
S'-1'
p3724
sS'net.ipv4.tcp_allowed_congestion_control'
p3725
S'cubic reno'
p3726
sS'kernel.sched_wakeup_granularity_ns'
p3727
I4000000
sS'net.ipv4.neigh.ens3.mcast_resolicit'
p3728
I0
sS'net.ipv6.conf.lo.disable_policy'
p3729
I0
sS'net.ipv6.conf.lo.addr_gen_mode'
p3730
I0
sS'CONFIG_X86_SPEEDSTEP_CENTRINO'
p3731
S'y'
sS'net.ipv4.route.gc_elasticity'
p3732
I8
sS'kernel.sched_domain.cpu28.domain0.wake_idx'
p3733
I0
sS'CONFIG_HAVE_PCSPKR_PLATFORM'
p3734
S'y'
sS'kernel.sched_domain.cpu23.domain0.max_interval'
p3735
I48
sS'kernel.sched_domain.cpu36.domain1.idle_idx'
p3736
I2
sS'net.ipv4.tcp_syncookies'
p3737
I1
sS'kernel.sched_domain.cpu37.domain0.idle_idx'
p3738
I1
sS'fs.quota.lookups'
p3739
I0
sS'kernel.sched_domain.cpu24.domain1.cache_nice_tries'
p3740
I2
sS'net.ipv6.neigh.lo.mcast_solicit'
p3741
I3
sS'CONFIG_IO_DELAY_TYPE_NONE'
p3742
I3
sS'net.ipv4.tcp_slow_start_after_idle'
p3743
I1
sS'kernel.sched_domain.cpu25.domain0.min_interval'
p3744
I24
sS'CONFIG_EARLY_PRINTK_EFI'
p3745
S'y'
sS'CONFIG_PROBE_EVENTS'
p3746
S'y'
sS'CONFIG_WLAN_VENDOR_CISCO'
p3747
S'y'
sS'CONFIG_USB_DWC2_HOST'
p3748
S'y'
sS'kernel.sched_domain.cpu27.domain0.idle_idx'
p3749
I1
sS'kernel.sched_domain.cpu30.domain0.forkexec_idx'
p3750
I0
sS'CONFIG_FRAMEBUFFER_CONSOLE_ROTATION'
p3751
S'y'
sS'kernel.sched_domain.cpu34.domain0.forkexec_idx'
p3752
I0
sS'kernel.sched_domain.cpu1.domain1.idle_idx'
p3753
I2
sS'net.ipv4.conf.ens3.mc_forwarding'
p3754
I0
sS'net.core.tstamp_allow_data'
p3755
I1
sS'kernel.watchdog_thresh'
p3756
I10
sS'kernel.sched_domain.cpu18.domain0.wake_idx'
p3757
I0
sS'kernel.sched_domain.cpu0.domain1.wake_idx'
p3758
I0
sS'CONFIG_LOCALVERSION'
p3759
S'""'
p3760
sS'CONFIG_PWM'
p3761
S'y'
sS'kernel.sched_domain.cpu43.domain0.forkexec_idx'
p3762
I0
sS'net.unix.max_dgram_qlen'
p3763
I512
sS'kernel.sched_domain.cpu43.domain0.idle_idx'
p3764
I1
sS'kernel.sched_domain.cpu10.domain1.forkexec_idx'
p3765
I0
sS'CONFIG_TTY_PRINTK'
p3766
S'y'
sS'kernel.ctrl-alt-del'
p3767
I0
sS'kernel.sched_domain.cpu2.domain1.max_newidle_lb_cost'
p3768
I25943
sS'net.ipv4.conf.default.rp_filter'
p3769
I1
sS'kernel.sched_domain.cpu3.domain0.imbalance_pct'
p3770
I125
sS'kernel.sched_domain.cpu15.domain1.max_interval'
p3771
I96
sS'CONFIG_CRC32_SLICEBY8'
p3772
S'y'
sS'kernel.sched_domain.cpu31.domain0.max_newidle_lb_cost'
p3773
I15568
sS'kernel.sched_domain.cpu45.domain1.cache_nice_tries'
p3774
I2
sS'net.ipv4.conf.lo.force_igmp_version'
p3775
I0
sS'CONFIG_INTEL_IOMMU_SVM'
p3776
S'y'
sS'kernel.sched_domain.cpu46.domain0.busy_idx'
p3777
I2
sS'kernel.sched_domain.cpu13.domain1.busy_idx'
p3778
I3
sS'CONFIG_TRACE_CLOCK'
p3779
S'y'
sS'kernel.sched_domain.cpu21.domain1.forkexec_idx'
p3780
I0
sS'kernel.sched_domain.cpu4.domain1.min_interval'
p3781
I48
sg10
g11
sS'kernel.sched_domain.cpu47.domain0.newidle_idx'
p3782
I0
sS'kernel.sched_domain.cpu15.domain1.min_interval'
p3783
I48
sS'CONFIG_NET_VENDOR_CISCO'
p3784
S'y'
sS'CONFIG_BASE_FULL'
p3785
S'y'
sS'kernel.sched_domain.cpu32.domain1.newidle_idx'
p3786
I0
sS'CONFIG_STP'
p3787
S'm'
sS'net.ipv4.conf.all.rp_filter'
p3788
I1
sS'kernel.sched_domain.cpu4.domain1.imbalance_pct'
p3789
I125
sS'kernel.sched_domain.cpu40.domain1.name'
p3790
S'NUMA'
p3791
sS'CONFIG_EVM_ATTR_FSUUID'
p3792
S'y'
sS'CONFIG_CRYPTO_GLUE_HELPER_X86'
p3793
S'm'
sS'net.ipv4.ip_early_demux'
p3794
I1
sS'CONFIG_BOOTPARAM_HARDLOCKUP_PANIC_VALUE'
p3795
I0
sS'CONFIG_SYSTEM_EXTRA_CERTIFICATE'
p3796
S'y'
sS'kernel.sched_domain.cpu34.domain0.max_newidle_lb_cost'
p3797
I20611
sS'kernel.sched_domain.cpu5.domain1.busy_idx'
p3798
I3
sS'CONFIG_SYSTEM_TRUSTED_KEYS'
p3799
S'""'
p3800
sS'kernel.tracepoint_printk'
p3801
I0
sS'net.ipv6.conf.lo.router_solicitation_delay'
p3802
I1
sS'CONFIG_HOTPLUG_PCI'
p3803
S'y'
sS'kernel.sched_domain.cpu0.domain0.min_interval'
p3804
I24
sS'CONFIG_SERIAL_MAX310X'
p3805
S'y'
sS'kernel.sched_domain.cpu0.domain0.idle_idx'
p3806
I1
sS'CONFIG_BACKLIGHT_LCD_SUPPORT'
p3807
S'y'
sS'CONFIG_EDAC'
p3808
S'y'
sS'CONFIG_INPUT_TOUCHSCREEN'
p3809
S'y'
sS'kernel.sched_domain.cpu27.domain1.imbalance_pct'
p3810
I125
sS'kernel.sched_domain.cpu42.domain1.max_newidle_lb_cost'
p3811
I20627
sS'vm.numa_zonelist_order'
p3812
S'Node'
p3813
sS'kernel.sched_domain.cpu11.domain0.cache_nice_tries'
p3814
I1
sS'CONFIG_FANOTIFY'
p3815
S'y'
sS'kernel.sched_domain.cpu12.domain1.min_interval'
p3816
I48
sS'vm.memory_failure_recovery'
p3817
I1
sS'CONFIG_ACPI_HED'
p3818
S'y'
sS'kernel.sched_domain.cpu25.domain1.busy_factor'
p3819
I32
sS'net.ipv6.neigh.lo.unres_qlen'
p3820
I101
sS'CONFIG_X86_AMD_PLATFORM_DEVICE'
p3821
S'y'
sS'kernel.sched_domain.cpu27.domain0.cache_nice_tries'
p3822
I1
sS'CONFIG_FONT_8x16'
p3823
S'y'
sS'net.ipv6.mld_max_msf'
p3824
I64
sS'net.ipv4.neigh.default.proxy_delay'
p3825
I80
sS'net.ipv4.conf.default.bootp_relay'
p3826
I0
sS'CONFIG_USB_XHCI_PCI'
p3827
S'y'
sS'CONFIG_FUTEX_PI'
p3828
S'y'
sS'kernel.sched_domain.cpu34.domain1.cache_nice_tries'
p3829
I2
sS'kernel.numa_balancing_scan_period_min_ms'
p3830
I1000
sS'kernel.sched_domain.cpu18.domain0.flags'
p3831
I4143
sS'net.ipv4.tcp_early_retrans'
p3832
I3
sS'kernel.sched_domain.cpu17.domain0.busy_idx'
p3833
I2
sS'CONFIG_NET_VENDOR_SUN'
p3834
S'y'
sS'CONFIG_KERNEL_GZIP'
p3835
S'y'
sS'kernel.sched_domain.cpu13.domain0.max_newidle_lb_cost'
p3836
I21174
sS'net.ipv6.conf.default.ndisc_notify'
p3837
I0
sS'CONFIG_SOUND_OSS_CORE'
p3838
S'y'
sS'CONFIG_DEFAULT_SECURITY'
p3839
S'"apparmor"'
p3840
sS'kernel.sched_domain.cpu3.domain1.busy_idx'
p3841
I3
sS'net.ipv4.conf.ens3.route_localnet'
p3842
I0
sS'kernel.sched_domain.cpu40.domain0.newidle_idx'
p3843
I0
sS'net.ipv4.conf.default.igmpv3_unsolicited_report_interval'
p3844
I1000
sS'kernel.sched_domain.cpu9.domain1.wake_idx'
p3845
I0
sS'kernel.sched_domain.cpu40.domain1.max_newidle_lb_cost'
p3846
I20958
sS'kernel.sched_domain.cpu33.domain1.imbalance_pct'
p3847
I125
sS'CONFIG_GDB_SCRIPTS'
p3848
S'y'
sS'net.core.warnings'
p3849
I0
sS'CONFIG_CC_OPTIMIZE_FOR_PERFORMANCE'
p3850
S'y'
sS'net.ipv6.conf.default.accept_source_route'
p3851
I0
sS'kernel.sched_domain.cpu7.domain1.busy_factor'
p3852
I32
sS'kernel.sched_domain.cpu15.domain0.wake_idx'
p3853
I0
sS'kernel.sched_domain.cpu13.domain1.flags'
p3854
I25647
sS'net.ipv6.conf.all.mc_forwarding'
p3855
I0
sS'net.ipv6.conf.lo.mldv2_unsolicited_report_interval'
p3856
I1000
sS'kernel.sched_domain.cpu30.domain0.cache_nice_tries'
p3857
I1
sS'net.ipv6.conf.default.drop_unsolicited_na'
p3858
I0
sS'kernel.sched_domain.cpu29.domain0.cache_nice_tries'
p3859
I1
sS'CONFIG_SECURITY_NETWORK'
p3860
S'y'
sS'kernel.sched_domain.cpu21.domain0.flags'
p3861
I4143
sS'CONFIG_TRACER_SNAPSHOT'
p3862
S'y'
sS'net.core.message_cost'
p3863
I5
sS'net.ipv6.conf.all.router_solicitation_interval'
p3864
I4
sS'net.ipv6.neigh.lo.retrans_time_ms'
p3865
I1000
sS'vm.stat_interval'
p3866
I1
sS'CONFIG_CGROUP_CPUACCT'
p3867
S'y'
sS'CONFIG_INPUT_JOYSTICK'
p3868
S'y'
sS'kernel.sched_domain.cpu35.domain0.cache_nice_tries'
p3869
I1
sS'kernel.sched_domain.cpu38.domain0.min_interval'
p3870
I24
sS'net.ipv4.conf.all.igmpv2_unsolicited_report_interval'
p3871
I10000
sS'net.ipv4.conf.all.accept_local'
p3872
I0
sS'kernel.sched_domain.cpu36.domain1.max_interval'
p3873
I96
sS'CONFIG_MAC_EMUMOUSEBTN'
p3874
S'm'
sS'CONFIG_DW_DMAC_CORE'
p3875
S'y'
sS'CONFIG_HIBERNATION'
p3876
S'y'
sS'net.ipv4.udp_mem'
p3877
S'1536714\t2048952\t3073428'
p3878
sS'CONFIG_IMA_APPRAISE'
p3879
S'y'
sS'kernel.sched_domain.cpu41.domain1.busy_idx'
p3880
I3
sS'kernel.sched_domain.cpu6.domain1.idle_idx'
p3881
I2
sS'CONFIG_I8253_LOCK'
p3882
S'y'
sS'CONFIG_SND_JACK_INPUT_DEV'
p3883
S'y'
sS'CONFIG_INPUT_MOUSE'
p3884
S'y'
sS'kernel.sched_domain.cpu30.domain1.min_interval'
p3885
I48
sS'kernel.sched_domain.cpu7.domain1.wake_idx'
p3886
I0
sS'kernel.sched_domain.cpu32.domain1.min_interval'
p3887
I48
sS'CONFIG_MFD_WM8350_I2C'
p3888
S'y'
sS'net.ipv6.neigh.default.delay_first_probe_time'
p3889
I5
sS'CONFIG_CRYPTO_MD5'
p3890
S'y'
sS'kernel.sched_domain.cpu3.domain0.name'
p3891
S'DIE'
p3892
sS'kernel.sched_domain.cpu14.domain1.flags'
p3893
I25647
sS'kernel.sched_domain.cpu24.domain1.busy_idx'
p3894
I3
sS'CONFIG_USB_SUPPORT'
p3895
S'y'
sS'CONFIG_IOSF_MBI_DEBUG'
p3896
S'y'
sS'fs.leases-enable'
p3897
I1
sS'kernel.sched_domain.cpu28.domain0.forkexec_idx'
p3898
I0
sS'net.ipv6.conf.all.temp_prefered_lft'
p3899
I86400
sS'CONFIG_GENERIC_IO'
p3900
S'y'
sS'kernel.sched_domain.cpu22.domain1.busy_factor'
p3901
I32
sS'kernel.sched_domain.cpu47.domain1.wake_idx'
p3902
I0
sS'CONFIG_HAVE_IRQ_TIME_ACCOUNTING'
p3903
S'y'
sS'kernel.sched_domain.cpu4.domain0.cache_nice_tries'
p3904
I1
sS'CONFIG_AUDIT_ARCH'
p3905
S'y'
sS'kernel.sched_domain.cpu46.domain1.forkexec_idx'
p3906
I0
sS'fs.aio-nr'
p3907
I0
sS'CONFIG_THERMAL_HWMON'
p3908
S'y'
sS'net.ipv4.route.max_size'
p3909
I2147483647
sS'kernel.sched_domain.cpu46.domain0.imbalance_pct'
p3910
I125
sS'CONFIG_HZ'
p3911
I250
sS'kernel.sched_domain.cpu44.domain1.forkexec_idx'
p3912
I0
sS'CONFIG_X86_DEBUG_FPU'
p3913
S'y'
sS'CONFIG_MPILIB'
p3914
S'y'
sS'CONFIG_INTEGRITY_AUDIT'
p3915
S'y'
sS'CONFIG_GPIO_SYSFS'
p3916
S'y'
sS'CONFIG_KEXEC_CORE'
p3917
S'y'
sS'kernel.sched_domain.cpu9.domain0.forkexec_idx'
p3918
I0
sS'kernel.sched_domain.cpu6.domain1.imbalance_pct'
p3919
I125
sS'CONFIG_EFI'
p3920
S'y'
sS'kernel.sched_domain.cpu22.domain1.wake_idx'
p3921
I0
sS'CONFIG_NET_VENDOR_SMSC'
p3922
S'y'
sS'kernel.sched_domain.cpu0.domain1.idle_idx'
p3923
I2
sS'net.ipv6.conf.all.accept_redirects'
p3924
I1
sS'CONFIG_KEYS'
p3925
S'y'
sS'kernel.sched_domain.cpu6.domain1.min_interval'
p3926
I48
sS'kernel.sched_domain.cpu2.domain1.min_interval'
p3927
I48
sS'CONFIG_KVM_VFIO'
p3928
S'y'
sS'net.ipv4.conf.lo.disable_policy'
p3929
I1
sS'kernel.seccomp.actions_avail'
p3930
S'kill_process kill_thread trap errno trace log allow'
p3931
sS'CONFIG_MEMORY_HOTREMOVE'
p3932
S'y'
sS'kernel.sched_domain.cpu34.domain0.wake_idx'
p3933
I0
sS'CONFIG_SECURITY_TOMOYO_POLICY_LOADER'
p3934
S'"/sbin/tomoyo-init"'
p3935
sS'CONFIG_BINFMT_ELF'
p3936
S'y'
sS'net.ipv4.tcp_rfc1337'
p3937
I0
sS'kernel.sysrq'
p3938
I176
sS'CONFIG_TASK_IO_ACCOUNTING'
p3939
S'y'
sS'kernel.sched_domain.cpu36.domain0.max_newidle_lb_cost'
p3940
I115818
sS'CONFIG_DOUBLEFAULT'
p3941
S'y'
sS'net.ipv6.conf.lo.router_solicitation_max_interval'
p3942
I3600
sa(dp3943
g10
g11
sS'fstype'
p3944
S'tmpfs-separate'
p3945
sg3
(lp3946
S'FileSystem'
p3947
ag6
ag14
aS'object'
p3948
asg8
S'FileSystem.host-192.168.123.30.fstype-tmpfs-separate'
p3949
sa(dp3950
S'topDir'
p3951
S'~/vm-scalability/bench/tmp/linux-3.18'
p3952
sS'excludes'
p3953
(lp3954
S'*/.git'
p3955
asg10
g11
sg3
(lp3956
S'PrefetchDir'
p3957
ag6
ag14
aS'object'
p3958
asg8
S'PrefetchDir.topDir-~/vm-scalability/bench/tmp/linux-3.18.host-192.168.123.30'
p3959
sa(dp3960
g8
S'SetCPUs.host-192.168.123.30'
p3961
sS'seq'
p3962
g3962
sg10
g11
sS'hotplug'
p3963
I01
sg3
(lp3964
S'SetCPUs'
p3965
ag6
ag14
aS'object'
p3966
asS'num'
p3967
I48
sa(dp3968
g10
g11
sg3
(lp3969
S'SystemMonitor'
p3970
ag6
ag14
aS'object'
p3971
asg8
S'SystemMonitor.host-192.168.123.30'
p3972
sa(dp3973
S'real'
p3974
F26.544
sS'time.iowait'
p3975
F0.23000000000000001
sg8
S'GmakeLoad.trial-0.host-192.168.123.30'
p3976
sS'time.real'
p3977
F26.544
sS'time.idle'
p3978
F332.73200000000003
sS'time.sys'
p3979
F156.28
sg3
(lp3980
S'GmakeLoad'
p3981
ag6
aS'ResultsProvider'
p3982
ag14
aS'object'
p3983
asS'objPath'
p3984
S'/tmp/mosbench/tmpfs-separate/0'
p3985
sS'units'
p3986
S'builds'
p3987
sg10
g11
sS'result'
p3988
F1
sS'srcPath'
p3989
g3952
sS'cores'
p3990
I48
sS'time.steal'
p3991
F0.40999999999999998
sS'time.irq'
p3992
F0
sS'time.softirq'
p3993
F0.10000000000000001
sS'time.nice'
p3994
F0
sS'unit'
p3995
S'build'
p3996
sS'time.user'
p3997
F785.10000000000002
sa.