(lp1
(dp2
S'classNames'
p3
(lp4
S'ResultPath'
p5
aS'Task'
p6
aS'object'
p7
asS'name'
p8
g5
sa(dp9
S'host'
p10
S'192.168.123.30'
p11
sg3
(lp12
S'Host'
p13
ag6
aS'SourceFileProvider'
p14
aS'object'
p15
asg8
S'Host.host-192.168.123.30'
p16
sa(dp17
S'CONFIG_USB_OHCI_HCD_PLATFORM'
p18
S'y'
sS'CONFIG_DEFAULT_IO_DELAY_TYPE'
p19
I1
sS'CONFIG_DNS_RESOLVER'
p20
S'y'
sS'net.ipv6.conf.lo.suppress_frag_ndisc'
p21
I1
sS'CONFIG_GENERIC_STRNCPY_FROM_USER'
p22
S'y'
sS'net.netfilter.nf_log_all_netns'
p23
I0
sS'CONFIG_KVM_SCHEDACT'
p24
S'y'
sS'CONFIG_WLAN_VENDOR_RALINK'
p25
S'y'
sS'CONFIG_HAVE_DYNAMIC_FTRACE_WITH_REGS'
p26
S'y'
sS'net.ipv4.conf.all.tag'
p27
I0
sS'CONFIG_EVENT_TRACING'
p28
S'y'
sS'CONFIG_LIVEPATCH'
p29
S'y'
sS'CONFIG_LEDS_TRIGGER_CPU'
p30
S'y'
sS'CONFIG_PCIEPORTBUS'
p31
S'y'
sS'CONFIG_INIT_ENV_ARG_LIMIT'
p32
I32
sS'net.ipv6.conf.default.accept_ra_min_hop_limit'
p33
I1
sS'CONFIG_LEDS_CLASS'
p34
S'y'
sS'net.ipv4.neigh.default.proxy_qlen'
p35
I64
sS'CONFIG_PMC_ATOM'
p36
S'y'
sS'CONFIG_MANDATORY_FILE_LOCKING'
p37
S'y'
sS'fs.quota.free_dquots'
p38
I0
sS'CONFIG_PRINTK_NMI'
p39
S'y'
sS'CONFIG_NETDEVICES'
p40
S'y'
sS'CONFIG_HAVE_DYNAMIC_FTRACE'
p41
S'y'
sS'CONFIG_PINCTRL_SX150X'
p42
S'y'
sS'CONFIG_NET_SCHED'
p43
S'y'
sS'CONFIG_UNIXWARE_DISKLABEL'
p44
S'y'
sS'CONFIG_INLINE_WRITE_UNLOCK'
p45
S'y'
sS'CONFIG_ACPI_REV_OVERRIDE_POSSIBLE'
p46
S'y'
sS'CONFIG_HAVE_ARCH_AUDITSYSCALL'
p47
S'y'
sS'CONFIG_NET_VENDOR_RENESAS'
p48
S'y'
sS'CONFIG_FIRMWARE_EDID'
p49
S'y'
sS'CONFIG_CGROUPS'
p50
S'y'
sS'net.ipv6.conf.ens3.regen_max_retry'
p51
I3
sS'net.ipv4.conf.lo.medium_id'
p52
I0
sS'CONFIG_DEFAULT_MMAP_MIN_ADDR'
p53
I65536
sS'CONFIG_AIO'
p54
S'y'
sS'CONFIG_X86_DEBUGCTLMSR'
p55
S'y'
sS'CONFIG_ARCH_HIBERNATION_HEADER'
p56
S'y'
sS'net.ipv4.tcp_synack_retries'
p57
I5
sS'CONFIG_SECURITY_YAMA'
p58
S'y'
sS'CONFIG_CRYPTO_ECB'
p59
S'y'
sS'CONFIG_ACPI_HOTPLUG_MEMORY'
p60
S'y'
sS'net.ipv4.tcp_notsent_lowat'
p61
I4294967295
sS'CONFIG_HAVE_ARCH_WITHIN_STACK_FRAMES'
p62
S'y'
sS'CONFIG_FS_DAX_PMD'
p63
S'y'
sS'CONFIG_X86_LOCAL_APIC'
p64
S'y'
sS'CONFIG_MFD_SEC_CORE'
p65
S'y'
sS'CONFIG_GENERIC_CLOCKEVENTS_MIN_ADJUST'
p66
S'y'
sS'net.ipv6.conf.lo.accept_redirects'
p67
I1
sS'CONFIG_TASK_XACCT'
p68
S'y'
sS'CONFIG_KEXEC_BZIMAGE_VERIFY_SIG'
p69
S'y'
sS'CONFIG_EVENTFD'
p70
S'y'
sS'CONFIG_FTRACE_MCOUNT_RECORD'
p71
S'y'
sS'CONFIG_HAVE_PERF_EVENTS'
p72
S'y'
sS'CONFIG_SND_HDA_CORE'
p73
S'm'
sS'CONFIG_ARCH_SUPPORTS_UPROBES'
p74
S'y'
sS'CONFIG_PACKET'
p75
S'y'
sS'net.ipv6.conf.ens3.use_oif_addrs_only'
p76
I0
sS'net.ipv6.conf.all.router_solicitation_max_interval'
p77
I3600
sS'net.ipv4.neigh.lo.proxy_delay'
p78
I80
sS'CONFIG_PARPORT_PC'
p79
S'm'
sS'CONFIG_AGP'
p80
S'y'
sS'CONFIG_INPUT_JOYDEV'
p81
S'm'
sS'net.ipv6.conf.default.addr_gen_mode'
p82
I0
sS'kernel.hung_task_check_count'
p83
I4194304
sS'CONFIG_INFINIBAND_ADDR_TRANS'
p84
S'y'
sS'CONFIG_CRYPTO_SHA512'
p85
S'y'
sS'CONFIG_WLAN_VENDOR_INTERSIL'
p86
S'y'
sS'CONFIG_CRYPTO_NULL'
p87
S'y'
sS'CONFIG_VIRTIO_BALLOON'
p88
S'y'
sS'CONFIG_INTEGRITY_ASYMMETRIC_KEYS'
p89
S'y'
sS'CONFIG_TWL4030_CORE'
p90
S'y'
sS'CONFIG_FRAME_POINTER_UNWINDER'
p91
S'y'
sS'CONFIG_HAVE_IRQ_EXIT_ON_IRQ_STACK'
p92
S'y'
sS'CONFIG_MOUSE_PS2'
p93
S'm'
sS'CONFIG_EFI_PARTITION'
p94
S'y'
sS'CONFIG_NODES_SPAN_OTHER_NODES'
p95
S'y'
sS'CONFIG_FUNCTION_GRAPH_TRACER'
p96
S'y'
sS'net.ipv6.conf.all.seg6_enabled'
p97
I0
sS'CONFIG_IPV6_MROUTE'
p98
S'y'
sS'CONFIG_SCHED_HRTICK'
p99
S'y'
sS'net.ipv4.conf.default.disable_policy'
p100
I0
sS'CONFIG_FHANDLE'
p101
S'y'
sS'CONFIG_HAVE_FUNCTION_GRAPH_TRACER'
p102
S'y'
sS'CONFIG_FS_IOMAP'
p103
S'y'
sS'CONFIG_CRYPTO_ACOMP2'
p104
S'y'
sS'CONFIG_HAVE_KERNEL_LZMA'
p105
S'y'
sS'CONFIG_ARCH_HAS_DEBUG_VIRTUAL'
p106
S'y'
sS'net.ipv6.neigh.default.unres_qlen_bytes'
p107
I212992
sS'kernel.sem_next_id'
p108
S'-1'
p109
sS'kernel.random.write_wakeup_threshold'
p110
I896
sS'net.ipv6.conf.lo.use_oif_addrs_only'
p111
I0
sS'net.ipv6.conf.ens3.accept_ra_defrtr'
p112
I1
sS'net.ipv6.neigh.lo.proxy_qlen'
p113
I64
sS'net.ipv4.tcp_fastopen'
p114
I1
sS'CONFIG_CRYPTO_CRCT10DIF_PCLMUL'
p115
S'm'
sS'CONFIG_DEFAULT_IOSCHED'
p116
S'"deadline"'
p117
sS'CONFIG_FUSION_LOGGING'
p118
S'y'
sS'CONFIG_NET_PACKET_ENGINE'
p119
S'y'
sS'CONFIG_DQL'
p120
S'y'
sS'net.ipv6.conf.lo.force_tllao'
p121
I0
sS'CONFIG_IP_ADVANCED_ROUTER'
p122
S'y'
sS'CONFIG_SERIAL_SCCNXP_CONSOLE'
p123
S'y'
sS'CONFIG_MINIX_SUBPARTITION'
p124
S'y'
sS'CONFIG_NOP_USB_XCEIV'
p125
S'y'
sS'kernel.print-fatal-signals'
p126
I0
sS'CONFIG_INET'
p127
S'y'
sS'net.ipv4.tcp_probe_interval'
p128
I600
sS'CONFIG_EXTRA_FIRMWARE'
p129
S'""'
p130
sS'CONFIG_I2C_DESIGNWARE_CORE'
p131
S'y'
sS'net.ipv4.conf.lo.arp_accept'
p132
I0
sS'CONFIG_REGMAP_MMIO'
p133
S'y'
sS'CONFIG_SND_HDA_POWER_SAVE_DEFAULT'
p134
I0
sS'kernel.sched_domain.cpu0.domain0.cache_nice_tries'
p135
I1
sS'net.ipv6.conf.lo.forwarding'
p136
I0
sS'CONFIG_NET_VENDOR_SOLARFLARE'
p137
S'y'
sS'CONFIG_FIXED_PHY'
p138
S'y'
sS'net.ipv4.conf.default.shared_media'
p139
I1
sS'CONFIG_NET_VENDOR_TEHUTI'
p140
S'y'
sS'net.ipv6.conf.default.router_solicitations'
p141
S'-1'
p142
sS'CONFIG_MFD_DA9063'
p143
S'y'
sS'CONFIG_CRYPTO'
p144
S'y'
sS'CONFIG_WLAN_VENDOR_ZYDAS'
p145
S'y'
sS'CONFIG_STRICT_KERNEL_RWX'
p146
S'y'
sS'net.ipv6.mld_qrv'
p147
I2
sS'CONFIG_SND_HDA_PATCH_LOADER'
p148
S'y'
sS'net.ipv4.conf.all.disable_policy'
p149
I0
sS'CONFIG_CGROUP_SCHED'
p150
S'y'
sS'CONFIG_COMPAT_FOR_U64_ALIGNMENT'
p151
S'y'
sS'CONFIG_PPP_FILTER'
p152
S'y'
sS'CONFIG_CPU_FREQ'
p153
S'y'
sS'net.core.netdev_tstamp_prequeue'
p154
I1
sS'net.ipv6.conf.all.accept_dad'
p155
I1
sS'CONFIG_DCB'
p156
S'y'
sS'CONFIG_I2C_PIIX4'
p157
S'm'
sS'kernel.panic_on_oops'
p158
I0
sS'CONFIG_MEMORY_HOTPLUG'
p159
S'y'
sS'dev.cdrom.debug'
p160
I0
sS'CONFIG_MOUSE_PS2_SYNAPTICS'
p161
S'y'
sS'CONFIG_SECURITY_SELINUX'
p162
S'y'
sS'net.ipv6.conf.lo.max_addresses'
p163
I16
sS'CONFIG_PCI_PASID'
p164
S'y'
sS'CONFIG_SCSI_LOWLEVEL'
p165
S'y'
sS'CONFIG_GENERIC_MSI_IRQ'
p166
S'y'
sS'kernel.ngroups_max'
p167
I65536
sS'CONFIG_MTRR_SANITIZER'
p168
S'y'
sS'CONFIG_PM_DEVFREQ_EVENT'
p169
S'y'
sS'CONFIG_POWER_RESET_RESTART'
p170
S'y'
sS'kernel.max_lock_depth'
p171
I1024
sS'CONFIG_ZPOOL'
p172
S'y'
sS'CONFIG_PATA_SIS'
p173
S'y'
sS'CONFIG_MFD_TPS65910'
p174
S'y'
sS'CONFIG_ARCH_HAS_UACCESS_FLUSHCACHE'
p175
S'y'
sS'CONFIG_ARCH_WANT_GENERAL_HUGETLB'
p176
S'y'
sS'net.ipv6.conf.default.max_addresses'
p177
I16
sS'CONFIG_ARCH_WANT_OLD_COMPAT_IPC'
p178
S'y'
sS'CONFIG_CGROUP_WRITEBACK'
p179
S'y'
sS'CONFIG_X86_ACPI_CPUFREQ'
p180
S'y'
sS'CONFIG_DUMMY_CONSOLE'
p181
S'y'
sS'CONFIG_RWSEM_SPIN_ON_OWNER'
p182
S'y'
sS'CONFIG_SECURITY_APPARMOR_BOOTPARAM_VALUE'
p183
I1
sS'vm.dirtytime_expire_seconds'
p184
I43200
sS'net.ipv4.tcp_challenge_ack_limit'
p185
I1000
sS'CONFIG_HOTPLUG_PCI_ACPI'
p186
S'y'
sS'CONFIG_KARMA_PARTITION'
p187
S'y'
sS'CONFIG_INFINIBAND_ISER'
p188
S'm'
sS'net.ipv4.conf.ens3.igmpv3_unsolicited_report_interval'
p189
I1000
sS'CONFIG_CLZ_TAB'
p190
S'y'
sS'CONFIG_MODIFY_LDT_SYSCALL'
p191
S'y'
sS'CONFIG_X86_THERMAL_VECTOR'
p192
S'y'
sS'CONFIG_RCU_CPU_STALL_TIMEOUT'
p193
I60
sS'CONFIG_BACKLIGHT_CLASS_DEVICE'
p194
S'y'
sS'CONFIG_BOOTPARAM_SOFTLOCKUP_PANIC_VALUE'
p195
I0
sS'CONFIG_PM_WAKELOCKS'
p196
S'y'
sS'CONFIG_GPIOLIB_IRQCHIP'
p197
S'y'
sS'kernel.sched_domain.cpu1.domain0.idle_idx'
p198
I1
sS'CONFIG_WLAN'
p199
S'y'
sS'CONFIG_BLK_DEV_INTEGRITY'
p200
S'y'
sS'CONFIG_ARCH_HAS_HMM'
p201
S'y'
sS'CONFIG_SQUASHFS_FILE_DIRECT'
p202
S'y'
sS'CONFIG_NETWORK_FILESYSTEMS'
p203
S'y'
sS'CONFIG_SERIAL_8250_RSA'
p204
S'y'
sS'net.ipv4.tcp_min_tso_segs'
p205
I2
sS'CONFIG_SCHED_STACK_END_CHECK'
p206
S'y'
sS'net.ipv4.conf.lo.disable_xfrm'
p207
I1
sS'CONFIG_POWERCAP'
p208
S'y'
sS'CONFIG_UNUSED_SYMBOLS'
p209
S'y'
sS'CONFIG_INTEGRITY'
p210
S'y'
sS'fs.mqueue.msg_default'
p211
I10
sS'CONFIG_MD_LINEAR'
p212
S'm'
sS'net.ipv4.tcp_max_orphans'
p213
I262144
sS'CONFIG_MFD_MAX77843'
p214
S'y'
sS'CONFIG_CONSOLE_TRANSLATIONS'
p215
S'y'
sS'CONFIG_SLABINFO'
p216
S'y'
sS'kernel.perf_event_max_stack'
p217
I127
sS'CONFIG_PCI'
p218
S'y'
sS'CONFIG_GENERIC_MSI_IRQ_DOMAIN'
p219
S'y'
sS'CONFIG_NET_VENDOR_AGERE'
p220
S'y'
sS'CONFIG_SYSTEM_BLACKLIST_KEYRING'
p221
S'y'
sS'CONFIG_IP_ROUTE_MULTIPATH'
p222
S'y'
sS'CONFIG_SCHED_SMT'
p223
S'y'
sS'net.ipv4.tcp_adv_win_scale'
p224
I1
sS'CONFIG_INTEL_IDLE'
p225
S'y'
sS'CONFIG_ASYNC_CORE'
p226
S'm'
sS'net.ipv4.udp_rmem_min'
p227
I4096
sS'CONFIG_FIRMWARE_IN_KERNEL'
p228
S'y'
sS'CONFIG_GPIO_TPS65910'
p229
S'y'
sS'CONFIG_CRC_CCITT'
p230
S'y'
sS'CONFIG_PERSISTENT_KEYRINGS'
p231
S'y'
sS'CONFIG_MOUSE_PS2_LIFEBOOK'
p232
S'y'
sS'CONFIG_ARCH_WANT_COMPAT_IPC_PARSE_VERSION'
p233
S'y'
sS'net.ipv6.conf.default.accept_ra_rt_info_max_plen'
p234
I0
sS'CONFIG_ACPI_CPPC_LIB'
p235
S'y'
sS'CONFIG_ASYNC_RAID6_RECOV'
p236
S'm'
sS'net.ipv6.conf.default.ignore_routes_with_linkdown'
p237
I0
sS'net.ipv6.conf.lo.accept_ra_from_local'
p238
I0
sS'CONFIG_EXPORTFS'
p239
S'y'
sS'CONFIG_CRYPTO_CRC32_PCLMUL'
p240
S'm'
sS'CONFIG_INPUT'
p241
S'y'
sS'CONFIG_THERMAL_DEFAULT_GOV_STEP_WISE'
p242
S'y'
sS'fs.suid_dumpable'
p243
I2
sS'CONFIG_CPU_FREQ_GOV_PERFORMANCE'
p244
S'y'
sS'CONFIG_SERIAL_8250_DMA'
p245
S'y'
sS'CONFIG_SCHED_AUTOGROUP'
p246
S'y'
sS'net.core.optmem_max'
p247
I20480
sS'user.max_inotify_watches'
p248
I8192
sS'vm.nr_overcommit_hugepages'
p249
I0
sS'net.ipv6.conf.default.accept_ra_defrtr'
p250
I1
sS'net.ipv6.conf.default.accept_ra_rt_info_min_plen'
p251
I0
sS'CONFIG_DEBUG_INFO_DWARF4'
p252
S'y'
sS'CONFIG_NET_EMATCH'
p253
S'y'
sS'CONFIG_CPU_SUP_CENTAUR'
p254
S'y'
sS'CONFIG_PCI_QUIRKS'
p255
S'y'
sS'CONFIG_SERIAL_NONSTANDARD'
p256
S'y'
sS'user.max_uts_namespaces'
p257
I257592
sS'net.ipv6.route.gc_interval'
p258
I30
sS'CONFIG_VIRT_DRIVERS'
p259
S'y'
sS'net.ipv6.bindv6only'
p260
I0
sS'CONFIG_CNIC'
p261
S'm'
sS'CONFIG_SUN_PARTITION'
p262
S'y'
sS'net.ipv4.conf.all.drop_gratuitous_arp'
p263
I0
sS'CONFIG_PINCTRL'
p264
S'y'
sS'CONFIG_THERMAL_GOV_FAIR_SHARE'
p265
S'y'
sS'CONFIG_BLK_DEV_SD'
p266
S'y'
sS'net.ipv6.route.gc_min_interval_ms'
p267
I500
sS'CONFIG_IRQ_FORCED_THREADING'
p268
S'y'
sS'CONFIG_MTRR_SANITIZER_SPARE_REG_NR_DEFAULT'
p269
I1
sS'CONFIG_BLK_MQ_PCI'
p270
S'y'
sS'CONFIG_DEBUG_BUGVERBOSE'
p271
S'y'
sS'CONFIG_LSM_MMAP_MIN_ADDR'
p272
I0
sS'CONFIG_FS_MBCACHE'
p273
S'y'
sS'CONFIG_KVM_INTEL'
p274
S'm'
sS'net.ipv6.neigh.ens3.proxy_qlen'
p275
I64
sS'net.ipv6.conf.lo.ndisc_notify'
p276
I0
sS'CONFIG_USB'
p277
S'y'
sS'CONFIG_SND_DYNAMIC_MINORS'
p278
S'y'
sS'CONFIG_MD_RAID1'
p279
S'm'
sS'CONFIG_HAVE_SETUP_PER_CPU_AREA'
p280
S'y'
sS'user.max_net_namespaces'
p281
I257592
sS'CONFIG_LOG_CPU_MAX_BUF_SHIFT'
p282
I12
sS'vm.laptop_mode'
p283
I0
sS'CONFIG_SIGNED_PE_FILE_VERIFICATION'
p284
S'y'
sS'CONFIG_NET_VENDOR_CAVIUM'
p285
S'y'
sS'CONFIG_IMA_NG_TEMPLATE'
p286
S'y'
sS'CONFIG_CRYPTO_GCM'
p287
S'y'
sS'CONFIG_KEXEC'
p288
S'y'
sS'CONFIG_CRYPTO_DEV_PADLOCK'
p289
S'y'
sS'net.ipv4.conf.all.secure_redirects'
p290
I1
sS'CONFIG_HAVE_REGS_AND_STACK_ACCESS_API'
p291
S'y'
sS'CONFIG_FRAME_POINTER'
p292
S'y'
sS'CONFIG_DEVFREQ_GOV_SIMPLE_ONDEMAND'
p293
S'y'
sS'net.ipv4.conf.lo.igmpv2_unsolicited_report_interval'
p294
I10000
sS'CONFIG_TOUCHSCREEN_ELAN'
p295
S'y'
sS'net.ipv6.conf.ens3.accept_ra_mtu'
p296
I1
sS'CONFIG_INPUT_MISC'
p297
S'y'
sS'CONFIG_PARPORT_1284'
p298
S'y'
sS'net.ipv4.conf.all.force_igmp_version'
p299
I0
sS'CONFIG_UTS_NS'
p300
S'y'
sS'CONFIG_BRIDGE_IGMP_SNOOPING'
p301
S'y'
sS'CONFIG_MFD_MAX14577'
p302
S'y'
sS'net.ipv6.neigh.lo.mcast_resolicit'
p303
I0
sS'CONFIG_PREEMPT_NOTIFIERS'
p304
S'y'
sS'CONFIG_IO_DELAY_0XED'
p305
S'y'
sS'CONFIG_AGP_AMD64'
p306
S'y'
sS'CONFIG_WATCHDOG'
p307
S'y'
sS'CONFIG_MTRR'
p308
S'y'
sS'kernel.overflowgid'
p309
I65534
sS'CONFIG_CRYPTO_RNG_DEFAULT'
p310
S'y'
sS'CONFIG_X86_MCE'
p311
S'y'
sS'CONFIG_KALLSYMS_BASE_RELATIVE'
p312
S'y'
sS'CONFIG_ISA_DMA_API'
p313
S'y'
sS'CONFIG_ASYMMETRIC_PUBLIC_KEY_SUBTYPE'
p314
S'y'
sS'CONFIG_ELF_CORE'
p315
S'y'
sS'net.ipv6.neigh.lo.proxy_delay'
p316
I80
sS'net.ipv6.conf.lo.router_solicitations'
p317
S'-1'
p318
sS'kernel.ftrace_dump_on_oops'
p319
I0
sS'net.ipv4.conf.default.arp_filter'
p320
I0
sS'kernel.sched_autogroup_enabled'
p321
I1
sS'net.ipv6.neigh.default.unres_qlen'
p322
I101
sS'CONFIG_X86_MPPARSE'
p323
S'y'
sS'net.ipv6.neigh.lo.anycast_delay'
p324
I100
sS'CONFIG_USB_DYNAMIC_MINORS'
p325
S'y'
sS'CONFIG_ARCH_HAS_FORTIFY_SOURCE'
p326
S'y'
sS'CONFIG_SUSPEND_FREEZER'
p327
S'y'
sS'net.ipv4.icmp_ratemask'
p328
I6168
sS'CONFIG_SERIAL_8250_EXAR'
p329
S'y'
sS'kernel.hung_task_warnings'
p330
I10
sS'CONFIG_SYSTEM_BLACKLIST_HASH_LIST'
p331
S'""'
p332
sS'CONFIG_ARCH_MMAP_RND_BITS_MIN'
p333
I28
sS'CONFIG_EXPERT'
p334
S'y'
sS'net.ipv4.tcp_abort_on_overflow'
p335
I0
sS'CONFIG_WLAN_VENDOR_ATMEL'
p336
S'y'
sS'CONFIG_HAVE_MIXED_BREAKPOINTS_REGS'
p337
S'y'
sS'CONFIG_ARCH_ENABLE_THP_MIGRATION'
p338
S'y'
sS'CONFIG_SWIOTLB'
p339
S'y'
sS'kernel.sched_domain.cpu0.domain0.forkexec_idx'
p340
I0
sS'net.ipv4.conf.lo.bootp_relay'
p341
I0
sS'net.ipv6.neigh.default.app_solicit'
p342
I0
sS'CONFIG_SCSI_PROC_FS'
p343
S'y'
sS'CONFIG_RD_BZIP2'
p344
S'y'
sS'net.ipv6.conf.ens3.accept_ra_rt_info_min_plen'
p345
I0
sS'CONFIG_FDDI'
p346
S'y'
sS'CONFIG_XZ_DEC_SPARC'
p347
S'y'
sS'CONFIG_ACPI_SYSTEM_POWER_STATES_SUPPORT'
p348
S'y'
sS'CONFIG_MICROCODE_AMD'
p349
S'y'
sS'vm.nr_hugepages_mempolicy'
p350
I0
sS'CONFIG_CRYPTO_AEAD2'
p351
S'y'
sS'CONFIG_HPET_EMULATE_RTC'
p352
S'y'
sS'CONFIG_XOR_BLOCKS'
p353
S'm'
sS'kernel.sched_domain.cpu1.domain0.name'
p354
S'DIE'
p355
sS'CONFIG_REGULATOR'
p356
S'y'
sS'CONFIG_MAILBOX'
p357
S'y'
sS'CONFIG_CRYPTO_HW'
p358
S'y'
sS'CONFIG_DECOMPRESS_GZIP'
p359
S'y'
sS'CONFIG_OID_REGISTRY'
p360
S'y'
sS'net.ipv6.conf.lo.regen_max_retry'
p361
I3
sS'net.ipv6.conf.default.proxy_ndp'
p362
I0
sS'CONFIG_MEMTEST'
p363
S'y'
sS'net.ipv4.ip_unprivileged_port_start'
p364
I1024
sS'net.ipv6.neigh.lo.app_solicit'
p365
I0
sS'CONFIG_PCI_BUS_ADDR_T_64BIT'
p366
S'y'
sS'CONFIG_VGA_SWITCHEROO'
p367
S'y'
sS'CONFIG_XZ_DEC_IA64'
p368
S'y'
sS'CONFIG_WLAN_VENDOR_MARVELL'
p369
S'y'
sS'CONFIG_ARCH_USE_QUEUED_SPINLOCKS'
p370
S'y'
sS'CONFIG_IPV6_SUBTREES'
p371
S'y'
sS'CONFIG_NET_EMATCH_STACK'
p372
I32
sS'net.ipv4.tcp_rmem'
p373
S'4096\t87380\t6291456'
p374
sS'CONFIG_CRYPTO_GF128MUL'
p375
S'y'
sS'net.ipv6.conf.lo.enhanced_dad'
p376
I1
sS'CONFIG_GPIOLIB'
p377
S'y'
sS'CONFIG_NET_VENDOR_SIS'
p378
S'y'
sS'vm.panic_on_oom'
p379
I0
sS'CONFIG_USER_STACKTRACE_SUPPORT'
p380
S'y'
sS'net.ipv4.neigh.ens3.app_solicit'
p381
I0
sS'CONFIG_HAVE_KVM_IRQ_BYPASS'
p382
S'y'
sS'CONFIG_ARCH_DISCARD_MEMBLOCK'
p383
S'y'
sS'net.ipv6.conf.default.suppress_frag_ndisc'
p384
I1
sS'fs.inotify.max_user_instances'
p385
I1024
sS'CONFIG_SYSCTL'
p386
S'y'
sS'net.ipv4.icmp_ignore_bogus_error_responses'
p387
I1
sS'CONFIG_HAVE_FENTRY'
p388
S'y'
sS'CONFIG_KRETPROBES'
p389
S'y'
sS'fs.quota.syncs'
p390
I0
sS'CONFIG_SECURITY_SMACK_NETFILTER'
p391
S'y'
sS'net.ipv6.neigh.ens3.delay_first_probe_time'
p392
I5
sS'kernel.stack_tracer_enabled'
p393
I0
sS'net.ipv4.conf.lo.arp_notify'
p394
I0
sS'kernel.sched_domain.cpu0.domain0.flags'
p395
I4143
sS'CONFIG_CRYPTO_DRBG_HMAC'
p396
S'y'
sS'CONFIG_MAC_PARTITION'
p397
S'y'
sS'CONFIG_MISC_FILESYSTEMS'
p398
S'y'
sS'abi.vsyscall32'
p399
I1
sS'net.ipv4.route.error_cost'
p400
I250
sS'CONFIG_CRYPTO_SKEIN'
p401
S'y'
sS'net.ipv6.conf.all.suppress_frag_ndisc'
p402
I1
sS'CONFIG_GENERIC_PCI_IOMAP'
p403
S'y'
sS'CONFIG_SND_HDA_INPUT_BEEP_MODE'
p404
I0
sS'CONFIG_DEBUG_KERNEL'
p405
S'y'
sS'net.ipv4.igmp_qrv'
p406
I2
sS'kernel.version'
p407
S'#3 SMP Tue Mar 13 14:28:42 EDT 2018'
p408
sS'CONFIG_MODULE_SIG_SHA512'
p409
S'y'
sS'CONFIG_CHELSIO_T3'
p410
S'm'
sS'CONFIG_SECTION_MISMATCH_WARN_ONLY'
p411
S'y'
sS'user.max_mnt_namespaces'
p412
I257592
sS'net.core.wmem_max'
p413
I212992
sS'vm.swappiness'
p414
I60
sS'vm.zone_reclaim_mode'
p415
I0
sS'net.ipv4.tcp_l3mdev_accept'
p416
I0
sS'CONFIG_SBITMAP'
p417
S'y'
sS'net.ipv4.cipso_cache_bucket_size'
p418
I10
sS'net.ipv4.ipfrag_low_thresh'
p419
I3145728
sS'net.ipv4.route.mtu_expires'
p420
I600
sS'CONFIG_KPROBE_EVENTS'
p421
S'y'
sS'net.ipv6.conf.default.drop_unicast_in_l2_multicast'
p422
I0
sS'CONFIG_USB_EHCI_TT_NEWSCHED'
p423
S'y'
sS'CONFIG_X86_16BIT'
p424
S'y'
sS'net.ipv6.conf.ens3.force_mld_version'
p425
I0
sS'net.iw_cm.default_backlog'
p426
I256
sS'CONFIG_CRYPTO_CTR'
p427
S'y'
sS'CONFIG_CRC32_SLICEBY8'
p428
S'y'
sS'net.ipv4.tcp_reordering'
p429
I3
sS'CONFIG_NET'
p430
S'y'
sS'CONFIG_BLK_MQ_RDMA'
p431
S'y'
sS'CONFIG_HAS_DMA'
p432
S'y'
sS'kernel.random.uuid'
p433
S'09a591b6-9614-4810-a751-a21ebe11ec9e'
p434
sS'CONFIG_SOUND_OSS_CORE'
p435
S'y'
sS'net.ipv4.conf.lo.secure_redirects'
p436
I1
sS'fs.overflowgid'
p437
I65534
sS'net.ipv4.tcp_dsack'
p438
I1
sS'CONFIG_CPU_SUP_INTEL'
p439
S'y'
sS'CONFIG_TRANSPARENT_HUGEPAGE'
p440
S'y'
sS'CONFIG_SCSI_ISCSI_ATTRS'
p441
S'm'
sS'CONFIG_MQ_IOSCHED_DEADLINE'
p442
S'y'
sS'CONFIG_CRYPTO_HMAC'
p443
S'y'
sS'CONFIG_EFI'
p444
S'y'
sS'CONFIG_VT_CONSOLE'
p445
S'y'
sS'kernel.acpi_video_flags'
p446
I0
sS'net.ipv6.conf.lo.router_solicitation_max_interval'
p447
I3600
sS'CONFIG_VGA_ARB_MAX_GPUS'
p448
I16
sS'CONFIG_BUILDTIME_EXTABLE_SORT'
p449
S'y'
sS'CONFIG_KEXEC_JUMP'
p450
S'y'
sS'net.ipv4.tcp_autocorking'
p451
I1
sS'CONFIG_GENERIC_SMP_IDLE_THREAD'
p452
S'y'
sS'dev.cdrom.lock'
p453
I1
sS'CONFIG_HAVE_HW_BREAKPOINT'
p454
S'y'
sS'CONFIG_MACINTOSH_DRIVERS'
p455
S'y'
sS'CONFIG_ISDN'
p456
S'y'
sS'CONFIG_MFD_CORE'
p457
S'y'
sS'CONFIG_ACPI_FAN'
p458
S'y'
sS'net.ipv4.conf.lo.src_valid_mark'
p459
I0
sS'CONFIG_AIX_PARTITION'
p460
S'y'
sS'kernel.sched_domain.cpu1.domain0.cache_nice_tries'
p461
I1
sS'CONFIG_MD_RAID456'
p462
S'm'
sS'net.ipv4.conf.ens3.arp_ignore'
p463
I0
sS'CONFIG_TICK_CPU_ACCOUNTING'
p464
S'y'
sS'CONFIG_MFD_TPS65090'
p465
S'y'
sS'CONFIG_SFI'
p466
S'y'
sS'fs.inode-nr'
p467
S'2725000\t508'
p468
sS'CONFIG_NET_SCH_FIFO'
p469
S'y'
sS'net.core.netdev_rss_key'
p470
S'00:00:00:00:00:00:00:00:00:00:00:00:00:00:00:00:00:00:00:00:00:00:00:00:00:00:00:00:00:00:00:00:00:00:00:00:00:00:00:00:00:00:00:00:00:00:00:00:00:00:00:00'
p471
sS'net.ipv4.conf.default.igmpv2_unsolicited_report_interval'
p472
I10000
sS'CONFIG_SYSFS_SYSCALL'
p473
S'y'
sS'CONFIG_RWSEM_XCHGADD_ALGORITHM'
p474
S'y'
sS'CONFIG_SYN_COOKIES'
p475
S'y'
sS'CONFIG_GENERIC_CMOS_UPDATE'
p476
S'y'
sS'net.ipv4.tcp_max_tw_buckets'
p477
I262144
sS'CONFIG_SERIAL_8250_EXTENDED'
p478
S'y'
sS'kernel.sched_domain.cpu0.domain0.max_newidle_lb_cost'
p479
I6129
sS'CONFIG_NET_VENDOR_ADAPTEC'
p480
S'y'
sS'CONFIG_EPOLL'
p481
S'y'
sS'CONFIG_LEGACY_VSYSCALL_EMULATE'
p482
S'y'
sS'kernel.panic'
p483
I0
sS'CONFIG_FAT_DEFAULT_CODEPAGE'
p484
I437
sS'CONFIG_X86_SUPPORTS_MEMORY_FAILURE'
p485
S'y'
sS'CONFIG_CALGARY_IOMMU_ENABLED_BY_DEFAULT'
p486
S'y'
sS'CONFIG_BLK_DEV_SR'
p487
S'y'
sS'CONFIG_SECURITY_SELINUX_DISABLE'
p488
S'y'
sS'CONFIG_NET_VENDOR_REALTEK'
p489
S'y'
sS'CONFIG_FAT_DEFAULT_IOCHARSET'
p490
S'"iso8859-1"'
p491
sS'net.ipv6.route.min_adv_mss'
p492
I1220
sS'CONFIG_IP_ROUTE_VERBOSE'
p493
S'y'
sS'CONFIG_MOUSE_PS2_LOGIPS2PP'
p494
S'y'
sS'net.ipv4.conf.ens3.arp_filter'
p495
I0
sS'CONFIG_USB_OHCI_HCD'
p496
S'y'
sS'CONFIG_VIRTIO_CONSOLE'
p497
S'y'
sS'net.ipv6.ip6frag_low_thresh'
p498
I3145728
sS'CONFIG_BSD_DISKLABEL'
p499
S'y'
sS'net.core.flow_limit_cpu_bitmap'
p500
S'0000000,00000000,00000000,00000000'
p501
sS'CONFIG_SECURITY_WRITABLE_HOOKS'
p502
S'y'
sS'CONFIG_NVM'
p503
S'y'
sS'net.ipv6.conf.ens3.accept_dad'
p504
I1
sS'CONFIG_HAVE_HARDENED_USERCOPY_ALLOCATOR'
p505
S'y'
sS'fs.quota.allocated_dquots'
p506
I0
sS'CONFIG_X509_CERTIFICATE_PARSER'
p507
S'y'
sS'CONFIG_CGROUP_HUGETLB'
p508
S'y'
sS'net.ipv4.ip_forward_use_pmtu'
p509
I0
sS'net.ipv4.conf.lo.send_redirects'
p510
I1
sS'net.ipv6.conf.all.proxy_ndp'
p511
I0
sS'CONFIG_OPTPROBES'
p512
S'y'
sS'net.ipv4.tcp_pacing_ss_ratio'
p513
I200
sS'kernel.keys.persistent_keyring_expiry'
p514
I259200
sS'CONFIG_MD'
p515
S'y'
sS'CONFIG_DETECT_HUNG_TASK'
p516
S'y'
sS'CONFIG_DMI'
p517
S'y'
sS'CONFIG_INTEL_IOMMU_SVM'
p518
S'y'
sS'CONFIG_FB_CMDLINE'
p519
S'y'
sS'CONFIG_BQL'
p520
S'y'
sS'net.ipv4.tcp_ecn'
p521
I2
sS'CONFIG_RANDOMIZE_BASE'
p522
S'y'
sS'net.ipv6.neigh.default.gc_interval'
p523
I30
sS'kernel.sched_domain.cpu0.domain0.busy_idx'
p524
I2
sS'CONFIG_DUMMY_CONSOLE_ROWS'
p525
I25
sS'CONFIG_HT_IRQ'
p526
S'y'
sS'CONFIG_NET_VENDOR_ATHEROS'
p527
S'y'
sS'net.ipv6.neigh.ens3.unres_qlen_bytes'
p528
I212992
sS'kernel.panic_on_io_nmi'
p529
I0
sS'CONFIG_SERIAL_8250_CONSOLE'
p530
S'y'
sS'CONFIG_HAVE_ARCH_MMAP_RND_COMPAT_BITS'
p531
S'y'
sS'CONFIG_NVDIMM_PFN'
p532
S'y'
sS'net.ipv4.neigh.default.anycast_delay'
p533
I100
sS'CONFIG_MMC'
p534
S'y'
sS'CONFIG_SERIAL_CORE'
p535
S'y'
sS'CONFIG_BRIDGE_EBT_T_FILTER'
p536
S'm'
sS'net.ipv6.idgen_delay'
p537
I1
sS'CONFIG_TRACING_EVENTS_GPIO'
p538
S'y'
sS'CONFIG_MMU'
p539
S'y'
sS'CONFIG_HAVE_KERNEL_XZ'
p540
S'y'
sS'CONFIG_MFD_DA9052_SPI'
p541
S'y'
sS'CONFIG_USE_PERCPU_NUMA_NODE_ID'
p542
S'y'
sS'CONFIG_NET_INGRESS'
p543
S'y'
sS'CONFIG_HAVE_ARCH_KASAN'
p544
S'y'
sS'net.ipv6.conf.ens3.disable_ipv6'
p545
I0
sS'kernel.msgmax'
p546
I8192
sS'CONFIG_ARCH_ENABLE_HUGEPAGE_MIGRATION'
p547
S'y'
sS'CONFIG_WIRELESS'
p548
S'y'
sS'CONFIG_CHARGER_MANAGER'
p549
S'y'
sS'CONFIG_ARCH_HAS_UBSAN_SANITIZE_ALL'
p550
S'y'
sS'net.ipv4.conf.ens3.medium_id'
p551
I0
sS'CONFIG_SYSVIPC'
p552
S'y'
sS'net.ipv6.neigh.ens3.ucast_solicit'
p553
I3
sS'CONFIG_PARPORT_PC_FIFO'
p554
S'y'
sS'CONFIG_RD_XZ'
p555
S'y'
sS'CONFIG_CONNECTOR'
p556
S'y'
sS'net.ipv4.conf.default.arp_accept'
p557
I0
sS'net.ipv4.udp_early_demux'
p558
I1
sS'CONFIG_MFD_88PM860X'
p559
S'y'
sS'kernel.numa_balancing_scan_period_max_ms'
p560
I60000
sS'CONFIG_MODVERSIONS'
p561
S'y'
sS'kernel.sched_migration_cost_ns'
p562
I500000
sS'CONFIG_HAVE_INTEL_TXT'
p563
S'y'
sS'net.ipv6.conf.lo.drop_unsolicited_na'
p564
I0
sS'CONFIG_OLD_SIGSUSPEND3'
p565
S'y'
sS'net.ipv6.neigh.default.gc_thresh1'
p566
I128
sS'dev.mac_hid.mouse_button2_keycode'
p567
I97
sS'CONFIG_DUMMY_CONSOLE_COLUMNS'
p568
I80
sS'CONFIG_ARCH_HAS_FAST_MULTIPLIER'
p569
S'y'
sS'net.ipv4.route.error_burst'
p570
I1250
sS'CONFIG_NET_VENDOR_ARC'
p571
S'y'
sS'net.ipv6.conf.all.keep_addr_on_down'
p572
I0
sS'CONFIG_BLK_CMDLINE_PARSER'
p573
S'y'
sS'CONFIG_EDAC_ATOMIC_SCRUB'
p574
S'y'
sS'CONFIG_TRUSTED_KEYS'
p575
S'y'
sS'CONFIG_PWM_SYSFS'
p576
S'y'
sS'CONFIG_AUDITSYSCALL'
p577
S'y'
sS'net.ipv6.conf.lo.proxy_ndp'
p578
I0
sS'CONFIG_HAVE_KVM_EVENTFD'
p579
S'y'
sS'CONFIG_HAVE_ARCH_KMEMCHECK'
p580
S'y'
sS'CONFIG_PM_DEVFREQ'
p581
S'y'
sS'CONFIG_UID16'
p582
S'y'
sS'CONFIG_ACPI_SLEEP'
p583
S'y'
sS'CONFIG_KSM'
p584
S'y'
sS'CONFIG_SND_SUPPORT_OLD_API'
p585
S'y'
sS'net.ipv4.conf.lo.accept_redirects'
p586
I1
sS'net.ipv6.conf.all.max_addresses'
p587
I16
sS'CONFIG_SCHED_MC_PRIO'
p588
S'y'
sS'net.ipv6.conf.all.accept_ra_from_local'
p589
I0
sS'CONFIG_RTC_HCTOSYS'
p590
S'y'
sS'kernel.softlockup_panic'
p591
I0
sS'CONFIG_RTC_I2C_AND_SPI'
p592
S'y'
sS'CONFIG_USB_EHCI_HCD'
p593
S'y'
sS'CONFIG_CHROME_PLATFORMS'
p594
S'y'
sS'CONFIG_HAVE_ARCH_KGDB'
p595
S'y'
sS'CONFIG_IO_DELAY_TYPE_0XED'
p596
I1
sS'net.ipv6.conf.ens3.drop_unicast_in_l2_multicast'
p597
I0
sS'net.ipv6.conf.default.force_mld_version'
p598
I0
sS'net.ipv4.ip_no_pmtu_disc'
p599
I0
sS'CONFIG_WLAN_VENDOR_MEDIATEK'
p600
S'y'
sS'vm.dirty_writeback_centisecs'
p601
I500
sS'net.ipv4.conf.all.send_redirects'
p602
I1
sS'CONFIG_SCSI_CXGB3_ISCSI'
p603
S'm'
sS'net.ipv6.conf.lo.accept_ra'
p604
I1
sS'CONFIG_ARCH_SUPPORTS_OPTIMIZED_INLINING'
p605
S'y'
sS'net.ipv4.conf.default.proxy_arp_pvlan'
p606
I0
sS'CONFIG_PM_STD_PARTITION'
p607
S'""'
p608
sS'net.ipv4.conf.ens3.secure_redirects'
p609
I1
sS'CONFIG_ULTRIX_PARTITION'
p610
S'y'
sS'CONFIG_HAVE_NMI'
p611
S'y'
sS'net.ipv6.conf.ens3.seg6_enabled'
p612
I0
sS'fs.mqueue.msgsize_max'
p613
I8192
sS'CONFIG_HAS_IOMEM'
p614
S'y'
sS'net.ipv4.conf.all.forwarding'
p615
I0
sS'CONFIG_USB_DEFAULT_PERSIST'
p616
S'y'
sS'CONFIG_NEW_LEDS'
p617
S'y'
sS'CONFIG_DMI_SCAN_MACHINE_NON_EFI_FALLBACK'
p618
S'y'
sS'kernel.perf_event_paranoid'
p619
I2
sS'net.ipv6.conf.all.mtu'
p620
I1280
sS'net.ipv6.neigh.default.base_reachable_time_ms'
p621
I30000
sS'kernel.perf_event_mlock_kb'
p622
I516
sS'vm.block_dump'
p623
I0
sS'net.ipv4.tcp_keepalive_intvl'
p624
I75
sS'net.ipv4.conf.all.igmpv3_unsolicited_report_interval'
p625
I1000
sS'net.ipv4.conf.default.send_redirects'
p626
I1
sS'net.ipv6.conf.default.disable_ipv6'
p627
I0
sS'CONFIG_MD_RAID0'
p628
S'm'
sS'CONFIG_DW_DMAC_PCI'
p629
S'y'
sS'kernel.sched_domain.cpu0.domain0.imbalance_pct'
p630
I125
sS'net.ipv6.conf.lo.hop_limit'
p631
I64
sS'net.ipv4.conf.all.arp_accept'
p632
I0
sS'CONFIG_BINARY_PRINTF'
p633
S'y'
sS'CONFIG_TRACER_MAX_TRACE'
p634
S'y'
sS'kernel.msgmnb'
p635
I16384
sS'CONFIG_IRQ_BYPASS_MANAGER'
p636
S'm'
sS'CONFIG_IP_PIMSM_V1'
p637
S'y'
sS'CONFIG_IP_PIMSM_V2'
p638
S'y'
sS'kernel.soft_watchdog'
p639
I1
sS'CONFIG_USB_LED_TRIG'
p640
S'y'
sS'CONFIG_QUEUED_SPINLOCKS'
p641
S'y'
sS'net.ipv4.conf.lo.rp_filter'
p642
I0
sS'CONFIG_X86_INTEL_MPX'
p643
S'y'
sS'CONFIG_X86_ACPI_CPUFREQ_CPB'
p644
S'y'
sS'net.ipv6.conf.default.mc_forwarding'
p645
I0
sS'kernel.threads-max'
p646
I515185
sS'kernel.overflowuid'
p647
I65534
sS'net.ipv4.conf.default.arp_announce'
p648
I0
sS'CONFIG_ACPI_DOCK'
p649
S'y'
sS'CONFIG_X86_INTEL_MEMORY_PROTECTION_KEYS'
p650
S'y'
sS'net.ipv4.neigh.ens3.base_reachable_time_ms'
p651
I30000
sS'CONFIG_SCHED_MC'
p652
S'y'
sS'CONFIG_ARCH_HAS_MEM_ENCRYPT'
p653
S'y'
sS'CONFIG_BOUNCE'
p654
S'y'
sS'CONFIG_VIRT_TO_BUS'
p655
S'y'
sS'kernel.keys.gc_delay'
p656
I300
sS'CONFIG_HAVE_ARCH_TRANSPARENT_HUGEPAGE_PUD'
p657
S'y'
sS'kernel.hung_task_timeout_secs'
p658
I120
sS'CONFIG_X86_MINIMUM_CPU_FAMILY'
p659
I64
sS'CONFIG_CRYPTO_KPP2'
p660
S'y'
sS'CONFIG_SQUASHFS_ZLIB'
p661
S'y'
sS'CONFIG_X86_PLATFORM_DEVICES'
p662
S'y'
sS'CONFIG_CONTEXT_SWITCH_TRACER'
p663
S'y'
sS'net.ipv4.conf.default.accept_source_route'
p664
I1
sS'kernel.core_pipe_limit'
p665
I0
sS'kernel.timer_migration'
p666
I1
sS'CONFIG_PERF_EVENTS_INTEL_RAPL'
p667
S'y'
sS'CONFIG_HAVE_PERF_USER_STACK_DUMP'
p668
S'y'
sS'CONFIG_SERIAL_SCCNXP'
p669
S'y'
sS'CONFIG_EFI_RUNTIME_MAP'
p670
S'y'
sS'CONFIG_ARCH_HAS_GCOV_PROFILE_ALL'
p671
S'y'
sS'CONFIG_NET_TULIP'
p672
S'y'
sS'CONFIG_MDIO_BUS'
p673
S'y'
sS'CONFIG_BPF_SYSCALL'
p674
S'y'
sS'net.ipv6.conf.default.accept_ra_pinfo'
p675
I1
sS'CONFIG_KVM_COMPAT'
p676
S'y'
sS'CONFIG_VIRTIO_PCI_LEGACY'
p677
S'y'
sS'CONFIG_SATA_ZPODD'
p678
S'y'
sS'CONFIG_WLAN_VENDOR_QUANTENNA'
p679
S'y'
sS'CONFIG_CRYPTO_DEV_CCP'
p680
S'y'
sS'CONFIG_HAVE_EFFICIENT_UNALIGNED_ACCESS'
p681
S'y'
sS'CONFIG_USB_ANNOUNCE_NEW_DEVICES'
p682
S'y'
sS'CONFIG_AUTOFS4_FS'
p683
S'm'
sS'CONFIG_STAGING'
p684
S'y'
sS'net.ipv6.conf.default.router_probe_interval'
p685
I60
sS'CONFIG_IPV6_MROUTE_MULTIPLE_TABLES'
p686
S'y'
sS'CONFIG_NET_VENDOR_STMICRO'
p687
S'y'
sS'CONFIG_NUMA_BALANCING_DEFAULT_ENABLED'
p688
S'y'
sS'CONFIG_RD_LZ4'
p689
S'y'
sS'net.ipv6.conf.all.accept_ra_rt_info_max_plen'
p690
I0
sS'CONFIG_X86_DEV_DMA_OPS'
p691
S'y'
sS'CONFIG_PCI_ATS'
p692
S'y'
sS'CONFIG_RD_LZO'
p693
S'y'
sS'net.ipv4.tcp_ecn_fallback'
p694
I1
sS'CONFIG_BLK_DEV'
p695
S'y'
sS'CONFIG_HARDLOCKUP_CHECK_TIMESTAMP'
p696
S'y'
sS'CONFIG_SQUASHFS_XZ'
p697
S'y'
sS'CONFIG_MDIO_DEVICE'
p698
S'y'
sS'CONFIG_GPIO_RC5T583'
p699
S'y'
sS'net.ipv4.tcp_moderate_rcvbuf'
p700
I1
sS'CONFIG_ACPI_CONTAINER'
p701
S'y'
sS'CONFIG_ATA_BMDMA'
p702
S'y'
sS'net.ipv4.tcp_min_rtt_wlen'
p703
I300
sS'net.ipv6.fwmark_reflect'
p704
I0
sS'CONFIG_MOUSE_PS2_VMMOUSE'
p705
S'y'
sS'CONFIG_RTC_CLASS'
p706
S'y'
sS'CONFIG_SECURITY_APPARMOR'
p707
S'y'
sS'CONFIG_WATCHDOG_CORE'
p708
S'y'
sS'CONFIG_SERIAL_KGDB_NMI'
p709
S'y'
sS'CONFIG_INSTRUCTION_DECODER'
p710
S'y'
sS'net.ipv6.neigh.ens3.proxy_delay'
p711
I80
sS'CONFIG_SOC_TI'
p712
S'y'
sS'CONFIG_MFD_TPS80031'
p713
S'y'
sS'net.ipv6.conf.lo.router_probe_interval'
p714
I60
sS'CONFIG_MEMCG'
p715
S'y'
sS'net.ipv6.conf.default.accept_redirects'
p716
I1
sS'CONFIG_SCSI_SCAN_ASYNC'
p717
S'y'
sS'net.core.busy_poll'
p718
I0
sS'CONFIG_IOSCHED_CFQ'
p719
S'y'
sS'CONFIG_MEMBARRIER'
p720
S'y'
sS'net.ipv6.conf.all.mldv1_unsolicited_report_interval'
p721
I10000
sS'CONFIG_BLK_DEV_DM'
p722
S'y'
sS'CONFIG_DEFAULT_HUNG_TASK_TIMEOUT'
p723
I120
sS'net.ipv6.conf.default.regen_max_retry'
p724
I3
sS'CONFIG_SND_PCI'
p725
S'y'
sS'CONFIG_GENERIC_CPU'
p726
S'y'
sS'net.ipv4.conf.default.accept_local'
p727
I0
sS'net.ipv6.conf.default.forwarding'
p728
I0
sS'net.core.dev_weight_rx_bias'
p729
I1
sS'CONFIG_CPU_SUP_AMD'
p730
S'y'
sS'CONFIG_GENERIC_FIND_FIRST_BIT'
p731
S'y'
sS'CONFIG_HAVE_USER_RETURN_NOTIFIER'
p732
S'y'
sS'kernel.core_pattern'
p733
S'|/usr/share/apport/apport %p %s %c %d %P'
p734
sS'kernel.perf_event_max_sample_rate'
p735
I100000
sS'CONFIG_SCSI'
p736
S'y'
sS'CONFIG_KPROBES'
p737
S'y'
sS'CONFIG_HAVE_GCC_PLUGINS'
p738
S'y'
sS'CONFIG_GENERIC_EARLY_IOREMAP'
p739
S'y'
sS'kernel.random.poolsize'
p740
I4096
sS'CONFIG_GLOB'
p741
S'y'
sS'CONFIG_ZBUD'
p742
S'y'
sS'CONFIG_ARCH_MMAP_RND_BITS_MAX'
p743
I32
sS'net.ipv6.conf.lo.force_mld_version'
p744
I0
sS'CONFIG_NUMA_BALANCING'
p745
S'y'
sS'net.ipv4.conf.ens3.accept_redirects'
p746
I1
sS'kernel.sched_domain.cpu1.domain0.busy_factor'
p747
I32
sS'CONFIG_EDD_OFF'
p748
S'y'
sS'CONFIG_THERMAL'
p749
S'y'
sS'CONFIG_BPF'
p750
S'y'
sS'CONFIG_HUGETLBFS'
p751
S'y'
sS'net.ipv4.tcp_frto'
p752
I2
sS'CONFIG_ETHERNET'
p753
S'y'
sS'net.ipv4.tcp_probe_threshold'
p754
I8
sS'CONFIG_CPU_IDLE'
p755
S'y'
sS'net.ipv4.conf.default.forwarding'
p756
I0
sS'CONFIG_DECOMPRESS_BZIP2'
p757
S'y'
sS'net.ipv6.conf.default.accept_ra_rtr_pref'
p758
I1
sS'net.ipv4.neigh.lo.delay_first_probe_time'
p759
I5
sS'net.ipv6.conf.ens3.force_tllao'
p760
I0
sS'CONFIG_AB3100_CORE'
p761
S'y'
sS'CONFIG_PM'
p762
S'y'
sS'CONFIG_FAIR_GROUP_SCHED'
p763
S'y'
sS'CONFIG_HAVE_ARCH_HUGE_VMAP'
p764
S'y'
sS'net.ipv4.ip_forward'
p765
I0
sS'CONFIG_COMPAT_32'
p766
S'y'
sS'kernel.sched_domain.cpu0.domain0.name'
p767
S'DIE'
p768
sS'CONFIG_SUSPEND'
p769
S'y'
sS'CONFIG_NETFILTER_ADVANCED'
p770
S'y'
sS'CONFIG_RANDOMIZE_MEMORY'
p771
S'y'
sS'net.ipv6.conf.default.accept_ra_from_local'
p772
I0
sS'CONFIG_WLAN_VENDOR_REALTEK'
p773
S'y'
sS'CONFIG_PCIE_PME'
p774
S'y'
sS'net.ipv6.conf.ens3.accept_ra_rt_info_max_plen'
p775
I0
sS'net.core.flow_limit_table_len'
p776
I4096
sS'CONFIG_MFD_TPS65912_I2C'
p777
S'y'
sS'CONFIG_MOUSE_PS2_SYNAPTICS_SMBUS'
p778
S'y'
sS'CONFIG_ZONE_DMA'
p779
S'y'
sS'net.core.max_skb_frags'
p780
I17
sS'CONFIG_DEFCONFIG_LIST'
p781
S'"/lib/modules/$UNAME_RELEASE/.config"'
p782
sS'CONFIG_HAVE_KVM_CPU_RELAX_INTERCEPT'
p783
S'y'
sS'CONFIG_VHOST'
p784
S'm'
sS'kernel.printk_devkmsg'
p785
S'ratelimit'
p786
sS'net.ipv6.neigh.ens3.gc_stale_time'
p787
I60
sS'CONFIG_HAVE_NET_DSA'
p788
S'y'
sS'CONFIG_PCI_LABEL'
p789
S'y'
sS'CONFIG_IOMMU_IOVA'
p790
S'y'
sS'net.ipv6.conf.default.accept_ra'
p791
I1
sS'CONFIG_ISCSI_IBFT_FIND'
p792
S'y'
sS'CONFIG_EVM'
p793
S'y'
sS'CONFIG_PKCS7_MESSAGE_PARSER'
p794
S'y'
sS'net.ipv4.tcp_workaround_signed_windows'
p795
I0
sS'CONFIG_PM_SLEEP'
p796
S'y'
sS'CONFIG_IP_MROUTE'
p797
S'y'
sS'net.ipv4.ipfrag_secret_interval'
p798
I0
sS'CONFIG_ZSTD_DECOMPRESS'
p799
S'm'
sS'net.ipv6.neigh.default.ucast_solicit'
p800
I3
sS'net.ipv6.neigh.default.locktime'
p801
I0
sS'CONFIG_AGP_VIA'
p802
S'y'
sS'net.ipv6.auto_flowlabels'
p803
I1
sS'fs.quota.reads'
p804
I0
sS'kernel.sched_child_runs_first'
p805
I0
sS'CONFIG_NODES_SHIFT'
p806
I6
sS'CONFIG_ELFCORE'
p807
S'y'
sS'CONFIG_BPF_EVENTS'
p808
S'y'
sS'net.ipv4.neigh.lo.mcast_solicit'
p809
I3
sS'CONFIG_BUILD_BIN2C'
p810
S'y'
sS'CONFIG_SND_HDA_GENERIC'
p811
S'm'
sS'net.core.bpf_jit_enable'
p812
I0
sS'CONFIG_SND_HDA'
p813
S'm'
sS'fs.quota.drops'
p814
I0
sS'kernel.acct'
p815
S'4\t2\t30'
p816
sS'fs.mqueue.msg_max'
p817
I10
sS'kernel.yama.ptrace_scope'
p818
I1
sS'net.ipv6.conf.default.max_desync_factor'
p819
I600
sS'CONFIG_MAC80211_STA_HASH_MAX_SIZE'
p820
I0
sS'dev.parport.default.timeslice'
p821
I200
sS'net.ipv4.inet_peer_threshold'
p822
I65664
sS'net.ipv6.conf.all.ignore_routes_with_linkdown'
p823
I0
sS'net.core.rps_sock_flow_entries'
p824
I0
sS'CONFIG_ARCH_SELECT_MEMORY_MODEL'
p825
S'y'
sS'CONFIG_FONT_8x8'
p826
S'y'
sS'kernel.sched_domain.cpu1.domain0.min_interval'
p827
I2
sS'net.ipv6.conf.default.disable_policy'
p828
I0
sS'CONFIG_EARLY_PRINTK_USB'
p829
S'y'
sS'net.ipv6.neigh.default.proxy_qlen'
p830
I64
sS'CONFIG_EDD'
p831
S'y'
sS'net.ipv6.route.max_size'
p832
I4096
sS'net.ipv4.tcp_fwmark_accept'
p833
I0
sS'CONFIG_FTRACE_SYSCALLS'
p834
S'y'
sS'net.ipv6.conf.lo.accept_ra_rt_info_min_plen'
p835
I0
sS'CONFIG_GENERIC_IRQ_MIGRATION'
p836
S'y'
sS'fs.inode-state'
p837
S'2725000\t508\t0\t0\t0\t0\t0'
p838
sS'CONFIG_HTC_I2CPLD'
p839
S'y'
sS'CONFIG_LEDS_TRIGGERS'
p840
S'y'
sS'net.ipv4.ipfrag_max_dist'
p841
I64
sS'kernel.sched_rt_period_us'
p842
I1000000
sS'CONFIG_HAVE_CONTEXT_TRACKING'
p843
S'y'
sS'CONFIG_CRYPTO_DRBG'
p844
S'y'
sS'CONFIG_ADVISE_SYSCALLS'
p845
S'y'
sS'CONFIG_STRICT_MODULE_RWX'
p846
S'y'
sS'kernel.printk_delay'
p847
I0
sS'CONFIG_GENERIC_ISA_DMA'
p848
S'y'
sS'net.ipv4.neigh.default.retrans_time_ms'
p849
I1000
sS'net.core.wmem_default'
p850
I212992
sS'CONFIG_RATIONAL'
p851
S'y'
sS'CONFIG_ARCH_DMA_ADDR_T_64BIT'
p852
S'y'
sS'CONFIG_IP_NF_FILTER'
p853
S'm'
sS'net.ipv4.conf.default.route_localnet'
p854
I0
sS'net.ipv4.conf.lo.proxy_arp'
p855
I0
sS'CONFIG_PMIC_DA903X'
p856
S'y'
sS'CONFIG_X86_POWERNOW_K8'
p857
S'y'
sS'CONFIG_ACPI_APEI_MEMORY_FAILURE'
p858
S'y'
sS'net.ipv4.ip_local_reserved_ports'
p859
S''
sS'CONFIG_NET_VENDOR_QLOGIC'
p860
S'y'
sS'CONFIG_PCSPKR_PLATFORM'
p861
S'y'
sS'CONFIG_X86_PCC_CPUFREQ'
p862
S'y'
sS'kernel.sysctl_writes_strict'
p863
I1
sS'vm.drop_caches'
p864
I0
sS'CONFIG_I2C_COMPAT'
p865
S'y'
sS'net.ipv6.conf.ens3.temp_valid_lft'
p866
I604800
sS'CONFIG_HAVE_FUNCTION_TRACER'
p867
S'y'
sS'CONFIG_TRACING_SUPPORT'
p868
S'y'
sS'kernel.watchdog_cpumask'
p869
S'0-121'
p870
sS'CONFIG_IMA_APPRAISE'
p871
S'y'
sS'dev.cdrom.info'
p872
S''
sS'CONFIG_NET_VENDOR_AQUANTIA'
p873
S'y'
sS'CONFIG_TRANSPARENT_HUGEPAGE_ALWAYS'
p874
S'y'
sg8
S'HostInfo.host-192.168.123.30'
p875
sS'CONFIG_X86_L1_CACHE_SHIFT'
p876
I6
sS'CONFIG_NET_VENDOR_HP'
p877
S'y'
sS'CONFIG_NET_VENDOR_MELLANOX'
p878
S'y'
sS'CONFIG_SHMEM'
p879
S'y'
sS'CONFIG_EFI_RUNTIME_WRAPPERS'
p880
S'y'
sS'net.core.netdev_max_backlog'
p881
I1000
sS'CONFIG_PINMUX'
p882
S'y'
sS'CONFIG_PM_TRACE_RTC'
p883
S'y'
sS'net.ipv6.neigh.ens3.unres_qlen'
p884
I101
sS'CONFIG_ARCH_HIBERNATION_POSSIBLE'
p885
S'y'
sS'kernel.hotplug'
p886
S''
sS'CONFIG_SERIAL_CORE_CONSOLE'
p887
S'y'
sS'kernel.ostype'
p888
S'Linux'
p889
sS'CONFIG_PNP'
p890
S'y'
sS'CONFIG_IPV6'
p891
S'y'
sS'CONFIG_GENERIC_CLOCKEVENTS'
p892
S'y'
sS'CONFIG_MICROCODE_INTEL'
p893
S'y'
sS'CONFIG_PM_CLK'
p894
S'y'
sS'CONFIG_SECURITY_TOMOYO_POLICY_LOADER'
p895
S'"/sbin/tomoyo-init"'
p896
sS'CONFIG_TCG_TPM'
p897
S'y'
sS'CONFIG_I2C_DESIGNWARE_PLATFORM'
p898
S'y'
sS'net.ipv6.conf.ens3.ignore_routes_with_linkdown'
p899
I0
sS'CONFIG_CHECKPOINT_RESTORE'
p900
S'y'
sS'vm.nr_pdflush_threads'
p901
I0
sS'CONFIG_RTC_NVMEM'
p902
S'y'
sS'CONFIG_SQUASHFS'
p903
S'y'
sS'CONFIG_WQ_POWER_EFFICIENT_DEFAULT'
p904
S'y'
sS'CONFIG_MFD_MAX77693'
p905
S'y'
sS'kernel.core_uses_pid'
p906
I0
sS'CONFIG_CGROUP_DEVICE'
p907
S'y'
sS'CONFIG_NET_VENDOR_ALTEON'
p908
S'y'
sS'CONFIG_BSD_PROCESS_ACCT_V3'
p909
S'y'
sS'net.ipv4.conf.ens3.tag'
p910
I0
sS'CONFIG_AMD_NB'
p911
S'y'
sS'net.ipv4.conf.default.tag'
p912
I0
sS'net.ipv4.tcp_max_syn_backlog'
p913
I2048
sS'CONFIG_DECOMPRESS_XZ'
p914
S'y'
sS'net.ipv6.conf.all.dad_transmits'
p915
I1
sS'CONFIG_BASE_SMALL'
p916
I0
sS'vm.dirty_expire_centisecs'
p917
I3000
sS'CONFIG_KERNFS'
p918
S'y'
sS'CONFIG_IP_MULTICAST'
p919
S'y'
sS'CONFIG_PM_WAKELOCKS_GC'
p920
S'y'
sS'CONFIG_X86_PMEM_LEGACY'
p921
S'y'
sS'CONFIG_GENERIC_IRQ_SHOW'
p922
S'y'
sS'CONFIG_MFD_WM8400'
p923
S'y'
sS'net.ipv6.conf.all.forwarding'
p924
I0
sS'net.ipv4.conf.default.medium_id'
p925
I0
sS'CONFIG_ARCH_HAS_GIGANTIC_PAGE'
p926
S'y'
sS'vm.oom_dump_tasks'
p927
I1
sS'net.ipv6.ip6frag_secret_interval'
p928
I0
sS'CONFIG_PMIC_ADP5520'
p929
S'y'
sS'CONFIG_USER_NS'
p930
S'y'
sS'net.ipv4.neigh.default.gc_stale_time'
p931
I60
sS'CONFIG_PARPORT'
p932
S'm'
sS'CONFIG_ARCH_WANTS_DYNAMIC_TASK_STRUCT'
p933
S'y'
sS'net.ipv4.conf.ens3.accept_source_route'
p934
I1
sS'CONFIG_SYSTEM_TRUSTED_KEYRING'
p935
S'y'
sS'net.ipv6.icmp.ratelimit'
p936
I1000
sS'net.ipv4.conf.lo.log_martians'
p937
I0
sS'dev.cdrom.check_media'
p938
I0
sS'CONFIG_INTEL_SOC_PMIC'
p939
S'y'
sS'net.ipv6.conf.ens3.keep_addr_on_down'
p940
I0
sS'net.ipv4.conf.default.mc_forwarding'
p941
I0
sS'net.core.dev_weight_tx_bias'
p942
I1
sS'CONFIG_MDIO'
p943
S'm'
sS'net.ipv6.neigh.default.retrans_time_ms'
p944
I1000
sS'net.ipv6.conf.ens3.drop_unsolicited_na'
p945
I0
sS'kernel.sem'
p946
S'32000\t1024000000\t500\t32000'
p947
sS'net.ipv4.tcp_window_scaling'
p948
I1
sS'net.ipv4.tcp_available_ulp'
p949
S''
sS'CONFIG_NEED_DMA_MAP_STATE'
p950
S'y'
sS'net.ipv6.conf.lo.temp_prefered_lft'
p951
I86400
sS'CONFIG_HAVE_ARCH_SECCOMP_FILTER'
p952
S'y'
sS'CONFIG_INPUT_MOUSEDEV_SCREEN_X'
p953
I1024
sS'CONFIG_INPUT_MOUSEDEV_SCREEN_Y'
p954
I768
sS'CONFIG_DMIID'
p955
S'y'
sS'net.ipv4.conf.default.arp_notify'
p956
I0
sS'net.ipv6.flowlabel_reflect'
p957
I0
sS'CONFIG_DAX'
p958
S'y'
sS'net.ipv4.neigh.ens3.proxy_delay'
p959
I80
sS'CONFIG_NETLABEL'
p960
S'y'
sS'CONFIG_ARCH_HAS_ACPI_TABLE_UPGRADE'
p961
S'y'
sS'CONFIG_IRQ_REMAP'
p962
S'y'
sS'CONFIG_GENERIC_TRACER'
p963
S'y'
sS'CONFIG_BE2ISCSI'
p964
S'm'
sS'CONFIG_NET_VENDOR_DEC'
p965
S'y'
sS'CONFIG_FUTEX'
p966
S'y'
sS'net.ipv6.neigh.ens3.app_solicit'
p967
I0
sS'net.ipv4.inet_peer_maxttl'
p968
I600
sS'CONFIG_SSB_POSSIBLE'
p969
S'y'
sS'net.ipv4.conf.default.arp_ignore'
p970
I0
sS'CONFIG_WLAN_VENDOR_ADMTEK'
p971
S'y'
sS'kernel.softlockup_all_cpu_backtrace'
p972
I0
sS'CONFIG_ZSTD_COMPRESS'
p973
S'm'
sS'CONFIG_HWMON'
p974
S'y'
sS'kernel.bootloader_type'
p975
I114
sS'CONFIG_MFD_DA9052_I2C'
p976
S'y'
sS'CONFIG_LOG_BUF_SHIFT'
p977
I18
sS'CONFIG_INTEL_IOMMU'
p978
S'y'
sS'CONFIG_IRQ_DOMAIN_HIERARCHY'
p979
S'y'
sS'CONFIG_NET_VENDOR_BROCADE'
p980
S'y'
sS'CONFIG_ACPI_CUSTOM_DSDT_FILE'
p981
S'""'
p982
sS'net.ipv6.neigh.default.gc_thresh2'
p983
I512
sS'net.ipv6.neigh.default.gc_thresh3'
p984
I1024
sS'net.ipv6.conf.ens3.use_tempaddr'
p985
I0
sS'vm.nr_hugepages'
p986
I0
sS'CONFIG_NO_HZ_IDLE'
p987
S'y'
sS'user.max_ipc_namespaces'
p988
I257592
sS'CONFIG_COMPAT'
p989
S'y'
sS'CONFIG_CRYPTO_SHA256'
p990
S'y'
sS'net.ipv4.neigh.ens3.unres_qlen_bytes'
p991
I212992
sS'vm.overcommit_memory'
p992
I0
sS'CONFIG_MODULE_UNLOAD'
p993
S'y'
sS'CONFIG_NLS_DEFAULT'
p994
S'"utf8"'
p995
sS'CONFIG_MFD_RC5T583'
p996
S'y'
sS'CONFIG_BTRFS_FS_POSIX_ACL'
p997
S'y'
sS'CONFIG_GENERIC_PHY'
p998
S'y'
sS'net.ipv6.conf.lo.accept_source_route'
p999
I0
sS'CONFIG_CHELSIO_LIB'
p1000
S'm'
sS'net.ipv4.neigh.lo.retrans_time_ms'
p1001
I1000
sS'CONFIG_X86_RESERVE_LOW'
p1002
I64
sS'kernel.modules_disabled'
p1003
I0
sS'CONFIG_X86_NUMACHIP'
p1004
S'y'
sS'net.ipv6.ip_nonlocal_bind'
p1005
I0
sS'CONFIG_TCP_CONG_CUBIC'
p1006
S'y'
sS'CONFIG_INOTIFY_USER'
p1007
S'y'
sS'net.ipv4.neigh.lo.ucast_solicit'
p1008
I3
sS'CONFIG_UEFI_CPER'
p1009
S'y'
sS'CONFIG_RTC_DRV_CMOS'
p1010
S'y'
sS'CONFIG_TRANSPARENT_HUGE_PAGECACHE'
p1011
S'y'
sS'net.ipv4.neigh.lo.base_reachable_time_ms'
p1012
I30000
sS'net.ipv4.tcp_tw_reuse'
p1013
I0
sS'CONFIG_MOUSE_PS2_SENTELIC'
p1014
S'y'
sS'CONFIG_LOCKUP_DETECTOR'
p1015
S'y'
sS'CONFIG_ASYNC_MEMCPY'
p1016
S'm'
sS'CONFIG_RAPIDIO'
p1017
S'y'
sS'CONFIG_STAGING_MEDIA'
p1018
S'y'
sS'vm.min_slab_ratio'
p1019
I5
sS'net.ipv4.ip_local_port_range'
p1020
S'32768\t60999'
p1021
sS'CONFIG_HUGETLB_PAGE'
p1022
S'y'
sS'CONFIG_PERF_EVENTS'
p1023
S'y'
sS'net.ipv4.neigh.lo.locktime'
p1024
I100
sS'CONFIG_SECURITY_TOMOYO_ACTIVATION_TRIGGER'
p1025
S'"/sbin/init"'
p1026
sS'CONFIG_UCS2_STRING'
p1027
S'y'
sS'CONFIG_ARCH_SPARSEMEM_DEFAULT'
p1028
S'y'
sS'CONFIG_IPV6_ROUTE_INFO'
p1029
S'y'
sS'CONFIG_CLKEVT_I8253'
p1030
S'y'
sS'CONFIG_SERIAL_8250_PCI'
p1031
S'y'
sS'CONFIG_PCIEASPM_DEFAULT'
p1032
S'y'
sS'CONFIG_HAVE_EXIT_THREAD'
p1033
S'y'
sS'CONFIG_SND_HDA_HWDEP'
p1034
S'y'
sS'CONFIG_SOFTLOCKUP_DETECTOR'
p1035
S'y'
sS'CONFIG_EARLY_PRINTK'
p1036
S'y'
sS'net.ipv6.conf.ens3.ndisc_notify'
p1037
I0
sS'net.ipv4.conf.all.proxy_arp_pvlan'
p1038
I0
sS'kernel'
p1039
S'4.14.0-rc8-stock'
p1040
sS'CONFIG_BACKLIGHT_LCD_SUPPORT'
p1041
S'y'
sS'CONFIG_MOUSE_PS2_ELANTECH'
p1042
S'y'
sS'CONFIG_PCI_MMCONFIG'
p1043
S'y'
sS'CONFIG_KVM_MMIO'
p1044
S'y'
sS'net.ipv4.neigh.default.unres_qlen_bytes'
p1045
I212992
sS'CONFIG_INPUT_UINPUT'
p1046
S'y'
sS'CONFIG_PINCTRL_BAYTRAIL'
p1047
S'y'
sS'net.ipv4.icmp_errors_use_inbound_ifaddr'
p1048
I0
sS'net.ipv6.conf.all.addr_gen_mode'
p1049
I0
sS'CONFIG_HAVE_ACPI_APEI_NMI'
p1050
S'y'
sS'vm.page-cluster'
p1051
I3
sS'CONFIG_MOUSE_PS2_CYPRESS'
p1052
S'y'
sS'kernel.sched_rt_runtime_us'
p1053
I950000
sS'CONFIG_USB_DWC2_PCI'
p1054
S'y'
sS'CONFIG_X86_CMOV'
p1055
S'y'
sS'net.ipv4.tcp_fastopen_blackhole_timeout_sec'
p1056
I3600
sS'CONFIG_SIGNATURE'
p1057
S'y'
sS'net.ipv4.conf.all.mc_forwarding'
p1058
I0
sS'CONFIG_PM_DEBUG'
p1059
S'y'
sS'net.ipv4.neigh.default.ucast_solicit'
p1060
I3
sS'kernel.pty.reserve'
p1061
I1024
sS'CONFIG_SOUND'
p1062
S'm'
sS'CONFIG_SERIO_I8042'
p1063
S'y'
sS'CONFIG_NET_VENDOR_NETRONOME'
p1064
S'y'
sS'CONFIG_BLK_DEV_LOOP'
p1065
S'y'
sS'vm.mmap_min_addr'
p1066
I65536
sS'CONFIG_CRYPTO_DRBG_CTR'
p1067
S'y'
sS'CONFIG_HAVE_CMPXCHG_LOCAL'
p1068
S'y'
sS'net.ipv6.route.mtu_expires'
p1069
I600
sS'CONFIG_SND_USB'
p1070
S'y'
sS'CONFIG_CMDLINE_PARTITION'
p1071
S'y'
sS'CONFIG_NETWORK_SECMARK'
p1072
S'y'
sS'CONFIG_SND_HDA_INTEL'
p1073
S'm'
sS'net.ipv4.ping_group_range'
p1074
S'1\t0'
p1075
sS'CONFIG_PERF_EVENTS_INTEL_CSTATE'
p1076
S'y'
sS'net.ipv4.icmp_msgs_burst'
p1077
I50
sS'CONFIG_PPP_MULTILINK'
p1078
S'y'
sS'CONFIG_BLK_DEV_FD'
p1079
S'm'
sS'CONFIG_SND_DRIVERS'
p1080
S'y'
sS'CONFIG_SCSI_CXGB4_ISCSI'
p1081
S'm'
sS'CONFIG_CRASH_DUMP'
p1082
S'y'
sS'vm.watermark_scale_factor'
p1083
I10
sS'CONFIG_HAVE_UID16'
p1084
S'y'
sS'CONFIG_NET_VENDOR_WIZNET'
p1085
S'y'
sS'CONFIG_IPV6_ROUTER_PREF'
p1086
S'y'
sS'dev.parport.default.spintime'
p1087
I500
sS'CONFIG_IOSF_MBI'
p1088
S'y'
sS'net.ipv4.fib_multipath_hash_policy'
p1089
I0
sS'CONFIG_BLK_DEV_BSG'
p1090
S'y'
sS'net.ipv4.neigh.default.app_solicit'
p1091
I0
sS'CONFIG_CPU_FREQ_GOV_CONSERVATIVE'
p1092
S'y'
sS'CONFIG_MEMORY_HOTPLUG_SPARSE'
p1093
S'y'
sS'CONFIG_ZSWAP'
p1094
S'y'
sS'CONFIG_KVM'
p1095
S'm'
sS'CONFIG_PCIEASPM_DEBUG'
p1096
S'y'
sS'CONFIG_PROC_PID_CPUSET'
p1097
S'y'
sS'CONFIG_MEMORY_BALLOON'
p1098
S'y'
sS'CONFIG_INFINIBAND'
p1099
S'm'
sS'CONFIG_NET_VENDOR_SILAN'
p1100
S'y'
sS'net.ipv4.conf.ens3.log_martians'
p1101
I0
sS'CONFIG_CC_STACKPROTECTOR_STRONG'
p1102
S'y'
sS'CONFIG_HOTPLUG_CPU'
p1103
S'y'
sS'CONFIG_PROC_FS'
p1104
S'y'
sS'net.ipv4.route.redirect_number'
p1105
I9
sS'CONFIG_MOUSE_PS2_ALPS'
p1106
S'y'
sS'CONFIG_THERMAL_WRITABLE_TRIPS'
p1107
S'y'
sS'CONFIG_TOUCHSCREEN_PROPERTIES'
p1108
S'y'
sS'vm.lowmem_reserve_ratio'
p1109
S'256\t256\t32\t1'
p1110
sS'CONFIG_BLK_DEV_THROTTLING'
p1111
S'y'
sS'CONFIG_SWAP'
p1112
S'y'
sS'kernel.osrelease'
p1113
S'4.14.0-rc8-stock'
p1114
sS'CONFIG_NET_VENDOR_QUALCOMM'
p1115
S'y'
sS'CONFIG_AMD_IOMMU'
p1116
S'y'
sS'CONFIG_PAGE_COUNTER'
p1117
S'y'
sS'CONFIG_ARCH_MIGHT_HAVE_ACPI_PDC'
p1118
S'y'
sS'CONFIG_MFD_AS3711'
p1119
S'y'
sS'CONFIG_EFI_MIXED'
p1120
S'y'
sS'CONFIG_FILE_LOCKING'
p1121
S'y'
sS'CONFIG_MFD_WM831X_I2C'
p1122
S'y'
sS'CONFIG_ATA_ACPI'
p1123
S'y'
sS'net.ipv4.conf.lo.route_localnet'
p1124
I0
sS'net.ipv6.ip6frag_high_thresh'
p1125
I4194304
sS'CONFIG_ACPI_APEI'
p1126
S'y'
sS'net.ipv6.conf.ens3.mc_forwarding'
p1127
I0
sS'CONFIG_IRQ_DOMAIN'
p1128
S'y'
sS'net.ipv4.udp_wmem_min'
p1129
I4096
sS'net.ipv4.tcp_invalid_ratelimit'
p1130
I500
sS'net.ipv4.neigh.ens3.proxy_qlen'
p1131
I64
sS'CONFIG_NET_VENDOR_AMAZON'
p1132
S'y'
sS'CONFIG_VT'
p1133
S'y'
sS'net.ipv4.conf.lo.arp_announce'
p1134
I0
sS'kernel.msgmni'
p1135
I32000
sS'CONFIG_HAVE_IDE'
p1136
S'y'
sS'CONFIG_NET_VENDOR_8390'
p1137
S'y'
sS'CONFIG_SLUB'
p1138
S'y'
sS'fs.mqueue.queues_max'
p1139
I256
sS'net.ipv4.conf.ens3.rp_filter'
p1140
I1
sS'CONFIG_NET_NS'
p1141
S'y'
sS'CONFIG_HAVE_LIVEPATCH'
p1142
S'y'
sS'CONFIG_KGDB_LOW_LEVEL_TRAP'
p1143
S'y'
sS'CONFIG_HAVE_OPROFILE'
p1144
S'y'
sS'CONFIG_NVDIMM_DAX'
p1145
S'y'
sS'CONFIG_IMA_DEFAULT_HASH'
p1146
S'"sha1"'
p1147
sS'CONFIG_ACPI_THERMAL'
p1148
S'y'
sS'CONFIG_BLK_DEV_BSGLIB'
p1149
S'y'
sS'net.ipv4.neigh.default.locktime'
p1150
I100
sS'CONFIG_PINCTRL_CHERRYVIEW'
p1151
S'y'
sS'CONFIG_HPET_MMAP'
p1152
S'y'
sS'CONFIG_SERIAL_8250_RT288X'
p1153
S'y'
sS'CONFIG_CLOCKSOURCE_VALIDATE_LAST_CYCLE'
p1154
S'y'
sS'net.core.busy_read'
p1155
I0
sS'CONFIG_BTRFS_FS'
p1156
S'm'
sS'CONFIG_DCACHE_WORD_ACCESS'
p1157
S'y'
sS'net.ipv6.conf.default.mtu'
p1158
I1280
sS'CONFIG_SND_HWDEP'
p1159
S'm'
sS'CONFIG_SPARSEMEM_MANUAL'
p1160
S'y'
sS'net.ipv4.conf.default.drop_gratuitous_arp'
p1161
I0
sS'CONFIG_UPROBES'
p1162
S'y'
sS'CONFIG_NLS_CODEPAGE_437'
p1163
S'y'
sS'CONFIG_ARCH_ENABLE_MEMORY_HOTPLUG'
p1164
S'y'
sS'CONFIG_FIRMWARE_MEMMAP'
p1165
S'y'
sS'CONFIG_FIX_EARLYCON_MEM'
p1166
S'y'
sS'CONFIG_SCHED_DEBUG'
p1167
S'y'
sS'CONFIG_BOOT_PRINTK_DELAY'
p1168
S'y'
sS'CONFIG_TMPFS'
p1169
S'y'
sS'CONFIG_X86_MCE_INTEL'
p1170
S'y'
sS'CONFIG_RTC_INTF_PROC'
p1171
S'y'
sS'kernel.sched_domain.cpu1.domain0.busy_idx'
p1172
I2
sS'CONFIG_MD_AUTODETECT'
p1173
S'y'
sS'net.ipv6.conf.lo.max_desync_factor'
p1174
I600
sS'CONFIG_X86_ESPFIX64'
p1175
S'y'
sS'net.ipv4.neigh.lo.gc_stale_time'
p1176
I60
sS'kernel.traceoff_on_warning'
p1177
I0
sS'net.ipv4.conf.all.proxy_arp'
p1178
I0
sS'CONFIG_ARCH_USE_BUILTIN_BSWAP'
p1179
S'y'
sS'CONFIG_PROC_SYSCTL'
p1180
S'y'
sS'fs.file-max'
p1181
I6578986
sS'CONFIG_ACPI_APEI_GHES'
p1182
S'y'
sS'net.ipv4.tcp_limit_output_bytes'
p1183
I262144
sS'CONFIG_NET_VENDOR_NVIDIA'
p1184
S'y'
sS'net.ipv4.neigh.default.mcast_resolicit'
p1185
I0
sS'CONFIG_ACPI_HOTPLUG_CPU'
p1186
S'y'
sS'net.ipv4.conf.ens3.disable_xfrm'
p1187
I0
sS'CONFIG_FRAME_WARN'
p1188
I1024
sS'net.ipv6.conf.all.enhanced_dad'
p1189
I1
sS'CONFIG_FAT_FS'
p1190
S'y'
sS'CONFIG_IRQ_POLL'
p1191
S'y'
sS'net.ipv6.conf.all.hop_limit'
p1192
I64
sS'CONFIG_VT_CONSOLE_SLEEP'
p1193
S'y'
sS'kernel.random.entropy_avail'
p1194
I62
sS'net.ipv4.conf.default.force_igmp_version'
p1195
I0
sS'net.ipv4.ip_default_ttl'
p1196
I64
sS'CONFIG_CLEANCACHE'
p1197
S'y'
sS'CONFIG_PCI_PRI'
p1198
S'y'
sS'CONFIG_CRYPTO_ALGAPI'
p1199
S'y'
sS'kernel.random.boot_id'
p1200
S'01b9b957-fb88-4e07-8d46-dd0e64b29594'
p1201
sS'net.ipv4.conf.lo.accept_local'
p1202
I0
sS'CONFIG_QUOTA'
p1203
S'y'
sS'CONFIG_X86_64'
p1204
S'y'
sS'CONFIG_CPUSETS'
p1205
S'y'
sS'CONFIG_THERMAL_GOV_BANG_BANG'
p1206
S'y'
sS'CONFIG_REGMAP_IRQ'
p1207
S'y'
sS'CONFIG_CMA'
p1208
S'y'
sS'CONFIG_TRACING'
p1209
S'y'
sS'CONFIG_KDB_KEYBOARD'
p1210
S'y'
sS'CONFIG_RADIX_TREE_MULTIORDER'
p1211
S'y'
sS'net.ipv4.conf.all.promote_secondaries'
p1212
I0
sS'CONFIG_LWTUNNEL'
p1213
S'y'
sS'CONFIG_ARCH_MIGHT_HAVE_PC_SERIO'
p1214
S'y'
sS'net.ipv4.neigh.lo.proxy_qlen'
p1215
I64
sS'net.ipv6.conf.lo.router_solicitation_delay'
p1216
I1
sS'CONFIG_FIB_RULES'
p1217
S'y'
sS'net.ipv6.conf.default.autoconf'
p1218
I1
sS'CONFIG_COMPAT_BINFMT_ELF'
p1219
S'y'
sS'CONFIG_HAVE_KPROBES'
p1220
S'y'
sS'net.ipv4.tcp_mem'
p1221
S'768591\t1024791\t1537182'
p1222
sS'CONFIG_VME_BUS'
p1223
S'y'
sS'CONFIG_FW_LOADER'
p1224
S'y'
sS'CONFIG_ATA_VERBOSE_ERROR'
p1225
S'y'
sS'CONFIG_IOSCHED_DEADLINE'
p1226
S'y'
sS'net.ipv6.conf.all.max_desync_factor'
p1227
I600
sS'CONFIG_ARCH_MMAP_RND_COMPAT_BITS_MAX'
p1228
I16
sS'CONFIG_FB_CFB_IMAGEBLIT'
p1229
S'y'
sS'CONFIG_EXT4_USE_FOR_EXT2'
p1230
S'y'
sS'CONFIG_INPUT_MOUSEDEV_PSAUX'
p1231
S'y'
sS'CONFIG_BLOCK_COMPAT'
p1232
S'y'
sS'CONFIG_ATH5K_PCI'
p1233
S'y'
sS'CONFIG_SCSI_LOGGING'
p1234
S'y'
sS'CONFIG_IP_NF_IPTABLES'
p1235
S'm'
sS'CONFIG_NET_CLS'
p1236
S'y'
sS'CONFIG_ACPI_LEGACY_TABLES_LOOKUP'
p1237
S'y'
sS'CONFIG_INPUT_TABLET'
p1238
S'y'
sS'CONFIG_ILLEGAL_POINTER_VALUE'
p1239
S'0xdead000000000000'
p1240
sS'CONFIG_THERMAL_GOV_STEP_WISE'
p1241
S'y'
sS'CONFIG_PRINTK'
p1242
S'y'
sS'net.ipv4.conf.default.promote_secondaries'
p1243
I0
sS'CONFIG_NET_L3_MASTER_DEV'
p1244
S'y'
sS'CONFIG_SND_MAX_CARDS'
p1245
I32
sS'CONFIG_FRAMEBUFFER_CONSOLE'
p1246
S'y'
sS'CONFIG_BRIDGE'
p1247
S'm'
sS'net.ipv6.conf.lo.accept_ra_pinfo'
p1248
I1
sS'CONFIG_ASYNC_XOR'
p1249
S'm'
sS'CONFIG_ACPI_HOTPLUG_IOAPIC'
p1250
S'y'
sS'kernel.sched_domain.cpu1.domain0.flags'
p1251
I4143
sS'CONFIG_TRACE_IRQFLAGS_SUPPORT'
p1252
S'y'
sS'CONFIG_KEYBOARD_ATKBD'
p1253
S'y'
sS'net.core.default_qdisc'
p1254
S'pfifo_fast'
p1255
sS'CONFIG_VIRTIO_MMIO'
p1256
S'y'
sS'CONFIG_SND_PCM'
p1257
S'm'
sS'CONFIG_SND_X86'
p1258
S'y'
sS'CONFIG_INPUT_KEYBOARD'
p1259
S'y'
sS'CONFIG_ARCH_SUPPORTS_DEFERRED_STRUCT_PAGE_INIT'
p1260
S'y'
sS'net.ipv6.conf.all.accept_ra_mtu'
p1261
I1
sS'net.ipv4.ipfrag_high_thresh'
p1262
I4194304
sS'CONFIG_NET_VENDOR_ROCKER'
p1263
S'y'
sS'CONFIG_I2C'
p1264
S'y'
sS'CONFIG_BUG'
p1265
S'y'
sS'CONFIG_CPU_FREQ_GOV_COMMON'
p1266
S'y'
sS'CONFIG_PHYSICAL_ALIGN'
p1267
S'0x1000000'
p1268
sS'kernel.dmesg_restrict'
p1269
I0
sS'CONFIG_HAVE_ARCH_VMAP_STACK'
p1270
S'y'
sS'CONFIG_PSTORE_ZLIB_COMPRESS'
p1271
S'y'
sS'CONFIG_GENERIC_IRQ_EFFECTIVE_AFF_MASK'
p1272
S'y'
sS'CONFIG_CHR_DEV_SG'
p1273
S'y'
sS'CONFIG_ARCH_HAS_PKEYS'
p1274
S'y'
sS'CONFIG_SIGNALFD'
p1275
S'y'
sS'CONFIG_IMA_LSM_RULES'
p1276
S'y'
sS'CONFIG_MD_MULTIPATH'
p1277
S'm'
sS'net.ipv4.neigh.default.mcast_solicit'
p1278
I3
sS'CONFIG_SYSTEM_DATA_VERIFICATION'
p1279
S'y'
sS'CONFIG_ACPI'
p1280
S'y'
sS'CONFIG_RTC_MC146818_LIB'
p1281
S'y'
sS'CONFIG_STACKTRACE_SUPPORT'
p1282
S'y'
sS'CONFIG_INTEL_GTT'
p1283
S'y'
sS'CONFIG_THERMAL_EMULATION'
p1284
S'y'
sS'CONFIG_HAVE_DMA_CONTIGUOUS'
p1285
S'y'
sS'net.netfilter.nf_log.5'
p1286
S'NONE'
p1287
sS'net.netfilter.nf_log.4'
p1288
S'NONE'
p1289
sS'net.netfilter.nf_log.7'
p1290
S'NONE'
p1291
sS'net.netfilter.nf_log.6'
p1292
S'NONE'
p1293
sS'net.netfilter.nf_log.1'
p1294
S'NONE'
p1295
sS'net.netfilter.nf_log.0'
p1296
S'NONE'
p1297
sS'net.netfilter.nf_log.3'
p1298
S'NONE'
p1299
sS'net.netfilter.nf_log.2'
p1300
S'NONE'
p1301
sS'CONFIG_INLINE_READ_UNLOCK'
p1302
S'y'
sS'net.netfilter.nf_log.9'
p1303
S'NONE'
p1304
sS'net.netfilter.nf_log.8'
p1305
S'NONE'
p1306
sS'net.ipv4.conf.ens3.arp_announce'
p1307
I0
sS'kernel.real-root-dev'
p1308
I0
sS'vm.user_reserve_kbytes'
p1309
I131072
sS'CONFIG_HAVE_KERNEL_LZO'
p1310
S'y'
sS'dev.raid.speed_limit_max'
p1311
I200000
sS'CONFIG_IP_FIB_TRIE_STATS'
p1312
S'y'
sS'CONFIG_DEVFREQ_GOV_PERFORMANCE'
p1313
S'y'
sS'net.ipv4.conf.all.disable_xfrm'
p1314
I0
sS'CONFIG_IPV6_MULTIPLE_TABLES'
p1315
S'y'
sS'fs.quota.lookups'
p1316
I0
sS'CONFIG_QUOTACTL'
p1317
S'y'
sS'CONFIG_TWL6040_CORE'
p1318
S'y'
sS'CONFIG_ARCH_WANT_BATCHED_UNMAP_TLB_FLUSH'
p1319
S'y'
sS'CONFIG_SCSI_QLA_ISCSI'
p1320
S'm'
sS'net.ipv6.conf.lo.temp_valid_lft'
p1321
I604800
sS'CONFIG_RTC_LIB'
p1322
S'y'
sS'kernel.pty.max'
p1323
I4096
sS'CONFIG_ISCSI_BOOT_SYSFS'
p1324
S'm'
sS'CONFIG_HAVE_KERNEL_LZ4'
p1325
S'y'
sS'CONFIG_GPIO_PALMAS'
p1326
S'y'
sS'CONFIG_SQUASHFS_XATTR'
p1327
S'y'
sS'CONFIG_NEED_MULTIPLE_NODES'
p1328
S'y'
sS'net.ipv6.conf.default.use_oif_addrs_only'
p1329
I0
sS'CONFIG_KERNEL_GZIP'
p1330
S'y'
sS'vm.extfrag_threshold'
p1331
I500
sS'kernel.sched_domain.cpu0.domain0.newidle_idx'
p1332
I0
sS'net.ipv6.neigh.lo.base_reachable_time_ms'
p1333
I30000
sS'CONFIG_MODULE_SIG_ALL'
p1334
S'y'
sS'CONFIG_CONSOLE_POLL'
p1335
S'y'
sS'CONFIG_VIRTIO_MMIO_CMDLINE_DEVICES'
p1336
S'y'
sS'net.ipv4.cipso_rbm_strictvalid'
p1337
I1
sS'CONFIG_HAVE_CLK_PREPARE'
p1338
S'y'
sS'net.ipv6.conf.ens3.router_solicitation_interval'
p1339
I4
sS'debug.kprobes-optimization'
p1340
I1
sS'CONFIG_HAVE_OPTPROBES'
p1341
S'y'
sS'CONFIG_POSIX_MQUEUE'
p1342
S'y'
sS'CONFIG_VFAT_FS'
p1343
S'y'
sS'CONFIG_KALLSYMS_ALL'
p1344
S'y'
sS'net.ipv4.conf.lo.igmpv3_unsolicited_report_interval'
p1345
I1000
sS'CONFIG_ANON_INODES'
p1346
S'y'
sS'kernel.shmmni'
p1347
I4096
sS'CONFIG_ATARI_PARTITION'
p1348
S'y'
sS'CONFIG_SECURITY_SELINUX_CHECKREQPROT_VALUE'
p1349
I1
sS'net.ipv4.conf.ens3.proxy_arp'
p1350
I0
sS'CONFIG_CRYPTO_CRCT10DIF'
p1351
S'y'
sS'CONFIG_ARCH_HAS_KCOV'
p1352
S'y'
sS'net.ipv6.conf.lo.accept_ra_rtr_pref'
p1353
I1
sS'CONFIG_RAPIDIO_DISC_TIMEOUT'
p1354
I30
sS'kernel.modprobe'
p1355
S'/sbin/modprobe'
p1356
sS'net.ipv6.conf.ens3.enhanced_dad'
p1357
I1
sS'net.ipv6.conf.all.router_probe_interval'
p1358
I60
sS'CONFIG_BSD_PROCESS_ACCT'
p1359
S'y'
sS'CONFIG_SPI_MASTER'
p1360
S'y'
sS'CONFIG_KALLSYMS_ABSOLUTE_PERCPU'
p1361
S'y'
sS'net.ipv6.conf.all.temp_valid_lft'
p1362
I604800
sS'CONFIG_LZ4_DECOMPRESS'
p1363
S'y'
sS'CONFIG_CRYPTO_MANAGER'
p1364
S'y'
sS'CONFIG_MESSAGE_LOGLEVEL_DEFAULT'
p1365
I4
sS'net.ipv4.conf.default.drop_unicast_in_l2_multicast'
p1366
I0
sS'CONFIG_SND_PROC_FS'
p1367
S'y'
sS'net.ipv6.conf.ens3.hop_limit'
p1368
I64
sS'CONFIG_VGA_CONSOLE'
p1369
S'y'
sS'CONFIG_RANDOMIZE_MEMORY_PHYSICAL_PADDING'
p1370
S'0xa'
p1371
sS'CONFIG_ECRYPT_FS'
p1372
S'y'
sS'CONFIG_QUOTACTL_COMPAT'
p1373
S'y'
sS'vm.oom_kill_allocating_task'
p1374
I0
sS'CONFIG_X86_MCE_THRESHOLD'
p1375
S'y'
sS'CONFIG_CGROUP_PIDS'
p1376
S'y'
sS'CONFIG_FB_TILEBLITTING'
p1377
S'y'
sS'net.ipv4.conf.ens3.accept_local'
p1378
I0
sS'CONFIG_NLS_ISO8859_1'
p1379
S'y'
sS'CONFIG_SND_TIMER'
p1380
S'm'
sS'CONFIG_SCHED_INFO'
p1381
S'y'
sS'CONFIG_CRYPTO_AES_X86_64'
p1382
S'm'
sS'net.ipv6.neigh.lo.gc_stale_time'
p1383
I60
sS'CONFIG_HID_PID'
p1384
S'y'
sS'CONFIG_SPLIT_PTLOCK_CPUS'
p1385
I4
sS'dev.cdrom.autoclose'
p1386
I1
sS'CONFIG_LIBCRC32C'
p1387
S'm'
sS'CONFIG_EDAC_SUPPORT'
p1388
S'y'
sS'CONFIG_HAVE_ARCH_COMPAT_MMAP_BASES'
p1389
S'y'
sS'CONFIG_TASK_DELAY_ACCT'
p1390
S'y'
sS'net.ipv6.conf.all.force_tllao'
p1391
I0
sS'net.ipv4.route.gc_interval'
p1392
I60
sS'CONFIG_ARCH_SUSPEND_POSSIBLE'
p1393
S'y'
sS'CONFIG_SPARSEMEM_EXTREME'
p1394
S'y'
sS'CONFIG_DMA_ACPI'
p1395
S'y'
sS'kernel.kptr_restrict'
p1396
I1
sS'CONFIG_INPUT_MOUSEDEV'
p1397
S'y'
sS'CONFIG_X86_DIRECT_GBPAGES'
p1398
S'y'
sS'CONFIG_NET_VENDOR_MICROCHIP'
p1399
S'y'
sS'net.ipv6.conf.ens3.accept_redirects'
p1400
I1
sS'vm.compact_unevictable_allowed'
p1401
I1
sS'CONFIG_ZLIB_DEFLATE'
p1402
S'y'
sS'CONFIG_ACPI_CPU_FREQ_PSS'
p1403
S'y'
sS'CONFIG_SYSVIPC_COMPAT'
p1404
S'y'
sS'CONFIG_X86_VSYSCALL_EMULATION'
p1405
S'y'
sS'net.ipv6.conf.all.use_tempaddr'
p1406
I2
sS'net.ipv6.conf.all.accept_ra_rtr_pref'
p1407
I1
sS'CONFIG_I2C_DESIGNWARE_BAYTRAIL'
p1408
S'y'
sS'CONFIG_HOTPLUG_PCI_CPCI'
p1409
S'y'
sS'net.ipv4.conf.ens3.force_igmp_version'
p1410
I0
sS'CONFIG_FTRACE'
p1411
S'y'
sS'CONFIG_GENERIC_IOMAP'
p1412
S'y'
sS'CONFIG_CGROUP_NET_CLASSID'
p1413
S'y'
sS'CONFIG_DEVFREQ_GOV_USERSPACE'
p1414
S'y'
sS'CONFIG_AUDIT_TREE'
p1415
S'y'
sS'CONFIG_MOUSE_PS2_BYD'
p1416
S'y'
sS'CONFIG_USB_OHCI_HCD_PCI'
p1417
S'y'
sS'net.ipv4.route.min_adv_mss'
p1418
I256
sS'CONFIG_ARCH_DEFCONFIG'
p1419
S'"arch/x86/configs/x86_64_defconfig"'
p1420
sS'CONFIG_WAN'
p1421
S'y'
sS'net.ipv4.tcp_thin_linear_timeouts'
p1422
I0
sS'CONFIG_CRYPTO_ALGAPI2'
p1423
S'y'
sS'CONFIG_INTEL_TXT'
p1424
S'y'
sS'CONFIG_MOUSE_PS2_TOUCHKIT'
p1425
S'y'
sS'CONFIG_LLC'
p1426
S'm'
sS'CONFIG_SND_SPI'
p1427
S'y'
sS'CONFIG_USB_UHCI_HCD'
p1428
S'y'
sS'net.ipv4.tcp_congestion_control'
p1429
S'cubic'
p1430
sS'CONFIG_ATA_SFF'
p1431
S'y'
sS'CONFIG_NVMEM'
p1432
S'y'
sS'CONFIG_SERIO_RAW'
p1433
S'm'
sS'CONFIG_HAVE_KVM_IRQ_ROUTING'
p1434
S'y'
sS'dev.mac_hid.mouse_button3_keycode'
p1435
I100
sS'CONFIG_GENERIC_BUG'
p1436
S'y'
sS'CONFIG_BLK_DEV_IO_TRACE'
p1437
S'y'
sS'net.ipv4.conf.ens3.drop_gratuitous_arp'
p1438
I0
sS'CONFIG_MUTEX_SPIN_ON_OWNER'
p1439
S'y'
sS'CONFIG_MEMORY_ISOLATION'
p1440
S'y'
sS'net.ipv6.conf.all.accept_ra_pinfo'
p1441
I1
sS'kernel.shm_next_id'
p1442
S'-1'
p1443
sS'net.ipv6.calipso_cache_bucket_size'
p1444
I10
sS'CONFIG_NET_VENDOR_AURORA'
p1445
S'y'
sS'CONFIG_LOCKDEP_SUPPORT'
p1446
S'y'
sS'net.ipv4.conf.ens3.ignore_routes_with_linkdown'
p1447
I0
sS'CONFIG_GENERIC_CLOCKEVENTS_BROADCAST'
p1448
S'y'
sS'net.ipv6.conf.ens3.accept_ra'
p1449
I1
sS'CONFIG_HAVE_ARCH_JUMP_LABEL'
p1450
S'y'
sS'net.ipv4.conf.all.bootp_relay'
p1451
I0
sS'net.ipv6.conf.default.mldv2_unsolicited_report_interval'
p1452
I1000
sS'CONFIG_ZONE_DEVICE'
p1453
S'y'
sS'CONFIG_VIRTUALIZATION'
p1454
S'y'
sS'fs.pipe-user-pages-hard'
p1455
I0
sS'net.ipv6.route.gc_min_interval'
p1456
I0
sS'CONFIG_HAVE_VIRT_CPU_ACCOUNTING_GEN'
p1457
S'y'
sS'CONFIG_HAVE_ARCH_TRANSPARENT_HUGEPAGE'
p1458
S'y'
sS'CONFIG_PROC_PAGE_MONITOR'
p1459
S'y'
sS'dev.hpet.max-user-freq'
p1460
I64
sS'net.ipv4.route.gc_thresh'
p1461
S'-1'
p1462
sS'CONFIG_THERMAL_GOV_POWER_ALLOCATOR'
p1463
S'y'
sS'CONFIG_HAVE_CLK'
p1464
S'y'
sS'CONFIG_GENERIC_STRNLEN_USER'
p1465
S'y'
sS'dev.mac_hid.mouse_button_emulation'
p1466
I0
sS'CONFIG_SND_DMA_SGBUF'
p1467
S'y'
sS'CONFIG_ATA_GENERIC'
p1468
S'y'
sS'CONFIG_MOUSE_PS2_TRACKPOINT'
p1469
S'y'
sS'CONFIG_BLK_MQ_VIRTIO'
p1470
S'y'
sS'CONFIG_UNIX98_PTYS'
p1471
S'y'
sS'CONFIG_STRICT_DEVMEM'
p1472
S'y'
sS'CONFIG_ARCH_ENABLE_MEMORY_HOTREMOVE'
p1473
S'y'
sS'net.ipv4.conf.all.medium_id'
p1474
I0
sS'net.ipv6.conf.lo.use_tempaddr'
p1475
S'-1'
p1476
sS'CONFIG_DMA_ENGINE'
p1477
S'y'
sS'net.ipv6.conf.all.mldv2_unsolicited_report_interval'
p1478
I1000
sS'CONFIG_OUTPUT_FORMAT'
p1479
S'"elf64-x86-64"'
p1480
sS'CONFIG_X86_X2APIC'
p1481
S'y'
sS'CONFIG_CGROUP_BPF'
p1482
S'y'
sS'CONFIG_ARCH_ENABLE_SPLIT_PMD_PTLOCK'
p1483
S'y'
sS'CONFIG_NET_CLS_ACT'
p1484
S'y'
sS'CONFIG_DECOMPRESS_LZO'
p1485
S'y'
sS'net.ipv4.conf.default.src_valid_mark'
p1486
I0
sS'CONFIG_NETFILTER_XTABLES'
p1487
S'm'
sS'net.ipv4.conf.lo.proxy_arp_pvlan'
p1488
I0
sS'CONFIG_SCSI_BNX2_ISCSI'
p1489
S'm'
sS'net.ipv4.conf.default.log_martians'
p1490
I0
sS'CONFIG_FREEZER'
p1491
S'y'
sS'CONFIG_QUOTA_NETLINK_INTERFACE'
p1492
S'y'
sS'CONFIG_FB'
p1493
S'y'
sS'CONFIG_MFD_WM831X'
p1494
S'y'
sS'CONFIG_SLUB_DEBUG'
p1495
S'y'
sS'CONFIG_MFD_DA9055'
p1496
S'y'
sS'CONFIG_CGROUP_NET_PRIO'
p1497
S'y'
sS'net.ipv6.neigh.default.mcast_solicit'
p1498
I3
sS'CONFIG_GPIO_LYNXPOINT'
p1499
S'y'
sS'CONFIG_IPC_NS'
p1500
S'y'
sS'CONFIG_PRINTK_TIME'
p1501
S'y'
sS'CONFIG_PCI_MSI_IRQ_DOMAIN'
p1502
S'y'
sS'CONFIG_HAVE_C_RECORDMCOUNT'
p1503
S'y'
sS'net.ipv6.neigh.default.anycast_delay'
p1504
I100
sS'CONFIG_MFD_TPS6586X'
p1505
S'y'
sS'net.ipv6.conf.lo.seg6_enabled'
p1506
I0
sS'net.ipv4.conf.ens3.disable_policy'
p1507
I0
sS'CONFIG_PCC'
p1508
S'y'
sS'CONFIG_REGMAP'
p1509
S'y'
sS'CONFIG_SCHEDSTATS'
p1510
S'y'
sS'CONFIG_CLOCKSOURCE_WATCHDOG'
p1511
S'y'
sS'net.core.message_burst'
p1512
I10
sS'CONFIG_NET_VENDOR_EXAR'
p1513
S'y'
sS'CONFIG_GENERIC_IRQ_PROBE'
p1514
S'y'
sS'CONFIG_BTT'
p1515
S'y'
sS'CONFIG_DECOMPRESS_LZ4'
p1516
S'y'
sS'net.ipv6.conf.lo.ignore_routes_with_linkdown'
p1517
I0
sS'CONFIG_HARDLOCKUP_DETECTOR'
p1518
S'y'
sS'CONFIG_RTC_SYSTOHC'
p1519
S'y'
sS'CONFIG_USB_XHCI_HCD'
p1520
S'y'
sS'CONFIG_SERIO_LIBPS2'
p1521
S'y'
sS'CONFIG_UNIX'
p1522
S'y'
sS'net.ipv4.tcp_fack'
p1523
I0
sS'net.ipv6.conf.ens3.mldv2_unsolicited_report_interval'
p1524
I1000
sS'net.ipv4.neigh.lo.mcast_resolicit'
p1525
I0
sS'uname'
p1526
S'Linux nestedvm 4.14.0-rc8-stock #3 SMP Tue Mar 13 14:28:42 EDT 2018 x86_64 x86_64 x86_64 GNU/Linux'
p1527
sS'CONFIG_DMADEVICES'
p1528
S'y'
sS'CONFIG_DEFAULT_HOSTNAME'
p1529
S'"(none)"'
p1530
sS'CONFIG_CRYPTO_LZO'
p1531
S'y'
sS'CONFIG_HAVE_STACK_VALIDATION'
p1532
S'y'
sS'CONFIG_INTEL_IOMMU_FLOPPY_WA'
p1533
S'y'
sS'CONFIG_HAVE_KVM'
p1534
S'y'
sS'CONFIG_USB_PCI'
p1535
S'y'
sS'CONFIG_ACPI_I2C_OPREGION'
p1536
S'y'
sS'CONFIG_SPARSEMEM_VMEMMAP'
p1537
S'y'
sS'net.core.netdev_budget_usecs'
p1538
I2000
sS'CONFIG_TCP_CONG_ADVANCED'
p1539
S'y'
sS'CONFIG_CPU_FREQ_DEFAULT_GOV_PERFORMANCE'
p1540
S'y'
sS'net.ipv6.conf.all.drop_unsolicited_na'
p1541
I0
sS'CONFIG_FSNOTIFY'
p1542
S'y'
sS'CONFIG_POWER_RESET'
p1543
S'y'
sS'CONFIG_VIRTIO_NET'
p1544
S'y'
sS'CONFIG_RFKILL'
p1545
S'y'
sS'CONFIG_BCMA_POSSIBLE'
p1546
S'y'
sS'CONFIG_OPTIMIZE_INLINING'
p1547
S'y'
sS'net.ipv4.ipfrag_time'
p1548
I30
sS'net.ipv4.conf.default.secure_redirects'
p1549
I1
sS'CONFIG_MOUSE_PS2_SMBUS'
p1550
S'y'
sS'CONFIG_RAS'
p1551
S'y'
sS'CONFIG_PPDEV'
p1552
S'm'
sS'CONFIG_BLK_DEV_INITRD'
p1553
S'y'
sS'net.ipv6.conf.ens3.accept_ra_rtr_pref'
p1554
I1
sS'CONFIG_DM_UEVENT'
p1555
S'y'
sS'CONFIG_LEGACY_PTYS'
p1556
S'y'
sS'CONFIG_FS_POSIX_ACL'
p1557
S'y'
sS'kernel.auto_msgmni'
p1558
I0
sS'fs.mqueue.msgsize_default'
p1559
I8192
sS'CONFIG_KEXEC_VERIFY_SIG'
p1560
S'y'
sS'fs.inotify.max_user_watches'
p1561
I8192
sS'CONFIG_HPET'
p1562
S'y'
sS'CONFIG_CRYPTO_WORKQUEUE'
p1563
S'y'
sS'CONFIG_INTEGRITY_SIGNATURE'
p1564
S'y'
sS'CONFIG_SPARSE_IRQ'
p1565
S'y'
sS'CONFIG_BLK_SCSI_REQUEST'
p1566
S'y'
sS'CONFIG_BITREVERSE'
p1567
S'y'
sS'CONFIG_HAVE_ARCH_MMAP_RND_BITS'
p1568
S'y'
sS'net.ipv6.conf.lo.accept_ra_rt_info_max_plen'
p1569
I0
sS'CONFIG_NET_VENDOR_MICREL'
p1570
S'y'
sS'CONFIG_MPLS'
p1571
S'y'
sS'CONFIG_DEBUG_INFO'
p1572
S'y'
sS'CONFIG_MAGIC_SYSRQ'
p1573
S'y'
sS'CONFIG_SERIAL_8250_PNP'
p1574
S'y'
sS'CONFIG_CLKDEV_LOOKUP'
p1575
S'y'
sS'kernel.keys.maxbytes'
p1576
I20000
sS'CONFIG_BRANCH_PROFILE_NONE'
p1577
S'y'
sS'CONFIG_NO_BOOTMEM'
p1578
S'y'
sS'CONFIG_XXHASH'
p1579
S'm'
sS'vm.dirty_ratio'
p1580
I20
sS'net.ipv6.idgen_retries'
p1581
I3
sS'CONFIG_MAGIC_SYSRQ_SERIAL'
p1582
S'y'
sS'CONFIG_CRYPTO_HASH2'
p1583
S'y'
sS'CONFIG_MEMCG_SWAP'
p1584
S'y'
sS'CONFIG_IOSCHED_NOOP'
p1585
S'y'
sS'CONFIG_USB_COMMON'
p1586
S'y'
sS'kernel.sched_domain.cpu0.domain0.wake_idx'
p1587
I0
sS'CONFIG_SND_VERBOSE_PROCFS'
p1588
S'y'
sS'net.ipv6.conf.ens3.temp_prefered_lft'
p1589
I86400
sS'CONFIG_BRIDGE_NF_EBTABLES'
p1590
S'm'
sS'CONFIG_CRYPTO_JITTERENTROPY'
p1591
S'y'
sS'CONFIG_CRYPTO_DRBG_MENU'
p1592
S'y'
sS'CONFIG_ARCH_USE_CMPXCHG_LOCKREF'
p1593
S'y'
sS'CONFIG_RD_GZIP'
p1594
S'y'
sS'user.max_pid_namespaces'
p1595
I257592
sS'CONFIG_PANIC_ON_OOPS_VALUE'
p1596
I0
sS'CONFIG_USB_EHCI_ROOT_HUB_TT'
p1597
S'y'
sS'kernel.sched_min_granularity_ns'
p1598
I1500000
sS'CONFIG_X86_NEED_RELOCS'
p1599
S'y'
sS'CONFIG_XZ_DEC_ARM'
p1600
S'y'
sS'CONFIG_SCSI_DMA'
p1601
S'y'
sS'CONFIG_ARCH_HAS_ZONE_DEVICE'
p1602
S'y'
sS'CONFIG_HVC_DRIVER'
p1603
S'y'
sS'CONFIG_HAVE_RCU_TABLE_FREE'
p1604
S'y'
sS'CONFIG_ZSMALLOC'
p1605
S'y'
sS'CONFIG_HAVE_PERF_REGS'
p1606
S'y'
sS'CONFIG_IMA_APPRAISE_BOOTPARAM'
p1607
S'y'
sS'CONFIG_CRYPTO_HASH'
p1608
S'y'
sS'CONFIG_KEYS_COMPAT'
p1609
S'y'
sS'CONFIG_CRYPTO_NULL2'
p1610
S'y'
sS'CONFIG_RCU_STALL_COMMON'
p1611
S'y'
sS'net.ipv6.conf.lo.accept_ra_min_hop_limit'
p1612
I1
sS'net.ipv4.conf.default.proxy_arp'
p1613
I0
sS'kernel.sched_rr_timeslice_ms'
p1614
I100
sS'net.ipv6.conf.lo.disable_ipv6'
p1615
I0
sS'CONFIG_NEED_PER_CPU_PAGE_FIRST_CHUNK'
p1616
S'y'
sS'CONFIG_KGDB_KDB'
p1617
S'y'
sS'net.ipv4.conf.all.src_valid_mark'
p1618
I0
sS'fs.overflowuid'
p1619
I65534
sS'net.ipv4.conf.ens3.arp_accept'
p1620
I0
sS'CONFIG_FB_CFB_FILLRECT'
p1621
S'y'
sS'CONFIG_SECURITYFS'
p1622
S'y'
sS'CONFIG_OSF_PARTITION'
p1623
S'y'
sS'CONFIG_CRYPTO_AKCIPHER'
p1624
S'y'
sS'CONFIG_MAY_USE_DEVLINK'
p1625
S'y'
sS'net.ipv6.conf.default.dad_transmits'
p1626
I1
sS'CONFIG_BNX2'
p1627
S'm'
sS'CONFIG_CMA_AREAS'
p1628
I7
sS'CONFIG_ARM_GIC_MAX_NR'
p1629
I1
sS'net.ipv4.conf.all.accept_redirects'
p1630
I1
sS'vm.max_map_count'
p1631
I65530
sS'CONFIG_HAVE_KVM_IRQFD'
p1632
S'y'
sS'net.ipv6.conf.default.enhanced_dad'
p1633
I1
sS'net.ipv4.conf.lo.arp_ignore'
p1634
I0
sS'CONFIG_HAVE_KVM_IRQCHIP'
p1635
S'y'
sS'CONFIG_PM_SLEEP_SMP'
p1636
S'y'
sS'CONFIG_NET_VENDOR_I825XX'
p1637
S'y'
sS'net.ipv4.conf.ens3.proxy_arp_pvlan'
p1638
I0
sS'CONFIG_DYNAMIC_FTRACE_WITH_REGS'
p1639
S'y'
sS'net.ipv4.conf.ens3.promote_secondaries'
p1640
I0
sS'CONFIG_VT_HW_CONSOLE_BINDING'
p1641
S'y'
sS'CONFIG_MIGRATION'
p1642
S'y'
sS'CONFIG_SYSVIPC_SYSCTL'
p1643
S'y'
sS'CONFIG_HAMRADIO'
p1644
S'y'
sS'CONFIG_KGDB'
p1645
S'y'
sS'CONFIG_EFI_ESRT'
p1646
S'y'
sS'CONFIG_GENERIC_PINCONF'
p1647
S'y'
sS'CONFIG_HIGH_RES_TIMERS'
p1648
S'y'
sS'CONFIG_PPP'
p1649
S'y'
sS'CONFIG_HAVE_GENERIC_GUP'
p1650
S'y'
sS'CONFIG_NET_VENDOR_HUAWEI'
p1651
S'y'
sS'CONFIG_ZLIB_INFLATE'
p1652
S'y'
sS'CONFIG_CORE_DUMP_DEFAULT_ELF_HEADERS'
p1653
S'y'
sS'CONFIG_POWER_AVS'
p1654
S'y'
sS'CONFIG_MFD_AAT2870_CORE'
p1655
S'y'
sS'CONFIG_QED'
p1656
S'm'
sS'CONFIG_LEGACY_PTY_COUNT'
p1657
I0
sS'CONFIG_GENERIC_CALIBRATE_DELAY'
p1658
S'y'
sS'net.ipv6.conf.default.force_tllao'
p1659
I0
sS'CONFIG_AGP_INTEL'
p1660
S'y'
sS'CONFIG_CRYPTO_CRC32C'
p1661
S'y'
sS'CONFIG_LOCK_SPIN_ON_OWNER'
p1662
S'y'
sS'CONFIG_CRYPTO_GHASH'
p1663
S'y'
sS'kernel.sched_domain.cpu0.domain0.max_interval'
p1664
I4
sS'net.ipv4.inet_peer_minttl'
p1665
I120
sS'net.core.netdev_budget'
p1666
I300
sS'kernel.shmall'
p1667
L18446744073692774399L
sS'CONFIG_ABX500_CORE'
p1668
S'y'
sS'CONFIG_ACPI_APEI_PCIEAER'
p1669
S'y'
sS'CONFIG_CRYPTO_MANAGER_DISABLE_TESTS'
p1670
S'y'
sS'CONFIG_GENERIC_BUG_RELATIVE_POINTERS'
p1671
S'y'
sS'CONFIG_TICK_ONESHOT'
p1672
S'y'
sS'CONFIG_WLAN_VENDOR_INTEL'
p1673
S'y'
sS'net.ipv6.conf.default.seg6_enabled'
p1674
I0
sS'net.ipv4.ip_nonlocal_bind'
p1675
I0
sS'CONFIG_EXT4_FS'
p1676
S'y'
sS'kernel.sched_domain.cpu1.domain0.newidle_idx'
p1677
I0
sS'net.ipv4.neigh.default.base_reachable_time_ms'
p1678
I30000
sS'CONFIG_ASYNC_PQ'
p1679
S'm'
sS'CONFIG_USELIB'
p1680
S'y'
sS'net.ipv4.route.redirect_silence'
p1681
I5120
sS'net.ipv6.conf.default.hop_limit'
p1682
I64
sS'CONFIG_X86_64_SMP'
p1683
S'y'
sS'CONFIG_PM_OPP'
p1684
S'y'
sS'CONFIG_TCG_TIS_CORE'
p1685
S'y'
sS'net.ipv6.conf.all.accept_ra'
p1686
I1
sS'CONFIG_X86_64_ACPI_NUMA'
p1687
S'y'
sS'net.ipv4.conf.lo.arp_filter'
p1688
I0
sS'CONFIG_EFIVAR_FS'
p1689
S'y'
sS'CONFIG_SERIAL_8250_SHARE_IRQ'
p1690
S'y'
sS'net.ipv6.conf.all.router_solicitations'
p1691
S'-1'
p1692
sS'net.ipv4.udp_l3mdev_accept'
p1693
I0
sS'kernel.sched_domain.cpu1.domain0.imbalance_pct'
p1694
I125
sS'kernel.unprivileged_bpf_disabled'
p1695
I0
sS'CONFIG_FUSION_MAX_SGE'
p1696
I128
sS'CONFIG_HAS_IOPORT_MAP'
p1697
S'y'
sS'CONFIG_MFD_WM831X_SPI'
p1698
S'y'
sS'CONFIG_JUMP_LABEL'
p1699
S'y'
sS'CONFIG_INPUT_LEDS'
p1700
S'm'
sS'net.ipv4.tcp_app_win'
p1701
I31
sS'net.ipv4.cipso_cache_enable'
p1702
I1
sS'CONFIG_EVM_EXTRA_SMACK_XATTRS'
p1703
S'y'
sS'net.ipv6.conf.ens3.autoconf'
p1704
I1
sS'CONFIG_MEMORY'
p1705
S'y'
sS'kernel.numa_balancing_scan_delay_ms'
p1706
I1000
sS'CONFIG_KDB_DEFAULT_ENABLE'
p1707
S'0x1'
p1708
sS'fs.inotify.max_queued_events'
p1709
I16384
sS'CONFIG_SG_POOL'
p1710
S'y'
sS'CONFIG_CRYPTO_RSA'
p1711
S'y'
sS'net.ipv4.tcp_pacing_ca_ratio'
p1712
I120
sS'CONFIG_CPU_FREQ_GOV_POWERSAVE'
p1713
S'y'
sS'CONFIG_HAVE_BOOTMEM_INFO_NODE'
p1714
S'y'
sS'CONFIG_SPARSEMEM_ALLOC_MEM_MAP_TOGETHER'
p1715
S'y'
sS'CONFIG_ARCH_PHYS_ADDR_T_64BIT'
p1716
S'y'
sS'CONFIG_CPU_FREQ_GOV_USERSPACE'
p1717
S'y'
sS'CONFIG_HAVE_UNSTABLE_SCHED_CLOCK'
p1718
S'y'
sS'net.ipv4.igmp_link_local_mcast_reports'
p1719
I1
sS'CONFIG_MEM_SOFT_DIRTY'
p1720
S'y'
sS'CONFIG_MODULES_USE_ELF_RELA'
p1721
S'y'
sS'CONFIG_SECURITY_SMACK'
p1722
S'y'
sS'net.ipv6.anycast_src_echo_reply'
p1723
I0
sS'CONFIG_IO_DELAY_TYPE_UDELAY'
p1724
I2
sS'CONFIG_SGETMASK_SYSCALL'
p1725
S'y'
sS'CONFIG_BLK_DEV_DM_BUILTIN'
p1726
S'y'
sS'net.ipv4.conf.lo.tag'
p1727
I0
sS'CONFIG_SQUASHFS_FRAGMENT_CACHE_SIZE'
p1728
I3
sS'CONFIG_AUDIT'
p1729
S'y'
sS'CONFIG_UPROBE_EVENTS'
p1730
S'y'
sS'CONFIG_ARCH_SUPPORTS_DEBUG_PAGEALLOC'
p1731
S'y'
sS'CONFIG_X86_CMPXCHG64'
p1732
S'y'
sS'CONFIG_NET_FLOW_LIMIT'
p1733
S'y'
sS'CONFIG_ND_CLAIM'
p1734
S'y'
sS'CONFIG_PM_SLEEP_DEBUG'
p1735
S'y'
sS'CONFIG_CRYPTO_BLKCIPHER'
p1736
S'y'
sS'net.ipv6.conf.default.accept_ra_mtu'
p1737
I1
sS'fs.dir-notify-enable'
p1738
I1
sS'CONFIG_HAVE_HARDLOCKUP_DETECTOR_PERF'
p1739
S'y'
sS'net.ipv4.tcp_slow_start_after_idle'
p1740
I1
sS'kernel.nmi_watchdog'
p1741
I0
sS'CONFIG_HAVE_COPY_THREAD_TLS'
p1742
S'y'
sS'net.ipv6.route.gc_thresh'
p1743
I1024
sS'CONFIG_ARCH_RANDOM'
p1744
S'y'
sS'net.ipv6.conf.ens3.router_probe_interval'
p1745
I60
sS'CONFIG_X86_EXTENDED_PLATFORM'
p1746
S'y'
sS'CONFIG_PM_TRACE'
p1747
S'y'
sS'CONFIG_SYSCTL_EXCEPTION_TRACE'
p1748
S'y'
sS'CONFIG_X86_INTERNODE_CACHE_SHIFT'
p1749
I6
sS'CONFIG_HAVE_SYSCALL_TRACEPOINTS'
p1750
S'y'
sS'CONFIG_ARCH_SUPPORTS_MEMORY_FAILURE'
p1751
S'y'
sS'CONFIG_CRC32'
p1752
S'y'
sS'CONFIG_FUSION'
p1753
S'y'
sS'net.ipv4.conf.lo.accept_source_route'
p1754
I1
sS'net.ipv6.conf.ens3.suppress_frag_ndisc'
p1755
I1
sS'CONFIG_SWPHY'
p1756
S'y'
sS'CONFIG_FUTEX_PI'
p1757
S'y'
sS'CONFIG_HAVE_IOREMAP_PROT'
p1758
S'y'
sS'net.ipv6.conf.all.mc_forwarding'
p1759
I0
sS'vm.admin_reserve_kbytes'
p1760
I8192
sS'CONFIG_ASYNC_TX_DMA'
p1761
S'y'
sS'CONFIG_DW_DMAC_CORE'
p1762
S'y'
sS'CONFIG_IMA_TRUSTED_KEYRING'
p1763
S'y'
sS'CONFIG_CRYPTO_BLKCIPHER2'
p1764
S'y'
sS'CONFIG_64BIT'
p1765
S'y'
sS'net.ipv4.tcp_early_demux'
p1766
I1
sS'CONFIG_EXT4_FS_SECURITY'
p1767
S'y'
sS'CONFIG_KEXEC_CORE'
p1768
S'y'
sS'net.ipv4.neigh.default.unres_qlen'
p1769
I101
sS'CONFIG_COMMON_CLK'
p1770
S'y'
sS'CONFIG_MFD_PALMAS'
p1771
S'y'
sS'CONFIG_AUXDISPLAY'
p1772
S'y'
sS'CONFIG_WLAN_VENDOR_ST'
p1773
S'y'
sS'kernel.printk_ratelimit'
p1774
I5
sS'net.ipv4.neigh.default.delay_first_probe_time'
p1775
I5
sS'CONFIG_SECURITY_SELINUX_BOOTPARAM_VALUE'
p1776
I0
sS'fs.lease-break-time'
p1777
I45
sS'CONFIG_SELECT_MEMORY_MODEL'
p1778
S'y'
sS'vm.dirty_bytes'
p1779
I0
sS'net.ipv6.conf.all.disable_policy'
p1780
I0
sS'CONFIG_KVM_GUEST'
p1781
S'y'
sS'net.ipv4.tcp_syn_retries'
p1782
I6
sS'kernel.shm_rmid_forced'
p1783
I0
sS'CONFIG_PERF_EVENTS_INTEL_UNCORE'
p1784
S'y'
sS'net.ipv4.conf.ens3.igmpv2_unsolicited_report_interval'
p1785
I10000
sS'CONFIG_X86_FAST_FEATURE_TESTS'
p1786
S'y'
sS'CONFIG_FB_NOTIFY'
p1787
S'y'
sS'CONFIG_UEVENT_HELPER_PATH'
p1788
S'""'
p1789
sS'CONFIG_CRYPTO_GHASH_CLMUL_NI_INTEL'
p1790
S'm'
sS'CONFIG_DEVFREQ_GOV_POWERSAVE'
p1791
S'y'
sS'net.ipv6.conf.ens3.accept_ra_from_local'
p1792
I0
sS'net.ipv6.conf.default.router_solicitation_interval'
p1793
I4
sS'net.ipv4.tcp_tso_win_divisor'
p1794
I3
sS'CONFIG_RELOCATABLE'
p1795
S'y'
sS'fs.pipe-max-size'
p1796
I1048576
sS'CONFIG_NO_HZ'
p1797
S'y'
sS'CONFIG_CHELSIO_T4_DCB'
p1798
S'y'
sS'CONFIG_RTC_SYSTOHC_DEVICE'
p1799
S'"rtc0"'
p1800
sS'CONFIG_DEFAULT_SECURITY_APPARMOR'
p1801
S'y'
sS'CONFIG_HAVE_KERNEL_BZIP2'
p1802
S'y'
sS'net.ipv6.conf.ens3.addr_gen_mode'
p1803
I0
sS'CONFIG_QED_SRIOV'
p1804
S'y'
sS'net.ipv4.route.gc_min_interval_ms'
p1805
I500
sS'CONFIG_IOMMU_HELPER'
p1806
S'y'
sS'CONFIG_WLAN_VENDOR_RSI'
p1807
S'y'
sS'CONFIG_VIRTIO_BLK'
p1808
S'y'
sS'CONFIG_HOTPLUG_PCI_PCIE'
p1809
S'y'
sS'net.ipv6.neigh.ens3.mcast_solicit'
p1810
I3
sS'CONFIG_GPIO_SX150X'
p1811
S'y'
sS'CONFIG_IP_MULTIPLE_TABLES'
p1812
S'y'
sS'CONFIG_THP_SWAP'
p1813
S'y'
sS'CONFIG_RFS_ACCEL'
p1814
S'y'
sS'fs.dentry-state'
p1815
S'2730274\t15904\t45\t0\t0\t0'
p1816
sS'CONFIG_TRACEPOINTS'
p1817
S'y'
sS'CONFIG_IP6_NF_IPTABLES'
p1818
S'm'
sS'CONFIG_CRYPTO_AKCIPHER2'
p1819
S'y'
sS'CONFIG_ARCH_HAS_ADD_PAGES'
p1820
S'y'
sS'net.ipv6.conf.lo.dad_transmits'
p1821
I1
sS'CONFIG_SECURITY_APPARMOR_HASH_DEFAULT'
p1822
S'y'
sS'CONFIG_SMP'
p1823
S'y'
sS'CONFIG_NEED_PER_CPU_EMBED_FIRST_CHUNK'
p1824
S'y'
sS'CONFIG_PM_WAKELOCKS_LIMIT'
p1825
I100
sS'net.ipv6.conf.default.accept_dad'
p1826
I1
sS'CONFIG_IKCONFIG'
p1827
S'm'
sS'CONFIG_BLK_CGROUP'
p1828
S'y'
sS'CONFIG_PATA_ACPI'
p1829
S'm'
sS'CONFIG_FUNCTION_PROFILER'
p1830
S'y'
sS'CONFIG_ISCSI_TCP'
p1831
S'm'
sS'CONFIG_HAVE_DEBUG_STACKOVERFLOW'
p1832
S'y'
sS'net.ipv6.neigh.default.gc_stale_time'
p1833
I60
sS'CONFIG_TCP_MD5SIG'
p1834
S'y'
sS'net.ipv4.neigh.ens3.unres_qlen'
p1835
I101
sS'CONFIG_MICROCODE'
p1836
S'y'
sS'CONFIG_HAVE_DEBUG_KMEMLEAK'
p1837
S'y'
sS'CONFIG_TUN'
p1838
S'y'
sS'net.ipv6.conf.lo.autoconf'
p1839
I1
sS'net.ipv4.tcp_low_latency'
p1840
I0
sS'net.ipv6.flowlabel_state_ranges'
p1841
I0
sS'CONFIG_VIRTIO'
p1842
S'y'
sS'kernel.randomize_va_space'
p1843
I2
sS'vm.legacy_va_layout'
p1844
I0
sS'CONFIG_PARAVIRT'
p1845
S'y'
sS'CONFIG_XZ_DEC_BCJ'
p1846
S'y'
sS'net.ipv4.icmp_echo_ignore_all'
p1847
I0
sS'net.ipv4.ip_dynaddr'
p1848
I0
sS'CONFIG_SYSFS'
p1849
S'y'
sS'dev.cdrom.autoeject'
p1850
I0
sS'CONFIG_PROFILING'
p1851
S'y'
sS'CONFIG_PINCONF'
p1852
S'y'
sS'CONFIG_THREAD_INFO_IN_TASK'
p1853
S'y'
sS'CONFIG_NET_VENDOR_INTEL'
p1854
S'y'
sS'CONFIG_TASKSTATS'
p1855
S'y'
sS'vm.memory_failure_early_kill'
p1856
I0
sS'net.ipv6.conf.default.use_tempaddr'
p1857
I2
sS'CONFIG_DEVTMPFS'
p1858
S'y'
sS'CONFIG_CFS_BANDWIDTH'
p1859
S'y'
sS'CONFIG_INLINE_READ_UNLOCK_IRQ'
p1860
S'y'
sS'net.ipv6.route.gc_timeout'
p1861
I60
sS'CONFIG_HAVE_MOD_ARCH_SPECIFIC'
p1862
S'y'
sS'net.ipv6.neigh.ens3.base_reachable_time_ms'
p1863
I30000
sS'CONFIG_FB_MODE_HELPERS'
p1864
S'y'
sS'CONFIG_USB_OHCI_LITTLE_ENDIAN'
p1865
S'y'
sS'net.ipv4.conf.default.ignore_routes_with_linkdown'
p1866
I0
sS'net.ipv6.flowlabel_consistency'
p1867
I1
sS'net.ipv4.icmp_echo_ignore_broadcasts'
p1868
I1
sS'CONFIG_IRQ_WORK'
p1869
S'y'
sS'CONFIG_TCG_TIS'
p1870
S'y'
sS'CONFIG_XZ_DEC_POWERPC'
p1871
S'y'
sS'CONFIG_HZ_250'
p1872
S'y'
sS'CONFIG_STACKTRACE'
p1873
S'y'
sS'CONFIG_ACPI_PROCESSOR'
p1874
S'y'
sS'kernel.pid_max'
p1875
I124928
sS'CONFIG_REGMAP_I2C'
p1876
S'y'
sS'net.ipv6.neigh.ens3.locktime'
p1877
I0
sS'net.ipv4.conf.all.arp_filter'
p1878
I0
sS'net.ipv4.route.redirect_load'
p1879
I5
sS'CONFIG_MFD_MAX8998'
p1880
S'y'
sS'CONFIG_MFD_MAX8997'
p1881
S'y'
sS'CONFIG_HAVE_ACPI_APEI'
p1882
S'y'
sS'CONFIG_DDR'
p1883
S'y'
sS'CONFIG_FONT_SUPPORT'
p1884
S'y'
sS'CONFIG_X86_PMEM_LEGACY_DEVICE'
p1885
S'y'
sS'CONFIG_MODULE_SIG_KEY'
p1886
S'"certs/signing_key.pem"'
p1887
sS'CONFIG_ASSOCIATIVE_ARRAY'
p1888
S'y'
sS'CONFIG_EZX_PCAP'
p1889
S'y'
sS'CONFIG_SCSI_MOD'
p1890
S'y'
sS'CONFIG_CRYPTO_HASH_INFO'
p1891
S'y'
sS'net.ipv4.conf.all.shared_media'
p1892
I1
sS'CONFIG_IOMMU_API'
p1893
S'y'
sS'CONFIG_INLINE_SPIN_UNLOCK_IRQ'
p1894
S'y'
sS'CONFIG_BLOCK'
p1895
S'y'
sS'CONFIG_MEMORY_FAILURE'
p1896
S'y'
sS'CONFIG_NET_VENDOR_EZCHIP'
p1897
S'y'
sS'kernel.sched_domain.cpu1.domain0.max_interval'
p1898
I4
sS'CONFIG_CPU_RMAP'
p1899
S'y'
sS'net.netfilter.nf_log.11'
p1900
S'NONE'
p1901
sS'net.netfilter.nf_log.10'
p1902
S'NONE'
p1903
sS'net.netfilter.nf_log.12'
p1904
S'NONE'
p1905
sS'CONFIG_ARCH_HAS_PMEM_API'
p1906
S'y'
sS'net.ipv6.conf.all.drop_unicast_in_l2_multicast'
p1907
I0
sS'CONFIG_X86_INTEL_LPSS'
p1908
S'y'
sS'net.core.rmem_max'
p1909
I212992
sS'CONFIG_CRYPTO_DRBG_HASH'
p1910
S'y'
sS'CONFIG_SECURITY_PATH'
p1911
S'y'
sS'CONFIG_THERMAL_EMERGENCY_POWEROFF_DELAY_MS'
p1912
I0
sS'CONFIG_DEBUG_FS'
p1913
S'y'
sS'CONFIG_STACK_TRACER'
p1914
S'y'
sS'net.core.dev_weight'
p1915
I64
sS'CONFIG_HAVE_ALIGNED_STRUCT_PAGE'
p1916
S'y'
sS'CONFIG_NET_VENDOR_SYNOPSYS'
p1917
S'y'
sS'CONFIG_NET_FC'
p1918
S'y'
sS'CONFIG_NET_VENDOR_MARVELL'
p1919
S'y'
sS'CONFIG_BLK_DEV_LOOP_MIN_COUNT'
p1920
I8
sS'net.ipv6.conf.ens3.proxy_ndp'
p1921
I0
sS'CONFIG_DEFAULT_TCP_CONG'
p1922
S'"cubic"'
p1923
sS'CONFIG_CRYPTO_CBC'
p1924
S'y'
sS'CONFIG_PGTABLE_MAPPING'
p1925
S'y'
sS'CONFIG_NET_VENDOR_NATSEMI'
p1926
S'y'
sS'CONFIG_HAVE_EBPF_JIT'
p1927
S'y'
sS'kernel.shmmax'
p1928
L18446744073692774399L
sS'net.ipv6.conf.all.accept_ra_min_hop_limit'
p1929
I1
sS'CONFIG_PARAVIRT_SPINLOCKS'
p1930
S'y'
sS'CONFIG_FB_SIMPLE'
p1931
S'y'
sS'net.ipv6.neigh.default.proxy_delay'
p1932
I80
sS'CONFIG_QUEUED_RWLOCKS'
p1933
S'y'
sS'CONFIG_USB_DWC2'
p1934
S'y'
sS'CONFIG_RAPIDIO_DMA_ENGINE'
p1935
S'y'
sS'CONFIG_VHOST_NET'
p1936
S'm'
sS'net.ipv4.conf.ens3.forwarding'
p1937
I0
sS'CONFIG_MFD_SYSCON'
p1938
S'y'
sS'net.ipv4.neigh.lo.unres_qlen_bytes'
p1939
I212992
sS'fs.pipe-user-pages-soft'
p1940
I16384
sS'CONFIG_CRYPTO_SIMD'
p1941
S'm'
sS'CONFIG_SND_PCM_TIMER'
p1942
S'y'
sS'CONFIG_X86_INTEL_PSTATE'
p1943
S'y'
sS'net.ipv4.tcp_mtu_probing'
p1944
I0
sS'CONFIG_MFD_TWL4030_AUDIO'
p1945
S'y'
sS'CONFIG_CGROUP_PERF'
p1946
S'y'
sS'CONFIG_WATCHDOG_HANDLE_BOOT_ENABLED'
p1947
S'y'
sS'CONFIG_SOLARIS_X86_PARTITION'
p1948
S'y'
sS'CONFIG_MFD_SMSC'
p1949
S'y'
sS'CONFIG_NEED_SG_DMA_LENGTH'
p1950
S'y'
sS'vm.hugepages_treat_as_movable'
p1951
I0
sS'CONFIG_ARCH_HAS_DEVMEM_IS_ALLOWED'
p1952
S'y'
sS'CONFIG_SND'
p1953
S'm'
sS'CONFIG_LZO_DECOMPRESS'
p1954
S'y'
sS'kernel.ftrace_enabled'
p1955
I1
sS'CONFIG_CRYPTO_RNG'
p1956
S'y'
sS'CONFIG_MODULES_TREE_LOOKUP'
p1957
S'y'
sS'CONFIG_ECRYPT_FS_MESSAGING'
p1958
S'y'
sS'CONFIG_RTC_HCTOSYS_DEVICE'
p1959
S'"rtc0"'
p1960
sS'net.ipv4.conf.ens3.src_valid_mark'
p1961
I0
sS'CONFIG_EFI_VARS'
p1962
S'y'
sS'kernel.numa_balancing_scan_size_mb'
p1963
I256
sS'CONFIG_KEXEC_FILE'
p1964
S'y'
sS'CONFIG_I2C_BOARDINFO'
p1965
S'y'
sS'CONFIG_SECCOMP'
p1966
S'y'
sS'CONFIG_CRYPTO_RNG2'
p1967
S'y'
sS'CONFIG_ARCH_MMAP_RND_BITS'
p1968
I28
sS'CONFIG_PMIC_DA9052'
p1969
S'y'
sS'CONFIG_KGDB_SERIAL_CONSOLE'
p1970
S'y'
sS'CONFIG_CPU_FREQ_GOV_ATTR_SET'
p1971
S'y'
sS'CONFIG_IMA_DEFAULT_TEMPLATE'
p1972
S'"ima-ng"'
p1973
sS'CONFIG_BOOTPARAM_HUNG_TASK_PANIC_VALUE'
p1974
I0
sS'CONFIG_CRYPTO_SHA1'
p1975
S'y'
sS'CONFIG_MMIOTRACE'
p1976
S'y'
sS'CONFIG_HW_RANDOM'
p1977
S'y'
sS'CONFIG_ARCH_HAS_CPU_RELAX'
p1978
S'y'
sS'net.ipv6.conf.all.accept_source_route'
p1979
I0
sS'CONFIG_PARAVIRT_TIME_ACCOUNTING'
p1980
S'y'
sS'net.ipv4.neigh.ens3.delay_first_probe_time'
p1981
I5
sS'net.ipv4.neigh.ens3.retrans_time_ms'
p1982
I1000
sS'CONFIG_KALLSYMS'
p1983
S'y'
sS'CONFIG_RFKILL_INPUT'
p1984
S'y'
sS'net.ipv4.route.gc_timeout'
p1985
I300
sS'CONFIG_NET_VENDOR_SAMSUNG'
p1986
S'y'
sS'CONFIG_SPARSEMEM'
p1987
S'y'
sS'CONFIG_ARCH_HAS_ELF_RANDOMIZE'
p1988
S'y'
sS'CONFIG_HAVE_DMA_API_DEBUG'
p1989
S'y'
sS'CONFIG_ACPI_BUTTON'
p1990
S'y'
sS'CONFIG_TTY'
p1991
S'y'
sS'CONFIG_X86_BOOTPARAM_MEMORY_CORRUPTION_CHECK'
p1992
S'y'
sS'CONFIG_XZ_DEC'
p1993
S'y'
sS'CONFIG_X86_PM_TIMER'
p1994
S'y'
sS'net.ipv4.conf.ens3.arp_notify'
p1995
I0
sS'CONFIG_SERIAL_8250_LPSS'
p1996
S'y'
sS'net.ipv4.neigh.lo.anycast_delay'
p1997
I100
sS'CONFIG_RPS'
p1998
S'y'
sS'CONFIG_AUDIT_WATCH'
p1999
S'y'
sS'CONFIG_KVM_GENERIC_DIRTYLOG_READ_PROTECT'
p2000
S'y'
sS'CONFIG_DMAR_TABLE'
p2001
S'y'
sS'CONFIG_SYSTEM_EXTRA_CERTIFICATE_SIZE'
p2002
I4096
sS'net.ipv4.conf.ens3.send_redirects'
p2003
I1
sS'CONFIG_FB_VESA'
p2004
S'y'
sS'CONFIG_PREEMPT_VOLUNTARY'
p2005
S'y'
sS'CONFIG_DEVMEM'
p2006
S'y'
sS'CONFIG_FUSE_FS'
p2007
S'y'
sS'CONFIG_USER_RETURN_NOTIFIER'
p2008
S'y'
sS'net.ipv4.tcp_max_reordering'
p2009
I300
sS'net.ipv4.neigh.default.gc_interval'
p2010
I30
sS'kernel.sg-big-buff'
p2011
I32768
sS'net.ipv6.route.gc_elasticity'
p2012
I9
sS'CONFIG_ARCH_SPARSEMEM_ENABLE'
p2013
S'y'
sS'CONFIG_SCHED_TRACER'
p2014
S'y'
sS'CONFIG_SQUASHFS_DECOMP_SINGLE'
p2015
S'y'
sS'CONFIG_X86_IO_APIC'
p2016
S'y'
sS'net.ipv6.conf.default.temp_valid_lft'
p2017
I604800
sS'CONFIG_ZONE_DMA32'
p2018
S'y'
sS'CONFIG_SERIAL_8250_MANY_PORTS'
p2019
S'y'
sS'net.ipv4.tcp_timestamps'
p2020
I1
sS'CONFIG_EDAC'
p2021
S'y'
sS'CONFIG_GENERIC_CPU_AUTOPROBE'
p2022
S'y'
sS'CONFIG_NR_CPUS'
p2023
I512
sS'CONFIG_DOUBLEFAULT'
p2024
S'y'
sS'user.max_user_namespaces'
p2025
I257592
sS'CONFIG_BIG_KEYS'
p2026
S'y'
sS'kernel.keys.root_maxkeys'
p2027
I1000000
sS'CONFIG_POSIX_MQUEUE_SYSCTL'
p2028
S'y'
sS'net.ipv6.conf.ens3.disable_policy'
p2029
I0
sS'net.ipv6.neigh.lo.delay_first_probe_time'
p2030
I5
sS'CONFIG_AMD_NUMA'
p2031
S'y'
sS'net.core.somaxconn'
p2032
I128
sS'CONFIG_AMIGA_PARTITION'
p2033
S'y'
sS'CONFIG_CONSOLE_LOGLEVEL_DEFAULT'
p2034
I7
sS'CONFIG_SQUASHFS_LZ4'
p2035
S'y'
sS'net.ipv6.conf.ens3.accept_ra_pinfo'
p2036
I1
sS'CONFIG_SCSI_CONSTANTS'
p2037
S'y'
sS'CONFIG_FB_IMSTT'
p2038
S'y'
sS'CONFIG_CRYPTO_AES'
p2039
S'y'
sS'CONFIG_RTC_INTF_SYSFS'
p2040
S'y'
sS'CONFIG_SECURITY_SELINUX_DEVELOP'
p2041
S'y'
sS'net.ipv4.conf.lo.mc_forwarding'
p2042
I0
sS'net.ipv4.tcp_keepalive_probes'
p2043
I9
sS'CONFIG_TREE_RCU'
p2044
S'y'
sS'vm.hugetlb_shm_group'
p2045
I0
sS'CONFIG_X86_TSC'
p2046
S'y'
sS'CONFIG_SECURITY_SELINUX_BOOTPARAM'
p2047
S'y'
sS'CONFIG_ACPI_PCI_SLOT'
p2048
S'y'
sS'CONFIG_X86_MCE_AMD'
p2049
S'y'
sg3
(lp2050
S'HostInfo'
p2051
ag6
aS'object'
p2052
asS'kernel.random.urandom_min_reseed_secs'
p2053
I60
sS'CONFIG_LIBNVDIMM'
p2054
S'y'
sS'kernel.random.read_wakeup_threshold'
p2055
I64
sS'kernel.sched_domain.cpu1.domain0.wake_idx'
p2056
I0
sS'CONFIG_RESET_CONTROLLER'
p2057
S'y'
sS'net.ipv4.tcp_no_metrics_save'
p2058
I0
sS'CONFIG_I2C_HELPER_AUTO'
p2059
S'y'
sS'CONFIG_JBD2'
p2060
S'y'
sS'kernel.sched_domain.cpu1.domain0.forkexec_idx'
p2061
I0
sS'CONFIG_PARTITION_ADVANCED'
p2062
S'y'
sS'CONFIG_EFI_STUB'
p2063
S'y'
sS'net.ipv6.neigh.ens3.mcast_resolicit'
p2064
I0
sS'net.ipv4.conf.all.arp_announce'
p2065
I0
sS'net.ipv4.conf.all.ignore_routes_with_linkdown'
p2066
I0
sS'CONFIG_RTC_INTF_DEV'
p2067
S'y'
sS'CONFIG_EXT4_FS_POSIX_ACL'
p2068
S'y'
sS'CONFIG_SRCU'
p2069
S'y'
sS'CONFIG_INPUT_EVDEV'
p2070
S'y'
sS'net.ipv4.conf.all.arp_ignore'
p2071
I0
sS'CONFIG_GPIO_TPS6586X'
p2072
S'y'
sS'CONFIG_SECCOMP_FILTER'
p2073
S'y'
sS'CONFIG_SERIO'
p2074
S'y'
sS'net.ipv6.conf.ens3.accept_ra_min_hop_limit'
p2075
I1
sS'CONFIG_ARCH_HAS_CACHE_LINE_SIZE'
p2076
S'y'
sS'CONFIG_SERIAL_8250_RUNTIME_UARTS'
p2077
I32
sS'CONFIG_MMU_NOTIFIER'
p2078
S'y'
sS'CONFIG_HW_CONSOLE'
p2079
S'y'
sS'CONFIG_SQUASHFS_LZO'
p2080
S'y'
sS'net.ipv4.tcp_stdurg'
p2081
I0
sS'CONFIG_SCSI_DH'
p2082
S'y'
sS'CONFIG_USB_ARCH_HAS_HCD'
p2083
S'y'
sS'net.ipv4.conf.lo.forwarding'
p2084
I0
sS'kernel.unknown_nmi_panic'
p2085
I0
sS'CONFIG_NO_HZ_COMMON'
p2086
S'y'
sS'net.ipv4.conf.all.route_localnet'
p2087
I0
sS'kernel.seccomp.actions_logged'
p2088
S'kill_process kill_thread trap errno trace log'
p2089
sS'net.ipv6.conf.all.force_mld_version'
p2090
I0
sS'CONFIG_MSDOS_PARTITION'
p2091
S'y'
sS'vm.overcommit_kbytes'
p2092
I0
sS'net.ipv4.conf.all.drop_unicast_in_l2_multicast'
p2093
I0
sS'CONFIG_POWER_SUPPLY'
p2094
S'y'
sS'CONFIG_HAVE_CC_STACKPROTECTOR'
p2095
S'y'
sS'CONFIG_DECOMPRESS_LZMA'
p2096
S'y'
sS'net.ipv6.conf.all.ndisc_notify'
p2097
I0
sS'CONFIG_CALGARY_IOMMU'
p2098
S'y'
sS'net.ipv4.neigh.lo.unres_qlen'
p2099
I101
sS'CONFIG_IO_DELAY_TYPE_0X80'
p2100
I0
sS'CONFIG_SND_JACK'
p2101
S'y'
sS'CONFIG_DYNAMIC_DEBUG'
p2102
S'y'
sS'kernel.printk_ratelimit_burst'
p2103
I10
sS'CONFIG_CRYPTO_SEQIV'
p2104
S'y'
sS'CONFIG_NET_VENDOR_OKI'
p2105
S'y'
sS'fs.nr_open'
p2106
I1048576
sS'net.ipv6.conf.lo.accept_ra_mtu'
p2107
I1
sS'CONFIG_RAID6_PQ'
p2108
S'm'
sS'CONFIG_CFQ_GROUP_IOSCHED'
p2109
S'y'
sS'CONFIG_PARAVIRT_CLOCK'
p2110
S'y'
sS'CONFIG_SND_VMASTER'
p2111
S'y'
sS'net.ipv4.conf.lo.shared_media'
p2112
I1
sS'CONFIG_NLS'
p2113
S'y'
sS'CONFIG_SECURITY_TOMOYO'
p2114
S'y'
sS'CONFIG_ARCH_HAS_STRICT_MODULE_RWX'
p2115
S'y'
sS'CONFIG_SND_OSSEMUL'
p2116
S'y'
sS'CONFIG_CGROUP_FREEZER'
p2117
S'y'
sS'CONFIG_NET_VENDOR_CHELSIO'
p2118
S'y'
sS'CONFIG_FRAMEBUFFER_CONSOLE_DETECT_PRIMARY'
p2119
S'y'
sS'CONFIG_ASN1'
p2120
S'y'
sS'CONFIG_CRC16'
p2121
S'y'
sS'CONFIG_PCIEASPM'
p2122
S'y'
sS'CONFIG_LDM_PARTITION'
p2123
S'y'
sS'CONFIG_CROSS_MEMORY_ATTACH'
p2124
S'y'
sS'CONFIG_COMPACTION'
p2125
S'y'
sS'kernel.io_delay_type'
p2126
I1
sS'CONFIG_HAVE_KRETPROBES'
p2127
S'y'
sS'CONFIG_CPU_IDLE_GOV_LADDER'
p2128
S'y'
sS'CONFIG_UNISYSSPAR'
p2129
S'y'
sS'net.ipv6.neigh.lo.locktime'
p2130
I0
sS'CONFIG_CPU_FREQ_GOV_ONDEMAND'
p2131
S'y'
sS'CONFIG_CROSS_COMPILE'
p2132
S'""'
p2133
sS'CONFIG_ARCH_HAS_SET_MEMORY'
p2134
S'y'
sS'CONFIG_SYSCTL_SYSCALL'
p2135
S'y'
sS'net.ipv4.neigh.ens3.mcast_solicit'
p2136
I3
sS'CONFIG_PRINTK_SAFE_LOG_BUF_SHIFT'
p2137
I13
sS'CONFIG_NET_RX_BUSY_POLL'
p2138
S'y'
sS'CONFIG_GENERIC_TIME_VSYSCALL'
p2139
S'y'
sS'CONFIG_HARDLOCKUP_DETECTOR_PERF'
p2140
S'y'
sS'CONFIG_USB_PHY'
p2141
S'y'
sS'CONFIG_FANOTIFY_ACCESS_PERMISSIONS'
p2142
S'y'
sS'CONFIG_RCU_NEED_SEGCBLIST'
p2143
S'y'
sS'CONFIG_MULTIUSER'
p2144
S'y'
sS'net.ipv4.tcp_wmem'
p2145
S'4096\t16384\t4194304'
p2146
sS'kernel.tainted'
p2147
I0
sS'CONFIG_VMAP_STACK'
p2148
S'y'
sS'kernel.sched_nr_migrate'
p2149
I32
sS'CONFIG_HAVE_KVM_MSI'
p2150
S'y'
sS'CONFIG_MFD_TPS65912_SPI'
p2151
S'y'
sS'kernel.keys.root_maxbytes'
p2152
I25000000
sS'CONFIG_NET_VENDOR_BROADCOM'
p2153
S'y'
sS'CONFIG_PCIEAER'
p2154
S'y'
sS'net.ipv4.conf.ens3.bootp_relay'
p2155
I0
sS'CONFIG_MICROCODE_OLD_INTERFACE'
p2156
S'y'
sS'kernel.cap_last_cap'
p2157
I37
sS'CONFIG_ARCH_USE_QUEUED_RWLOCKS'
p2158
S'y'
sS'CONFIG_ARCH_MIGHT_HAVE_PC_PARPORT'
p2159
S'y'
sS'net.ipv4.tcp_available_congestion_control'
p2160
S'cubic reno'
p2161
sS'CONFIG_CRYPTO_CRC32C_INTEL'
p2162
S'y'
sS'CONFIG_ACPI_BATTERY'
p2163
S'y'
sS'CONFIG_ACPI_PROCESSOR_IDLE'
p2164
S'y'
sS'net.ipv6.conf.lo.mc_forwarding'
p2165
I0
sS'kernel.printk'
p2166
S'4\t4\t1\t7'
p2167
sS'CONFIG_PID_NS'
p2168
S'y'
sS'CONFIG_NETFILTER'
p2169
S'y'
sS'user.max_inotify_instances'
p2170
I1024
sS'CONFIG_ACPI_AC'
p2171
S'y'
sS'CONFIG_VM_EVENT_COUNTERS'
p2172
S'y'
sS'CONFIG_BINFMT_SCRIPT'
p2173
S'y'
sS'CONFIG_TMPFS_POSIX_ACL'
p2174
S'y'
sS'CONFIG_NLATTR'
p2175
S'y'
sS'CONFIG_DEFAULT_DEADLINE'
p2176
S'y'
sS'CONFIG_MODULE_SIG'
p2177
S'y'
sS'net.ipv4.igmp_max_memberships'
p2178
I20
sS'CONFIG_X86_REROUTE_FOR_BROKEN_BOOT_IRQS'
p2179
S'y'
sS'net.ipv6.conf.lo.router_solicitation_interval'
p2180
I4
sS'CONFIG_MODULE_SIG_HASH'
p2181
S'"sha512"'
p2182
sS'net.ipv6.conf.lo.accept_ra_defrtr'
p2183
I1
sS'CONFIG_SOCK_CGROUP_DATA'
p2184
S'y'
sS'debug.exception-trace'
p2185
I1
sS'CONFIG_ACPI_NUMA'
p2186
S'y'
sS'CONFIG_SECURITY_SELINUX_AVC_STATS'
p2187
S'y'
sS'CONFIG_IMA_MEASURE_PCR_IDX'
p2188
I10
sS'CONFIG_X86'
p2189
S'y'
sS'CONFIG_CRC_T10DIF'
p2190
S'y'
sS'net.ipv6.conf.all.autoconf'
p2191
I1
sS'CONFIG_NET_VENDOR_DLINK'
p2192
S'y'
sS'net.ipv6.conf.all.router_solicitation_delay'
p2193
I1
sS'CONFIG_EARLY_PRINTK_DBGP'
p2194
S'y'
sS'CONFIG_CC_OPTIMIZE_FOR_PERFORMANCE'
p2195
S'y'
sS'CONFIG_TREE_SRCU'
p2196
S'y'
sS'CONFIG_PCI_IOV'
p2197
S'y'
sS'CONFIG_ATA_PIIX'
p2198
S'y'
sS'CONFIG_CRYPTO_MD5'
p2199
S'y'
sS'kernel.panic_on_warn'
p2200
I0
sS'kernel.sched_domain.cpu1.domain0.max_newidle_lb_cost'
p2201
I5385
sS'CONFIG_SND_HDA_INPUT_BEEP'
p2202
S'y'
sS'fs.epoll.max_user_watches'
p2203
I13505269
sS'CONFIG_SERIAL_8250'
p2204
S'y'
sS'net.ipv6.conf.default.temp_prefered_lft'
p2205
I86400
sS'CONFIG_FB_EFI'
p2206
S'y'
sS'kernel.pty.nr'
p2207
I0
sS'net.ipv6.conf.lo.accept_dad'
p2208
S'-1'
p2209
sS'net.ipv6.conf.ens3.router_solicitation_delay'
p2210
I1
sS'net.ipv6.conf.lo.mldv1_unsolicited_report_interval'
p2211
I10000
sS'net.ipv6.conf.ens3.router_solicitation_max_interval'
p2212
I3600
sS'kernel.keys.maxkeys'
p2213
I200
sS'net.ipv4.tcp_base_mss'
p2214
I1024
sS'CONFIG_HAVE_PERF_EVENTS_NMI'
p2215
S'y'
sS'CONFIG_ASYMMETRIC_KEY_TYPE'
p2216
S'y'
sS'CONFIG_MFD_WM8350'
p2217
S'y'
sS'CONFIG_FS_DAX'
p2218
S'y'
sS'CONFIG_IP6_NF_FILTER'
p2219
S'm'
sS'CONFIG_MODULE_SRCVERSION_ALL'
p2220
S'y'
sS'CONFIG_COREDUMP'
p2221
S'y'
sS'CONFIG_MFD_TPS65912'
p2222
S'y'
sS'CONFIG_GENERIC_ALLOCATOR'
p2223
S'y'
sS'net.ipv6.neigh.lo.ucast_solicit'
p2224
I3
sS'CONFIG_MTRR_SANITIZER_ENABLE_DEFAULT'
p2225
I1
sS'net.ipv6.conf.lo.drop_unicast_in_l2_multicast'
p2226
I0
sS'net.ipv6.conf.default.router_solicitation_delay'
p2227
I1
sS'CONFIG_PCI_LOCKLESS_CONFIG'
p2228
S'y'
sS'net.ipv6.neigh.ens3.anycast_delay'
p2229
I100
sS'net.ipv4.conf.lo.drop_gratuitous_arp'
p2230
I0
sS'net.ipv6.conf.ens3.mldv1_unsolicited_report_interval'
p2231
I10000
sS'net.ipv4.conf.lo.ignore_routes_with_linkdown'
p2232
I0
sS'CONFIG_NET_CORE'
p2233
S'y'
sS'kernel.panic_on_unrecovered_nmi'
p2234
I0
sS'CONFIG_HAVE_MEMORY_PRESENT'
p2235
S'y'
sS'net.ipv6.conf.default.keep_addr_on_down'
p2236
I0
sS'CONFIG_X86_FEATURE_NAMES'
p2237
S'y'
sS'CONFIG_NOP_TRACER'
p2238
S'y'
sS'CONFIG_FUNCTION_TRACER'
p2239
S'y'
sS'CONFIG_CPU_FREQ_STAT'
p2240
S'y'
sS'net.ipv4.neigh.ens3.locktime'
p2241
I100
sS'net.ipv6.neigh.lo.unres_qlen_bytes'
p2242
I212992
sS'CONFIG_POSIX_TIMERS'
p2243
S'y'
sS'CONFIG_LWTUNNEL_BPF'
p2244
S'y'
sS'net.ipv4.conf.default.disable_xfrm'
p2245
I0
sS'CONFIG_PHYSICAL_START'
p2246
S'0x1000000'
p2247
sS'CONFIG_COMPAT_OLD_SIGACTION'
p2248
S'y'
sS'net.ipv4.tcp_keepalive_time'
p2249
I7200
sS'net.ipv6.conf.ens3.max_addresses'
p2250
I16
sS'CONFIG_EXTCON'
p2251
S'y'
sS'CONFIG_NET_VENDOR_AMD'
p2252
S'y'
sS'net.ipv4.conf.all.accept_source_route'
p2253
I0
sS'CONFIG_X86_PAT'
p2254
S'y'
sS'CONFIG_GENERIC_HWEIGHT'
p2255
S'y'
sS'CONFIG_X86_CHECK_BIOS_CORRUPTION'
p2256
S'y'
sS'CONFIG_ARCH_HAS_SG_CHAIN'
p2257
S'y'
sS'CONFIG_ARCH_SUPPORTS_ATOMIC_RMW'
p2258
S'y'
sS'net.ipv4.conf.ens3.shared_media'
p2259
I1
sS'CONFIG_RT_MUTEXES'
p2260
S'y'
sS'net.core.rmem_default'
p2261
I212992
sS'vm.min_unmapped_ratio'
p2262
I1
sS'CONFIG_RFKILL_LEDS'
p2263
S'y'
sS'CONFIG_ARCH_USES_HIGH_VMA_FLAGS'
p2264
S'y'
sS'net.ipv4.conf.lo.drop_unicast_in_l2_multicast'
p2265
I0
sS'CONFIG_THIN_ARCHIVES'
p2266
S'y'
sS'net.ipv6.conf.all.regen_max_retry'
p2267
I3
sS'net.ipv6.conf.all.accept_ra_defrtr'
p2268
I1
sS'net.ipv4.conf.all.arp_notify'
p2269
I0
sS'CONFIG_VIRTIO_PCI'
p2270
S'y'
sS'kernel.kexec_load_disabled'
p2271
I0
sS'CONFIG_CRYPTO_MANAGER2'
p2272
S'y'
sS'CONFIG_NUMA'
p2273
S'y'
sS'fs.file-nr'
p2274
S'786\t0\t6578986'
p2275
sS'CONFIG_OPROFILE_NMI_TIMER'
p2276
S'y'
sS'fs.quota.cache_hits'
p2277
I0
sS'CONFIG_X86_SMAP'
p2278
S'y'
sS'CONFIG_PANIC_TIMEOUT'
p2279
I0
sS'CONFIG_SLUB_CPU_PARTIAL'
p2280
S'y'
sS'CONFIG_HAVE_MEMBLOCK_NODE_MAP'
p2281
S'y'
sS'CONFIG_SND_HDA_RECONFIG'
p2282
S'y'
sS'CONFIG_REGMAP_SPI'
p2283
S'y'
sS'CONFIG_ARCH_MAY_HAVE_PC_FDC'
p2284
S'y'
sS'net.ipv6.neigh.default.mcast_resolicit'
p2285
I0
sS'CONFIG_REGULATOR_TPS65217'
p2286
S'y'
sS'CONFIG_HIBERNATE_CALLBACKS'
p2287
S'y'
sS'CONFIG_CLKBLD_I8253'
p2288
S'y'
sS'kernel.sched_latency_ns'
p2289
I12000000
sS'CONFIG_NAMESPACES'
p2290
S'y'
sS'CONFIG_BPF_JIT'
p2291
S'y'
sS'CONFIG_DEFAULT_CUBIC'
p2292
S'y'
sS'kernel.numa_balancing'
p2293
I1
sS'kernel.hardlockup_panic'
p2294
I0
sS'CONFIG_NET_VENDOR_VIA'
p2295
S'y'
sS'CONFIG_PROC_CHILDREN'
p2296
S'y'
sS'CONFIG_PHYS_ADDR_T_64BIT'
p2297
S'y'
sS'net.ipv6.conf.all.accept_ra_rt_info_min_plen'
p2298
I0
sS'CONFIG_GENERIC_PENDING_IRQ'
p2299
S'y'
sS'net.ipv4.neigh.ens3.ucast_solicit'
p2300
I3
sS'CONFIG_KDB_CONTINUE_CATASTROPHIC'
p2301
I0
sS'CONFIG_FB_BOOT_VESA_SUPPORT'
p2302
S'y'
sS'kernel.perf_event_max_contexts_per_stack'
p2303
I8
sS'CONFIG_DYNAMIC_FTRACE'
p2304
S'y'
sS'net.ipv6.conf.ens3.dad_transmits'
p2305
I1
sS'net.ipv6.conf.lo.mtu'
p2306
I65536
sS'net.ipv6.conf.all.disable_ipv6'
p2307
I0
sS'net.ipv6.conf.ens3.router_solicitations'
p2308
S'-1'
p2309
sS'net.ipv6.conf.lo.keep_addr_on_down'
p2310
I0
sS'CONFIG_USB_EHCI_PCI'
p2311
S'y'
sS'CONFIG_KVM_ASYNC_PF'
p2312
S'y'
sS'net.ipv6.ip6frag_time'
p2313
I60
sS'net.ipv4.conf.all.log_martians'
p2314
I0
sS'fs.aio-max-nr'
p2315
I65536
sS'CONFIG_ARCH_SUPPORTS_INT128'
p2316
S'y'
sS'CONFIG_SECURITY'
p2317
S'y'
sS'CONFIG_SPI'
p2318
S'y'
sS'net.ipv4.tcp_orphan_retries'
p2319
I0
sS'net.ipv4.tcp_fin_timeout'
p2320
I60
sS'CONFIG_IDLE_PAGE_TRACKING'
p2321
S'y'
sS'CONFIG_CRYPTO_CRYPTD'
p2322
S'm'
sS'CONFIG_DEVPORT'
p2323
S'y'
sS'CONFIG_ARCH_PROC_KCORE_TEXT'
p2324
S'y'
sS'CONFIG_SPARSEMEM_VMEMMAP_ENABLE'
p2325
S'y'
sS'net.ipv4.tcp_recovery'
p2326
I1
sS'CONFIG_NET_CADENCE'
p2327
S'y'
sS'CONFIG_CRYPTO_AES_NI_INTEL'
p2328
S'm'
sS'CONFIG_SERIAL_8250_NR_UARTS'
p2329
I48
sS'net.ipv6.conf.ens3.forwarding'
p2330
I0
sS'CONFIG_NET_VENDOR_MYRI'
p2331
S'y'
sS'CONFIG_ARCH_SUPPORTS_NUMA_BALANCING'
p2332
S'y'
sS'CONFIG_TMPFS_XATTR'
p2333
S'y'
sS'net.ipv4.neigh.ens3.anycast_delay'
p2334
I100
sS'net.ipv6.conf.default.mldv1_unsolicited_report_interval'
p2335
I10000
sS'CONFIG_ARCH_HAS_STRICT_KERNEL_RWX'
p2336
S'y'
sS'net.ipv4.tcp_sack'
p2337
I1
sS'CONFIG_BLK_DEV_MD'
p2338
S'y'
sS'kernel.panic_on_rcu_stall'
p2339
I0
sS'net.ipv6.conf.ens3.mtu'
p2340
I1500
sS'CONFIG_PCI_DIRECT'
p2341
S'y'
sS'kernel.ns_last_pid'
p2342
I117456
sS'CONFIG_HAVE_KERNEL_GZIP'
p2343
S'y'
sS'CONFIG_MEGARAID_NEWGEN'
p2344
S'y'
sS'vm.overcommit_ratio'
p2345
I50
sS'CONFIG_MFD_TPS65217'
p2346
S'y'
sS'CONFIG_CRASH_CORE'
p2347
S'y'
sS'CONFIG_ENCRYPTED_KEYS'
p2348
S'y'
sS'net.ipv6.neigh.ens3.retrans_time_ms'
p2349
I1000
sS'CONFIG_ACPI_PROCESSOR_CSTATE'
p2350
S'y'
sS'CONFIG_BLK_DEBUG_FS'
p2351
S'y'
sS'CONFIG_IPV6_PIMSM_V2'
p2352
S'y'
sS'CONFIG_INITRAMFS_SOURCE'
p2353
S'""'
p2354
sS'CONFIG_NET_VENDOR_TI'
p2355
S'y'
sS'CONFIG_HPET_MMAP_DEFAULT'
p2356
S'y'
sS'CONFIG_PROCESSOR_SELECT'
p2357
S'y'
sS'CONFIG_MQ_IOSCHED_KYBER'
p2358
S'y'
sS'user.max_cgroup_namespaces'
p2359
I257592
sS'dev.scsi.logging_level'
p2360
I0
sS'CONFIG_SLHC'
p2361
S'y'
sS'CONFIG_PREVENT_FIRMWARE_BUILD'
p2362
S'y'
sS'net.ipv4.conf.default.accept_redirects'
p2363
I1
sS'CONFIG_PWM_CRC'
p2364
S'y'
sS'CONFIG_ARCH_MMAP_RND_COMPAT_BITS_MIN'
p2365
I8
sS'kernel.hung_task_panic'
p2366
I0
sS'net.ipv4.tcp_retrans_collapse'
p2367
I1
sS'CONFIG_HAVE_KPROBES_ON_FTRACE'
p2368
S'y'
sS'fs.quota.writes'
p2369
I0
sS'CONFIG_ARCH_WANT_HUGE_PMD_SHARE'
p2370
S'y'
sS'CONFIG_CC_STACKPROTECTOR'
p2371
S'y'
sS'CONFIG_PROC_VMCORE'
p2372
S'y'
sS'CONFIG_GDB_SCRIPTS'
p2373
S'y'
sS'CONFIG_HAVE_CMPXCHG_DOUBLE'
p2374
S'y'
sS'CONFIG_FB_CFB_COPYAREA'
p2375
S'y'
sS'CONFIG_GENERIC_NET_UTILS'
p2376
S'y'
sS'CONFIG_SLAB_MERGE_DEFAULT'
p2377
S'y'
sS'CONFIG_MODULES'
p2378
S'y'
sS'CONFIG_PCI_DOMAINS'
p2379
S'y'
sS'CONFIG_HAVE_MMIOTRACE_SUPPORT'
p2380
S'y'
sS'CONFIG_WLAN_VENDOR_TI'
p2381
S'y'
sS'CONFIG_ARCH_CLOCKSOURCE_DATA'
p2382
S'y'
sS'vm.dirty_background_bytes'
p2383
I0
sS'kernel.hardlockup_all_cpu_backtrace'
p2384
I0
sS'net.ipv6.conf.ens3.accept_source_route'
p2385
I0
sS'net.ipv6.conf.default.router_solicitation_max_interval'
p2386
I3600
sS'CONFIG_MFD_LP8788'
p2387
S'y'
sS'CONFIG_FRONTSWAP'
p2388
S'y'
sS'CONFIG_NET_VENDOR_EMULEX'
p2389
S'y'
sS'kernel.watchdog'
p2390
I1
sS'CONFIG_HYPERVISOR_GUEST'
p2391
S'y'
sS'CONFIG_GART_IOMMU'
p2392
S'y'
sS'CONFIG_NET_VENDOR_3COM'
p2393
S'y'
sS'CONFIG_PCI_MSI'
p2394
S'y'
sS'net.ipv6.conf.ens3.max_desync_factor'
p2395
I600
sS'net.ipv4.icmp_ratelimit'
p2396
I1000
sS'CONFIG_ALLOW_DEV_COREDUMP'
p2397
S'y'
sS'net.ipv4.neigh.lo.app_solicit'
p2398
I0
sS'CONFIG_ARCH_USES_PG_UNCACHED'
p2399
S'y'
sS'CONFIG_UEVENT_HELPER'
p2400
S'y'
sS'CONFIG_IMA_DEFAULT_HASH_SHA1'
p2401
S'y'
sS'net.ipv6.conf.all.use_oif_addrs_only'
p2402
I0
sS'kernel.sched_tunable_scaling'
p2403
I1
sS'CONFIG_RD_LZMA'
p2404
S'y'
sS'CONFIG_PCI_REALLOC_ENABLE_AUTO'
p2405
S'y'
sS'CONFIG_WLAN_VENDOR_ATH'
p2406
S'y'
sS'CONFIG_PM_ADVANCED_DEBUG'
p2407
S'y'
sS'kernel.bootloader_version'
p2408
I2
sS'CONFIG_ARCH_MMAP_RND_COMPAT_BITS'
p2409
I8
sS'CONFIG_THERMAL_GOV_USER_SPACE'
p2410
S'y'
sS'net.ipv4.neigh.ens3.gc_stale_time'
p2411
I60
sS'fs.mount-max'
p2412
I100000
sS'net.ipv4.cipso_rbm_optfmt'
p2413
I0
sS'CONFIG_USERFAULTFD'
p2414
S'y'
sS'CONFIG_CHELSIO_T4'
p2415
S'm'
sS'kernel.sched_schedstats'
p2416
I0
sS'CONFIG_ACPI_BGRT'
p2417
S'y'
sS'net.ipv4.neigh.default.gc_thresh1'
p2418
I128
sS'net.ipv4.neigh.default.gc_thresh2'
p2419
I512
sS'net.ipv4.neigh.default.gc_thresh3'
p2420
I1024
sS'CONFIG_LZO_COMPRESS'
p2421
S'y'
sS'CONFIG_MOUSE_PS2_FOCALTECH'
p2422
S'y'
sS'net.ipv4.fwmark_reflect'
p2423
I0
sS'CONFIG_IMA'
p2424
S'y'
sS'CONFIG_CPU_IDLE_GOV_MENU'
p2425
S'y'
sS'vm.dirty_background_ratio'
p2426
I10
sS'CONFIG_USB_EHCI_HCD_PLATFORM'
p2427
S'y'
sS'CONFIG_SCHED_OMIT_FRAME_POINTER'
p2428
S'y'
sS'kernel.hostname'
p2429
S'nestedvm'
p2430
sS'CONFIG_PINCTRL_AMD'
p2431
S'y'
sS'CONFIG_UIO'
p2432
S'm'
sS'net.ipv4.conf.ens3.drop_unicast_in_l2_multicast'
p2433
I0
sS'kernel.poweroff_cmd'
p2434
S'/sbin/poweroff'
p2435
sS'net.ipv4.conf.lo.promote_secondaries'
p2436
I0
sS'CONFIG_IA32_EMULATION'
p2437
S'y'
sS'CONFIG_SRAM'
p2438
S'y'
sS'CONFIG_ARCH_HAVE_NMI_SAFE_CMPXCHG'
p2439
S'y'
sS'vm.min_free_kbytes'
p2440
I225280
sS'CONFIG_RING_BUFFER'
p2441
S'y'
sS'net.ipv4.route.min_pmtu'
p2442
I552
sS'CONFIG_HAVE_ARCH_SOFT_DIRTY'
p2443
S'y'
sS'kernel.perf_cpu_time_max_percent'
p2444
I25
sS'CONFIG_MD_RAID10'
p2445
S'm'
sS'CONFIG_PROC_KCORE'
p2446
S'y'
sS'dev.raid.speed_limit_min'
p2447
I1000
sS'kernel.sched_time_avg_ms'
p2448
I1000
sS'CONFIG_SECURITY_TOMOYO_MAX_ACCEPT_ENTRY'
p2449
I2048
sS'net.ipv4.route.gc_min_interval'
p2450
I0
sS'CONFIG_MAGIC_SYSRQ_DEFAULT_ENABLE'
p2451
S'0x1'
p2452
sS'CONFIG_DEVTMPFS_MOUNT'
p2453
S'y'
sS'net.ipv6.calipso_cache_enable'
p2454
I1
sS'CONFIG_PHYLIB'
p2455
S'y'
sS'net.ipv4.fib_multipath_use_neigh'
p2456
I0
sS'net.ipv4.icmp_msgs_per_sec'
p2457
I1000
sS'net.ipv4.tcp_retries1'
p2458
I3
sS'net.ipv4.tcp_retries2'
p2459
I15
sS'CONFIG_SECURITY_APPARMOR_HASH'
p2460
S'y'
sS'CONFIG_PGTABLE_LEVELS'
p2461
I4
sS'CONFIG_NET_VENDOR_ALACRITECH'
p2462
S'y'
sS'CONFIG_KPROBES_ON_FTRACE'
p2463
S'y'
sS'CONFIG_DNOTIFY'
p2464
S'y'
sS'CONFIG_GPIO_ACPI'
p2465
S'y'
sS'CONFIG_ACPI_TABLE_UPGRADE'
p2466
S'y'
sS'CONFIG_RELAY'
p2467
S'y'
sS'kernel.domainname'
p2468
S'(none)'
p2469
sS'CONFIG_FB_ASILIANT'
p2470
S'y'
sS'CONFIG_SYSV68_PARTITION'
p2471
S'y'
sS'CONFIG_HAVE_FTRACE_MCOUNT_RECORD'
p2472
S'y'
sS'CONFIG_XZ_DEC_ARMTHUMB'
p2473
S'y'
sS'CONFIG_VGA_ARB'
p2474
S'y'
sS'CONFIG_INTEGRITY_TRUSTED_KEYRING'
p2475
S'y'
sS'net.ipv4.igmp_max_msf'
p2476
I10
sS'vm.percpu_pagelist_fraction'
p2477
I0
sS'CONFIG_INLINE_WRITE_UNLOCK_IRQ'
p2478
S'y'
sS'CONFIG_NET_VENDOR_RDC'
p2479
S'y'
sS'CONFIG_MFD_MAX8925'
p2480
S'y'
sS'CONFIG_XZ_DEC_X86'
p2481
S'y'
sS'CONFIG_X86_X32'
p2482
S'y'
sS'vm.vfs_cache_pressure'
p2483
I100
sS'kernel.msg_next_id'
p2484
S'-1'
p2485
sS'net.ipv4.tcp_allowed_congestion_control'
p2486
S'cubic reno'
p2487
sS'kernel.sched_wakeup_granularity_ns'
p2488
I2000000
sS'net.ipv4.neigh.ens3.mcast_resolicit'
p2489
I0
sS'net.ipv6.conf.lo.disable_policy'
p2490
I0
sS'net.ipv6.conf.lo.addr_gen_mode'
p2491
I0
sS'CONFIG_X86_SPEEDSTEP_CENTRINO'
p2492
S'y'
sS'net.ipv4.route.gc_elasticity'
p2493
I8
sS'CONFIG_HAVE_PCSPKR_PLATFORM'
p2494
S'y'
sS'CONFIG_NET_VENDOR_SEEQ'
p2495
S'y'
sS'net.ipv4.tcp_syncookies'
p2496
I1
sS'CONFIG_ARCH_WANTS_THP_SWAP'
p2497
S'y'
sS'net.ipv6.neigh.lo.mcast_solicit'
p2498
I3
sS'CONFIG_IO_DELAY_TYPE_NONE'
p2499
I3
sS'kernel.sched_domain.cpu0.domain0.busy_factor'
p2500
I32
sS'CONFIG_EARLY_PRINTK_EFI'
p2501
S'y'
sS'CONFIG_PROBE_EVENTS'
p2502
S'y'
sS'CONFIG_WLAN_VENDOR_CISCO'
p2503
S'y'
sS'CONFIG_USB_DWC2_HOST'
p2504
S'y'
sS'CONFIG_FRAMEBUFFER_CONSOLE_ROTATION'
p2505
S'y'
sS'CONFIG_PROC_EVENTS'
p2506
S'y'
sS'CONFIG_TIMERFD'
p2507
S'y'
sS'net.ipv4.conf.ens3.mc_forwarding'
p2508
I0
sS'net.core.tstamp_allow_data'
p2509
I1
sS'CONFIG_SECURITY_TOMOYO_MAX_AUDIT_LOG'
p2510
I1024
sS'CONFIG_LOCALVERSION'
p2511
S'""'
p2512
sS'CONFIG_PWM'
p2513
S'y'
sS'net.unix.max_dgram_qlen'
p2514
I512
sS'CONFIG_TTY_PRINTK'
p2515
S'y'
sS'kernel.ctrl-alt-del'
p2516
I0
sS'net.ipv4.conf.default.rp_filter'
p2517
I1
sS'CONFIG_HAVE_MEMBLOCK'
p2518
S'y'
sS'net.ipv4.conf.lo.force_igmp_version'
p2519
I0
sS'CONFIG_IOMMU_SUPPORT'
p2520
S'y'
sS'CONFIG_TRACE_CLOCK'
p2521
S'y'
sS'CONFIG_SERIAL_EARLYCON'
p2522
S'y'
sg10
g11
sS'CONFIG_NET_VENDOR_CISCO'
p2523
S'y'
sS'CONFIG_BASE_FULL'
p2524
S'y'
sS'CONFIG_STP'
p2525
S'm'
sS'net.ipv4.conf.all.rp_filter'
p2526
I1
sS'CONFIG_ATA'
p2527
S'y'
sS'CONFIG_EVM_ATTR_FSUUID'
p2528
S'y'
sS'CONFIG_CRYPTO_GLUE_HELPER_X86'
p2529
S'm'
sS'net.ipv4.ip_early_demux'
p2530
I1
sS'CONFIG_BOOTPARAM_HARDLOCKUP_PANIC_VALUE'
p2531
I0
sS'CONFIG_SYSTEM_EXTRA_CERTIFICATE'
p2532
S'y'
sS'CONFIG_SYSTEM_TRUSTED_KEYS'
p2533
S'""'
p2534
sS'kernel.tracepoint_printk'
p2535
I0
sS'CONFIG_HOTPLUG_PCI'
p2536
S'y'
sS'kernel.sched_domain.cpu0.domain0.min_interval'
p2537
I2
sS'CONFIG_SERIAL_MAX310X'
p2538
S'y'
sS'kernel.sched_domain.cpu0.domain0.idle_idx'
p2539
I1
sS'CONFIG_PNPACPI'
p2540
S'y'
sS'CONFIG_I2C_CHARDEV'
p2541
S'y'
sS'CONFIG_INPUT_TOUCHSCREEN'
p2542
S'y'
sS'CONFIG_HAVE_ARCH_TRACEHOOK'
p2543
S'y'
sS'vm.numa_zonelist_order'
p2544
S'Node'
p2545
sS'CONFIG_FANOTIFY'
p2546
S'y'
sS'vm.memory_failure_recovery'
p2547
I1
sS'CONFIG_ACPI_HED'
p2548
S'y'
sS'net.ipv6.neigh.lo.unres_qlen'
p2549
I101
sS'CONFIG_X86_AMD_PLATFORM_DEVICE'
p2550
S'y'
sS'CONFIG_FONT_8x16'
p2551
S'y'
sS'net.ipv6.mld_max_msf'
p2552
I64
sS'net.ipv4.neigh.default.proxy_delay'
p2553
I80
sS'net.ipv4.conf.default.bootp_relay'
p2554
I0
sS'CONFIG_USB_XHCI_PCI'
p2555
S'y'
sS'kernel.numa_balancing_scan_period_min_ms'
p2556
I1000
sS'net.ipv4.tcp_early_retrans'
p2557
I3
sS'CONFIG_NET_VENDOR_SUN'
p2558
S'y'
sS'CONFIG_PSTORE'
p2559
S'y'
sS'net.ipv6.conf.default.ndisc_notify'
p2560
I0
sS'CONFIG_DEFAULT_SECURITY'
p2561
S'"apparmor"'
p2562
sS'net.ipv4.conf.ens3.route_localnet'
p2563
I0
sS'net.ipv4.conf.default.igmpv3_unsolicited_report_interval'
p2564
I1000
sS'CONFIG_CRYPTO_AEAD'
p2565
S'y'
sS'net.core.warnings'
p2566
I0
sS'CONFIG_HPET_TIMER'
p2567
S'y'
sS'net.ipv6.conf.default.accept_source_route'
p2568
I0
sS'CONFIG_NETFILTER_INGRESS'
p2569
S'y'
sS'kernel.sched_cfs_bandwidth_slice_us'
p2570
I5000
sS'net.ipv6.conf.lo.mldv2_unsolicited_report_interval'
p2571
I1000
sS'net.ipv6.conf.default.drop_unsolicited_na'
p2572
I0
sS'CONFIG_SECURITY_NETWORK'
p2573
S'y'
sS'CONFIG_TRACER_SNAPSHOT'
p2574
S'y'
sS'net.core.message_cost'
p2575
I5
sS'net.ipv6.conf.all.router_solicitation_interval'
p2576
I4
sS'net.ipv6.neigh.lo.retrans_time_ms'
p2577
I1000
sS'vm.stat_interval'
p2578
I1
sS'CONFIG_CGROUP_CPUACCT'
p2579
S'y'
sS'CONFIG_INPUT_JOYSTICK'
p2580
S'y'
sS'net.ipv4.conf.all.igmpv2_unsolicited_report_interval'
p2581
I10000
sS'net.ipv4.conf.all.accept_local'
p2582
I0
sS'CONFIG_I8253_LOCK'
p2583
S'y'
sS'CONFIG_MAC_EMUMOUSEBTN'
p2584
S'm'
sS'CONFIG_HIBERNATION'
p2585
S'y'
sS'net.ipv4.udp_mem'
p2586
S'1537185\t2049582\t3074370'
p2587
sS'CONFIG_XPS'
p2588
S'y'
sS'CONFIG_WLAN_VENDOR_BROADCOM'
p2589
S'y'
sS'CONFIG_SND_JACK_INPUT_DEV'
p2590
S'y'
sS'CONFIG_INPUT_MOUSE'
p2591
S'y'
sS'CONFIG_MFD_WM8350_I2C'
p2592
S'y'
sS'net.ipv6.neigh.default.delay_first_probe_time'
p2593
I5
sS'CONFIG_SND_HDA_PREALLOC_SIZE'
p2594
I64
sS'CONFIG_USB_SUPPORT'
p2595
S'y'
sS'CONFIG_IOSF_MBI_DEBUG'
p2596
S'y'
sS'fs.leases-enable'
p2597
I1
sS'CONFIG_ARCH_MEMORY_PROBE'
p2598
S'y'
sS'net.ipv6.conf.all.temp_prefered_lft'
p2599
I86400
sS'CONFIG_GENERIC_IO'
p2600
S'y'
sS'CONFIG_HAVE_IRQ_TIME_ACCOUNTING'
p2601
S'y'
sS'CONFIG_AUDIT_ARCH'
p2602
S'y'
sS'fs.aio-nr'
p2603
I0
sS'CONFIG_THERMAL_HWMON'
p2604
S'y'
sS'net.ipv4.route.max_size'
p2605
I2147483647
sS'kernel.watchdog_thresh'
p2606
I10
sS'CONFIG_HZ'
p2607
I250
sS'CONFIG_X86_DEBUG_FPU'
p2608
S'y'
sS'CONFIG_MPILIB'
p2609
S'y'
sS'CONFIG_INTEGRITY_AUDIT'
p2610
S'y'
sS'CONFIG_GPIO_SYSFS'
p2611
S'y'
sS'CONFIG_NET_VENDOR_SMSC'
p2612
S'y'
sS'CONFIG_BALLOON_COMPACTION'
p2613
S'y'
sS'net.ipv6.conf.all.accept_redirects'
p2614
I1
sS'CONFIG_KEYS'
p2615
S'y'
sS'CONFIG_SGI_PARTITION'
p2616
S'y'
sS'CONFIG_KVM_VFIO'
p2617
S'y'
sS'net.ipv4.conf.lo.disable_policy'
p2618
I1
sS'kernel.seccomp.actions_avail'
p2619
S'kill_process kill_thread trap errno trace log allow'
p2620
sS'CONFIG_MEMORY_HOTREMOVE'
p2621
S'y'
sS'CONFIG_BINFMT_ELF'
p2622
S'y'
sS'net.ipv4.tcp_rfc1337'
p2623
I0
sS'kernel.sysrq'
p2624
I176
sS'CONFIG_TASK_IO_ACCOUNTING'
p2625
S'y'
sS'CONFIG_SATA_PMP'
p2626
S'y'
sa(dp2627
g3
(lp2628
S'Sleep'
p2629
ag6
aS'object'
p2630
asg8
S'Sleep.host-192.168.123.30'
p2631
sa(dp2632
g10
g11
sS'fstype'
p2633
S'tmpfs-separate'
p2634
sg3
(lp2635
S'FileSystem'
p2636
ag6
ag14
aS'object'
p2637
asg8
S'FileSystem.host-192.168.123.30.fstype-tmpfs-separate'
p2638
sa(dp2639
g8
S'SetCPUs.host-192.168.123.30'
p2640
sS'seq'
p2641
g2641
sg10
g11
sS'hotplug'
p2642
I01
sg3
(lp2643
S'SetCPUs'
p2644
ag6
ag14
aS'object'
p2645
asS'num'
p2646
I2
sa(dp2647
g8
S'EximDaemon.host-192.168.123.30'
p2648
sg3
(lp2649
S'EximDaemon'
p2650
ag6
aS'object'
p2651
asS'eximBuild'
p2652
S'exim-mod'
p2653
sg10
g11
sS'eximPath'
p2654
S'~/vm-scalability/bench/exim'
p2655
sS'port'
p2656
I2526
sS'spoolDir'
p2657
S'/tmp/mosbench/tmpfs-separate/spool'
p2658
sS'mailDir'
p2659
S'/tmp/mosbench/tmpfs-separate/0'
p2660
sa(dp2661
g10
g11
sg3
(lp2662
S'SystemMonitor'
p2663
ag6
ag14
aS'object'
p2664
asg8
S'SystemMonitor.host-192.168.123.30'
p2665
sa(dp2666
S'real'
p2667
F15.0108
sS'time.iowait'
p2668
F0
sg8
S'EximLoad.trial-0.host-192.168.123.30'
p2669
sS'time.real'
p2670
F15.0108
sS'time.idle'
p2671
F3.8816799999999998
sS'time.sys'
p2672
F19.530000000000001
sS'clients'
p2673
I160
sg3
(lp2674
S'EximLoad'
p2675
ag6
aS'ResultsProvider'
p2676
aS'object'
p2677
asS'time.nice'
p2678
F0
sS'trial'
p2679
I0
sg10
g11
sS'result'
p2680
F44888
sS'time.softirq'
p2681
F3.8799999999999999
sS'units'
p2682
S'messages'
p2683
sS'cores'
p2684
I2
sS'time.steal'
p2685
F0
sS'time.irq'
p2686
F0
sg2654
g2655
sg2656
I2526
sS'unit'
p2687
S'message'
p2688
sS'time.user'
p2689
F6.6100000000000003
sa.