(lp1
(dp2
S'classNames'
p3
(lp4
S'ResultPath'
p5
aS'Task'
p6
aS'object'
p7
asS'name'
p8
g5
sa(dp9
S'host'
p10
S'192.168.123.30'
p11
sg3
(lp12
S'Host'
p13
ag6
aS'SourceFileProvider'
p14
aS'object'
p15
asg8
S'Host.host-192.168.123.30'
p16
sa(dp17
S'CONFIG_USB_OHCI_HCD_PLATFORM'
p18
S'y'
sS'CONFIG_DEFAULT_IO_DELAY_TYPE'
p19
I1
sS'CONFIG_DNS_RESOLVER'
p20
S'y'
sS'net.ipv6.conf.lo.suppress_frag_ndisc'
p21
I1
sS'CONFIG_SGI_PARTITION'
p22
S'y'
sS'kernel.sched_domain.cpu38.domain1.imbalance_pct'
p23
I125
sS'CONFIG_GENERIC_STRNCPY_FROM_USER'
p24
S'y'
sS'net.netfilter.nf_log_all_netns'
p25
I0
sS'kernel.sched_domain.cpu1.domain1.forkexec_idx'
p26
I0
sS'CONFIG_KVM_SCHEDACT'
p27
S'y'
sS'CONFIG_WLAN_VENDOR_RALINK'
p28
S'y'
sS'CONFIG_HAVE_DYNAMIC_FTRACE_WITH_REGS'
p29
S'y'
sS'kernel.sched_domain.cpu5.domain0.newidle_idx'
p30
I0
sS'net.ipv4.conf.all.tag'
p31
I0
sS'CONFIG_TOUCHSCREEN_ELAN'
p32
S'y'
sS'kernel.sched_domain.cpu4.domain1.idle_idx'
p33
I2
sS'CONFIG_EVENT_TRACING'
p34
S'y'
sS'CONFIG_LIVEPATCH'
p35
S'y'
sS'CONFIG_LEDS_TRIGGER_CPU'
p36
S'y'
sS'CONFIG_PCIEPORTBUS'
p37
S'y'
sS'CONFIG_INIT_ENV_ARG_LIMIT'
p38
I32
sS'net.ipv6.conf.default.accept_ra_min_hop_limit'
p39
I1
sS'CONFIG_LEDS_CLASS'
p40
S'y'
sS'kernel.sched_domain.cpu2.domain0.newidle_idx'
p41
I0
sS'net.ipv4.neigh.default.proxy_qlen'
p42
I64
sS'CONFIG_PMC_ATOM'
p43
S'y'
sS'CONFIG_MANDATORY_FILE_LOCKING'
p44
S'y'
sS'kernel.sched_domain.cpu37.domain1.imbalance_pct'
p45
I125
sS'CONFIG_NLS_CODEPAGE_437'
p46
S'y'
sS'fs.quota.free_dquots'
p47
I0
sS'CONFIG_PRINTK_NMI'
p48
S'y'
sS'CONFIG_NETDEVICES'
p49
S'y'
sS'CONFIG_HAVE_DYNAMIC_FTRACE'
p50
S'y'
sS'CONFIG_PINCTRL_SX150X'
p51
S'y'
sS'CONFIG_NET_SCHED'
p52
S'y'
sS'CONFIG_UNIXWARE_DISKLABEL'
p53
S'y'
sS'CONFIG_INLINE_WRITE_UNLOCK'
p54
S'y'
sS'kernel.sched_domain.cpu28.domain1.busy_factor'
p55
I32
sS'CONFIG_ACPI_REV_OVERRIDE_POSSIBLE'
p56
S'y'
sS'CONFIG_HAVE_ARCH_AUDITSYSCALL'
p57
S'y'
sS'kernel.sched_domain.cpu39.domain1.max_newidle_lb_cost'
p58
I19482
sS'kernel.sched_domain.cpu11.domain0.flags'
p59
I4143
sS'CONFIG_NET_VENDOR_RENESAS'
p60
S'y'
sS'CONFIG_FIRMWARE_EDID'
p61
S'y'
sS'CONFIG_CGROUPS'
p62
S'y'
sS'kernel.sched_domain.cpu23.domain1.max_interval'
p63
I80
sS'net.ipv6.conf.ens3.regen_max_retry'
p64
I3
sS'net.ipv4.conf.lo.medium_id'
p65
I0
sS'CONFIG_DEFAULT_MMAP_MIN_ADDR'
p66
I65536
sS'kernel.sched_domain.cpu30.domain0.busy_factor'
p67
I32
sS'CONFIG_X86_DEBUGCTLMSR'
p68
S'y'
sS'CONFIG_ARCH_HIBERNATION_HEADER'
p69
S'y'
sS'net.ipv4.tcp_synack_retries'
p70
I5
sS'CONFIG_SECURITY_YAMA'
p71
S'y'
sS'kernel.sched_domain.cpu18.domain0.idle_idx'
p72
I1
sS'CONFIG_CRYPTO_ECB'
p73
S'y'
sS'CONFIG_ACPI_HOTPLUG_MEMORY'
p74
S'y'
sS'CONFIG_SELECT_MEMORY_MODEL'
p75
S'y'
sS'net.ipv4.tcp_notsent_lowat'
p76
I4294967295
sS'kernel.sched_domain.cpu17.domain0.name'
p77
S'DIE'
p78
sS'CONFIG_FS_DAX_PMD'
p79
S'y'
sS'CONFIG_X86_LOCAL_APIC'
p80
S'y'
sS'CONFIG_GENERIC_SMP_IDLE_THREAD'
p81
S'y'
sS'kernel.sched_domain.cpu18.domain0.imbalance_pct'
p82
I125
sS'CONFIG_GENERIC_CLOCKEVENTS_MIN_ADJUST'
p83
S'y'
sS'net.ipv6.conf.all.disable_policy'
p84
I0
sS'kernel.sched_domain.cpu27.domain1.forkexec_idx'
p85
I0
sS'kernel.sched_domain.cpu33.domain1.flags'
p86
I25647
sS'kernel.sched_domain.cpu36.domain0.cache_nice_tries'
p87
I1
sS'CONFIG_TASK_XACCT'
p88
S'y'
sS'CONFIG_KEXEC_BZIMAGE_VERIFY_SIG'
p89
S'y'
sS'CONFIG_EVENTFD'
p90
S'y'
sS'CONFIG_FTRACE_MCOUNT_RECORD'
p91
S'y'
sS'CONFIG_HAVE_PERF_EVENTS'
p92
S'y'
sS'CONFIG_SND_HDA_CORE'
p93
S'm'
sS'CONFIG_CHECKPOINT_RESTORE'
p94
S'y'
sS'CONFIG_PACKET'
p95
S'y'
sS'kernel.sched_domain.cpu28.domain0.min_interval'
p96
I10
sS'net.ipv6.conf.ens3.use_oif_addrs_only'
p97
I0
sS'kernel.sched_domain.cpu10.domain0.name'
p98
S'DIE'
p99
sS'net.ipv6.conf.all.router_solicitation_max_interval'
p100
I3600
sS'net.ipv4.neigh.lo.proxy_delay'
p101
I80
sS'CONFIG_PARPORT_PC'
p102
S'm'
sS'CONFIG_NLATTR'
p103
S'y'
sS'kernel.sched_domain.cpu39.domain0.busy_idx'
p104
I2
sS'CONFIG_AGP'
p105
S'y'
sS'kernel.sched_domain.cpu30.domain0.imbalance_pct'
p106
I125
sS'CONFIG_ARCH_HAS_GCOV_PROFILE_ALL'
p107
S'y'
sS'net.ipv6.conf.default.addr_gen_mode'
p108
I0
sS'kernel.hung_task_check_count'
p109
I4194304
sS'CONFIG_INFINIBAND_ADDR_TRANS'
p110
S'y'
sS'CONFIG_CRYPTO_SHA512'
p111
S'y'
sS'CONFIG_WLAN_VENDOR_INTERSIL'
p112
S'y'
sS'CONFIG_CRYPTO_NULL'
p113
S'y'
sS'net.ipv6.conf.ens3.force_mld_version'
p114
I0
sS'CONFIG_INTEGRITY_ASYMMETRIC_KEYS'
p115
S'y'
sS'CONFIG_BLK_MQ_RDMA'
p116
S'y'
sS'CONFIG_FRAME_POINTER_UNWINDER'
p117
S'y'
sS'CONFIG_HAVE_IRQ_EXIT_ON_IRQ_STACK'
p118
S'y'
sS'CONFIG_CRYPTO_AES_NI_INTEL'
p119
S'm'
sS'CONFIG_MOUSE_PS2'
p120
S'm'
sS'CONFIG_EFI_PARTITION'
p121
S'y'
sS'kernel.sched_domain.cpu8.domain0.imbalance_pct'
p122
I125
sS'kernel.sched_domain.cpu13.domain1.busy_factor'
p123
I32
sS'CONFIG_NODES_SPAN_OTHER_NODES'
p124
S'y'
sS'CONFIG_FUNCTION_GRAPH_TRACER'
p125
S'y'
sS'net.ipv6.conf.all.seg6_enabled'
p126
I0
sS'CONFIG_IPV6_MROUTE'
p127
S'y'
sS'kernel.sched_domain.cpu2.domain0.busy_idx'
p128
I2
sS'net.ipv4.conf.default.disable_policy'
p129
I0
sS'CONFIG_FHANDLE'
p130
S'y'
sS'CONFIG_HAVE_FUNCTION_GRAPH_TRACER'
p131
S'y'
sS'CONFIG_FS_IOMAP'
p132
S'y'
sS'kernel.sched_domain.cpu17.domain0.flags'
p133
I4143
sS'CONFIG_CRYPTO_ACOMP2'
p134
S'y'
sS'CONFIG_HAVE_KERNEL_LZMA'
p135
S'y'
sS'CONFIG_ARCH_HAS_DEBUG_VIRTUAL'
p136
S'y'
sS'net.ipv6.neigh.default.unres_qlen_bytes'
p137
I212992
sS'kernel.sem_next_id'
p138
S'-1'
p139
sS'kernel.random.write_wakeup_threshold'
p140
I896
sS'net.ipv6.conf.lo.use_oif_addrs_only'
p141
I0
sS'kernel.sched_domain.cpu37.domain0.busy_idx'
p142
I2
sS'net.ipv6.conf.ens3.accept_ra_defrtr'
p143
I1
sS'kernel.sched_domain.cpu3.domain0.max_newidle_lb_cost'
p144
I13777
sS'net.ipv4.neigh.ens3.proxy_delay'
p145
I80
sS'kernel.sched_domain.cpu37.domain1.max_newidle_lb_cost'
p146
I15902
sS'kernel.sched_domain.cpu24.domain0.idle_idx'
p147
I1
sS'CONFIG_DEFAULT_IOSCHED'
p148
S'"deadline"'
p149
sS'kernel.sched_domain.cpu22.domain0.flags'
p150
I4143
sS'CONFIG_FUSION_LOGGING'
p151
S'y'
sS'kernel.sched_domain.cpu17.domain1.idle_idx'
p152
I2
sS'kernel.sched_domain.cpu13.domain1.wake_idx'
p153
I0
sS'CONFIG_NET_PACKET_ENGINE'
p154
S'y'
sS'CONFIG_DQL'
p155
S'y'
sS'kernel.sched_domain.cpu22.domain0.min_interval'
p156
I10
sS'net.ipv6.conf.lo.force_tllao'
p157
I0
sS'kernel.sched_domain.cpu7.domain1.busy_idx'
p158
I3
sS'CONFIG_IP_ADVANCED_ROUTER'
p159
S'y'
sS'CONFIG_SERIAL_SCCNXP_CONSOLE'
p160
S'y'
sS'kernel.modprobe'
p161
S'/sbin/modprobe'
p162
sS'CONFIG_NOP_USB_XCEIV'
p163
S'y'
sS'kernel.sched_domain.cpu16.domain1.max_interval'
p164
I80
sS'kernel.print-fatal-signals'
p165
I0
sS'CONFIG_INET'
p166
S'y'
sS'net.ipv4.tcp_probe_interval'
p167
I600
sS'kernel.sched_domain.cpu10.domain0.max_newidle_lb_cost'
p168
I11175
sS'CONFIG_EXTRA_FIRMWARE'
p169
S'""'
p170
sS'CONFIG_I2C_DESIGNWARE_CORE'
p171
S'y'
sS'net.ipv4.conf.lo.arp_accept'
p172
I0
sS'CONFIG_REGMAP_MMIO'
p173
S'y'
sS'CONFIG_MFD_TPS65090'
p174
S'y'
sS'kernel.sched_domain.cpu3.domain1.flags'
p175
I25647
sS'CONFIG_SND_HDA_POWER_SAVE_DEFAULT'
p176
I0
sS'kernel.sched_domain.cpu19.domain1.wake_idx'
p177
I0
sS'kernel.sched_domain.cpu0.domain0.cache_nice_tries'
p178
I1
sS'net.ipv6.conf.lo.forwarding'
p179
I0
sS'CONFIG_NET_VENDOR_SOLARFLARE'
p180
S'y'
sS'CONFIG_FIXED_PHY'
p181
S'y'
sS'kernel.sched_domain.cpu35.domain1.forkexec_idx'
p182
I0
sS'net.ipv4.conf.default.shared_media'
p183
I1
sS'CONFIG_NET_VENDOR_TEHUTI'
p184
S'y'
sS'fs.inode-nr'
p185
S'86618\t512'
p186
sS'CONFIG_MFD_DA9063'
p187
S'y'
sS'CONFIG_CRYPTO'
p188
S'y'
sS'CONFIG_WLAN_VENDOR_ZYDAS'
p189
S'y'
sS'CONFIG_STRICT_KERNEL_RWX'
p190
S'y'
sS'net.ipv6.mld_qrv'
p191
I2
sS'CONFIG_SND_HDA_PATCH_LOADER'
p192
S'y'
sS'net.ipv4.conf.all.disable_policy'
p193
I0
sS'kernel.sched_domain.cpu3.domain1.cache_nice_tries'
p194
I2
sS'CONFIG_PPP_FILTER'
p195
S'y'
sS'CONFIG_CPU_FREQ'
p196
S'y'
sS'net.core.netdev_tstamp_prequeue'
p197
I1
sS'kernel.sched_domain.cpu37.domain1.name'
p198
S'NUMA'
p199
sS'kernel.sched_domain.cpu18.domain0.forkexec_idx'
p200
I0
sS'net.ipv6.conf.all.accept_dad'
p201
I1
sS'kernel.sched_domain.cpu15.domain1.busy_idx'
p202
I3
sS'CONFIG_DCB'
p203
S'y'
sS'kernel.sched_domain.cpu4.domain1.max_newidle_lb_cost'
p204
I24480
sS'kernel.panic_on_oops'
p205
I0
sS'kernel.sched_domain.cpu10.domain0.imbalance_pct'
p206
I125
sS'kernel.sched_domain.cpu21.domain0.max_interval'
p207
I20
sS'CONFIG_MEMORY_HOTPLUG'
p208
S'y'
sS'dev.cdrom.debug'
p209
I0
sS'CONFIG_SUSPEND'
p210
S'y'
sS'kernel.sched_domain.cpu15.domain0.forkexec_idx'
p211
I0
sS'kernel.sched_domain.cpu18.domain1.wake_idx'
p212
I0
sS'kernel.sched_domain.cpu29.domain0.busy_idx'
p213
I2
sS'CONFIG_UNIX98_PTYS'
p214
S'y'
sS'CONFIG_MOUSE_PS2_SYNAPTICS'
p215
S'y'
sS'kernel.sched_domain.cpu23.domain0.wake_idx'
p216
I0
sS'CONFIG_SECURITY_SELINUX'
p217
S'y'
sS'kernel.sched_domain.cpu22.domain1.flags'
p218
I25647
sS'kernel.sched_domain.cpu11.domain0.max_interval'
p219
I20
sS'kernel.sched_domain.cpu30.domain1.busy_factor'
p220
I32
sS'CONFIG_SCSI_LOWLEVEL'
p221
S'y'
sS'net.ipv6.conf.all.dad_transmits'
p222
I1
sS'CONFIG_GENERIC_MSI_IRQ'
p223
S'y'
sS'kernel.ngroups_max'
p224
I65536
sS'CONFIG_MTRR_SANITIZER'
p225
S'y'
sS'kernel.sched_domain.cpu37.domain0.newidle_idx'
p226
I0
sS'CONFIG_EXTCON'
p227
S'y'
sS'CONFIG_PM_DEVFREQ_EVENT'
p228
S'y'
sS'CONFIG_POWER_RESET_RESTART'
p229
S'y'
sS'kernel.sched_domain.cpu28.domain1.name'
p230
S'NUMA'
p231
sS'kernel.max_lock_depth'
p232
I1024
sS'CONFIG_NEED_MULTIPLE_NODES'
p233
S'y'
sS'kernel.sched_domain.cpu33.domain0.cache_nice_tries'
p234
I1
sS'kernel.sched_domain.cpu5.domain1.flags'
p235
I25647
sS'CONFIG_ZPOOL'
p236
S'y'
sS'CONFIG_PATA_SIS'
p237
S'y'
sS'CONFIG_GENERIC_ALLOCATOR'
p238
S'y'
sS'kernel.sched_domain.cpu18.domain1.forkexec_idx'
p239
I0
sS'kernel.sched_domain.cpu0.domain1.max_interval'
p240
I80
sS'kernel.sched_domain.cpu36.domain0.max_interval'
p241
I20
sS'CONFIG_MESSAGE_LOGLEVEL_DEFAULT'
p242
I4
sS'kernel.sched_domain.cpu38.domain0.flags'
p243
I4143
sS'CONFIG_ARCH_HAS_UACCESS_FLUSHCACHE'
p244
S'y'
sS'CONFIG_SYN_COOKIES'
p245
S'y'
sS'net.ipv6.conf.default.max_addresses'
p246
I16
sS'net.ipv4.inet_peer_maxttl'
p247
I600
sS'CONFIG_CGROUP_WRITEBACK'
p248
S'y'
sS'CONFIG_X86_ACPI_CPUFREQ'
p249
S'y'
sS'CONFIG_DUMMY_CONSOLE'
p250
S'y'
sS'kernel.sched_domain.cpu7.domain1.max_newidle_lb_cost'
p251
I13897
sS'kernel.sched_domain.cpu23.domain0.name'
p252
S'DIE'
p253
sS'CONFIG_RWSEM_SPIN_ON_OWNER'
p254
S'y'
sS'CONFIG_SECURITY_APPARMOR_BOOTPARAM_VALUE'
p255
I1
sS'vm.dirtytime_expire_seconds'
p256
I43200
sS'net.ipv4.tcp_challenge_ack_limit'
p257
I1000
sS'CONFIG_HOTPLUG_PCI_ACPI'
p258
S'y'
sS'CONFIG_KARMA_PARTITION'
p259
S'y'
sS'CONFIG_INFINIBAND_ISER'
p260
S'm'
sS'kernel.sched_domain.cpu35.domain1.cache_nice_tries'
p261
I2
sS'vm.min_slab_ratio'
p262
I5
sS'CONFIG_CLZ_TAB'
p263
S'y'
sS'kernel.sched_domain.cpu21.domain1.min_interval'
p264
I40
sS'CONFIG_X86_THERMAL_VECTOR'
p265
S'y'
sS'CONFIG_RCU_CPU_STALL_TIMEOUT'
p266
I60
sS'kernel.sched_domain.cpu23.domain1.min_interval'
p267
I40
sS'CONFIG_BOOTPARAM_SOFTLOCKUP_PANIC_VALUE'
p268
I0
sS'CONFIG_PM_WAKELOCKS'
p269
S'y'
sS'CONFIG_GPIOLIB_IRQCHIP'
p270
S'y'
sS'kernel.sched_domain.cpu1.domain0.idle_idx'
p271
I1
sS'CONFIG_MTRR_SANITIZER_ENABLE_DEFAULT'
p272
I1
sS'CONFIG_BLK_DEV_INTEGRITY'
p273
S'y'
sS'kernel.sched_domain.cpu11.domain0.busy_idx'
p274
I2
sS'CONFIG_ARCH_HAS_HMM'
p275
S'y'
sS'CONFIG_SQUASHFS_FILE_DIRECT'
p276
S'y'
sS'CONFIG_MODULE_SIG_KEY'
p277
S'"certs/signing_key.pem"'
p278
sS'CONFIG_NETWORK_FILESYSTEMS'
p279
S'y'
sS'CONFIG_SERIAL_8250_RSA'
p280
S'y'
sS'net.ipv4.tcp_min_tso_segs'
p281
I2
sS'CONFIG_SCHED_STACK_END_CHECK'
p282
S'y'
sS'CONFIG_LEGACY_VSYSCALL_EMULATE'
p283
S'y'
sS'CONFIG_POWERCAP'
p284
S'y'
sS'CONFIG_UNUSED_SYMBOLS'
p285
S'y'
sS'CONFIG_PM_WAKELOCKS_LIMIT'
p286
I100
sS'CONFIG_FB_TILEBLITTING'
p287
S'y'
sS'kernel.sched_domain.cpu15.domain1.max_newidle_lb_cost'
p288
I31534
sS'CONFIG_INTEGRITY'
p289
S'y'
sS'kernel.sched_domain.cpu6.domain1.cache_nice_tries'
p290
I2
sS'kernel.sched_domain.cpu24.domain0.name'
p291
S'DIE'
p292
sS'kernel.sched_domain.cpu38.domain0.max_interval'
p293
I20
sS'kernel.sched_domain.cpu23.domain0.max_newidle_lb_cost'
p294
I14916
sS'fs.mqueue.msg_default'
p295
I10
sS'CONFIG_MD_LINEAR'
p296
S'm'
sS'net.ipv4.tcp_max_orphans'
p297
I262144
sS'kernel.sched_domain.cpu6.domain1.flags'
p298
I25647
sS'kernel.sched_domain.cpu15.domain1.cache_nice_tries'
p299
I2
sS'CONFIG_MFD_MAX77843'
p300
S'y'
sS'CONFIG_CONSOLE_TRANSLATIONS'
p301
S'y'
sS'CONFIG_SLABINFO'
p302
S'y'
sS'kernel.perf_event_max_stack'
p303
I127
sS'CONFIG_PCI'
p304
S'y'
sS'CONFIG_GENERIC_MSI_IRQ_DOMAIN'
p305
S'y'
sS'kernel.sched_domain.cpu4.domain0.name'
p306
S'DIE'
p307
sS'kernel.sched_domain.cpu33.domain0.busy_idx'
p308
I2
sS'CONFIG_SYSTEM_BLACKLIST_KEYRING'
p309
S'y'
sS'kernel.sched_domain.cpu6.domain0.wake_idx'
p310
I0
sS'CONFIG_IP_ROUTE_MULTIPATH'
p311
S'y'
sS'CONFIG_SCHED_SMT'
p312
S'y'
sS'kernel.sched_domain.cpu29.domain0.max_interval'
p313
I20
sS'net.ipv4.tcp_adv_win_scale'
p314
I1
sS'CONFIG_INTEL_IDLE'
p315
S'y'
sS'CONFIG_ASYNC_CORE'
p316
S'm'
sS'net.ipv4.udp_rmem_min'
p317
I4096
sS'CONFIG_FIRMWARE_IN_KERNEL'
p318
S'y'
sS'CONFIG_IP6_NF_FILTER'
p319
S'm'
sS'CONFIG_GPIO_TPS65910'
p320
S'y'
sS'kernel.sched_domain.cpu39.domain0.imbalance_pct'
p321
I125
sS'CONFIG_CRC_CCITT'
p322
S'y'
sS'CONFIG_PERSISTENT_KEYRINGS'
p323
S'y'
sS'CONFIG_MOUSE_PS2_LIFEBOOK'
p324
S'y'
sS'CONFIG_ARCH_WANT_COMPAT_IPC_PARSE_VERSION'
p325
S'y'
sS'kernel.sched_domain.cpu29.domain0.name'
p326
S'DIE'
p327
sS'kernel.sched_domain.cpu11.domain1.imbalance_pct'
p328
I125
sS'kernel.sched_domain.cpu0.domain1.busy_factor'
p329
I32
sS'kernel.sched_domain.cpu7.domain1.min_interval'
p330
I40
sS'kernel.sched_domain.cpu37.domain1.cache_nice_tries'
p331
I2
sS'net.ipv6.conf.ens3.addr_gen_mode'
p332
I0
sS'CONFIG_ASYNC_RAID6_RECOV'
p333
S'm'
sS'net.ipv6.conf.default.ignore_routes_with_linkdown'
p334
I0
sS'kernel.sched_domain.cpu8.domain1.imbalance_pct'
p335
I125
sS'CONFIG_BLK_DEV_SR'
p336
S'y'
sS'kernel.sched_domain.cpu10.domain1.imbalance_pct'
p337
I125
sS'net.ipv6.conf.lo.accept_ra_from_local'
p338
I0
sS'CONFIG_EXPORTFS'
p339
S'y'
sS'CONFIG_CRYPTO_CRC32_PCLMUL'
p340
S'm'
sS'CONFIG_INPUT'
p341
S'y'
sS'CONFIG_THERMAL_DEFAULT_GOV_STEP_WISE'
p342
S'y'
sS'fs.suid_dumpable'
p343
I2
sS'CONFIG_AIO'
p344
S'y'
sS'kernel.sched_domain.cpu10.domain1.flags'
p345
I25647
sS'kernel.sched_domain.cpu33.domain1.name'
p346
S'NUMA'
p347
sS'CONFIG_SERIAL_8250_DMA'
p348
S'y'
sS'kernel.sched_domain.cpu8.domain0.busy_factor'
p349
I32
sS'CONFIG_SCHED_AUTOGROUP'
p350
S'y'
sS'kernel.sched_domain.cpu6.domain1.max_interval'
p351
I80
sS'net.core.optmem_max'
p352
I20480
sS'user.max_inotify_watches'
p353
I8192
sS'vm.nr_overcommit_hugepages'
p354
I0
sS'net.ipv6.conf.default.accept_ra_defrtr'
p355
I1
sS'net.ipv6.conf.default.accept_ra_rt_info_min_plen'
p356
I0
sS'kernel.sched_domain.cpu7.domain0.flags'
p357
I4143
sS'kernel.sched_domain.cpu29.domain1.max_newidle_lb_cost'
p358
I13981
sS'CONFIG_NET_EMATCH'
p359
S'y'
sS'kernel.sched_domain.cpu16.domain1.cache_nice_tries'
p360
I2
sS'CONFIG_CPU_SUP_CENTAUR'
p361
S'y'
sS'kernel.sched_domain.cpu3.domain0.cache_nice_tries'
p362
I1
sS'kernel.sched_domain.cpu20.domain1.imbalance_pct'
p363
I125
sS'net.core.message_burst'
p364
I10
sS'CONFIG_SERIAL_NONSTANDARD'
p365
S'y'
sS'kernel.sched_domain.cpu14.domain0.idle_idx'
p366
I1
sS'user.max_uts_namespaces'
p367
I257592
sS'net.ipv6.route.gc_interval'
p368
I30
sS'CONFIG_TRACER_MAX_TRACE'
p369
S'y'
sS'CONFIG_VIRT_DRIVERS'
p370
S'y'
sS'net.ipv6.bindv6only'
p371
I0
sS'kernel.sched_domain.cpu23.domain0.idle_idx'
p372
I1
sS'kernel.sched_domain.cpu31.domain0.cache_nice_tries'
p373
I1
sS'net.ipv6.conf.ens3.accept_ra_rtr_pref'
p374
I1
sS'CONFIG_SUN_PARTITION'
p375
S'y'
sS'kernel.sched_domain.cpu35.domain1.newidle_idx'
p376
I0
sS'kernel.sched_domain.cpu32.domain0.busy_factor'
p377
I32
sS'kernel.sched_domain.cpu30.domain0.busy_idx'
p378
I2
sS'net.ipv4.conf.all.drop_gratuitous_arp'
p379
I0
sS'kernel.sched_domain.cpu34.domain1.max_newidle_lb_cost'
p380
I19156
sS'CONFIG_PINCTRL'
p381
S'y'
sS'CONFIG_THERMAL_GOV_FAIR_SHARE'
p382
S'y'
sS'kernel.sched_domain.cpu21.domain1.newidle_idx'
p383
I0
sS'kernel.sched_domain.cpu5.domain1.forkexec_idx'
p384
I0
sS'CONFIG_MOUSE_PS2_LOGIPS2PP'
p385
S'y'
sS'kernel.sched_domain.cpu36.domain0.min_interval'
p386
I10
sS'net.ipv6.route.gc_min_interval_ms'
p387
I500
sS'CONFIG_IRQ_FORCED_THREADING'
p388
S'y'
sS'CONFIG_MTRR_SANITIZER_SPARE_REG_NR_DEFAULT'
p389
I1
sS'CONFIG_BLK_MQ_PCI'
p390
S'y'
sS'CONFIG_DEBUG_BUGVERBOSE'
p391
S'y'
sS'CONFIG_HAVE_MEMORY_PRESENT'
p392
S'y'
sS'CONFIG_LSM_MMAP_MIN_ADDR'
p393
I0
sS'kernel.sched_domain.cpu36.domain1.wake_idx'
p394
I0
sS'CONFIG_KVM_INTEL'
p395
S'm'
sS'net.ipv6.neigh.ens3.proxy_qlen'
p396
I64
sS'net.ipv6.conf.lo.ndisc_notify'
p397
I0
sS'kernel.sched_domain.cpu25.domain1.forkexec_idx'
p398
I0
sS'kernel.sched_domain.cpu31.domain1.imbalance_pct'
p399
I125
sS'kernel.sched_domain.cpu33.domain0.min_interval'
p400
I10
sS'kernel.sched_domain.cpu8.domain1.busy_idx'
p401
I3
sS'kernel.sched_domain.cpu32.domain1.max_interval'
p402
I80
sS'CONFIG_SND_DYNAMIC_MINORS'
p403
S'y'
sS'CONFIG_MD_RAID1'
p404
S'm'
sS'CONFIG_HAVE_SETUP_PER_CPU_AREA'
p405
S'y'
sS'user.max_net_namespaces'
p406
I257592
sS'kernel.sched_domain.cpu12.domain0.max_interval'
p407
I20
sS'vm.laptop_mode'
p408
I0
sS'CONFIG_SIGNED_PE_FILE_VERIFICATION'
p409
S'y'
sS'CONFIG_NET_VENDOR_CAVIUM'
p410
S'y'
sS'CONFIG_IMA_NG_TEMPLATE'
p411
S'y'
sS'CONFIG_X86_FEATURE_NAMES'
p412
S'y'
sS'kernel.sched_domain.cpu5.domain1.wake_idx'
p413
I0
sS'CONFIG_KEXEC'
p414
S'y'
sS'CONFIG_CRYPTO_DEV_PADLOCK'
p415
S'y'
sS'CONFIG_HAVE_ARCH_WITHIN_STACK_FRAMES'
p416
S'y'
sS'kernel.sched_domain.cpu2.domain0.wake_idx'
p417
I0
sS'net.ipv4.conf.all.secure_redirects'
p418
I1
sS'kernel.sched_domain.cpu5.domain0.cache_nice_tries'
p419
I1
sS'CONFIG_HAVE_REGS_AND_STACK_ACCESS_API'
p420
S'y'
sS'kernel.sched_domain.cpu21.domain0.wake_idx'
p421
I0
sS'kernel.sched_domain.cpu22.domain1.max_interval'
p422
I80
sS'CONFIG_DEVFREQ_GOV_SIMPLE_ONDEMAND'
p423
S'y'
sS'net.ipv4.conf.lo.igmpv2_unsolicited_report_interval'
p424
I10000
sS'kernel.sched_domain.cpu4.domain0.idle_idx'
p425
I1
sS'kernel.sched_domain.cpu29.domain0.wake_idx'
p426
I0
sS'CONFIG_INPUT_JOYDEV'
p427
S'm'
sS'net.ipv6.conf.ens3.accept_ra_mtu'
p428
I1
sS'kernel.sched_domain.cpu37.domain1.busy_idx'
p429
I3
sS'CONFIG_INPUT_MISC'
p430
S'y'
sS'kernel.sched_domain.cpu37.domain0.cache_nice_tries'
p431
I1
sS'net.ipv4.conf.all.force_igmp_version'
p432
I0
sS'CONFIG_UTS_NS'
p433
S'y'
sS'kernel.sched_domain.cpu21.domain0.name'
p434
S'DIE'
p435
sS'kernel.sched_domain.cpu11.domain1.name'
p436
S'NUMA'
p437
sS'CONFIG_MFD_MAX14577'
p438
S'y'
sS'CONFIG_CPU_FREQ_GOV_PERFORMANCE'
p439
S'y'
sS'net.ipv6.neigh.lo.mcast_resolicit'
p440
I0
sS'CONFIG_PREEMPT_NOTIFIERS'
p441
S'y'
sS'CONFIG_IO_DELAY_0XED'
p442
S'y'
sS'kernel.sched_domain.cpu31.domain0.busy_factor'
p443
I32
sS'CONFIG_AGP_AMD64'
p444
S'y'
sS'kernel.sched_domain.cpu19.domain0.flags'
p445
I4143
sS'CONFIG_MTRR'
p446
S'y'
sS'kernel.sched_domain.cpu28.domain1.idle_idx'
p447
I2
sS'kernel.overflowgid'
p448
I65534
sS'CONFIG_CRYPTO_RNG_DEFAULT'
p449
S'y'
sS'kernel.sched_domain.cpu7.domain0.busy_idx'
p450
I2
sS'CONFIG_X86_MCE'
p451
S'y'
sS'CONFIG_KALLSYMS_BASE_RELATIVE'
p452
S'y'
sS'CONFIG_ISA_DMA_API'
p453
S'y'
sS'CONFIG_ASYMMETRIC_PUBLIC_KEY_SUBTYPE'
p454
S'y'
sS'kernel.sched_domain.cpu15.domain1.name'
p455
S'NUMA'
p456
sS'CONFIG_ELF_CORE'
p457
S'y'
sS'net.ipv6.neigh.lo.proxy_delay'
p458
I80
sS'net.ipv6.conf.lo.router_solicitations'
p459
S'-1'
p460
sS'kernel.ftrace_dump_on_oops'
p461
I0
sS'net.ipv4.conf.default.arp_filter'
p462
I0
sS'kernel.sched_domain.cpu14.domain1.busy_idx'
p463
I3
sS'kernel.sched_autogroup_enabled'
p464
I1
sS'net.ipv6.neigh.default.unres_qlen'
p465
I101
sS'kernel.sched_domain.cpu14.domain0.cache_nice_tries'
p466
I1
sS'net.ipv6.neigh.lo.anycast_delay'
p467
I100
sS'CONFIG_USB_DYNAMIC_MINORS'
p468
S'y'
sS'CONFIG_ARCH_HAS_FORTIFY_SOURCE'
p469
S'y'
sS'kernel.sched_domain.cpu12.domain1.busy_factor'
p470
I32
sS'CONFIG_THERMAL_GOV_USER_SPACE'
p471
S'y'
sS'net.ipv4.icmp_ratemask'
p472
I6168
sS'CONFIG_SERIAL_8250_EXAR'
p473
S'y'
sS'kernel.hung_task_warnings'
p474
I10
sS'CONFIG_PARPORT_1284'
p475
S'y'
sS'CONFIG_SYSTEM_BLACKLIST_HASH_LIST'
p476
S'""'
p477
sS'CONFIG_ARCH_MMAP_RND_BITS_MIN'
p478
I28
sS'CONFIG_EXPERT'
p479
S'y'
sS'net.ipv4.tcp_abort_on_overflow'
p480
I0
sS'CONFIG_WLAN_VENDOR_ATMEL'
p481
S'y'
sS'CONFIG_HAVE_MIXED_BREAKPOINTS_REGS'
p482
S'y'
sS'kernel.sched_domain.cpu29.domain1.busy_idx'
p483
I3
sS'CONFIG_SWIOTLB'
p484
S'y'
sS'kernel.sched_domain.cpu9.domain0.busy_factor'
p485
I32
sS'net.ipv4.conf.lo.bootp_relay'
p486
I0
sS'kernel.sched_domain.cpu28.domain0.name'
p487
S'DIE'
p488
sS'kernel.sched_domain.cpu18.domain0.busy_idx'
p489
I2
sS'CONFIG_SCSI_PROC_FS'
p490
S'y'
sS'CONFIG_RD_BZIP2'
p491
S'y'
sS'CONFIG_MFD_LP8788'
p492
S'y'
sS'CONFIG_CGROUP_HUGETLB'
p493
S'y'
sS'net.ipv6.conf.ens3.accept_ra_rt_info_min_plen'
p494
I0
sS'CONFIG_FDDI'
p495
S'y'
sS'kernel.sched_domain.cpu32.domain0.wake_idx'
p496
I0
sS'kernel.sched_domain.cpu38.domain0.max_newidle_lb_cost'
p497
I12929
sS'CONFIG_MMC'
p498
S'y'
sS'kernel.sched_domain.cpu20.domain0.min_interval'
p499
I10
sS'net.ipv4.tcp_keepalive_time'
p500
I7200
sS'vm.nr_hugepages_mempolicy'
p501
I0
sS'net.ipv4.conf.all.ignore_routes_with_linkdown'
p502
I0
sS'kernel.sched_domain.cpu29.domain0.min_interval'
p503
I10
sS'kernel.sched_domain.cpu30.domain0.newidle_idx'
p504
I0
sS'CONFIG_XOR_BLOCKS'
p505
S'm'
sS'kernel.sched_domain.cpu1.domain0.name'
p506
S'DIE'
p507
sS'kernel.sched_domain.cpu38.domain1.name'
p508
S'NUMA'
p509
sS'CONFIG_MAILBOX'
p510
S'y'
sS'kernel.sched_domain.cpu5.domain1.min_interval'
p511
I40
sS'kernel.sched_domain.cpu26.domain0.min_interval'
p512
I10
sS'kernel.sched_domain.cpu5.domain0.wake_idx'
p513
I0
sS'kernel.sched_domain.cpu10.domain0.idle_idx'
p514
I1
sS'kernel.sched_domain.cpu23.domain0.min_interval'
p515
I10
sS'kernel.sched_domain.cpu35.domain1.idle_idx'
p516
I2
sS'net.ipv6.conf.default.proxy_ndp'
p517
I0
sS'CONFIG_MEMTEST'
p518
S'y'
sS'net.ipv4.ip_unprivileged_port_start'
p519
I1024
sS'net.ipv6.neigh.lo.app_solicit'
p520
I0
sS'kernel.sched_domain.cpu32.domain0.forkexec_idx'
p521
I0
sS'CONFIG_PCI_BUS_ADDR_T_64BIT'
p522
S'y'
sS'kernel.sched_domain.cpu25.domain0.cache_nice_tries'
p523
I1
sS'kernel.sched_domain.cpu27.domain1.min_interval'
p524
I40
sS'CONFIG_VGA_SWITCHEROO'
p525
S'y'
sS'CONFIG_XZ_DEC_IA64'
p526
S'y'
sS'kernel.sched_domain.cpu8.domain0.newidle_idx'
p527
I0
sS'CONFIG_CRYPTO_CRCT10DIF_PCLMUL'
p528
S'm'
sS'CONFIG_ARCH_USE_QUEUED_SPINLOCKS'
p529
S'y'
sS'kernel.sched_domain.cpu3.domain1.wake_idx'
p530
I0
sS'kernel.sched_domain.cpu39.domain1.forkexec_idx'
p531
I0
sS'CONFIG_NET_EMATCH_STACK'
p532
I32
sS'kernel.sched_domain.cpu1.domain1.min_interval'
p533
I40
sS'kernel.panic_on_warn'
p534
I0
sS'net.ipv6.conf.lo.enhanced_dad'
p535
I1
sS'CONFIG_GPIOLIB'
p536
S'y'
sS'kernel.sched_domain.cpu31.domain1.cache_nice_tries'
p537
I2
sS'kernel.keys.maxkeys'
p538
I200
sS'kernel.sched_domain.cpu16.domain0.name'
p539
S'DIE'
p540
sS'CONFIG_GPIO_PALMAS'
p541
S'y'
sS'CONFIG_REGULATOR'
p542
S'y'
sS'CONFIG_HOTPLUG_PCI_CPCI'
p543
S'y'
sS'kernel.sched_domain.cpu20.domain0.newidle_idx'
p544
I0
sS'vm.panic_on_oom'
p545
I0
sS'CONFIG_NET_VENDOR_AMD'
p546
S'y'
sS'kernel.sched_domain.cpu16.domain1.newidle_idx'
p547
I0
sS'net.ipv4.neigh.ens3.app_solicit'
p548
I0
sS'CONFIG_HAVE_KVM_IRQ_BYPASS'
p549
S'y'
sS'CONFIG_CRASH_CORE'
p550
S'y'
sS'kernel.sched_domain.cpu29.domain1.idle_idx'
p551
I2
sS'kernel.sched_domain.cpu30.domain1.busy_idx'
p552
I3
sS'fs.inotify.max_user_instances'
p553
I1024
sS'CONFIG_SYSCTL'
p554
S'y'
sS'CONFIG_MD_RAID0'
p555
S'm'
sS'net.ipv4.icmp_ignore_bogus_error_responses'
p556
I1
sS'CONFIG_HAVE_FENTRY'
p557
S'y'
sS'kernel.sched_domain.cpu20.domain0.max_interval'
p558
I20
sS'kernel.sched_domain.cpu37.domain1.forkexec_idx'
p559
I0
sS'fs.quota.syncs'
p560
I0
sS'CONFIG_SECURITY_SMACK_NETFILTER'
p561
S'y'
sS'kernel.sched_domain.cpu2.domain1.busy_idx'
p562
I3
sS'net.ipv6.neigh.ens3.delay_first_probe_time'
p563
I5
sS'kernel.stack_tracer_enabled'
p564
I0
sS'CONFIG_FB_CMDLINE'
p565
S'y'
sS'kernel.sched_domain.cpu0.domain0.flags'
p566
I4143
sS'CONFIG_CRYPTO_DRBG_HMAC'
p567
S'y'
sS'CONFIG_MAC_PARTITION'
p568
S'y'
sS'CONFIG_MISC_FILESYSTEMS'
p569
S'y'
sS'abi.vsyscall32'
p570
I1
sS'net.ipv4.route.error_cost'
p571
I250
sS'CONFIG_CGROUP_NET_CLASSID'
p572
S'y'
sS'CONFIG_CRYPTO_SKEIN'
p573
S'y'
sS'kernel.sched_domain.cpu37.domain1.flags'
p574
I25647
sS'kernel.sched_domain.cpu32.domain1.busy_idx'
p575
I3
sS'CONFIG_GENERIC_PCI_IOMAP'
p576
S'y'
sS'kernel.sched_domain.cpu39.domain1.idle_idx'
p577
I2
sS'CONFIG_DEBUG_KERNEL'
p578
S'y'
sS'net.ipv4.igmp_qrv'
p579
I2
sS'CONFIG_RANDOMIZE_BASE'
p580
S'y'
sS'CONFIG_MODULE_SIG_SHA512'
p581
S'y'
sS'CONFIG_CHELSIO_T3'
p582
S'm'
sS'kernel.sched_domain.cpu23.domain0.flags'
p583
I4143
sS'user.max_mnt_namespaces'
p584
I257592
sS'net.core.wmem_max'
p585
I212992
sS'vm.swappiness'
p586
I60
sS'kernel.sched_domain.cpu9.domain1.forkexec_idx'
p587
I0
sS'kernel.sched_domain.cpu5.domain1.busy_factor'
p588
I32
sS'net.ipv4.conf.ens3.shared_media'
p589
I1
sS'CONFIG_SBITMAP'
p590
S'y'
sS'net.ipv4.cipso_cache_bucket_size'
p591
I10
sS'net.ipv4.ipfrag_low_thresh'
p592
I3145728
sS'kernel.sched_domain.cpu15.domain1.flags'
p593
I25647
sS'net.ipv4.route.mtu_expires'
p594
I600
sS'CONFIG_KPROBE_EVENTS'
p595
S'y'
sS'net.ipv6.conf.default.drop_unicast_in_l2_multicast'
p596
I0
sS'CONFIG_USB_EHCI_TT_NEWSCHED'
p597
S'y'
sS'CONFIG_X86_16BIT'
p598
S'y'
sS'CONFIG_VIRTIO_BALLOON'
p599
S'y'
sS'net.iw_cm.default_backlog'
p600
I256
sS'CONFIG_CRYPTO_CTR'
p601
S'y'
sS'kernel.sched_domain.cpu24.domain1.forkexec_idx'
p602
I0
sS'net.ipv4.tcp_reordering'
p603
I3
sS'CONFIG_NET'
p604
S'y'
sS'CONFIG_TWL4030_CORE'
p605
S'y'
sS'kernel.sched_domain.cpu18.domain1.name'
p606
S'NUMA'
p607
sS'CONFIG_HAS_DMA'
p608
S'y'
sS'kernel.random.uuid'
p609
S'f23d322d-59bf-4a12-a08b-6c2ce9e185f1'
p610
sS'net.ipv6.conf.ens3.mc_forwarding'
p611
I0
sS'net.ipv4.conf.lo.secure_redirects'
p612
I1
sS'kernel.sched_domain.cpu10.domain0.forkexec_idx'
p613
I0
sS'fs.overflowgid'
p614
I65534
sS'kernel.sched_domain.cpu38.domain0.busy_factor'
p615
I32
sS'net.ipv4.tcp_dsack'
p616
I1
sS'CONFIG_CPU_SUP_INTEL'
p617
S'y'
sS'CONFIG_TRANSPARENT_HUGEPAGE'
p618
S'y'
sS'CONFIG_SCSI_ISCSI_ATTRS'
p619
S'm'
sS'CONFIG_MQ_IOSCHED_DEADLINE'
p620
S'y'
sS'CONFIG_CRYPTO_HMAC'
p621
S'y'
sS'kernel.sched_domain.cpu12.domain0.imbalance_pct'
p622
I125
sS'CONFIG_VT_CONSOLE'
p623
S'y'
sS'kernel.acpi_video_flags'
p624
I0
sS'CONFIG_WAN'
p625
S'y'
sS'kernel.sched_domain.cpu9.domain1.imbalance_pct'
p626
I125
sS'CONFIG_VGA_ARB_MAX_GPUS'
p627
I16
sS'CONFIG_BUILDTIME_EXTABLE_SORT'
p628
S'y'
sS'kernel.sched_domain.cpu17.domain1.newidle_idx'
p629
I0
sS'net.ipv4.route.redirect_silence'
p630
I5120
sS'CONFIG_KEXEC_JUMP'
p631
S'y'
sS'kernel.sched_domain.cpu33.domain0.newidle_idx'
p632
I0
sS'kernel.sched_domain.cpu7.domain0.imbalance_pct'
p633
I125
sS'net.ipv4.conf.lo.forwarding'
p634
I0
sS'kernel.sched_domain.cpu17.domain0.forkexec_idx'
p635
I0
sS'kernel.sched_domain.cpu10.domain0.wake_idx'
p636
I0
sS'dev.cdrom.lock'
p637
I1
sS'CONFIG_HAVE_HW_BREAKPOINT'
p638
S'y'
sS'CONFIG_MACINTOSH_DRIVERS'
p639
S'y'
sS'CONFIG_HAVE_DEBUG_KMEMLEAK'
p640
S'y'
sS'CONFIG_ISDN'
p641
S'y'
sS'CONFIG_MFD_CORE'
p642
S'y'
sS'CONFIG_ACPI_FAN'
p643
S'y'
sS'kernel.sched_domain.cpu11.domain0.max_newidle_lb_cost'
p644
I13070
sS'net.ipv4.conf.lo.src_valid_mark'
p645
I0
sS'CONFIG_AIX_PARTITION'
p646
S'y'
sS'kernel.sched_domain.cpu16.domain0.cache_nice_tries'
p647
I1
sS'kernel.sched_domain.cpu1.domain0.cache_nice_tries'
p648
I1
sS'CONFIG_MD_RAID456'
p649
S'm'
sS'net.ipv4.conf.ens3.arp_ignore'
p650
I0
sS'CONFIG_TICK_CPU_ACCOUNTING'
p651
S'y'
sS'kernel.sched_domain.cpu39.domain0.wake_idx'
p652
I0
sS'kernel.sched_domain.cpu31.domain1.flags'
p653
I25647
sS'CONFIG_SFI'
p654
S'y'
sS'net.ipv6.conf.default.router_solicitations'
p655
S'-1'
p656
sS'CONFIG_NET_SCH_FIFO'
p657
S'y'
sS'net.core.netdev_rss_key'
p658
S'00:00:00:00:00:00:00:00:00:00:00:00:00:00:00:00:00:00:00:00:00:00:00:00:00:00:00:00:00:00:00:00:00:00:00:00:00:00:00:00:00:00:00:00:00:00:00:00:00:00:00:00'
p659
sS'kernel.sched_domain.cpu18.domain1.max_newidle_lb_cost'
p660
I40984
sS'net.ipv4.conf.default.igmpv2_unsolicited_report_interval'
p661
I10000
sS'CONFIG_X86_64_ACPI_NUMA'
p662
S'y'
sS'CONFIG_SYSFS_SYSCALL'
p663
S'y'
sS'kernel.sched_domain.cpu38.domain1.wake_idx'
p664
I0
sS'kernel.sched_domain.cpu12.domain0.busy_factor'
p665
I32
sS'CONFIG_ARCH_WANT_GENERAL_HUGETLB'
p666
S'y'
sS'CONFIG_XPS'
p667
S'y'
sS'CONFIG_GENERIC_CMOS_UPDATE'
p668
S'y'
sS'net.ipv4.tcp_max_tw_buckets'
p669
I262144
sS'CONFIG_SERIAL_8250_EXTENDED'
p670
S'y'
sS'kernel.sched_domain.cpu0.domain0.max_newidle_lb_cost'
p671
I19144
sS'CONFIG_NET_VENDOR_ADAPTEC'
p672
S'y'
sS'CONFIG_EPOLL'
p673
S'y'
sS'net.ipv4.conf.lo.disable_xfrm'
p674
I1
sS'net.ipv6.conf.lo.autoconf'
p675
I1
sS'kernel.sched_domain.cpu2.domain0.imbalance_pct'
p676
I125
sS'kernel.panic'
p677
I0
sS'CONFIG_FAT_DEFAULT_CODEPAGE'
p678
I437
sS'CONFIG_X86_SUPPORTS_MEMORY_FAILURE'
p679
S'y'
sS'kernel.sched_domain.cpu11.domain0.newidle_idx'
p680
I0
sS'kernel.sched_domain.cpu0.domain1.forkexec_idx'
p681
I0
sS'CONFIG_SCHED_HRTICK'
p682
S'y'
sS'CONFIG_SECURITY_SELINUX_DISABLE'
p683
S'y'
sS'kernel.sched_domain.cpu21.domain0.idle_idx'
p684
I1
sS'kernel.sched_domain.cpu9.domain0.idle_idx'
p685
I1
sS'CONFIG_NET_VENDOR_REALTEK'
p686
S'y'
sS'CONFIG_FAT_DEFAULT_IOCHARSET'
p687
S'"iso8859-1"'
p688
sS'net.ipv6.route.min_adv_mss'
p689
I1220
sS'CONFIG_IP_ROUTE_VERBOSE'
p690
S'y'
sS'CONFIG_BLK_DEV_SD'
p691
S'y'
sS'CONFIG_BRIDGE_EBT_T_FILTER'
p692
S'm'
sS'CONFIG_USB_OHCI_HCD'
p693
S'y'
sS'CONFIG_VIRTIO_CONSOLE'
p694
S'y'
sS'kernel.sched_domain.cpu31.domain0.newidle_idx'
p695
I0
sS'net.ipv6.ip6frag_low_thresh'
p696
I3145728
sS'CONFIG_USB_UHCI_HCD'
p697
S'y'
sS'CONFIG_BSD_DISKLABEL'
p698
S'y'
sS'kernel.sched_domain.cpu28.domain0.max_interval'
p699
I20
sS'kernel.sched_domain.cpu19.domain0.min_interval'
p700
I10
sS'net.core.flow_limit_cpu_bitmap'
p701
S'0000000,00000000,00000000,00000000'
p702
sS'CONFIG_SECURITY_WRITABLE_HOOKS'
p703
S'y'
sS'CONFIG_NVM'
p704
S'y'
sS'net.ipv6.conf.ens3.accept_dad'
p705
I1
sS'kernel.sched_domain.cpu33.domain1.max_newidle_lb_cost'
p706
I69725
sS'CONFIG_TRACING_EVENTS_GPIO'
p707
S'y'
sS'fs.quota.allocated_dquots'
p708
I0
sS'CONFIG_X509_CERTIFICATE_PARSER'
p709
S'y'
sS'kernel.sched_domain.cpu11.domain1.idle_idx'
p710
I2
sS'vm.nr_hugepages'
p711
I0
sS'kernel.sched_domain.cpu23.domain1.wake_idx'
p712
I0
sS'CONFIG_WLAN_VENDOR_ADMTEK'
p713
S'y'
sS'net.ipv4.conf.lo.send_redirects'
p714
I1
sS'kernel.sched_domain.cpu30.domain0.flags'
p715
I4143
sS'kernel.sched_domain.cpu16.domain0.max_interval'
p716
I20
sS'net.ipv6.conf.all.proxy_ndp'
p717
I0
sS'CONFIG_OPTPROBES'
p718
S'y'
sS'net.ipv4.tcp_pacing_ss_ratio'
p719
I200
sS'kernel.keys.persistent_keyring_expiry'
p720
I259200
sS'CONFIG_MD'
p721
S'y'
sS'kernel.sched_domain.cpu7.domain0.forkexec_idx'
p722
I0
sS'kernel.sched_domain.cpu11.domain1.max_newidle_lb_cost'
p723
I58492
sS'CONFIG_DETECT_HUNG_TASK'
p724
S'y'
sS'CONFIG_DMI'
p725
S'y'
sS'kernel.sched_domain.cpu27.domain1.idle_idx'
p726
I2
sS'net.ipv4.conf.lo.arp_notify'
p727
I0
sS'CONFIG_BQL'
p728
S'y'
sS'kernel.softlockup_all_cpu_backtrace'
p729
I0
sS'kernel.sched_domain.cpu17.domain0.min_interval'
p730
I10
sS'kernel.version'
p731
S'#3 SMP Tue Mar 13 14:28:42 EDT 2018'
p732
sS'net.ipv6.neigh.default.gc_interval'
p733
I30
sS'kernel.sched_domain.cpu36.domain1.imbalance_pct'
p734
I125
sS'kernel.sched_domain.cpu38.domain0.idle_idx'
p735
I1
sS'kernel.sched_domain.cpu0.domain0.busy_idx'
p736
I2
sS'CONFIG_CGROUP_SCHED'
p737
S'y'
sS'CONFIG_HT_IRQ'
p738
S'y'
sS'CONFIG_NET_VENDOR_ATHEROS'
p739
S'y'
sS'net.ipv6.neigh.ens3.unres_qlen_bytes'
p740
I212992
sS'kernel.panic_on_io_nmi'
p741
I0
sS'CONFIG_SERIAL_8250_CONSOLE'
p742
S'y'
sS'CONFIG_HAVE_ARCH_MMAP_RND_COMPAT_BITS'
p743
S'y'
sS'kernel.sched_domain.cpu31.domain1.max_interval'
p744
I80
sS'CONFIG_NVDIMM_PFN'
p745
S'y'
sS'kernel.bootloader_type'
p746
I114
sS'kernel.sched_domain.cpu39.domain1.cache_nice_tries'
p747
I2
sS'kernel.sched_domain.cpu7.domain0.newidle_idx'
p748
I0
sS'CONFIG_SERIAL_CORE'
p749
S'y'
sS'net.ipv4.conf.ens3.arp_filter'
p750
I0
sS'net.ipv6.idgen_delay'
p751
I1
sS'CONFIG_HAVE_HARDENED_USERCOPY_ALLOCATOR'
p752
S'y'
sS'kernel.sched_domain.cpu37.domain1.min_interval'
p753
I40
sS'net.ipv6.conf.ens3.disable_ipv6'
p754
I0
sS'CONFIG_MMU'
p755
S'y'
sS'CONFIG_HAVE_KERNEL_XZ'
p756
S'y'
sS'CONFIG_MFD_DA9052_SPI'
p757
S'y'
sS'CONFIG_USE_PERCPU_NUMA_NODE_ID'
p758
S'y'
sS'CONFIG_NET_INGRESS'
p759
S'y'
sS'kernel.sched_domain.cpu19.domain1.name'
p760
S'NUMA'
p761
sS'kernel.sched_domain.cpu28.domain1.max_interval'
p762
I80
sS'kernel.msgmax'
p763
I8192
sS'CONFIG_ARCH_ENABLE_HUGEPAGE_MIGRATION'
p764
S'y'
sS'kernel.sched_domain.cpu28.domain1.max_newidle_lb_cost'
p765
I56875
sS'kernel.sched_domain.cpu21.domain0.cache_nice_tries'
p766
I1
sS'kernel.sched_domain.cpu31.domain1.idle_idx'
p767
I2
sS'CONFIG_CHARGER_MANAGER'
p768
S'y'
sS'net.ipv6.conf.lo.drop_unsolicited_na'
p769
I0
sS'net.ipv4.conf.ens3.medium_id'
p770
I0
sS'kernel.sched_domain.cpu19.domain1.busy_idx'
p771
I3
sS'CONFIG_SYSVIPC'
p772
S'y'
sS'net.ipv6.neigh.ens3.ucast_solicit'
p773
I3
sS'CONFIG_PARPORT_PC_FIFO'
p774
S'y'
sS'CONFIG_WIRELESS'
p775
S'y'
sS'CONFIG_FANOTIFY_ACCESS_PERMISSIONS'
p776
S'y'
sS'CONFIG_DAX'
p777
S'y'
sS'CONFIG_RD_XZ'
p778
S'y'
sS'kernel.sched_domain.cpu17.domain0.busy_factor'
p779
I32
sS'kernel.sched_domain.cpu17.domain1.wake_idx'
p780
I0
sS'CONFIG_CONNECTOR'
p781
S'y'
sS'net.ipv4.conf.default.arp_accept'
p782
I0
sS'kernel.sched_domain.cpu34.domain1.busy_factor'
p783
I32
sS'net.ipv4.udp_early_demux'
p784
I1
sS'CONFIG_MFD_88PM860X'
p785
S'y'
sS'kernel.sched_domain.cpu6.domain0.min_interval'
p786
I10
sS'kernel.sched_domain.cpu15.domain0.imbalance_pct'
p787
I125
sS'CONFIG_MODVERSIONS'
p788
S'y'
sS'kernel.sched_migration_cost_ns'
p789
I500000
sS'CONFIG_HAVE_INTEL_TXT'
p790
S'y'
sS'CONFIG_ARCH_HAS_UBSAN_SANITIZE_ALL'
p791
S'y'
sS'kernel.sched_domain.cpu20.domain0.forkexec_idx'
p792
I0
sS'CONFIG_OLD_SIGSUSPEND3'
p793
S'y'
sS'net.ipv6.conf.ens3.use_tempaddr'
p794
I0
sS'dev.mac_hid.mouse_button2_keycode'
p795
I97
sS'net.ipv6.neigh.lo.proxy_qlen'
p796
I64
sS'kernel.sched_domain.cpu27.domain1.max_interval'
p797
I80
sS'net.ipv6.conf.default.router_probe_interval'
p798
I60
sS'kernel.sched_domain.cpu14.domain1.busy_factor'
p799
I32
sS'net.ipv4.route.error_burst'
p800
I1250
sS'CONFIG_NET_VENDOR_ARC'
p801
S'y'
sS'net.ipv6.conf.all.keep_addr_on_down'
p802
I0
sS'kernel.sched_domain.cpu16.domain1.forkexec_idx'
p803
I0
sS'CONFIG_EDAC_ATOMIC_SCRUB'
p804
S'y'
sS'CONFIG_TRUSTED_KEYS'
p805
S'y'
sS'CONFIG_PWM_SYSFS'
p806
S'y'
sS'CONFIG_AUDITSYSCALL'
p807
S'y'
sS'net.ipv4.tcp_fastopen'
p808
I1
sS'net.ipv6.conf.lo.proxy_ndp'
p809
I0
sS'CONFIG_HAVE_KVM_EVENTFD'
p810
S'y'
sS'CONFIG_HAVE_ARCH_KMEMCHECK'
p811
S'y'
sS'CONFIG_PM_DEVFREQ'
p812
S'y'
sS'CONFIG_UID16'
p813
S'y'
sS'net.ipv6.calipso_cache_bucket_size'
p814
I10
sS'CONFIG_ACPI_SLEEP'
p815
S'y'
sS'kernel.watchdog_cpumask'
p816
S'0-121'
p817
sS'CONFIG_SND_SUPPORT_OLD_API'
p818
S'y'
sS'net.ipv4.conf.lo.accept_redirects'
p819
I1
sS'net.ipv6.conf.all.max_addresses'
p820
I16
sS'kernel.sched_domain.cpu32.domain0.name'
p821
S'DIE'
p822
sS'kernel.sched_child_runs_first'
p823
I0
sS'net.ipv6.conf.all.accept_ra_from_local'
p824
I0
sS'CONFIG_PINCONF'
p825
S'y'
sS'CONFIG_RTC_HCTOSYS'
p826
S'y'
sS'CONFIG_CRYPTO_GCM'
p827
S'y'
sS'kernel.sched_domain.cpu31.domain0.forkexec_idx'
p828
I0
sS'kernel.softlockup_panic'
p829
I0
sS'kernel.sched_domain.cpu18.domain1.imbalance_pct'
p830
I125
sS'kernel.sched_domain.cpu25.domain0.max_interval'
p831
I20
sS'CONFIG_RTC_I2C_AND_SPI'
p832
S'y'
sS'CONFIG_USB_EHCI_HCD'
p833
S'y'
sS'kernel.sched_domain.cpu36.domain1.forkexec_idx'
p834
I0
sS'CONFIG_CHROME_PLATFORMS'
p835
S'y'
sS'kernel.sched_domain.cpu7.domain1.max_interval'
p836
I80
sS'CONFIG_HAVE_ARCH_KGDB'
p837
S'y'
sS'CONFIG_IO_DELAY_TYPE_0XED'
p838
I1
sS'net.ipv6.conf.ens3.drop_unicast_in_l2_multicast'
p839
I0
sS'net.ipv6.conf.default.force_mld_version'
p840
I0
sS'kernel.sched_domain.cpu35.domain0.min_interval'
p841
I10
sS'net.ipv4.ip_no_pmtu_disc'
p842
I0
sS'CONFIG_GENERIC_CLOCKEVENTS_BROADCAST'
p843
S'y'
sS'CONFIG_WLAN_VENDOR_MEDIATEK'
p844
S'y'
sS'vm.dirty_writeback_centisecs'
p845
I500
sS'kernel.sched_domain.cpu14.domain1.idle_idx'
p846
I2
sS'CONFIG_SCSI_CXGB3_ISCSI'
p847
S'm'
sS'net.ipv6.conf.lo.accept_ra'
p848
I1
sS'kernel.sched_domain.cpu2.domain0.max_newidle_lb_cost'
p849
I19621
sS'CONFIG_ARCH_SUPPORTS_OPTIMIZED_INLINING'
p850
S'y'
sS'net.ipv4.conf.default.proxy_arp_pvlan'
p851
I0
sS'kernel.sched_domain.cpu27.domain0.max_newidle_lb_cost'
p852
I12349
sS'kernel.sched_domain.cpu33.domain1.idle_idx'
p853
I2
sS'CONFIG_PM_STD_PARTITION'
p854
S'""'
p855
sS'net.ipv4.conf.ens3.secure_redirects'
p856
I1
sS'kernel.sched_domain.cpu27.domain1.name'
p857
S'NUMA'
p858
sS'CONFIG_ULTRIX_PARTITION'
p859
S'y'
sS'CONFIG_HAVE_NMI'
p860
S'y'
sS'kernel.sched_domain.cpu19.domain1.busy_factor'
p861
I32
sS'CONFIG_NET_VENDOR_3COM'
p862
S'y'
sS'kernel.sched_domain.cpu16.domain1.name'
p863
S'NUMA'
p864
sS'net.ipv6.conf.ens3.seg6_enabled'
p865
I0
sS'kernel.sched_domain.cpu13.domain1.idle_idx'
p866
I2
sS'fs.mqueue.msgsize_max'
p867
I8192
sS'CONFIG_HAS_IOMEM'
p868
S'y'
sS'kernel.sched_domain.cpu13.domain0.name'
p869
S'DIE'
p870
sS'net.ipv4.conf.all.forwarding'
p871
I0
sS'CONFIG_USB_DEFAULT_PERSIST'
p872
S'y'
sS'CONFIG_NEW_LEDS'
p873
S'y'
sS'kernel.sched_domain.cpu28.domain0.flags'
p874
I4143
sS'kernel.perf_event_paranoid'
p875
I2
sS'net.ipv4.conf.all.bootp_relay'
p876
I0
sS'net.ipv6.neigh.default.base_reachable_time_ms'
p877
I30000
sS'kernel.sched_domain.cpu24.domain1.flags'
p878
I25647
sS'kernel.perf_event_mlock_kb'
p879
I516
sS'vm.block_dump'
p880
I0
sS'kernel.sched_domain.cpu16.domain0.busy_factor'
p881
I32
sS'CONFIG_PHYLIB'
p882
S'y'
sS'net.ipv4.tcp_keepalive_intvl'
p883
I75
sS'kernel.sched_domain.cpu37.domain1.wake_idx'
p884
I0
sS'CONFIG_PCI_MSI'
p885
S'y'
sS'net.ipv4.conf.default.send_redirects'
p886
I1
sS'net.ipv6.conf.default.disable_ipv6'
p887
I0
sS'kernel.sched_domain.cpu26.domain1.min_interval'
p888
I40
sS'kernel.sched_domain.cpu20.domain1.newidle_idx'
p889
I0
sS'kernel.sched_domain.cpu35.domain0.idle_idx'
p890
I1
sS'fs.pipe-user-pages-hard'
p891
I0
sS'net.ipv4.route.redirect_number'
p892
I9
sS'net.ipv6.conf.lo.hop_limit'
p893
I64
sS'kernel.sched_domain.cpu7.domain1.newidle_idx'
p894
I0
sS'net.ipv4.conf.all.arp_accept'
p895
I0
sS'kernel.sched_domain.cpu36.domain1.busy_factor'
p896
I32
sS'CONFIG_BINARY_PRINTF'
p897
S'y'
sS'kernel.numa_balancing_scan_period_max_ms'
p898
I60000
sS'kernel.msgmnb'
p899
I16384
sS'CONFIG_IRQ_BYPASS_MANAGER'
p900
S'm'
sS'kernel.sched_domain.cpu34.domain0.imbalance_pct'
p901
I125
sS'kernel.msgmni'
p902
I32000
sS'CONFIG_SLUB'
p903
S'y'
sS'kernel.soft_watchdog'
p904
I1
sS'CONFIG_USB_LED_TRIG'
p905
S'y'
sS'kernel.sched_time_avg_ms'
p906
I1000
sS'kernel.sched_domain.cpu21.domain0.busy_idx'
p907
I2
sS'kernel.sched_domain.cpu8.domain0.cache_nice_tries'
p908
I1
sS'CONFIG_X86_INTEL_MPX'
p909
S'y'
sS'CONFIG_X86_ACPI_CPUFREQ_CPB'
p910
S'y'
sS'net.ipv6.conf.default.mc_forwarding'
p911
I0
sS'kernel.threads-max'
p912
I515185
sS'kernel.sched_domain.cpu1.domain1.busy_factor'
p913
I32
sS'kernel.sched_domain.cpu18.domain1.busy_idx'
p914
I3
sS'kernel.overflowuid'
p915
I65534
sS'net.ipv4.conf.ens3.disable_xfrm'
p916
I0
sS'CONFIG_ACPI_DOCK'
p917
S'y'
sS'CONFIG_X86_INTEL_MEMORY_PROTECTION_KEYS'
p918
S'y'
sS'net.ipv4.neigh.ens3.base_reachable_time_ms'
p919
I30000
sS'CONFIG_SCHED_MC'
p920
S'y'
sS'CONFIG_ARCH_HAS_MEM_ENCRYPT'
p921
S'y'
sS'kernel.sched_domain.cpu35.domain1.min_interval'
p922
I40
sS'kernel.sched_domain.cpu8.domain1.max_interval'
p923
I80
sS'kernel.sched_domain.cpu17.domain1.min_interval'
p924
I40
sS'kernel.keys.gc_delay'
p925
I300
sS'CONFIG_HAVE_ARCH_TRANSPARENT_HUGEPAGE_PUD'
p926
S'y'
sS'kernel.hung_task_timeout_secs'
p927
I120
sS'CONFIG_X86_MINIMUM_CPU_FAMILY'
p928
I64
sS'CONFIG_CRYPTO_KPP2'
p929
S'y'
sS'CONFIG_SQUASHFS_ZLIB'
p930
S'y'
sS'CONFIG_X86_PLATFORM_DEVICES'
p931
S'y'
sS'CONFIG_CONTEXT_SWITCH_TRACER'
p932
S'y'
sS'net.ipv4.conf.default.accept_source_route'
p933
I1
sS'kernel.core_pipe_limit'
p934
I0
sS'kernel.sched_domain.cpu32.domain1.idle_idx'
p935
I2
sS'kernel.dmesg_restrict'
p936
I0
sS'kernel.sched_domain.cpu7.domain1.imbalance_pct'
p937
I125
sS'kernel.sched_domain.cpu38.domain0.name'
p938
S'DIE'
p939
sS'kernel.sched_domain.cpu19.domain1.max_interval'
p940
I80
sS'CONFIG_PERF_EVENTS_INTEL_RAPL'
p941
S'y'
sS'CONFIG_HAVE_PERF_USER_STACK_DUMP'
p942
S'y'
sS'CONFIG_SERIAL_SCCNXP'
p943
S'y'
sS'kernel.sched_domain.cpu28.domain1.cache_nice_tries'
p944
I2
sS'CONFIG_EFI_RUNTIME_MAP'
p945
S'y'
sS'kernel.sched_domain.cpu18.domain1.flags'
p946
I25647
sS'net.ipv6.neigh.lo.base_reachable_time_ms'
p947
I30000
sS'kernel.sched_domain.cpu34.domain1.max_interval'
p948
I80
sS'debug.kprobes-optimization'
p949
I1
sS'kernel.sched_domain.cpu6.domain0.idle_idx'
p950
I1
sS'CONFIG_BPF_SYSCALL'
p951
S'y'
sS'net.ipv6.conf.default.accept_ra_pinfo'
p952
I1
sS'kernel.sched_domain.cpu19.domain0.name'
p953
S'DIE'
p954
sS'CONFIG_VIRTIO_PCI_LEGACY'
p955
S'y'
sS'net.ipv6.flowlabel_consistency'
p956
I1
sS'CONFIG_WLAN_VENDOR_QUANTENNA'
p957
S'y'
sS'kernel.sched_domain.cpu25.domain0.forkexec_idx'
p958
I0
sS'net.ipv4.neigh.lo.retrans_time_ms'
p959
I1000
sS'CONFIG_CRYPTO_DEV_CCP'
p960
S'y'
sS'CONFIG_HAVE_EFFICIENT_UNALIGNED_ACCESS'
p961
S'y'
sS'CONFIG_USB_ANNOUNCE_NEW_DEVICES'
p962
S'y'
sS'CONFIG_AUTOFS4_FS'
p963
S'm'
sS'CONFIG_ARCH_SUPPORTS_MEMORY_FAILURE'
p964
S'y'
sS'CONFIG_STAGING'
p965
S'y'
sS'CONFIG_ARCH_HAS_FAST_MULTIPLIER'
p966
S'y'
sS'CONFIG_IPV6_MROUTE_MULTIPLE_TABLES'
p967
S'y'
sS'CONFIG_NET_VENDOR_STMICRO'
p968
S'y'
sS'CONFIG_NUMA_BALANCING_DEFAULT_ENABLED'
p969
S'y'
sS'kernel.sched_domain.cpu12.domain0.flags'
p970
I4143
sS'kernel.sched_domain.cpu31.domain1.newidle_idx'
p971
I0
sS'kernel.sched_domain.cpu15.domain1.forkexec_idx'
p972
I0
sS'net.ipv6.conf.all.accept_ra_rt_info_max_plen'
p973
I0
sS'CONFIG_X86_DEV_DMA_OPS'
p974
S'y'
sS'CONFIG_PCI_ATS'
p975
S'y'
sS'CONFIG_RD_LZO'
p976
S'y'
sS'kernel.sched_domain.cpu7.domain1.cache_nice_tries'
p977
I2
sS'kernel.sched_domain.cpu32.domain0.max_newidle_lb_cost'
p978
I11859
sS'CONFIG_BLK_DEV'
p979
S'y'
sS'CONFIG_HARDLOCKUP_CHECK_TIMESTAMP'
p980
S'y'
sS'CONFIG_INLINE_READ_UNLOCK_IRQ'
p981
S'y'
sS'CONFIG_SQUASHFS_XZ'
p982
S'y'
sS'kernel.sched_domain.cpu10.domain0.busy_factor'
p983
I32
sS'CONFIG_MDIO_DEVICE'
p984
S'y'
sS'CONFIG_GPIO_RC5T583'
p985
S'y'
sS'net.ipv4.tcp_moderate_rcvbuf'
p986
I1
sS'CONFIG_ACPI_CONTAINER'
p987
S'y'
sS'CONFIG_STACKTRACE'
p988
S'y'
sS'CONFIG_ATA_BMDMA'
p989
S'y'
sS'kernel.sched_domain.cpu20.domain1.forkexec_idx'
p990
I0
sS'net.ipv4.tcp_min_rtt_wlen'
p991
I300
sS'net.ipv6.fwmark_reflect'
p992
I0
sS'CONFIG_MOUSE_PS2_VMMOUSE'
p993
S'y'
sS'kernel.sched_domain.cpu22.domain0.wake_idx'
p994
I0
sS'CONFIG_SECURITY_APPARMOR'
p995
S'y'
sS'CONFIG_WATCHDOG_CORE'
p996
S'y'
sS'CONFIG_SERIAL_KGDB_NMI'
p997
S'y'
sS'CONFIG_INSTRUCTION_DECODER'
p998
S'y'
sS'net.ipv6.neigh.ens3.proxy_delay'
p999
I80
sS'CONFIG_SOC_TI'
p1000
S'y'
sS'net.ipv4.neigh.default.gc_stale_time'
p1001
I60
sS'CONFIG_MFD_TPS80031'
p1002
S'y'
sS'kernel.sched_domain.cpu2.domain1.forkexec_idx'
p1003
I0
sS'CONFIG_MEMCG'
p1004
S'y'
sS'net.ipv6.conf.default.accept_redirects'
p1005
I1
sS'kernel.sched_domain.cpu12.domain1.max_newidle_lb_cost'
p1006
I13362
sS'net.ipv4.neigh.lo.ucast_solicit'
p1007
I3
sS'kernel.sched_domain.cpu8.domain1.busy_factor'
p1008
I32
sS'CONFIG_IOSCHED_CFQ'
p1009
S'y'
sS'kernel.sched_domain.cpu34.domain0.min_interval'
p1010
I10
sS'net.ipv6.conf.all.mldv1_unsolicited_report_interval'
p1011
I10000
sS'kernel.sched_domain.cpu2.domain0.idle_idx'
p1012
I1
sS'CONFIG_BLK_DEV_DM'
p1013
S'y'
sS'CONFIG_DEFAULT_HUNG_TASK_TIMEOUT'
p1014
I120
sS'net.ipv6.conf.default.regen_max_retry'
p1015
I3
sS'CONFIG_SND_PCI'
p1016
S'y'
sS'CONFIG_GENERIC_CPU'
p1017
S'y'
sS'net.ipv4.conf.default.accept_local'
p1018
I0
sS'net.ipv6.conf.default.forwarding'
p1019
I0
sS'net.core.dev_weight_rx_bias'
p1020
I1
sS'CONFIG_CPU_SUP_AMD'
p1021
S'y'
sS'CONFIG_GENERIC_FIND_FIRST_BIT'
p1022
S'y'
sS'CONFIG_HAVE_USER_RETURN_NOTIFIER'
p1023
S'y'
sS'kernel.core_pattern'
p1024
S'|/usr/share/apport/apport %p %s %c %d %P'
p1025
sS'kernel.perf_event_max_sample_rate'
p1026
I100000
sS'CONFIG_SCSI'
p1027
S'y'
sS'kernel.sched_domain.cpu26.domain0.cache_nice_tries'
p1028
I1
sS'CONFIG_HAVE_GCC_PLUGINS'
p1029
S'y'
sS'CONFIG_GENERIC_EARLY_IOREMAP'
p1030
S'y'
sS'kernel.random.poolsize'
p1031
I4096
sS'CONFIG_GLOB'
p1032
S'y'
sS'CONFIG_ZBUD'
p1033
S'y'
sS'CONFIG_ARCH_MMAP_RND_BITS_MAX'
p1034
I32
sS'net.ipv6.conf.lo.force_mld_version'
p1035
I0
sS'CONFIG_NUMA_BALANCING'
p1036
S'y'
sS'net.ipv4.conf.ens3.accept_redirects'
p1037
I1
sS'kernel.sched_domain.cpu1.domain0.busy_factor'
p1038
I32
sS'CONFIG_EDD_OFF'
p1039
S'y'
sS'CONFIG_THERMAL'
p1040
S'y'
sS'CONFIG_BPF'
p1041
S'y'
sS'CONFIG_HUGETLBFS'
p1042
S'y'
sS'net.ipv4.tcp_frto'
p1043
I2
sS'CONFIG_ETHERNET'
p1044
S'y'
sS'net.ipv4.tcp_probe_threshold'
p1045
I8
sS'kernel.sched_domain.cpu20.domain0.name'
p1046
S'DIE'
p1047
sS'kernel.sched_domain.cpu35.domain1.name'
p1048
S'NUMA'
p1049
sS'net.ipv4.conf.default.forwarding'
p1050
I0
sS'CONFIG_DECOMPRESS_BZIP2'
p1051
S'y'
sS'net.ipv6.conf.default.accept_ra_rtr_pref'
p1052
I1
sS'net.ipv4.neigh.lo.delay_first_probe_time'
p1053
I5
sS'kernel.sched_domain.cpu9.domain0.cache_nice_tries'
p1054
I1
sS'CONFIG_MFD_MAX8998'
p1055
S'y'
sS'CONFIG_AB3100_CORE'
p1056
S'y'
sS'CONFIG_PM'
p1057
S'y'
sS'CONFIG_FAIR_GROUP_SCHED'
p1058
S'y'
sS'CONFIG_HAVE_ARCH_HUGE_VMAP'
p1059
S'y'
sS'net.ipv4.ip_forward'
p1060
I0
sS'CONFIG_COMPAT_32'
p1061
S'y'
sS'kernel.sched_domain.cpu12.domain0.forkexec_idx'
p1062
I0
sS'kernel.sched_domain.cpu23.domain1.forkexec_idx'
p1063
I0
sS'kernel.sched_domain.cpu7.domain0.busy_factor'
p1064
I32
sS'kernel.sched_domain.cpu0.domain0.name'
p1065
S'DIE'
p1066
sS'kernel.sched_domain.cpu3.domain0.busy_idx'
p1067
I2
sS'kernel.sched_domain.cpu4.domain0.busy_idx'
p1068
I2
sS'kernel.sched_domain.cpu21.domain1.idle_idx'
p1069
I2
sS'kernel.sched_domain.cpu12.domain1.flags'
p1070
I25647
sS'kernel.sched_domain.cpu18.domain0.name'
p1071
S'DIE'
p1072
sS'CONFIG_NETFILTER_ADVANCED'
p1073
S'y'
sS'CONFIG_RANDOMIZE_MEMORY'
p1074
S'y'
sS'CONFIG_ASYNC_MEMCPY'
p1075
S'm'
sS'net.ipv6.conf.default.accept_ra_from_local'
p1076
I0
sS'CONFIG_WLAN_VENDOR_REALTEK'
p1077
S'y'
sS'kernel.sched_domain.cpu32.domain1.name'
p1078
S'NUMA'
p1079
sS'kernel.sched_domain.cpu26.domain1.cache_nice_tries'
p1080
I2
sS'kernel.sched_domain.cpu39.domain0.newidle_idx'
p1081
I0
sS'net.core.flow_limit_table_len'
p1082
I4096
sS'kernel.sched_domain.cpu9.domain0.flags'
p1083
I4143
sS'kernel.sched_domain.cpu17.domain0.wake_idx'
p1084
I0
sS'CONFIG_MOUSE_PS2_SYNAPTICS_SMBUS'
p1085
S'y'
sS'CONFIG_ZONE_DMA'
p1086
S'y'
sS'net.core.max_skb_frags'
p1087
I17
sS'CONFIG_TCP_CONG_CUBIC'
p1088
S'y'
sS'CONFIG_COMPAT_FOR_U64_ALIGNMENT'
p1089
S'y'
sS'kernel.sched_domain.cpu36.domain0.imbalance_pct'
p1090
I125
sS'CONFIG_HAVE_KVM_CPU_RELAX_INTERCEPT'
p1091
S'y'
sS'CONFIG_VHOST'
p1092
S'm'
sS'kernel.sched_domain.cpu26.domain1.flags'
p1093
I25647
sS'net.ipv6.neigh.ens3.gc_stale_time'
p1094
I60
sS'kernel.sched_domain.cpu15.domain1.busy_factor'
p1095
I32
sS'CONFIG_HAVE_NET_DSA'
p1096
S'y'
sS'kernel.sched_domain.cpu34.domain1.forkexec_idx'
p1097
I0
sS'CONFIG_PCI_LABEL'
p1098
S'y'
sS'CONFIG_IOMMU_IOVA'
p1099
S'y'
sS'kernel.sched_domain.cpu23.domain1.imbalance_pct'
p1100
I125
sS'kernel.sched_domain.cpu6.domain0.max_newidle_lb_cost'
p1101
I131948
sS'CONFIG_GENERIC_IOMAP'
p1102
S'y'
sS'CONFIG_ISCSI_IBFT_FIND'
p1103
S'y'
sS'kernel.sched_domain.cpu2.domain0.min_interval'
p1104
I10
sS'kernel.sched_domain.cpu5.domain1.max_interval'
p1105
I80
sS'kernel.sched_domain.cpu38.domain0.imbalance_pct'
p1106
I125
sS'CONFIG_EVM'
p1107
S'y'
sS'CONFIG_PKCS7_MESSAGE_PARSER'
p1108
S'y'
sS'CONFIG_IA32_EMULATION'
p1109
S'y'
sS'net.ipv4.tcp_workaround_signed_windows'
p1110
I0
sS'CONFIG_PM_SLEEP'
p1111
S'y'
sS'CONFIG_IP_MROUTE'
p1112
S'y'
sS'kernel.sched_domain.cpu22.domain0.name'
p1113
S'DIE'
p1114
sS'net.ipv4.ipfrag_secret_interval'
p1115
I0
sS'CONFIG_ZSTD_DECOMPRESS'
p1116
S'm'
sS'kernel.sched_domain.cpu29.domain1.cache_nice_tries'
p1117
I2
sS'net.ipv6.neigh.default.ucast_solicit'
p1118
I3
sS'net.ipv6.neigh.default.locktime'
p1119
I0
sS'CONFIG_AGP_VIA'
p1120
S'y'
sS'net.ipv6.auto_flowlabels'
p1121
I1
sS'kernel.sched_domain.cpu28.domain0.max_newidle_lb_cost'
p1122
I17515
sS'CONFIG_SCHED_MC_PRIO'
p1123
S'y'
sS'kernel.sched_domain.cpu19.domain0.cache_nice_tries'
p1124
I1
sS'kernel.sched_domain.cpu28.domain1.newidle_idx'
p1125
I0
sS'kernel.sched_domain.cpu14.domain0.flags'
p1126
I4143
sS'kernel.sched_domain.cpu31.domain1.max_newidle_lb_cost'
p1127
I29279
sS'CONFIG_ELFCORE'
p1128
S'y'
sS'CONFIG_BPF_EVENTS'
p1129
S'y'
sS'net.ipv4.neigh.lo.mcast_solicit'
p1130
I3
sS'CONFIG_BUILD_BIN2C'
p1131
S'y'
sS'kernel.sched_domain.cpu14.domain1.max_interval'
p1132
I80
sS'CONFIG_I2C_PIIX4'
p1133
S'm'
sS'CONFIG_SND_HDA_GENERIC'
p1134
S'm'
sS'net.core.bpf_jit_enable'
p1135
I0
sS'CONFIG_SND_HDA'
p1136
S'm'
sS'fs.quota.drops'
p1137
I0
sS'kernel.acct'
p1138
S'4\t2\t30'
p1139
sS'kernel.sched_domain.cpu8.domain0.name'
p1140
S'DIE'
p1141
sS'fs.mqueue.msg_max'
p1142
I10
sS'kernel.yama.ptrace_scope'
p1143
I1
sS'kernel.sched_domain.cpu19.domain0.idle_idx'
p1144
I1
sS'kernel.sched_domain.cpu35.domain1.flags'
p1145
I25647
sS'dev.parport.default.timeslice'
p1146
I200
sS'net.ipv4.inet_peer_threshold'
p1147
I65664
sS'kernel.sched_domain.cpu21.domain0.max_newidle_lb_cost'
p1148
I15682
sS'CONFIG_HAVE_ARCH_TRACEHOOK'
p1149
S'y'
sS'net.ipv6.conf.all.ignore_routes_with_linkdown'
p1150
I0
sS'net.core.rps_sock_flow_entries'
p1151
I0
sS'CONFIG_ARCH_SELECT_MEMORY_MODEL'
p1152
S'y'
sS'CONFIG_FONT_8x8'
p1153
S'y'
sS'kernel.sched_domain.cpu1.domain0.min_interval'
p1154
I10
sS'net.ipv6.conf.default.disable_policy'
p1155
I0
sS'CONFIG_EARLY_PRINTK_USB'
p1156
S'y'
sS'kernel.sched_domain.cpu26.domain1.max_interval'
p1157
I80
sS'CONFIG_EDD'
p1158
S'y'
sS'kernel.sched_domain.cpu26.domain1.name'
p1159
S'NUMA'
p1160
sS'net.ipv6.route.max_size'
p1161
I4096
sS'kernel.sched_domain.cpu37.domain0.flags'
p1162
I4143
sS'kernel.sched_domain.cpu5.domain0.imbalance_pct'
p1163
I125
sS'kernel.sched_domain.cpu13.domain1.name'
p1164
S'NUMA'
p1165
sS'CONFIG_FTRACE_SYSCALLS'
p1166
S'y'
sS'net.ipv6.conf.lo.accept_ra_rt_info_min_plen'
p1167
I0
sS'CONFIG_GENERIC_IRQ_MIGRATION'
p1168
S'y'
sS'kernel.sched_domain.cpu5.domain0.max_interval'
p1169
I20
sS'fs.inode-state'
p1170
S'86618\t512\t0\t0\t0\t0\t0'
p1171
sS'CONFIG_HTC_I2CPLD'
p1172
S'y'
sS'kernel.sched_domain.cpu27.domain0.newidle_idx'
p1173
I0
sS'kernel.sched_domain.cpu35.domain0.busy_factor'
p1174
I32
sS'kernel.sched_domain.cpu25.domain0.flags'
p1175
I4143
sS'net.ipv4.ipfrag_max_dist'
p1176
I64
sS'kernel.sched_rt_period_us'
p1177
I1000000
sS'CONFIG_HAVE_CONTEXT_TRACKING'
p1178
S'y'
sS'CONFIG_CRYPTO_DRBG'
p1179
S'y'
sS'CONFIG_ADVISE_SYSCALLS'
p1180
S'y'
sS'CONFIG_STRICT_MODULE_RWX'
p1181
S'y'
sS'kernel.sched_domain.cpu19.domain0.busy_idx'
p1182
I2
sS'kernel.printk_delay'
p1183
I0
sS'kernel.sched_domain.cpu8.domain0.forkexec_idx'
p1184
I0
sS'CONFIG_GENERIC_ISA_DMA'
p1185
S'y'
sS'net.ipv4.neigh.default.retrans_time_ms'
p1186
I1000
sS'net.core.wmem_default'
p1187
I212992
sS'CONFIG_RATIONAL'
p1188
S'y'
sS'kernel.sched_domain.cpu16.domain1.max_newidle_lb_cost'
p1189
I47922
sS'CONFIG_ARCH_DMA_ADDR_T_64BIT'
p1190
S'y'
sS'kernel.sched_domain.cpu22.domain0.busy_idx'
p1191
I2
sS'CONFIG_IP_NF_FILTER'
p1192
S'm'
sS'kernel.sched_domain.cpu20.domain1.min_interval'
p1193
I40
sS'net.ipv4.conf.default.route_localnet'
p1194
I0
sS'net.ipv4.conf.lo.proxy_arp'
p1195
I0
sS'CONFIG_PMIC_DA903X'
p1196
S'y'
sS'CONFIG_X86_POWERNOW_K8'
p1197
S'y'
sS'CONFIG_ACPI_APEI_MEMORY_FAILURE'
p1198
S'y'
sS'net.ipv4.ip_local_reserved_ports'
p1199
S''
sS'CONFIG_NET_VENDOR_QLOGIC'
p1200
S'y'
sS'CONFIG_PCSPKR_PLATFORM'
p1201
S'y'
sS'kernel.sched_domain.cpu17.domain0.max_interval'
p1202
I20
sS'net.ipv6.conf.lo.max_addresses'
p1203
I16
sS'kernel.sched_domain.cpu20.domain1.name'
p1204
S'NUMA'
p1205
sS'kernel.sched_domain.cpu7.domain0.min_interval'
p1206
I10
sS'kernel.sched_domain.cpu36.domain0.busy_factor'
p1207
I32
sS'kernel.sysctl_writes_strict'
p1208
I1
sS'vm.drop_caches'
p1209
I0
sS'kernel.sched_domain.cpu21.domain0.newidle_idx'
p1210
I0
sS'kernel.sched_domain.cpu37.domain0.min_interval'
p1211
I10
sS'net.ipv6.conf.ens3.temp_valid_lft'
p1212
I604800
sS'CONFIG_HAVE_FUNCTION_TRACER'
p1213
S'y'
sS'CONFIG_TRACING_SUPPORT'
p1214
S'y'
sS'kernel.sched_domain.cpu22.domain0.max_newidle_lb_cost'
p1215
I13523
sS'kernel.sched_domain.cpu35.domain0.busy_idx'
p1216
I2
sS'kernel.sched_domain.cpu2.domain1.flags'
p1217
I25647
sS'CONFIG_PCI_PASID'
p1218
S'y'
sS'dev.cdrom.info'
p1219
S''
sS'kernel.sched_domain.cpu21.domain1.name'
p1220
S'NUMA'
p1221
sS'CONFIG_NET_VENDOR_AQUANTIA'
p1222
S'y'
sS'kernel.sched_domain.cpu9.domain0.wake_idx'
p1223
I0
sS'CONFIG_TRANSPARENT_HUGEPAGE_ALWAYS'
p1224
S'y'
sg8
S'HostInfo.host-192.168.123.30'
p1225
sS'CONFIG_X86_L1_CACHE_SHIFT'
p1226
I6
sS'kernel.sched_domain.cpu12.domain0.wake_idx'
p1227
I0
sS'kernel.sched_domain.cpu13.domain0.busy_factor'
p1228
I32
sS'CONFIG_NET_VENDOR_HP'
p1229
S'y'
sS'CONFIG_NET_VENDOR_MELLANOX'
p1230
S'y'
sS'CONFIG_SHMEM'
p1231
S'y'
sS'CONFIG_EFI_RUNTIME_WRAPPERS'
p1232
S'y'
sS'net.core.netdev_max_backlog'
p1233
I1000
sS'kernel.sched_domain.cpu8.domain0.max_newidle_lb_cost'
p1234
I39363
sS'CONFIG_PM_TRACE_RTC'
p1235
S'y'
sS'kernel.sched_domain.cpu32.domain0.newidle_idx'
p1236
I0
sS'kernel.sched_domain.cpu31.domain0.idle_idx'
p1237
I1
sS'CONFIG_VIRTIO_BLK'
p1238
S'y'
sS'net.ipv6.neigh.ens3.unres_qlen'
p1239
I101
sS'CONFIG_ARCH_HIBERNATION_POSSIBLE'
p1240
S'y'
sS'kernel.hotplug'
p1241
S''
sS'kernel.sched_domain.cpu36.domain0.newidle_idx'
p1242
I0
sS'CONFIG_SERIAL_CORE_CONSOLE'
p1243
S'y'
sS'kernel.sched_domain.cpu4.domain1.cache_nice_tries'
p1244
I2
sS'kernel.sched_domain.cpu9.domain0.busy_idx'
p1245
I2
sS'kernel.ostype'
p1246
S'Linux'
p1247
sS'CONFIG_PNP'
p1248
S'y'
sS'kernel.sched_domain.cpu9.domain0.imbalance_pct'
p1249
I125
sS'CONFIG_IPV6'
p1250
S'y'
sS'CONFIG_GENERIC_CLOCKEVENTS'
p1251
S'y'
sS'CONFIG_MICROCODE_INTEL'
p1252
S'y'
sS'kernel.sched_domain.cpu33.domain0.name'
p1253
S'DIE'
p1254
sS'CONFIG_PM_CLK'
p1255
S'y'
sS'CONFIG_I2C_COMPAT'
p1256
S'y'
sS'kernel.sched_domain.cpu36.domain0.flags'
p1257
I4143
sS'kernel.sched_domain.cpu12.domain0.min_interval'
p1258
I10
sS'kernel.sched_domain.cpu11.domain1.newidle_idx'
p1259
I0
sS'CONFIG_SERIAL_8250_NR_UARTS'
p1260
I48
sS'CONFIG_KVM_COMPAT'
p1261
S'y'
sS'CONFIG_TCG_TPM'
p1262
S'y'
sS'CONFIG_I2C_DESIGNWARE_PLATFORM'
p1263
S'y'
sS'net.ipv6.conf.ens3.ignore_routes_with_linkdown'
p1264
I0
sS'kernel.sched_domain.cpu29.domain0.newidle_idx'
p1265
I0
sS'kernel.sched_domain.cpu39.domain0.name'
p1266
S'DIE'
p1267
sS'kernel.sched_domain.cpu29.domain1.flags'
p1268
I25647
sS'kernel.sched_domain.cpu27.domain0.flags'
p1269
I4143
sS'net.ipv4.conf.all.log_martians'
p1270
I0
sS'kernel.sched_domain.cpu6.domain0.busy_factor'
p1271
I32
sS'kernel.sched_domain.cpu4.domain0.imbalance_pct'
p1272
I125
sS'CONFIG_SQUASHFS'
p1273
S'y'
sS'CONFIG_WQ_POWER_EFFICIENT_DEFAULT'
p1274
S'y'
sS'CONFIG_MFD_MAX77693'
p1275
S'y'
sS'kernel.sched_domain.cpu0.domain1.max_newidle_lb_cost'
p1276
I154357
sS'kernel.sched_domain.cpu23.domain0.newidle_idx'
p1277
I0
sS'kernel.sched_domain.cpu17.domain1.cache_nice_tries'
p1278
I2
sS'CONFIG_CGROUP_DEVICE'
p1279
S'y'
sS'CONFIG_NET_VENDOR_ALTEON'
p1280
S'y'
sS'CONFIG_BSD_PROCESS_ACCT_V3'
p1281
S'y'
sS'net.ipv4.conf.ens3.tag'
p1282
I0
sS'CONFIG_AMD_NB'
p1283
S'y'
sS'net.ipv4.conf.default.tag'
p1284
I0
sS'net.ipv4.tcp_max_syn_backlog'
p1285
I2048
sS'kernel.sched_domain.cpu10.domain1.idle_idx'
p1286
I2
sS'CONFIG_DECOMPRESS_XZ'
p1287
S'y'
sS'kernel.sched_domain.cpu23.domain1.cache_nice_tries'
p1288
I2
sS'kernel.sched_domain.cpu16.domain1.flags'
p1289
I25647
sS'kernel.sched_domain.cpu39.domain0.flags'
p1290
I4143
sS'net.ipv6.ip6frag_high_thresh'
p1291
I4194304
sS'kernel.sched_domain.cpu21.domain0.busy_factor'
p1292
I32
sS'CONFIG_HAVE_ARCH_JUMP_LABEL'
p1293
S'y'
sS'vm.dirty_expire_centisecs'
p1294
I3000
sS'kernel.sched_domain.cpu17.domain1.name'
p1295
S'NUMA'
p1296
sS'CONFIG_KERNFS'
p1297
S'y'
sS'CONFIG_TCG_TIS_CORE'
p1298
S'y'
sS'CONFIG_IP_MULTICAST'
p1299
S'y'
sS'CONFIG_PM_WAKELOCKS_GC'
p1300
S'y'
sS'kernel.sched_domain.cpu3.domain0.wake_idx'
p1301
I0
sS'kernel.sched_domain.cpu18.domain0.newidle_idx'
p1302
I0
sS'CONFIG_GENERIC_IRQ_SHOW'
p1303
S'y'
sS'CONFIG_MFD_WM8400'
p1304
S'y'
sS'net.ipv6.conf.all.forwarding'
p1305
I0
sS'CONFIG_SERIAL_8250_MANY_PORTS'
p1306
S'y'
sS'net.ipv4.conf.default.medium_id'
p1307
I0
sS'CONFIG_ARCH_HAS_GIGANTIC_PAGE'
p1308
S'y'
sS'vm.oom_dump_tasks'
p1309
I1
sS'net.ipv6.ip6frag_secret_interval'
p1310
I0
sS'CONFIG_PMIC_ADP5520'
p1311
S'y'
sS'CONFIG_USER_NS'
p1312
S'y'
sS'kernel.sched_domain.cpu24.domain0.newidle_idx'
p1313
I0
sS'kernel.sched_domain.cpu3.domain1.busy_factor'
p1314
I32
sS'kernel.sched_domain.cpu8.domain1.min_interval'
p1315
I40
sS'CONFIG_ARCH_WANTS_DYNAMIC_TASK_STRUCT'
p1316
S'y'
sS'net.ipv4.conf.ens3.accept_source_route'
p1317
I1
sS'CONFIG_SYSTEM_TRUSTED_KEYRING'
p1318
S'y'
sS'net.ipv6.icmp.ratelimit'
p1319
I1000
sS'net.ipv4.conf.lo.log_martians'
p1320
I0
sS'CONFIG_HAVE_ALIGNED_STRUCT_PAGE'
p1321
S'y'
sS'dev.cdrom.check_media'
p1322
I0
sS'CONFIG_INTEL_SOC_PMIC'
p1323
S'y'
sS'kernel.sched_domain.cpu9.domain0.min_interval'
p1324
I10
sS'net.ipv6.conf.ens3.keep_addr_on_down'
p1325
I0
sS'net.ipv4.conf.default.mc_forwarding'
p1326
I0
sS'net.core.dev_weight_tx_bias'
p1327
I1
sS'CONFIG_MDIO'
p1328
S'm'
sS'kernel.sched_domain.cpu39.domain0.max_interval'
p1329
I20
sS'CONFIG_BLOCK_COMPAT'
p1330
S'y'
sS'net.ipv6.neigh.default.retrans_time_ms'
p1331
I1000
sS'kernel.sched_domain.cpu14.domain1.cache_nice_tries'
p1332
I2
sS'net.ipv6.conf.ens3.drop_unsolicited_na'
p1333
I0
sS'CONFIG_NLS_ISO8859_1'
p1334
S'y'
sS'kernel.sem'
p1335
S'32000\t1024000000\t500\t32000'
p1336
sS'kernel.sched_domain.cpu9.domain1.max_interval'
p1337
I80
sS'net.ipv4.tcp_window_scaling'
p1338
I1
sS'net.ipv4.tcp_available_ulp'
p1339
S''
sS'CONFIG_NEED_DMA_MAP_STATE'
p1340
S'y'
sS'net.ipv6.conf.lo.temp_prefered_lft'
p1341
I86400
sS'CONFIG_HAVE_ARCH_SECCOMP_FILTER'
p1342
S'y'
sS'kernel.sched_domain.cpu35.domain1.imbalance_pct'
p1343
I125
sS'CONFIG_INPUT_MOUSEDEV_SCREEN_X'
p1344
I1024
sS'CONFIG_INPUT_MOUSEDEV_SCREEN_Y'
p1345
I768
sS'CONFIG_DMIID'
p1346
S'y'
sS'CONFIG_SND_HDA_RECONFIG'
p1347
S'y'
sS'net.ipv4.conf.default.arp_notify'
p1348
I0
sS'CONFIG_INPUT_UINPUT'
p1349
S'y'
sS'net.ipv6.flowlabel_reflect'
p1350
I0
sS'CONFIG_NET_L3_MASTER_DEV'
p1351
S'y'
sS'CONFIG_SERIAL_EARLYCON'
p1352
S'y'
sS'kernel.sched_domain.cpu21.domain1.cache_nice_tries'
p1353
I2
sS'kernel.sched_domain.cpu23.domain1.idle_idx'
p1354
I2
sS'CONFIG_BTT'
p1355
S'y'
sS'CONFIG_ARCH_HAS_ACPI_TABLE_UPGRADE'
p1356
S'y'
sS'CONFIG_IRQ_REMAP'
p1357
S'y'
sS'CONFIG_GENERIC_TRACER'
p1358
S'y'
sS'kernel.sched_domain.cpu35.domain0.max_newidle_lb_cost'
p1359
I152344
sS'kernel.sched_domain.cpu15.domain0.busy_idx'
p1360
I2
sS'CONFIG_BE2ISCSI'
p1361
S'm'
sS'kernel.sched_domain.cpu14.domain1.forkexec_idx'
p1362
I0
sS'CONFIG_NET_VENDOR_DEC'
p1363
S'y'
sS'CONFIG_FUTEX'
p1364
S'y'
sS'net.ipv6.neigh.ens3.app_solicit'
p1365
I0
sS'CONFIG_ARCH_WANT_OLD_COMPAT_IPC'
p1366
S'y'
sS'CONFIG_SSB_POSSIBLE'
p1367
S'y'
sS'net.ipv4.conf.default.arp_ignore'
p1368
I0
sS'kernel.sched_domain.cpu19.domain1.flags'
p1369
I25647
sS'kernel.sched_domain.cpu26.domain1.busy_factor'
p1370
I32
sS'net.ipv4.tcp_ecn'
p1371
I2
sS'CONFIG_ZSTD_COMPRESS'
p1372
S'm'
sS'CONFIG_HWMON'
p1373
S'y'
sS'net.ipv4.neigh.default.anycast_delay'
p1374
I100
sS'CONFIG_MFD_DA9052_I2C'
p1375
S'y'
sS'CONFIG_LOG_BUF_SHIFT'
p1376
I18
sS'CONFIG_INTEL_IOMMU'
p1377
S'y'
sS'CONFIG_IRQ_DOMAIN_HIERARCHY'
p1378
S'y'
sS'CONFIG_NET_VENDOR_BROCADE'
p1379
S'y'
sS'CONFIG_ACPI_CUSTOM_DSDT_FILE'
p1380
S'""'
p1381
sS'net.ipv6.neigh.default.gc_thresh2'
p1382
I512
sS'net.ipv6.neigh.default.gc_thresh3'
p1383
I1024
sS'kernel.sched_domain.cpu35.domain0.name'
p1384
S'DIE'
p1385
sS'net.ipv6.neigh.default.gc_thresh1'
p1386
I128
sS'CONFIG_NET_VENDOR_NATSEMI'
p1387
S'y'
sS'kernel.sched_domain.cpu1.domain1.imbalance_pct'
p1388
I125
sS'CONFIG_NO_HZ_IDLE'
p1389
S'y'
sS'user.max_ipc_namespaces'
p1390
I257592
sS'kernel.sched_domain.cpu15.domain0.flags'
p1391
I4143
sS'kernel.sched_domain.cpu25.domain0.busy_factor'
p1392
I32
sS'CONFIG_CRYPTO_SHA256'
p1393
S'y'
sS'net.ipv4.neigh.ens3.unres_qlen_bytes'
p1394
I212992
sS'vm.overcommit_memory'
p1395
I0
sS'CONFIG_MODULE_UNLOAD'
p1396
S'y'
sS'CONFIG_NLS_DEFAULT'
p1397
S'"utf8"'
p1398
sS'CONFIG_MFD_RC5T583'
p1399
S'y'
sS'CONFIG_BTRFS_FS_POSIX_ACL'
p1400
S'y'
sS'kernel.sched_domain.cpu28.domain1.forkexec_idx'
p1401
I0
sS'CONFIG_GENERIC_PHY'
p1402
S'y'
sS'net.ipv6.conf.lo.accept_source_route'
p1403
I0
sS'CONFIG_CHELSIO_LIB'
p1404
S'm'
sS'kernel.sched_domain.cpu18.domain0.cache_nice_tries'
p1405
I1
sS'CONFIG_FB_VESA'
p1406
S'y'
sS'kernel.sched_domain.cpu4.domain1.max_interval'
p1407
I80
sS'CONFIG_X86_RESERVE_LOW'
p1408
I64
sS'kernel.modules_disabled'
p1409
I0
sS'kernel.sched_domain.cpu38.domain0.newidle_idx'
p1410
I0
sS'CONFIG_X86_NUMACHIP'
p1411
S'y'
sS'CONFIG_DMI_SCAN_MACHINE_NON_EFI_FALLBACK'
p1412
S'y'
sS'net.ipv6.ip_nonlocal_bind'
p1413
I0
sS'kernel.sched_domain.cpu23.domain0.forkexec_idx'
p1414
I0
sS'net.ipv6.neigh.default.proxy_delay'
p1415
I80
sS'kernel.sched_domain.cpu16.domain0.busy_idx'
p1416
I2
sS'kernel.sched_domain.cpu8.domain1.cache_nice_tries'
p1417
I2
sS'CONFIG_INOTIFY_USER'
p1418
S'y'
sS'net.core.busy_poll'
p1419
I0
sS'CONFIG_UEFI_CPER'
p1420
S'y'
sS'CONFIG_RTC_DRV_CMOS'
p1421
S'y'
sS'CONFIG_TRANSPARENT_HUGE_PAGECACHE'
p1422
S'y'
sS'net.ipv4.neigh.lo.base_reachable_time_ms'
p1423
I30000
sS'net.ipv4.tcp_tw_reuse'
p1424
I0
sS'CONFIG_MOUSE_PS2_SENTELIC'
p1425
S'y'
sS'CONFIG_LOCKUP_DETECTOR'
p1426
S'y'
sS'kernel.sched_domain.cpu12.domain1.name'
p1427
S'NUMA'
p1428
sS'CONFIG_RAPIDIO'
p1429
S'y'
sS'CONFIG_STAGING_MEDIA'
p1430
S'y'
sS'net.ipv4.conf.ens3.igmpv3_unsolicited_report_interval'
p1431
I1000
sS'CONFIG_DEFCONFIG_LIST'
p1432
S'"/lib/modules/$UNAME_RELEASE/.config"'
p1433
sS'net.ipv4.ip_local_port_range'
p1434
S'32768\t60999'
p1435
sS'kernel.sched_domain.cpu6.domain1.busy_idx'
p1436
I3
sS'CONFIG_HUGETLB_PAGE'
p1437
S'y'
sS'CONFIG_PERF_EVENTS'
p1438
S'y'
sS'kernel.sched_domain.cpu32.domain1.wake_idx'
p1439
I0
sS'net.ipv4.neigh.lo.locktime'
p1440
I100
sS'CONFIG_SECURITY_TOMOYO_ACTIVATION_TRIGGER'
p1441
S'"/sbin/init"'
p1442
sS'kernel.sched_domain.cpu13.domain1.min_interval'
p1443
I40
sS'CONFIG_MODIFY_LDT_SYSCALL'
p1444
S'y'
sS'CONFIG_UCS2_STRING'
p1445
S'y'
sS'kernel.sched_domain.cpu10.domain1.wake_idx'
p1446
I0
sS'kernel.sched_domain.cpu6.domain1.newidle_idx'
p1447
I0
sS'CONFIG_SOUND'
p1448
S'm'
sS'CONFIG_ARCH_SPARSEMEM_DEFAULT'
p1449
S'y'
sS'CONFIG_IPV6_ROUTE_INFO'
p1450
S'y'
sS'CONFIG_CLKEVT_I8253'
p1451
S'y'
sS'CONFIG_RAPIDIO_DMA_ENGINE'
p1452
S'y'
sS'CONFIG_MFD_SMSC'
p1453
S'y'
sS'kernel.sched_domain.cpu12.domain1.idle_idx'
p1454
I2
sS'CONFIG_SERIAL_8250_PCI'
p1455
S'y'
sS'CONFIG_PCIEASPM_DEFAULT'
p1456
S'y'
sS'kernel.sched_domain.cpu8.domain1.name'
p1457
S'NUMA'
p1458
sS'CONFIG_HAVE_EXIT_THREAD'
p1459
S'y'
sS'CONFIG_SND_HDA_HWDEP'
p1460
S'y'
sS'CONFIG_SOFTLOCKUP_DETECTOR'
p1461
S'y'
sS'kernel.sched_domain.cpu14.domain1.wake_idx'
p1462
I0
sS'CONFIG_EARLY_PRINTK'
p1463
S'y'
sS'net.ipv6.conf.ens3.ndisc_notify'
p1464
I0
sS'net.ipv4.conf.all.proxy_arp_pvlan'
p1465
I0
sS'kernel'
p1466
S'4.14.0-rc8-stock'
p1467
sS'kernel.sched_domain.cpu3.domain0.max_interval'
p1468
I20
sS'CONFIG_BACKLIGHT_LCD_SUPPORT'
p1469
S'y'
sS'CONFIG_DUMMY_CONSOLE_ROWS'
p1470
I25
sS'CONFIG_MOUSE_PS2_ELANTECH'
p1471
S'y'
sS'CONFIG_PCI_MMCONFIG'
p1472
S'y'
sS'CONFIG_KVM_MMIO'
p1473
S'y'
sS'net.ipv4.neigh.default.unres_qlen_bytes'
p1474
I212992
sS'kernel.sched_domain.cpu14.domain0.busy_factor'
p1475
I32
sS'CONFIG_PINCTRL_BAYTRAIL'
p1476
S'y'
sS'net.ipv4.icmp_errors_use_inbound_ifaddr'
p1477
I0
sS'net.ipv6.conf.all.addr_gen_mode'
p1478
I0
sS'kernel.sched_domain.cpu8.domain1.wake_idx'
p1479
I0
sS'CONFIG_HAVE_ACPI_APEI_NMI'
p1480
S'y'
sS'vm.page-cluster'
p1481
I3
sS'kernel.sched_domain.cpu9.domain1.newidle_idx'
p1482
I0
sS'CONFIG_BACKLIGHT_CLASS_DEVICE'
p1483
S'y'
sS'CONFIG_MOUSE_PS2_CYPRESS'
p1484
S'y'
sS'kernel.sched_rt_runtime_us'
p1485
I950000
sS'kernel.sched_domain.cpu29.domain0.busy_factor'
p1486
I32
sS'CONFIG_X86_CMOV'
p1487
S'y'
sS'CONFIG_ARCH_HAS_CACHE_LINE_SIZE'
p1488
S'y'
sS'net.ipv4.tcp_fastopen_blackhole_timeout_sec'
p1489
I3600
sS'CONFIG_SIGNATURE'
p1490
S'y'
sS'net.ipv4.conf.all.mc_forwarding'
p1491
I0
sS'CONFIG_PM_DEBUG'
p1492
S'y'
sS'net.ipv4.neigh.default.ucast_solicit'
p1493
I3
sS'kernel.pty.reserve'
p1494
I1024
sS'kernel.sched_domain.cpu33.domain1.wake_idx'
p1495
I0
sS'kernel.sched_domain.cpu6.domain0.flags'
p1496
I4143
sS'CONFIG_SERIO_I8042'
p1497
S'y'
sS'CONFIG_NET_VENDOR_NETRONOME'
p1498
S'y'
sS'CONFIG_BLK_DEV_LOOP'
p1499
S'y'
sS'vm.mmap_min_addr'
p1500
I65536
sS'net.ipv4.conf.all.igmpv3_unsolicited_report_interval'
p1501
I1000
sS'CONFIG_HAVE_CMPXCHG_LOCAL'
p1502
S'y'
sS'net.ipv6.route.mtu_expires'
p1503
I600
sS'CONFIG_SND_USB'
p1504
S'y'
sS'CONFIG_DNOTIFY'
p1505
S'y'
sS'CONFIG_CMDLINE_PARTITION'
p1506
S'y'
sS'CONFIG_NETWORK_SECMARK'
p1507
S'y'
sS'CONFIG_SND_HDA_INTEL'
p1508
S'm'
sS'kernel.sched_domain.cpu38.domain1.max_newidle_lb_cost'
p1509
I9939
sS'net.ipv4.ping_group_range'
p1510
S'1\t0'
p1511
sS'CONFIG_PERF_EVENTS_INTEL_CSTATE'
p1512
S'y'
sS'kernel.sched_domain.cpu5.domain0.max_newidle_lb_cost'
p1513
I129594
sS'net.ipv4.icmp_msgs_burst'
p1514
I50
sS'CONFIG_PPP_MULTILINK'
p1515
S'y'
sS'CONFIG_BLK_DEV_FD'
p1516
S'm'
sS'kernel.sched_domain.cpu16.domain0.forkexec_idx'
p1517
I0
sS'CONFIG_SND_DRIVERS'
p1518
S'y'
sS'CONFIG_SCSI_CXGB4_ISCSI'
p1519
S'm'
sS'CONFIG_CRASH_DUMP'
p1520
S'y'
sS'vm.watermark_scale_factor'
p1521
I10
sS'CONFIG_HAVE_UID16'
p1522
S'y'
sS'CONFIG_NET_VENDOR_WIZNET'
p1523
S'y'
sS'kernel.sched_domain.cpu14.domain0.max_interval'
p1524
I20
sS'kernel.sched_domain.cpu0.domain1.cache_nice_tries'
p1525
I2
sS'dev.parport.default.spintime'
p1526
I500
sS'kernel.sched_domain.cpu24.domain0.wake_idx'
p1527
I0
sS'CONFIG_IOSF_MBI'
p1528
S'y'
sS'net.ipv4.fib_multipath_hash_policy'
p1529
I0
sS'CONFIG_BLK_DEV_BSG'
p1530
S'y'
sS'CONFIG_INPUT_KEYBOARD'
p1531
S'y'
sS'kernel.sched_domain.cpu5.domain0.flags'
p1532
I4143
sS'kernel.sched_domain.cpu19.domain0.newidle_idx'
p1533
I0
sS'CONFIG_CPU_FREQ_GOV_CONSERVATIVE'
p1534
S'y'
sS'CONFIG_MEMORY_HOTPLUG_SPARSE'
p1535
S'y'
sS'CONFIG_ZSWAP'
p1536
S'y'
sS'CONFIG_KVM'
p1537
S'm'
sS'CONFIG_CRYPTO_AEAD2'
p1538
S'y'
sS'kernel.sched_domain.cpu10.domain1.max_newidle_lb_cost'
p1539
I126671
sS'CONFIG_PCIEASPM_DEBUG'
p1540
S'y'
sS'CONFIG_PROC_PID_CPUSET'
p1541
S'y'
sS'CONFIG_MEMORY_BALLOON'
p1542
S'y'
sS'CONFIG_INFINIBAND'
p1543
S'm'
sS'CONFIG_NET_VENDOR_SILAN'
p1544
S'y'
sS'kernel.sched_domain.cpu27.domain1.cache_nice_tries'
p1545
I2
sS'net.ipv4.conf.ens3.log_martians'
p1546
I0
sS'CONFIG_CC_STACKPROTECTOR_STRONG'
p1547
S'y'
sS'CONFIG_HOTPLUG_CPU'
p1548
S'y'
sS'CONFIG_PROC_FS'
p1549
S'y'
sS'kernel.sched_domain.cpu0.domain0.imbalance_pct'
p1550
I125
sS'kernel.sched_domain.cpu27.domain0.busy_factor'
p1551
I32
sS'kernel.sched_domain.cpu22.domain1.busy_idx'
p1552
I3
sS'CONFIG_MOUSE_PS2_ALPS'
p1553
S'y'
sS'kernel.sched_domain.cpu3.domain0.min_interval'
p1554
I10
sS'kernel.sched_domain.cpu14.domain0.busy_idx'
p1555
I2
sS'CONFIG_THERMAL_WRITABLE_TRIPS'
p1556
S'y'
sS'CONFIG_TOUCHSCREEN_PROPERTIES'
p1557
S'y'
sS'vm.extfrag_threshold'
p1558
I500
sS'CONFIG_BLK_DEV_THROTTLING'
p1559
S'y'
sS'CONFIG_SWAP'
p1560
S'y'
sS'kernel.osrelease'
p1561
S'4.14.0-rc8-stock'
p1562
sS'kernel.sched_domain.cpu8.domain0.busy_idx'
p1563
I2
sS'CONFIG_AMD_IOMMU'
p1564
S'y'
sS'CONFIG_PAGE_COUNTER'
p1565
S'y'
sS'CONFIG_ARCH_MIGHT_HAVE_ACPI_PDC'
p1566
S'y'
sS'kernel.sched_domain.cpu33.domain0.max_newidle_lb_cost'
p1567
I15696
sS'kernel.sched_domain.cpu14.domain0.forkexec_idx'
p1568
I0
sS'CONFIG_MFD_AS3711'
p1569
S'y'
sS'kernel.sched_domain.cpu30.domain1.cache_nice_tries'
p1570
I2
sS'CONFIG_IO_DELAY_TYPE_UDELAY'
p1571
I2
sS'CONFIG_CPU_FREQ_DEFAULT_GOV_PERFORMANCE'
p1572
S'y'
sS'CONFIG_HAVE_CMPXCHG_DOUBLE'
p1573
S'y'
sS'kernel.sched_domain.cpu27.domain0.max_interval'
p1574
I20
sS'kernel.sched_domain.cpu30.domain0.max_newidle_lb_cost'
p1575
I16754
sS'CONFIG_ATA_ACPI'
p1576
S'y'
sS'net.ipv4.conf.lo.route_localnet'
p1577
I0
sS'kernel.sched_domain.cpu3.domain1.imbalance_pct'
p1578
I125
sS'CONFIG_ACPI_APEI'
p1579
S'y'
sS'kernel.sched_domain.cpu1.domain1.name'
p1580
S'NUMA'
p1581
sS'CONFIG_IRQ_DOMAIN'
p1582
S'y'
sS'net.ipv4.udp_wmem_min'
p1583
I4096
sS'net.ipv4.tcp_invalid_ratelimit'
p1584
I500
sS'net.ipv4.neigh.ens3.proxy_qlen'
p1585
I64
sS'CONFIG_NET_VENDOR_AMAZON'
p1586
S'y'
sS'kernel.sched_domain.cpu33.domain0.busy_factor'
p1587
I32
sS'kernel.sched_domain.cpu2.domain0.busy_factor'
p1588
I32
sS'CONFIG_VT'
p1589
S'y'
sS'net.ipv4.conf.lo.arp_announce'
p1590
I0
sS'kernel.sched_domain.cpu17.domain0.cache_nice_tries'
p1591
I1
sS'CONFIG_HAVE_IDE'
p1592
S'y'
sS'kernel.sched_domain.cpu6.domain0.forkexec_idx'
p1593
I0
sS'CONFIG_NET_VENDOR_8390'
p1594
S'y'
sS'kernel.sched_domain.cpu15.domain0.cache_nice_tries'
p1595
I1
sS'kernel.sched_domain.cpu3.domain1.max_interval'
p1596
I80
sS'fs.mqueue.queues_max'
p1597
I256
sS'net.ipv4.conf.ens3.rp_filter'
p1598
I1
sS'CONFIG_NET_NS'
p1599
S'y'
sS'CONFIG_IMA_TRUSTED_KEYRING'
p1600
S'y'
sS'CONFIG_HAVE_LIVEPATCH'
p1601
S'y'
sS'CONFIG_KGDB_LOW_LEVEL_TRAP'
p1602
S'y'
sS'CONFIG_HAVE_OPROFILE'
p1603
S'y'
sS'CONFIG_NVDIMM_DAX'
p1604
S'y'
sS'CONFIG_IMA_DEFAULT_HASH'
p1605
S'"sha1"'
p1606
sS'CONFIG_ACPI_THERMAL'
p1607
S'y'
sS'CONFIG_BLK_DEV_BSGLIB'
p1608
S'y'
sS'CONFIG_EFI_MIXED'
p1609
S'y'
sS'kernel.sched_domain.cpu2.domain1.wake_idx'
p1610
I0
sS'net.ipv4.neigh.default.locktime'
p1611
I100
sS'CONFIG_DUMMY_CONSOLE_COLUMNS'
p1612
I80
sS'CONFIG_HPET_MMAP'
p1613
S'y'
sS'CONFIG_SERIAL_8250_RT288X'
p1614
S'y'
sS'CONFIG_CLOCKSOURCE_VALIDATE_LAST_CYCLE'
p1615
S'y'
sS'kernel.sched_domain.cpu14.domain1.max_newidle_lb_cost'
p1616
I109847
sS'net.ipv4.conf.lo.rp_filter'
p1617
I0
sS'kernel.sched_domain.cpu37.domain1.busy_factor'
p1618
I32
sS'CONFIG_BTRFS_FS'
p1619
S'm'
sS'CONFIG_DCACHE_WORD_ACCESS'
p1620
S'y'
sS'net.ipv6.conf.default.mtu'
p1621
I1280
sS'kernel.sched_domain.cpu7.domain0.idle_idx'
p1622
I1
sS'kernel.sched_domain.cpu22.domain0.imbalance_pct'
p1623
I125
sS'net.ipv4.conf.default.drop_gratuitous_arp'
p1624
I0
sS'kernel.sched_domain.cpu31.domain0.flags'
p1625
I4143
sS'CONFIG_UPROBES'
p1626
S'y'
sS'kernel.sched_domain.cpu16.domain0.imbalance_pct'
p1627
I125
sS'CONFIG_ARCH_ENABLE_MEMORY_HOTPLUG'
p1628
S'y'
sS'kernel.sched_domain.cpu4.domain1.forkexec_idx'
p1629
I0
sS'CONFIG_FIRMWARE_MEMMAP'
p1630
S'y'
sS'kernel.sched_domain.cpu11.domain1.busy_factor'
p1631
I32
sS'CONFIG_IPV6_ROUTER_PREF'
p1632
S'y'
sS'kernel.sched_domain.cpu25.domain1.name'
p1633
S'NUMA'
p1634
sS'CONFIG_BOOT_PRINTK_DELAY'
p1635
S'y'
sS'CONFIG_TMPFS'
p1636
S'y'
sS'kernel.sched_domain.cpu32.domain1.flags'
p1637
I25647
sS'kernel.sched_domain.cpu14.domain1.name'
p1638
S'NUMA'
p1639
sS'kernel.sched_domain.cpu20.domain1.idle_idx'
p1640
I2
sS'CONFIG_X86_MCE_INTEL'
p1641
S'y'
sS'CONFIG_RTC_INTF_PROC'
p1642
S'y'
sS'kernel.sched_domain.cpu1.domain0.busy_idx'
p1643
I2
sS'CONFIG_MD_AUTODETECT'
p1644
S'y'
sS'net.ipv6.conf.lo.max_desync_factor'
p1645
I600
sS'kernel.sched_domain.cpu4.domain1.flags'
p1646
I25647
sS'kernel.sched_domain.cpu1.domain1.newidle_idx'
p1647
I0
sS'CONFIG_X86_ESPFIX64'
p1648
S'y'
sS'net.ipv4.neigh.lo.gc_stale_time'
p1649
I60
sS'kernel.traceoff_on_warning'
p1650
I0
sS'kernel.sched_domain.cpu2.domain1.busy_factor'
p1651
I32
sS'CONFIG_DW_DMAC_PCI'
p1652
S'y'
sS'net.ipv4.conf.all.proxy_arp'
p1653
I0
sS'kernel.sched_domain.cpu15.domain0.max_newidle_lb_cost'
p1654
I118832
sS'CONFIG_ARCH_USE_BUILTIN_BSWAP'
p1655
S'y'
sS'CONFIG_PROC_SYSCTL'
p1656
S'y'
sS'fs.file-max'
p1657
I6578986
sS'CONFIG_ACPI_APEI_GHES'
p1658
S'y'
sS'kernel.sched_domain.cpu11.domain0.busy_factor'
p1659
I32
sS'kernel.sched_domain.cpu19.domain0.wake_idx'
p1660
I0
sS'net.ipv4.tcp_limit_output_bytes'
p1661
I262144
sS'CONFIG_NET_VENDOR_NVIDIA'
p1662
S'y'
sS'net.ipv4.neigh.default.mcast_resolicit'
p1663
I0
sS'CONFIG_ACPI_HOTPLUG_CPU'
p1664
S'y'
sS'net.ipv4.conf.default.arp_announce'
p1665
I0
sS'CONFIG_FRAME_WARN'
p1666
I1024
sS'net.ipv6.conf.all.enhanced_dad'
p1667
I1
sS'CONFIG_FAT_FS'
p1668
S'y'
sS'CONFIG_IRQ_POLL'
p1669
S'y'
sS'net.ipv6.conf.all.hop_limit'
p1670
I64
sS'CONFIG_VT_CONSOLE_SLEEP'
p1671
S'y'
sS'kernel.random.entropy_avail'
p1672
I622
sS'net.ipv4.conf.default.force_igmp_version'
p1673
I0
sS'kernel.sched_domain.cpu29.domain1.name'
p1674
S'NUMA'
p1675
sS'net.ipv4.ip_default_ttl'
p1676
I64
sS'CONFIG_CLEANCACHE'
p1677
S'y'
sS'kernel.nmi_watchdog'
p1678
I0
sS'kernel.sched_domain.cpu27.domain1.busy_idx'
p1679
I3
sS'CONFIG_PCI_PRI'
p1680
S'y'
sS'kernel.sched_domain.cpu9.domain1.flags'
p1681
I25647
sS'CONFIG_CRYPTO_ALGAPI'
p1682
S'y'
sS'kernel.random.boot_id'
p1683
S'165a1b16-34d0-4c85-8958-f0e4e4b80661'
p1684
sS'net.ipv4.conf.lo.accept_local'
p1685
I0
sS'kernel.sched_domain.cpu2.domain0.max_interval'
p1686
I20
sS'CONFIG_QUOTA'
p1687
S'y'
sS'CONFIG_HAVE_IOREMAP_PROT'
p1688
S'y'
sS'net.ipv4.neigh.default.app_solicit'
p1689
I0
sS'kernel.sched_domain.cpu13.domain0.forkexec_idx'
p1690
I0
sS'CONFIG_CPUSETS'
p1691
S'y'
sS'kernel.sched_domain.cpu27.domain1.busy_factor'
p1692
I32
sS'kernel.sched_domain.cpu28.domain0.busy_factor'
p1693
I32
sS'CONFIG_CMA'
p1694
S'y'
sS'CONFIG_TRACING'
p1695
S'y'
sS'CONFIG_KDB_KEYBOARD'
p1696
S'y'
sS'CONFIG_RADIX_TREE_MULTIORDER'
p1697
S'y'
sS'net.ipv4.conf.all.promote_secondaries'
p1698
I0
sS'CONFIG_LWTUNNEL'
p1699
S'y'
sS'CONFIG_ARCH_MIGHT_HAVE_PC_SERIO'
p1700
S'y'
sS'kernel.sched_domain.cpu7.domain1.flags'
p1701
I25647
sS'net.ipv4.neigh.lo.proxy_qlen'
p1702
I64
sS'CONFIG_CC_STACKPROTECTOR'
p1703
S'y'
sS'kernel.sched_domain.cpu16.domain0.idle_idx'
p1704
I1
sS'CONFIG_PINCTRL_CHERRYVIEW'
p1705
S'y'
sS'CONFIG_FIB_RULES'
p1706
S'y'
sS'net.ipv6.conf.default.autoconf'
p1707
I1
sS'CONFIG_COMPAT_BINFMT_ELF'
p1708
S'y'
sS'kernel.sched_domain.cpu10.domain0.busy_idx'
p1709
I2
sS'CONFIG_HAVE_KPROBES'
p1710
S'y'
sS'kernel.sched_domain.cpu26.domain0.idle_idx'
p1711
I1
sS'CONFIG_VME_BUS'
p1712
S'y'
sS'CONFIG_FW_LOADER'
p1713
S'y'
sS'CONFIG_ATA_VERBOSE_ERROR'
p1714
S'y'
sS'CONFIG_IOSCHED_DEADLINE'
p1715
S'y'
sS'net.ipv6.conf.all.max_desync_factor'
p1716
I600
sS'CONFIG_ARCH_MMAP_RND_COMPAT_BITS_MAX'
p1717
I16
sS'kernel.sched_domain.cpu4.domain0.busy_factor'
p1718
I32
sS'CONFIG_FB_CFB_IMAGEBLIT'
p1719
S'y'
sS'CONFIG_EXT4_USE_FOR_EXT2'
p1720
S'y'
sS'kernel.sched_domain.cpu22.domain1.cache_nice_tries'
p1721
I2
sS'kernel.sched_domain.cpu25.domain1.max_newidle_lb_cost'
p1722
I20078
sS'CONFIG_INPUT_MOUSEDEV_PSAUX'
p1723
S'y'
sS'kernel.sched_domain.cpu30.domain0.idle_idx'
p1724
I1
sS'CONFIG_ATH5K_PCI'
p1725
S'y'
sS'kernel.sched_domain.cpu6.domain1.forkexec_idx'
p1726
I0
sS'kernel.sched_domain.cpu31.domain0.imbalance_pct'
p1727
I125
sS'kernel.sched_domain.cpu13.domain1.newidle_idx'
p1728
I0
sS'CONFIG_NET_CLS'
p1729
S'y'
sS'CONFIG_CALGARY_IOMMU_ENABLED_BY_DEFAULT'
p1730
S'y'
sS'CONFIG_ACPI_LEGACY_TABLES_LOOKUP'
p1731
S'y'
sS'CONFIG_INPUT_TABLET'
p1732
S'y'
sS'CONFIG_ILLEGAL_POINTER_VALUE'
p1733
S'0xdead000000000000'
p1734
sS'CONFIG_THERMAL_GOV_STEP_WISE'
p1735
S'y'
sS'CONFIG_PRINTK'
p1736
S'y'
sS'net.ipv4.conf.default.promote_secondaries'
p1737
I0
sS'kernel.sched_domain.cpu20.domain0.busy_idx'
p1738
I2
sS'CONFIG_WLAN_VENDOR_MARVELL'
p1739
S'y'
sS'CONFIG_MINIX_SUBPARTITION'
p1740
S'y'
sS'kernel.sched_domain.cpu26.domain0.max_interval'
p1741
I20
sS'kernel.sched_domain.cpu20.domain1.cache_nice_tries'
p1742
I2
sS'kernel.sched_domain.cpu33.domain1.busy_idx'
p1743
I3
sS'kernel.sched_domain.cpu13.domain1.max_newidle_lb_cost'
p1744
I47172
sS'kernel.sched_domain.cpu21.domain1.imbalance_pct'
p1745
I125
sS'CONFIG_FRAMEBUFFER_CONSOLE'
p1746
S'y'
sS'CONFIG_BRIDGE'
p1747
S'm'
sS'net.ipv6.conf.lo.accept_ra_pinfo'
p1748
I1
sS'kernel.sched_domain.cpu19.domain1.forkexec_idx'
p1749
I0
sS'CONFIG_NET_VENDOR_AGERE'
p1750
S'y'
sS'CONFIG_ASYNC_XOR'
p1751
S'm'
sS'CONFIG_SND_HDA_PREALLOC_SIZE'
p1752
I64
sS'CONFIG_ACPI_HOTPLUG_IOAPIC'
p1753
S'y'
sS'kernel.sched_domain.cpu1.domain0.flags'
p1754
I4143
sS'CONFIG_SATA_PMP'
p1755
S'y'
sS'CONFIG_TRACE_IRQFLAGS_SUPPORT'
p1756
S'y'
sS'CONFIG_KEYBOARD_ATKBD'
p1757
S'y'
sS'net.core.default_qdisc'
p1758
S'pfifo_fast'
p1759
sS'kernel.sched_domain.cpu14.domain0.min_interval'
p1760
I10
sS'CONFIG_VIRTIO_MMIO'
p1761
S'y'
sS'CONFIG_VIRT_TO_BUS'
p1762
S'y'
sS'kernel.sched_domain.cpu12.domain1.wake_idx'
p1763
I0
sS'kernel.sched_domain.cpu32.domain1.cache_nice_tries'
p1764
I2
sS'CONFIG_ARCH_SUPPORTS_DEFERRED_STRUCT_PAGE_INIT'
p1765
S'y'
sS'kernel.sched_domain.cpu2.domain0.name'
p1766
S'DIE'
p1767
sS'kernel.sched_domain.cpu21.domain1.max_newidle_lb_cost'
p1768
I14948
sS'kernel.sched_domain.cpu26.domain0.name'
p1769
S'DIE'
p1770
sS'kernel.sched_domain.cpu39.domain1.flags'
p1771
I25647
sS'kernel.sched_domain.cpu25.domain0.wake_idx'
p1772
I0
sS'kernel.sched_domain.cpu14.domain0.wake_idx'
p1773
I0
sS'kernel.sched_domain.cpu5.domain0.idle_idx'
p1774
I1
sS'CONFIG_NET_VENDOR_ROCKER'
p1775
S'y'
sS'kernel.sched_domain.cpu37.domain1.idle_idx'
p1776
I2
sS'kernel.sched_domain.cpu23.domain1.flags'
p1777
I25647
sS'CONFIG_BUG'
p1778
S'y'
sS'CONFIG_CPU_FREQ_GOV_COMMON'
p1779
S'y'
sS'CONFIG_PHYSICAL_ALIGN'
p1780
S'0x1000000'
p1781
sS'kernel.sched_domain.cpu11.domain1.cache_nice_tries'
p1782
I2
sS'kernel.timer_migration'
p1783
I1
sS'CONFIG_HAVE_ARCH_VMAP_STACK'
p1784
S'y'
sS'kernel.sched_domain.cpu9.domain0.name'
p1785
S'DIE'
p1786
sS'kernel.sched_domain.cpu9.domain1.max_newidle_lb_cost'
p1787
I14253
sS'kernel.sched_domain.cpu35.domain0.wake_idx'
p1788
I0
sS'CONFIG_PSTORE_ZLIB_COMPRESS'
p1789
S'y'
sS'CONFIG_CRYPTO_BLKCIPHER2'
p1790
S'y'
sS'CONFIG_GENERIC_IRQ_EFFECTIVE_AFF_MASK'
p1791
S'y'
sS'CONFIG_CHR_DEV_SG'
p1792
S'y'
sS'kernel.sched_domain.cpu30.domain1.idle_idx'
p1793
I2
sS'CONFIG_ARCH_HAS_PKEYS'
p1794
S'y'
sS'CONFIG_SIGNALFD'
p1795
S'y'
sS'CONFIG_IMA_LSM_RULES'
p1796
S'y'
sS'CONFIG_MD_MULTIPATH'
p1797
S'm'
sS'net.ipv4.neigh.default.mcast_solicit'
p1798
I3
sS'kernel.sched_domain.cpu13.domain0.idle_idx'
p1799
I1
sS'CONFIG_SYSTEM_DATA_VERIFICATION'
p1800
S'y'
sS'CONFIG_ACPI'
p1801
S'y'
sS'CONFIG_RTC_MC146818_LIB'
p1802
S'y'
sS'kernel.sched_domain.cpu5.domain0.forkexec_idx'
p1803
I0
sS'CONFIG_STACKTRACE_SUPPORT'
p1804
S'y'
sS'kernel.sched_domain.cpu8.domain0.flags'
p1805
I4143
sS'kernel.sched_domain.cpu27.domain1.flags'
p1806
I25647
sS'CONFIG_INTEL_GTT'
p1807
S'y'
sS'CONFIG_THERMAL_EMULATION'
p1808
S'y'
sS'CONFIG_HAVE_DMA_CONTIGUOUS'
p1809
S'y'
sS'kernel.sched_domain.cpu18.domain1.busy_factor'
p1810
I32
sS'net.netfilter.nf_log.5'
p1811
S'NONE'
p1812
sS'net.netfilter.nf_log.4'
p1813
S'NONE'
p1814
sS'net.netfilter.nf_log.7'
p1815
S'NONE'
p1816
sS'net.netfilter.nf_log.6'
p1817
S'NONE'
p1818
sS'net.netfilter.nf_log.1'
p1819
S'NONE'
p1820
sS'net.netfilter.nf_log.0'
p1821
S'NONE'
p1822
sS'net.netfilter.nf_log.3'
p1823
S'NONE'
p1824
sS'net.netfilter.nf_log.2'
p1825
S'NONE'
p1826
sS'kernel.sched_domain.cpu9.domain1.busy_idx'
p1827
I3
sS'net.netfilter.nf_log.9'
p1828
S'NONE'
p1829
sS'net.netfilter.nf_log.8'
p1830
S'NONE'
p1831
sS'net.ipv4.conf.ens3.arp_announce'
p1832
I0
sS'kernel.real-root-dev'
p1833
I0
sS'vm.vfs_cache_pressure'
p1834
I100
sS'net.ipv6.conf.all.accept_source_route'
p1835
I0
sS'kernel.sched_domain.cpu38.domain0.forkexec_idx'
p1836
I0
sS'CONFIG_REGMAP_SPI'
p1837
S'y'
sS'CONFIG_HAVE_KERNEL_LZO'
p1838
S'y'
sS'kernel.sched_domain.cpu4.domain0.forkexec_idx'
p1839
I0
sS'kernel.sched_domain.cpu9.domain1.cache_nice_tries'
p1840
I2
sS'CONFIG_IP_FIB_TRIE_STATS'
p1841
S'y'
sS'CONFIG_DEVFREQ_GOV_PERFORMANCE'
p1842
S'y'
sS'kernel.sched_domain.cpu20.domain0.busy_factor'
p1843
I32
sS'CONFIG_IPV6_MULTIPLE_TABLES'
p1844
S'y'
sS'CONFIG_MFD_SYSCON'
p1845
S'y'
sS'kernel.sched_domain.cpu22.domain1.name'
p1846
S'NUMA'
p1847
sS'kernel.sched_domain.cpu3.domain0.newidle_idx'
p1848
I0
sS'kernel.sched_domain.cpu16.domain1.min_interval'
p1849
I40
sS'fs.quota.lookups'
p1850
I0
sS'CONFIG_QUOTACTL'
p1851
S'y'
sS'kernel.sched_domain.cpu23.domain0.busy_idx'
p1852
I2
sS'kernel.sched_domain.cpu33.domain1.forkexec_idx'
p1853
I0
sS'CONFIG_ARCH_WANT_BATCHED_UNMAP_TLB_FLUSH'
p1854
S'y'
sS'CONFIG_SCSI_QLA_ISCSI'
p1855
S'm'
sS'net.ipv6.conf.lo.temp_valid_lft'
p1856
I604800
sS'CONFIG_RTC_LIB'
p1857
S'y'
sS'kernel.pty.max'
p1858
I4096
sS'CONFIG_ISCSI_BOOT_SYSFS'
p1859
S'm'
sS'CONFIG_HAVE_KERNEL_LZ4'
p1860
S'y'
sS'kernel.sched_domain.cpu36.domain1.cache_nice_tries'
p1861
I2
sS'CONFIG_SQUASHFS_XATTR'
p1862
S'y'
sS'kernel.sched_domain.cpu39.domain1.wake_idx'
p1863
I0
sS'net.ipv6.conf.default.use_oif_addrs_only'
p1864
I0
sS'kernel.sched_domain.cpu4.domain1.busy_factor'
p1865
I32
sS'vm.lowmem_reserve_ratio'
p1866
S'256\t256\t32\t1'
p1867
sS'kernel.sched_domain.cpu0.domain0.newidle_idx'
p1868
I0
sS'kernel.sched_domain.cpu27.domain0.name'
p1869
S'DIE'
p1870
sS'kernel.sched_domain.cpu20.domain1.max_interval'
p1871
I80
sS'CONFIG_MODULE_SIG_ALL'
p1872
S'y'
sS'CONFIG_CONSOLE_POLL'
p1873
S'y'
sS'CONFIG_VIRTIO_MMIO_CMDLINE_DEVICES'
p1874
S'y'
sS'kernel.sched_domain.cpu0.domain1.name'
p1875
S'NUMA'
p1876
sS'net.ipv4.cipso_rbm_strictvalid'
p1877
I1
sS'CONFIG_HAVE_CLK_PREPARE'
p1878
S'y'
sS'kernel.sched_domain.cpu8.domain1.newidle_idx'
p1879
I0
sS'net.ipv6.conf.ens3.router_solicitation_interval'
p1880
I4
sS'CONFIG_NET_TULIP'
p1881
S'y'
sS'kernel.sched_domain.cpu22.domain0.forkexec_idx'
p1882
I0
sS'kernel.sched_domain.cpu33.domain1.cache_nice_tries'
p1883
I2
sS'kernel.sched_domain.cpu32.domain1.forkexec_idx'
p1884
I0
sS'kernel.sched_domain.cpu15.domain0.min_interval'
p1885
I10
sS'CONFIG_POSIX_MQUEUE'
p1886
S'y'
sS'CONFIG_MDIO_BUS'
p1887
S'y'
sS'CONFIG_KALLSYMS_ALL'
p1888
S'y'
sS'net.ipv4.conf.lo.igmpv3_unsolicited_report_interval'
p1889
I1000
sS'CONFIG_ANON_INODES'
p1890
S'y'
sS'kernel.sched_domain.cpu39.domain0.min_interval'
p1891
I10
sS'kernel.sched_domain.cpu39.domain1.busy_factor'
p1892
I32
sS'kernel.sched_domain.cpu5.domain1.max_newidle_lb_cost'
p1893
I47839
sS'kernel.shmmni'
p1894
I4096
sS'CONFIG_ATARI_PARTITION'
p1895
S'y'
sS'kernel.sched_domain.cpu8.domain0.min_interval'
p1896
I10
sS'CONFIG_SECURITY_SELINUX_CHECKREQPROT_VALUE'
p1897
I1
sS'net.ipv4.conf.ens3.proxy_arp'
p1898
I0
sS'CONFIG_NETLABEL'
p1899
S'y'
sS'CONFIG_CPU_FREQ_GOV_ATTR_SET'
p1900
S'y'
sS'CONFIG_CRYPTO_CRCT10DIF'
p1901
S'y'
sS'kernel.sched_domain.cpu10.domain1.max_interval'
p1902
I80
sS'kernel.sched_domain.cpu19.domain1.min_interval'
p1903
I40
sS'kernel.sched_domain.cpu20.domain0.imbalance_pct'
p1904
I125
sS'CONFIG_ARCH_HAS_ELF_RANDOMIZE'
p1905
S'y'
sS'kernel.sched_domain.cpu38.domain1.forkexec_idx'
p1906
I0
sS'CONFIG_VM_EVENT_COUNTERS'
p1907
S'y'
sS'CONFIG_ARCH_HAS_KCOV'
p1908
S'y'
sS'net.ipv6.conf.lo.accept_ra_rtr_pref'
p1909
I1
sS'CONFIG_RAPIDIO_DISC_TIMEOUT'
p1910
I30
sS'CONFIG_GPIO_SX150X'
p1911
S'y'
sS'kernel.sched_domain.cpu17.domain0.imbalance_pct'
p1912
I125
sS'net.ipv6.conf.ens3.enhanced_dad'
p1913
I1
sS'net.ipv6.conf.all.router_probe_interval'
p1914
I60
sS'CONFIG_BSD_PROCESS_ACCT'
p1915
S'y'
sS'kernel.sched_domain.cpu37.domain1.max_interval'
p1916
I80
sS'kernel.sched_domain.cpu33.domain1.busy_factor'
p1917
I32
sS'CONFIG_SPI_MASTER'
p1918
S'y'
sS'kernel.sched_domain.cpu17.domain1.busy_factor'
p1919
I32
sS'kernel.sched_domain.cpu22.domain0.idle_idx'
p1920
I1
sS'kernel.sched_domain.cpu2.domain1.idle_idx'
p1921
I2
sS'CONFIG_KALLSYMS_ABSOLUTE_PERCPU'
p1922
S'y'
sS'kernel.sched_domain.cpu6.domain0.name'
p1923
S'DIE'
p1924
sS'CONFIG_INTEL_IOMMU_FLOPPY_WA'
p1925
S'y'
sS'net.ipv6.conf.all.temp_valid_lft'
p1926
I604800
sS'CONFIG_LZ4_DECOMPRESS'
p1927
S'y'
sS'CONFIG_CRYPTO_MANAGER'
p1928
S'y'
sS'kernel.sched_domain.cpu12.domain1.forkexec_idx'
p1929
I0
sS'net.ipv4.conf.default.drop_unicast_in_l2_multicast'
p1930
I0
sS'CONFIG_SND_PROC_FS'
p1931
S'y'
sS'net.ipv6.conf.ens3.hop_limit'
p1932
I64
sS'CONFIG_VGA_CONSOLE'
p1933
S'y'
sS'CONFIG_RANDOMIZE_MEMORY_PHYSICAL_PADDING'
p1934
S'0xa'
p1935
sS'CONFIG_ECRYPT_FS'
p1936
S'y'
sS'CONFIG_QUOTACTL_COMPAT'
p1937
S'y'
sS'vm.oom_kill_allocating_task'
p1938
I0
sS'kernel.sched_domain.cpu8.domain0.idle_idx'
p1939
I1
sS'CONFIG_X86_MCE_THRESHOLD'
p1940
S'y'
sS'CONFIG_CGROUP_PIDS'
p1941
S'y'
sS'kernel.sched_domain.cpu33.domain0.idle_idx'
p1942
I1
sS'net.ipv4.conf.ens3.accept_local'
p1943
I0
sS'net.ipv4.neigh.ens3.gc_stale_time'
p1944
I60
sS'CONFIG_SND_TIMER'
p1945
S'm'
sS'CONFIG_SCHED_INFO'
p1946
S'y'
sS'CONFIG_CRYPTO_AES_X86_64'
p1947
S'm'
sS'net.ipv6.neigh.lo.gc_stale_time'
p1948
I60
sS'CONFIG_HID_PID'
p1949
S'y'
sS'CONFIG_SPLIT_PTLOCK_CPUS'
p1950
I4
sS'dev.cdrom.autoclose'
p1951
I1
sS'CONFIG_LIBCRC32C'
p1952
S'm'
sS'kernel.sched_domain.cpu26.domain0.imbalance_pct'
p1953
I125
sS'kernel.sched_domain.cpu36.domain1.busy_idx'
p1954
I3
sS'kernel.sched_domain.cpu33.domain1.newidle_idx'
p1955
I0
sS'CONFIG_WLAN_VENDOR_BROADCOM'
p1956
S'y'
sS'CONFIG_EDAC_SUPPORT'
p1957
S'y'
sS'CONFIG_HAVE_ARCH_COMPAT_MMAP_BASES'
p1958
S'y'
sS'CONFIG_TASK_DELAY_ACCT'
p1959
S'y'
sS'net.ipv4.cipso_rbm_optfmt'
p1960
I0
sS'net.ipv4.conf.ens3.arp_notify'
p1961
I0
sS'net.ipv4.route.gc_interval'
p1962
I60
sS'kernel.sched_domain.cpu26.domain0.flags'
p1963
I4143
sS'kernel.sched_domain.cpu34.domain1.imbalance_pct'
p1964
I125
sS'kernel.sched_domain.cpu20.domain0.flags'
p1965
I4143
sS'CONFIG_SPARSEMEM_EXTREME'
p1966
S'y'
sS'CONFIG_DMA_ACPI'
p1967
S'y'
sS'kernel.kptr_restrict'
p1968
I1
sS'CONFIG_INPUT_MOUSEDEV'
p1969
S'y'
sS'CONFIG_X86_DIRECT_GBPAGES'
p1970
S'y'
sS'CONFIG_NET_VENDOR_MICROCHIP'
p1971
S'y'
sS'net.ipv6.conf.ens3.accept_redirects'
p1972
I1
sS'vm.compact_unevictable_allowed'
p1973
I1
sS'CONFIG_ZLIB_DEFLATE'
p1974
S'y'
sS'kernel.sched_domain.cpu18.domain0.busy_factor'
p1975
I32
sS'CONFIG_ACPI_CPU_FREQ_PSS'
p1976
S'y'
sS'CONFIG_SYSVIPC_COMPAT'
p1977
S'y'
sS'CONFIG_X86_VSYSCALL_EMULATION'
p1978
S'y'
sS'net.ipv6.conf.all.use_tempaddr'
p1979
I2
sS'net.ipv4.neigh.lo.anycast_delay'
p1980
I100
sS'CONFIG_NO_HZ_COMMON'
p1981
S'y'
sS'CONFIG_I2C_DESIGNWARE_BAYTRAIL'
p1982
S'y'
sS'kernel.sched_domain.cpu31.domain0.busy_idx'
p1983
I2
sS'kernel.sched_domain.cpu37.domain1.newidle_idx'
p1984
I0
sS'CONFIG_FILE_LOCKING'
p1985
S'y'
sS'net.ipv4.conf.ens3.force_igmp_version'
p1986
I0
sS'CONFIG_FTRACE'
p1987
S'y'
sS'CONFIG_MFD_WM831X_I2C'
p1988
S'y'
sS'kernel.sched_domain.cpu28.domain1.min_interval'
p1989
I40
sS'CONFIG_DEVFREQ_GOV_USERSPACE'
p1990
S'y'
sS'CONFIG_AUDIT_TREE'
p1991
S'y'
sS'CONFIG_MOUSE_PS2_BYD'
p1992
S'y'
sS'CONFIG_USB_OHCI_HCD_PCI'
p1993
S'y'
sS'kernel.sched_domain.cpu36.domain0.name'
p1994
S'DIE'
p1995
sS'net.ipv4.route.min_adv_mss'
p1996
I256
sS'CONFIG_HAVE_KVM_IRQFD'
p1997
S'y'
sS'CONFIG_ARCH_DEFCONFIG'
p1998
S'"arch/x86/configs/x86_64_defconfig"'
p1999
sS'kernel.sched_domain.cpu3.domain1.forkexec_idx'
p2000
I0
sS'net.ipv4.tcp_thin_linear_timeouts'
p2001
I0
sS'CONFIG_CRYPTO_ALGAPI2'
p2002
S'y'
sS'CONFIG_NUMA'
p2003
S'y'
sS'kernel.sched_domain.cpu30.domain1.max_interval'
p2004
I80
sS'kernel.sched_domain.cpu16.domain1.wake_idx'
p2005
I0
sS'CONFIG_LZO_COMPRESS'
p2006
S'y'
sS'CONFIG_INTEL_TXT'
p2007
S'y'
sS'CONFIG_MOUSE_PS2_TOUCHKIT'
p2008
S'y'
sS'CONFIG_LLC'
p2009
S'm'
sS'kernel.sched_domain.cpu26.domain1.newidle_idx'
p2010
I0
sS'kernel.sched_domain.cpu12.domain0.cache_nice_tries'
p2011
I1
sS'CONFIG_QUEUED_SPINLOCKS'
p2012
S'y'
sS'kernel.sched_domain.cpu11.domain0.min_interval'
p2013
I10
sS'net.ipv4.tcp_congestion_control'
p2014
S'cubic'
p2015
sS'CONFIG_ATA_SFF'
p2016
S'y'
sS'CONFIG_NVMEM'
p2017
S'y'
sS'CONFIG_SERIO_RAW'
p2018
S'm'
sS'CONFIG_HAVE_KVM_IRQ_ROUTING'
p2019
S'y'
sS'dev.mac_hid.mouse_button3_keycode'
p2020
I100
sS'CONFIG_GENERIC_BUG'
p2021
S'y'
sS'CONFIG_BLK_DEV_IO_TRACE'
p2022
S'y'
sS'net.ipv4.conf.ens3.drop_gratuitous_arp'
p2023
I0
sS'CONFIG_MUTEX_SPIN_ON_OWNER'
p2024
S'y'
sS'CONFIG_MEMORY_ISOLATION'
p2025
S'y'
sS'net.ipv6.conf.all.accept_ra_pinfo'
p2026
I1
sS'kernel.shm_next_id'
p2027
S'-1'
p2028
sS'kernel.sched_domain.cpu22.domain1.imbalance_pct'
p2029
I125
sS'CONFIG_NET_VENDOR_AURORA'
p2030
S'y'
sS'CONFIG_LOCKDEP_SUPPORT'
p2031
S'y'
sS'net.ipv4.conf.ens3.ignore_routes_with_linkdown'
p2032
I0
sS'kernel.sched_domain.cpu34.domain0.flags'
p2033
I4143
sS'net.ipv6.conf.ens3.accept_ra'
p2034
I1
sS'kernel.sched_domain.cpu1.domain1.max_newidle_lb_cost'
p2035
I28054
sS'kernel.sched_domain.cpu25.domain0.newidle_idx'
p2036
I0
sS'net.ipv6.conf.all.mtu'
p2037
I1280
sS'kernel.sched_domain.cpu5.domain0.busy_factor'
p2038
I32
sS'net.ipv6.conf.default.mldv2_unsolicited_report_interval'
p2039
I1000
sS'CONFIG_ZONE_DEVICE'
p2040
S'y'
sS'CONFIG_VIRTUALIZATION'
p2041
S'y'
sS'kernel.sched_domain.cpu32.domain0.imbalance_pct'
p2042
I125
sS'net.ipv6.route.gc_min_interval'
p2043
I0
sS'kernel.sched_domain.cpu7.domain0.cache_nice_tries'
p2044
I1
sS'kernel.sched_domain.cpu20.domain1.max_newidle_lb_cost'
p2045
I11895
sS'CONFIG_HAVE_VIRT_CPU_ACCOUNTING_GEN'
p2046
S'y'
sS'kernel.sched_domain.cpu36.domain1.min_interval'
p2047
I40
sS'CONFIG_HAVE_ARCH_TRANSPARENT_HUGEPAGE'
p2048
S'y'
sS'CONFIG_PROC_PAGE_MONITOR'
p2049
S'y'
sS'dev.hpet.max-user-freq'
p2050
I64
sS'kernel.sched_domain.cpu16.domain0.max_newidle_lb_cost'
p2051
I22495
sS'net.ipv4.route.gc_thresh'
p2052
S'-1'
p2053
sS'CONFIG_THERMAL_GOV_POWER_ALLOCATOR'
p2054
S'y'
sS'CONFIG_HAVE_CLK'
p2055
S'y'
sS'CONFIG_GENERIC_STRNLEN_USER'
p2056
S'y'
sS'dev.mac_hid.mouse_button_emulation'
p2057
I0
sS'CONFIG_SND_DMA_SGBUF'
p2058
S'y'
sS'CONFIG_ATA_GENERIC'
p2059
S'y'
sS'CONFIG_MOUSE_PS2_TRACKPOINT'
p2060
S'y'
sS'CONFIG_BLK_MQ_VIRTIO'
p2061
S'y'
sS'CONFIG_RD_LZ4'
p2062
S'y'
sS'CONFIG_STRICT_DEVMEM'
p2063
S'y'
sS'CONFIG_ARCH_ENABLE_MEMORY_HOTREMOVE'
p2064
S'y'
sS'kernel.sched_domain.cpu29.domain1.imbalance_pct'
p2065
I125
sS'net.ipv4.conf.all.medium_id'
p2066
I0
sS'net.ipv6.conf.lo.use_tempaddr'
p2067
S'-1'
p2068
sS'kernel.sched_domain.cpu7.domain1.idle_idx'
p2069
I2
sS'kernel.sched_domain.cpu38.domain1.busy_factor'
p2070
I32
sS'kernel.sched_domain.cpu5.domain1.cache_nice_tries'
p2071
I2
sS'CONFIG_DMA_ENGINE'
p2072
S'y'
sS'kernel.sched_domain.cpu22.domain1.min_interval'
p2073
I40
sS'net.ipv6.conf.all.mldv2_unsolicited_report_interval'
p2074
I1000
sS'CONFIG_OUTPUT_FORMAT'
p2075
S'"elf64-x86-64"'
p2076
sS'CONFIG_X86_X2APIC'
p2077
S'y'
sS'CONFIG_CGROUP_BPF'
p2078
S'y'
sS'CONFIG_ARCH_ENABLE_SPLIT_PMD_PTLOCK'
p2079
S'y'
sS'CONFIG_NET_CLS_ACT'
p2080
S'y'
sS'CONFIG_DECOMPRESS_LZO'
p2081
S'y'
sS'net.ipv4.conf.default.src_valid_mark'
p2082
I0
sS'kernel.sched_domain.cpu16.domain0.newidle_idx'
p2083
I0
sS'CONFIG_NETFILTER_XTABLES'
p2084
S'm'
sS'CONFIG_DEBUG_INFO_DWARF4'
p2085
S'y'
sS'kernel.poweroff_cmd'
p2086
S'/sbin/poweroff'
p2087
sS'CONFIG_SCSI_BNX2_ISCSI'
p2088
S'm'
sS'net.ipv4.conf.default.log_martians'
p2089
I0
sS'CONFIG_FREEZER'
p2090
S'y'
sS'CONFIG_QUOTA_NETLINK_INTERFACE'
p2091
S'y'
sS'net.ipv4.tcp_ecn_fallback'
p2092
I1
sS'CONFIG_NET_VENDOR_VIA'
p2093
S'y'
sS'CONFIG_FB'
p2094
S'y'
sS'kernel.sched_domain.cpu25.domain1.busy_idx'
p2095
I3
sS'CONFIG_MFD_WM831X'
p2096
S'y'
sS'kernel.sched_domain.cpu24.domain1.max_newidle_lb_cost'
p2097
I16381
sS'CONFIG_SLUB_DEBUG'
p2098
S'y'
sS'CONFIG_MFD_DA9055'
p2099
S'y'
sS'CONFIG_CGROUP_NET_PRIO'
p2100
S'y'
sS'net.ipv6.neigh.default.mcast_solicit'
p2101
I3
sS'CONFIG_GPIO_LYNXPOINT'
p2102
S'y'
sS'CONFIG_IPC_NS'
p2103
S'y'
sS'CONFIG_PRINTK_TIME'
p2104
S'y'
sS'CONFIG_PCI_MSI_IRQ_DOMAIN'
p2105
S'y'
sS'CONFIG_HAVE_C_RECORDMCOUNT'
p2106
S'y'
sS'net.ipv6.neigh.default.anycast_delay'
p2107
I100
sS'CONFIG_MFD_TPS6586X'
p2108
S'y'
sS'net.ipv6.conf.lo.seg6_enabled'
p2109
I0
sS'kernel.sched_domain.cpu11.domain1.max_interval'
p2110
I80
sS'net.ipv4.conf.ens3.disable_policy'
p2111
I0
sS'CONFIG_PCC'
p2112
S'y'
sS'CONFIG_REGMAP'
p2113
S'y'
sS'CONFIG_SCHEDSTATS'
p2114
S'y'
sS'CONFIG_CLOCKSOURCE_WATCHDOG'
p2115
S'y'
sS'CONFIG_PCI_QUIRKS'
p2116
S'y'
sS'CONFIG_USB_DWC2_PCI'
p2117
S'y'
sS'CONFIG_WLAN'
p2118
S'y'
sS'CONFIG_NET_VENDOR_EXAR'
p2119
S'y'
sS'CONFIG_GENERIC_IRQ_PROBE'
p2120
S'y'
sS'kernel.sched_domain.cpu28.domain0.newidle_idx'
p2121
I0
sS'kernel.sched_domain.cpu33.domain0.max_interval'
p2122
I20
sS'kernel.sched_domain.cpu31.domain1.busy_factor'
p2123
I32
sS'CONFIG_DECOMPRESS_LZ4'
p2124
S'y'
sS'net.ipv6.conf.lo.ignore_routes_with_linkdown'
p2125
I0
sS'CONFIG_HARDLOCKUP_DETECTOR'
p2126
S'y'
sS'kernel.sched_domain.cpu14.domain0.imbalance_pct'
p2127
I125
sS'CONFIG_RTC_SYSTOHC'
p2128
S'y'
sS'CONFIG_USB_XHCI_HCD'
p2129
S'y'
sS'CONFIG_SERIO_LIBPS2'
p2130
S'y'
sS'CONFIG_UNIX'
p2131
S'y'
sS'CONFIG_BASE_SMALL'
p2132
I0
sS'net.ipv4.tcp_fack'
p2133
I0
sS'net.ipv6.conf.ens3.mldv2_unsolicited_report_interval'
p2134
I1000
sS'kernel.sched_domain.cpu22.domain1.idle_idx'
p2135
I2
sS'net.ipv4.neigh.lo.mcast_resolicit'
p2136
I0
sS'kernel.sched_domain.cpu38.domain1.min_interval'
p2137
I40
sS'uname'
p2138
S'Linux nestedvm 4.14.0-rc8-stock #3 SMP Tue Mar 13 14:28:42 EDT 2018 x86_64 x86_64 x86_64 GNU/Linux'
p2139
sS'CONFIG_DMADEVICES'
p2140
S'y'
sS'kernel.sched_domain.cpu23.domain0.busy_factor'
p2141
I32
sS'CONFIG_DEFAULT_HOSTNAME'
p2142
S'"(none)"'
p2143
sS'kernel.sched_domain.cpu35.domain0.imbalance_pct'
p2144
I125
sS'CONFIG_X86_IO_APIC'
p2145
S'y'
sS'CONFIG_CRYPTO_LZO'
p2146
S'y'
sS'CONFIG_HAVE_STACK_VALIDATION'
p2147
S'y'
sS'kernel.sched_domain.cpu11.domain1.flags'
p2148
I25647
sS'CONFIG_VFAT_FS'
p2149
S'y'
sS'kernel.sched_domain.cpu20.domain0.idle_idx'
p2150
I1
sS'CONFIG_HAVE_KVM'
p2151
S'y'
sS'CONFIG_USB_PCI'
p2152
S'y'
sS'kernel.sched_domain.cpu14.domain1.min_interval'
p2153
I40
sS'CONFIG_ACPI_I2C_OPREGION'
p2154
S'y'
sS'CONFIG_SATA_ZPODD'
p2155
S'y'
sS'CONFIG_SPARSEMEM_VMEMMAP'
p2156
S'y'
sS'CONFIG_NET_VENDOR_SIS'
p2157
S'y'
sS'net.core.netdev_budget_usecs'
p2158
I2000
sS'CONFIG_TCP_CONG_ADVANCED'
p2159
S'y'
sS'CONFIG_USB_EHCI_HCD_PLATFORM'
p2160
S'y'
sS'kernel.sched_domain.cpu34.domain0.name'
p2161
S'DIE'
p2162
sS'net.ipv6.conf.all.drop_unsolicited_na'
p2163
I0
sS'CONFIG_FSNOTIFY'
p2164
S'y'
sS'kernel.sched_domain.cpu24.domain1.newidle_idx'
p2165
I0
sS'CONFIG_POWER_RESET'
p2166
S'y'
sS'CONFIG_VIRTIO_NET'
p2167
S'y'
sS'CONFIG_RFKILL'
p2168
S'y'
sS'CONFIG_ARCH_HAS_ZONE_DEVICE'
p2169
S'y'
sS'CONFIG_BCMA_POSSIBLE'
p2170
S'y'
sS'CONFIG_OPTIMIZE_INLINING'
p2171
S'y'
sS'net.ipv4.ipfrag_time'
p2172
I30
sS'net.ipv4.conf.default.secure_redirects'
p2173
I1
sS'kernel.sched_domain.cpu23.domain0.imbalance_pct'
p2174
I125
sS'CONFIG_MOUSE_PS2_SMBUS'
p2175
S'y'
sS'CONFIG_MD_RAID10'
p2176
S'm'
sS'kernel.sched_domain.cpu26.domain1.busy_idx'
p2177
I3
sS'CONFIG_PPDEV'
p2178
S'm'
sS'CONFIG_BLK_DEV_INITRD'
p2179
S'y'
sS'CONFIG_CNIC'
p2180
S'm'
sS'CONFIG_DM_UEVENT'
p2181
S'y'
sS'kernel.sched_domain.cpu29.domain1.wake_idx'
p2182
I0
sS'kernel.sched_domain.cpu28.domain0.imbalance_pct'
p2183
I125
sS'CONFIG_LEGACY_PTYS'
p2184
S'y'
sS'CONFIG_FS_POSIX_ACL'
p2185
S'y'
sS'kernel.auto_msgmni'
p2186
I0
sS'kernel.sched_domain.cpu28.domain0.idle_idx'
p2187
I1
sS'fs.mqueue.msgsize_default'
p2188
I8192
sS'CONFIG_KEXEC_VERIFY_SIG'
p2189
S'y'
sS'fs.inotify.max_user_watches'
p2190
I8192
sS'CONFIG_IMA_APPRAISE_BOOTPARAM'
p2191
S'y'
sS'CONFIG_HPET'
p2192
S'y'
sS'CONFIG_CRYPTO_WORKQUEUE'
p2193
S'y'
sS'kernel.sched_domain.cpu28.domain1.flags'
p2194
I25647
sS'CONFIG_INTEGRITY_SIGNATURE'
p2195
S'y'
sS'kernel.sched_domain.cpu12.domain1.busy_idx'
p2196
I3
sS'CONFIG_SPARSE_IRQ'
p2197
S'y'
sS'kernel.sched_domain.cpu25.domain1.idle_idx'
p2198
I2
sS'CONFIG_BLK_SCSI_REQUEST'
p2199
S'y'
sS'kernel.sched_domain.cpu12.domain0.name'
p2200
S'DIE'
p2201
sS'kernel.sched_domain.cpu16.domain1.busy_factor'
p2202
I32
sS'kernel.sched_domain.cpu27.domain1.newidle_idx'
p2203
I0
sS'net.ipv6.conf.lo.accept_ra_rt_info_max_plen'
p2204
I0
sS'CONFIG_NET_VENDOR_MICREL'
p2205
S'y'
sS'kernel.sched_domain.cpu17.domain0.newidle_idx'
p2206
I0
sS'CONFIG_DEBUG_INFO'
p2207
S'y'
sS'kernel.sched_domain.cpu18.domain1.idle_idx'
p2208
I2
sS'CONFIG_MAGIC_SYSRQ'
p2209
S'y'
sS'CONFIG_SERIAL_8250_PNP'
p2210
S'y'
sS'CONFIG_CLKDEV_LOOKUP'
p2211
S'y'
sS'kernel.sched_domain.cpu11.domain0.forkexec_idx'
p2212
I0
sS'kernel.keys.maxbytes'
p2213
I20000
sS'CONFIG_BRANCH_PROFILE_NONE'
p2214
S'y'
sS'CONFIG_NO_BOOTMEM'
p2215
S'y'
sS'CONFIG_XXHASH'
p2216
S'm'
sS'CONFIG_PCI_DIRECT'
p2217
S'y'
sS'vm.dirty_ratio'
p2218
I20
sS'net.ipv6.idgen_retries'
p2219
I3
sS'CONFIG_MAGIC_SYSRQ_SERIAL'
p2220
S'y'
sS'CONFIG_CRYPTO_HASH2'
p2221
S'y'
sS'CONFIG_HAVE_ARCH_KASAN'
p2222
S'y'
sS'CONFIG_MEMCG_SWAP'
p2223
S'y'
sS'CONFIG_IOSCHED_NOOP'
p2224
S'y'
sS'CONFIG_USB_COMMON'
p2225
S'y'
sS'kernel.sched_domain.cpu0.domain0.wake_idx'
p2226
I0
sS'CONFIG_SND_VERBOSE_PROCFS'
p2227
S'y'
sS'net.ipv6.conf.ens3.temp_prefered_lft'
p2228
I86400
sS'CONFIG_BRIDGE_NF_EBTABLES'
p2229
S'm'
sS'CONFIG_CRYPTO_JITTERENTROPY'
p2230
S'y'
sS'CONFIG_CRYPTO_DRBG_MENU'
p2231
S'y'
sS'net.core.busy_read'
p2232
I0
sS'CONFIG_RD_GZIP'
p2233
S'y'
sS'user.max_pid_namespaces'
p2234
I257592
sS'kernel.sched_domain.cpu24.domain1.min_interval'
p2235
I40
sS'kernel.sched_domain.cpu0.domain1.min_interval'
p2236
I40
sS'CONFIG_NET_VENDOR_MARVELL'
p2237
S'y'
sS'CONFIG_PANIC_ON_OOPS_VALUE'
p2238
I0
sS'CONFIG_USB_EHCI_ROOT_HUB_TT'
p2239
S'y'
sS'kernel.sched_min_granularity_ns'
p2240
I3000000
sS'kernel.sched_domain.cpu24.domain1.busy_factor'
p2241
I32
sS'CONFIG_X86_NEED_RELOCS'
p2242
S'y'
sS'kernel.sched_domain.cpu26.domain0.busy_idx'
p2243
I2
sS'kernel.sched_domain.cpu4.domain1.busy_idx'
p2244
I3
sS'CONFIG_XZ_DEC_ARM'
p2245
S'y'
sS'CONFIG_SCSI_DMA'
p2246
S'y'
sS'kernel.sched_domain.cpu4.domain0.max_interval'
p2247
I20
sS'kernel.sched_domain.cpu21.domain0.imbalance_pct'
p2248
I125
sS'CONFIG_HVC_DRIVER'
p2249
S'y'
sS'CONFIG_HAVE_RCU_TABLE_FREE'
p2250
S'y'
sS'CONFIG_ZSMALLOC'
p2251
S'y'
sS'CONFIG_HAVE_PERF_REGS'
p2252
S'y'
sS'CONFIG_SND_HWDEP'
p2253
S'm'
sS'CONFIG_CRYPTO_HASH'
p2254
S'y'
sS'kernel.sched_domain.cpu9.domain0.newidle_idx'
p2255
I0
sS'CONFIG_SPARSEMEM_MANUAL'
p2256
S'y'
sS'CONFIG_KEYS_COMPAT'
p2257
S'y'
sS'kernel.sched_domain.cpu15.domain0.max_interval'
p2258
I20
sS'kernel.sched_domain.cpu3.domain1.newidle_idx'
p2259
I0
sS'CONFIG_CRYPTO_NULL2'
p2260
S'y'
sS'CONFIG_RCU_STALL_COMMON'
p2261
S'y'
sS'net.ipv6.conf.lo.accept_ra_min_hop_limit'
p2262
I1
sS'kernel.sched_domain.cpu22.domain1.forkexec_idx'
p2263
I0
sS'net.ipv4.conf.default.proxy_arp'
p2264
I0
sS'kernel.sched_rr_timeslice_ms'
p2265
I100
sS'net.ipv6.conf.lo.disable_ipv6'
p2266
I0
sS'kernel.sched_domain.cpu16.domain0.min_interval'
p2267
I10
sS'CONFIG_NEED_PER_CPU_PAGE_FIRST_CHUNK'
p2268
S'y'
sS'CONFIG_KGDB_KDB'
p2269
S'y'
sS'kernel.sched_domain.cpu19.domain0.busy_factor'
p2270
I32
sS'net.ipv4.conf.all.src_valid_mark'
p2271
I0
sS'fs.overflowuid'
p2272
I65534
sS'kernel.sched_domain.cpu14.domain1.newidle_idx'
p2273
I0
sS'net.ipv4.conf.ens3.arp_accept'
p2274
I0
sS'CONFIG_FB_CFB_FILLRECT'
p2275
S'y'
sS'CONFIG_SECURITYFS'
p2276
S'y'
sS'CONFIG_OSF_PARTITION'
p2277
S'y'
sS'CONFIG_CRYPTO_AKCIPHER'
p2278
S'y'
sS'kernel.sched_domain.cpu31.domain0.name'
p2279
S'DIE'
p2280
sS'CONFIG_MAY_USE_DEVLINK'
p2281
S'y'
sS'kernel.sched_domain.cpu17.domain1.imbalance_pct'
p2282
I125
sS'net.ipv6.conf.default.dad_transmits'
p2283
I1
sS'CONFIG_BNX2'
p2284
S'm'
sS'CONFIG_I2C_CHARDEV'
p2285
S'y'
sS'CONFIG_CMA_AREAS'
p2286
I7
sS'CONFIG_ARM_GIC_MAX_NR'
p2287
I1
sS'net.ipv4.conf.all.accept_redirects'
p2288
I1
sS'kernel.sched_domain.cpu28.domain0.busy_idx'
p2289
I2
sS'kernel.sched_domain.cpu2.domain1.imbalance_pct'
p2290
I125
sS'vm.max_map_count'
p2291
I65530
sS'CONFIG_SCSI_SCAN_ASYNC'
p2292
S'y'
sS'CONFIG_FS_MBCACHE'
p2293
S'y'
sS'net.ipv6.conf.default.enhanced_dad'
p2294
I1
sS'net.ipv4.conf.lo.arp_ignore'
p2295
I0
sS'kernel.sched_domain.cpu13.domain1.forkexec_idx'
p2296
I0
sS'CONFIG_HAVE_KVM_IRQCHIP'
p2297
S'y'
sS'CONFIG_INLINE_READ_UNLOCK'
p2298
S'y'
sS'CONFIG_PM_SLEEP_SMP'
p2299
S'y'
sS'kernel.sched_domain.cpu32.domain0.cache_nice_tries'
p2300
I1
sS'net.ipv4.conf.ens3.proxy_arp_pvlan'
p2301
I0
sS'CONFIG_FIX_EARLYCON_MEM'
p2302
S'y'
sS'kernel.sched_domain.cpu3.domain0.forkexec_idx'
p2303
I0
sS'net.netfilter.nf_log.11'
p2304
S'NONE'
p2305
sS'CONFIG_SCHED_DEBUG'
p2306
S'y'
sS'net.ipv4.conf.ens3.promote_secondaries'
p2307
I0
sS'CONFIG_VT_HW_CONSOLE_BINDING'
p2308
S'y'
sS'CONFIG_MIGRATION'
p2309
S'y'
sS'CONFIG_SYSVIPC_SYSCTL'
p2310
S'y'
sS'CONFIG_HAMRADIO'
p2311
S'y'
sS'kernel.sched_domain.cpu25.domain0.name'
p2312
S'DIE'
p2313
sS'CONFIG_KGDB'
p2314
S'y'
sS'kernel.sched_domain.cpu22.domain0.busy_factor'
p2315
I32
sS'CONFIG_EFI_ESRT'
p2316
S'y'
sS'CONFIG_RAS'
p2317
S'y'
sS'CONFIG_GENERIC_PINCONF'
p2318
S'y'
sS'CONFIG_MEMBARRIER'
p2319
S'y'
sS'CONFIG_USB'
p2320
S'y'
sS'kernel.sched_domain.cpu23.domain1.newidle_idx'
p2321
I0
sS'kernel.sched_domain.cpu8.domain0.max_interval'
p2322
I20
sS'CONFIG_HIGH_RES_TIMERS'
p2323
S'y'
sS'CONFIG_PPP'
p2324
S'y'
sS'CONFIG_HAVE_GENERIC_GUP'
p2325
S'y'
sS'kernel.sched_domain.cpu33.domain1.max_interval'
p2326
I80
sS'CONFIG_NET_VENDOR_HUAWEI'
p2327
S'y'
sS'CONFIG_ZLIB_INFLATE'
p2328
S'y'
sS'CONFIG_CORE_DUMP_DEFAULT_ELF_HEADERS'
p2329
S'y'
sS'CONFIG_POWER_AVS'
p2330
S'y'
sS'CONFIG_MFD_AAT2870_CORE'
p2331
S'y'
sS'CONFIG_QED'
p2332
S'm'
sS'CONFIG_NET_VENDOR_I825XX'
p2333
S'y'
sS'CONFIG_LEGACY_PTY_COUNT'
p2334
I0
sS'CONFIG_COMPAT'
p2335
S'y'
sS'net.ipv6.conf.default.force_tllao'
p2336
I0
sS'CONFIG_AGP_INTEL'
p2337
S'y'
sS'CONFIG_CRYPTO_CRC32C'
p2338
S'y'
sS'kernel.sched_domain.cpu3.domain1.min_interval'
p2339
I40
sS'kernel.sched_domain.cpu30.domain1.wake_idx'
p2340
I0
sS'CONFIG_LOCK_SPIN_ON_OWNER'
p2341
S'y'
sS'CONFIG_CRYPTO_GHASH'
p2342
S'y'
sS'kernel.sched_domain.cpu27.domain0.wake_idx'
p2343
I0
sS'kernel.sched_domain.cpu25.domain1.wake_idx'
p2344
I0
sS'CONFIG_ACPI_TABLE_UPGRADE'
p2345
S'y'
sS'CONFIG_BLK_CMDLINE_PARSER'
p2346
S'y'
sS'net.ipv4.inet_peer_minttl'
p2347
I120
sS'net.core.netdev_budget'
p2348
I300
sS'kernel.shmall'
p2349
L18446744073692774399L
sS'CONFIG_ABX500_CORE'
p2350
S'y'
sS'kernel.sched_domain.cpu32.domain0.idle_idx'
p2351
I1
sS'CONFIG_CRYPTO_MANAGER_DISABLE_TESTS'
p2352
S'y'
sS'kernel.sched_domain.cpu12.domain0.busy_idx'
p2353
I2
sS'CONFIG_GENERIC_BUG_RELATIVE_POINTERS'
p2354
S'y'
sS'CONFIG_TICK_ONESHOT'
p2355
S'y'
sS'CONFIG_LOG_CPU_MAX_BUF_SHIFT'
p2356
I12
sS'CONFIG_WLAN_VENDOR_INTEL'
p2357
S'y'
sS'net.ipv6.conf.default.seg6_enabled'
p2358
I0
sS'net.ipv4.ip_nonlocal_bind'
p2359
I0
sS'CONFIG_EXT4_FS'
p2360
S'y'
sS'CONFIG_BOOTPARAM_HUNG_TASK_PANIC_VALUE'
p2361
I0
sS'kernel.sched_domain.cpu1.domain0.newidle_idx'
p2362
I0
sS'net.ipv4.neigh.default.base_reachable_time_ms'
p2363
I30000
sS'CONFIG_BALLOON_COMPACTION'
p2364
S'y'
sS'CONFIG_ASYNC_PQ'
p2365
S'm'
sS'CONFIG_USELIB'
p2366
S'y'
sS'kernel.sched_domain.cpu24.domain0.busy_idx'
p2367
I2
sS'net.ipv6.conf.default.hop_limit'
p2368
I64
sS'CONFIG_FB_IMSTT'
p2369
S'y'
sS'kernel.sched_domain.cpu0.domain0.forkexec_idx'
p2370
I0
sS'CONFIG_PM_OPP'
p2371
S'y'
sS'kernel.sched_domain.cpu5.domain0.min_interval'
p2372
I10
sS'kernel.sched_domain.cpu21.domain1.busy_factor'
p2373
I32
sS'CONFIG_KSM'
p2374
S'y'
sS'CONFIG_RTC_INTF_SYSFS'
p2375
S'y'
sS'kernel.sched_domain.cpu14.domain0.name'
p2376
S'DIE'
p2377
sS'net.ipv6.conf.all.accept_ra'
p2378
I1
sS'CONFIG_MFD_TPS65912_I2C'
p2379
S'y'
sS'net.ipv4.conf.lo.arp_filter'
p2380
I0
sS'kernel.sched_domain.cpu26.domain1.max_newidle_lb_cost'
p2381
I72566
sS'CONFIG_SERIAL_8250_SHARE_IRQ'
p2382
S'y'
sS'kernel.sched_domain.cpu2.domain0.forkexec_idx'
p2383
I0
sS'net.ipv6.conf.all.router_solicitations'
p2384
S'-1'
p2385
sS'kernel.sched_domain.cpu37.domain0.imbalance_pct'
p2386
I125
sS'kernel.unprivileged_bpf_disabled'
p2387
I0
sS'CONFIG_FUSION_MAX_SGE'
p2388
I128
sS'CONFIG_HAS_IOPORT_MAP'
p2389
S'y'
sS'CONFIG_MFD_WM831X_SPI'
p2390
S'y'
sS'kernel.sched_domain.cpu9.domain1.name'
p2391
S'NUMA'
p2392
sS'CONFIG_JUMP_LABEL'
p2393
S'y'
sS'kernel.sched_domain.cpu27.domain0.min_interval'
p2394
I10
sS'kernel.sched_domain.cpu34.domain1.flags'
p2395
I25647
sS'CONFIG_INPUT_LEDS'
p2396
S'm'
sS'net.ipv4.tcp_app_win'
p2397
I31
sS'net.ipv4.cipso_cache_enable'
p2398
I1
sS'CONFIG_EVM_EXTRA_SMACK_XATTRS'
p2399
S'y'
sS'net.ipv4.tcp_keepalive_probes'
p2400
I9
sS'kernel.sched_domain.cpu24.domain0.cache_nice_tries'
p2401
I1
sS'CONFIG_IKCONFIG'
p2402
S'm'
sS'kernel.sched_domain.cpu19.domain0.max_interval'
p2403
I20
sS'CONFIG_MEMORY'
p2404
S'y'
sS'kernel.sched_domain.cpu16.domain1.imbalance_pct'
p2405
I125
sS'CONFIG_KDB_DEFAULT_ENABLE'
p2406
S'0x1'
p2407
sS'fs.inotify.max_queued_events'
p2408
I16384
sS'CONFIG_SG_POOL'
p2409
S'y'
sS'CONFIG_CRYPTO_RSA'
p2410
S'y'
sS'net.ipv4.tcp_pacing_ca_ratio'
p2411
I120
sS'CONFIG_CPU_FREQ_GOV_POWERSAVE'
p2412
S'y'
sS'CONFIG_HAVE_BOOTMEM_INFO_NODE'
p2413
S'y'
sS'kernel.sched_domain.cpu17.domain1.forkexec_idx'
p2414
I0
sS'CONFIG_SPARSEMEM_ALLOC_MEM_MAP_TOGETHER'
p2415
S'y'
sS'CONFIG_ACPI_PROCESSOR'
p2416
S'y'
sS'CONFIG_ARCH_PHYS_ADDR_T_64BIT'
p2417
S'y'
sS'kernel.sched_domain.cpu8.domain0.wake_idx'
p2418
I0
sS'CONFIG_ACPI_PCI_SLOT'
p2419
S'y'
sS'CONFIG_CPU_FREQ_GOV_USERSPACE'
p2420
S'y'
sS'kernel.sched_domain.cpu19.domain1.idle_idx'
p2421
I2
sS'kernel.sched_domain.cpu22.domain1.max_newidle_lb_cost'
p2422
I22673
sS'CONFIG_HAVE_UNSTABLE_SCHED_CLOCK'
p2423
S'y'
sS'kernel.sched_domain.cpu8.domain1.forkexec_idx'
p2424
I0
sS'net.ipv4.igmp_link_local_mcast_reports'
p2425
I1
sS'CONFIG_MAC80211_STA_HASH_MAX_SIZE'
p2426
I0
sS'CONFIG_BITREVERSE'
p2427
S'y'
sS'CONFIG_MEM_SOFT_DIRTY'
p2428
S'y'
sS'CONFIG_MODULES_USE_ELF_RELA'
p2429
S'y'
sS'CONFIG_SECURITY_SMACK'
p2430
S'y'
sS'net.ipv6.anycast_src_echo_reply'
p2431
I0
sS'CONFIG_KPROBES'
p2432
S'y'
sS'CONFIG_FRAME_POINTER'
p2433
S'y'
sS'CONFIG_SGETMASK_SYSCALL'
p2434
S'y'
sS'CONFIG_BLK_DEV_DM_BUILTIN'
p2435
S'y'
sS'net.ipv4.conf.lo.tag'
p2436
I0
sS'kernel.sched_domain.cpu30.domain1.forkexec_idx'
p2437
I0
sS'CONFIG_SQUASHFS_FRAGMENT_CACHE_SIZE'
p2438
I3
sS'kernel.sched_domain.cpu30.domain1.newidle_idx'
p2439
I0
sS'kernel.sched_domain.cpu3.domain0.idle_idx'
p2440
I1
sS'CONFIG_AUDIT'
p2441
S'y'
sS'kernel.sched_domain.cpu32.domain1.max_newidle_lb_cost'
p2442
I148852
sS'CONFIG_ARCH_SUPPORTS_DEBUG_PAGEALLOC'
p2443
S'y'
sS'kernel.random.urandom_min_reseed_secs'
p2444
I60
sS'CONFIG_X86_CMPXCHG64'
p2445
S'y'
sS'CONFIG_NET_FLOW_LIMIT'
p2446
S'y'
sS'CONFIG_ND_CLAIM'
p2447
S'y'
sS'kernel.sched_domain.cpu21.domain1.wake_idx'
p2448
I0
sS'kernel.sched_domain.cpu4.domain0.newidle_idx'
p2449
I0
sS'kernel.sched_domain.cpu34.domain1.name'
p2450
S'NUMA'
p2451
sS'net.ipv6.conf.default.accept_ra_mtu'
p2452
I1
sS'fs.dir-notify-enable'
p2453
I1
sS'CONFIG_HAVE_HARDLOCKUP_DETECTOR_PERF'
p2454
S'y'
sS'kernel.sched_domain.cpu25.domain1.max_interval'
p2455
I80
sS'kernel.sched_domain.cpu0.domain0.busy_factor'
p2456
I32
sS'kernel.sched_domain.cpu17.domain1.max_newidle_lb_cost'
p2457
I74428
sS'kernel.sched_domain.cpu26.domain1.idle_idx'
p2458
I2
sS'kernel.sched_domain.cpu12.domain1.imbalance_pct'
p2459
I125
sS'CONFIG_HAVE_COPY_THREAD_TLS'
p2460
S'y'
sS'net.ipv6.route.gc_thresh'
p2461
I1024
sS'CONFIG_ARCH_RANDOM'
p2462
S'y'
sS'net.ipv6.conf.ens3.router_probe_interval'
p2463
I60
sS'kernel.sched_domain.cpu21.domain0.forkexec_idx'
p2464
I0
sS'CONFIG_PM_TRACE'
p2465
S'y'
sS'CONFIG_SYSCTL_EXCEPTION_TRACE'
p2466
S'y'
sS'CONFIG_X86_INTERNODE_CACHE_SHIFT'
p2467
I6
sS'CONFIG_HAVE_SYSCALL_TRACEPOINTS'
p2468
S'y'
sS'kernel.sched_domain.cpu13.domain1.max_interval'
p2469
I80
sS'CONFIG_CRC32'
p2470
S'y'
sS'CONFIG_FUSION'
p2471
S'y'
sS'net.ipv4.conf.lo.accept_source_route'
p2472
I1
sS'net.ipv6.conf.ens3.suppress_frag_ndisc'
p2473
I1
sS'CONFIG_SWPHY'
p2474
S'y'
sS'kernel.sched_domain.cpu33.domain1.min_interval'
p2475
I40
sS'kernel.sched_domain.cpu6.domain1.wake_idx'
p2476
I0
sS'kernel.sched_domain.cpu36.domain0.idle_idx'
p2477
I1
sS'kernel.sched_cfs_bandwidth_slice_us'
p2478
I5000
sS'vm.admin_reserve_kbytes'
p2479
I8192
sS'CONFIG_ASYNC_TX_DMA'
p2480
S'y'
sS'kernel.sched_domain.cpu33.domain0.wake_idx'
p2481
I0
sS'CONFIG_RTC_NVMEM'
p2482
S'y'
sS'kernel.sched_domain.cpu6.domain0.newidle_idx'
p2483
I0
sS'kernel.sched_domain.cpu5.domain0.name'
p2484
S'DIE'
p2485
sS'net.ipv4.tcp_early_demux'
p2486
I1
sS'CONFIG_EXT4_FS_SECURITY'
p2487
S'y'
sS'kernel.sched_domain.cpu34.domain0.idle_idx'
p2488
I1
sS'kernel.sched_domain.cpu19.domain1.max_newidle_lb_cost'
p2489
I30800
sS'net.ipv4.neigh.default.unres_qlen'
p2490
I101
sS'kernel.sched_domain.cpu34.domain1.min_interval'
p2491
I40
sS'CONFIG_COMMON_CLK'
p2492
S'y'
sS'CONFIG_MFD_PALMAS'
p2493
S'y'
sS'CONFIG_AUXDISPLAY'
p2494
S'y'
sS'CONFIG_WLAN_VENDOR_ST'
p2495
S'y'
sS'kernel.printk_ratelimit'
p2496
I5
sS'kernel.sched_domain.cpu38.domain1.busy_idx'
p2497
I3
sS'net.ipv4.neigh.default.delay_first_probe_time'
p2498
I5
sS'CONFIG_SECURITY_SELINUX_BOOTPARAM_VALUE'
p2499
I0
sS'fs.lease-break-time'
p2500
I45
sS'kernel.sched_domain.cpu26.domain0.busy_factor'
p2501
I32
sS'vm.dirty_bytes'
p2502
I0
sS'net.ipv6.conf.lo.accept_redirects'
p2503
I1
sS'kernel.sched_domain.cpu36.domain1.max_newidle_lb_cost'
p2504
I15466
sS'CONFIG_KVM_GUEST'
p2505
S'y'
sS'net.ipv4.tcp_syn_retries'
p2506
I6
sS'kernel.shm_rmid_forced'
p2507
I0
sS'CONFIG_PERF_EVENTS_INTEL_UNCORE'
p2508
S'y'
sS'net.ipv4.conf.ens3.igmpv2_unsolicited_report_interval'
p2509
I10000
sS'kernel.sched_domain.cpu17.domain1.max_interval'
p2510
I80
sS'kernel.sched_domain.cpu13.domain0.cache_nice_tries'
p2511
I1
sS'kernel.sched_domain.cpu11.domain1.forkexec_idx'
p2512
I0
sS'kernel.sched_domain.cpu7.domain0.max_newidle_lb_cost'
p2513
I50758
sS'CONFIG_X86_FAST_FEATURE_TESTS'
p2514
S'y'
sS'CONFIG_BRIDGE_IGMP_SNOOPING'
p2515
S'y'
sS'kernel.sched_domain.cpu2.domain0.flags'
p2516
I4143
sS'kernel.sched_domain.cpu20.domain1.busy_factor'
p2517
I32
sS'CONFIG_CRYPTO_GHASH_CLMUL_NI_INTEL'
p2518
S'm'
sS'CONFIG_DEVFREQ_GOV_POWERSAVE'
p2519
S'y'
sS'kernel.sched_domain.cpu11.domain1.min_interval'
p2520
I40
sS'net.ipv6.conf.ens3.accept_ra_from_local'
p2521
I0
sS'kernel.sched_domain.cpu34.domain1.busy_idx'
p2522
I3
sS'kernel.sched_domain.cpu38.domain1.flags'
p2523
I25647
sS'net.ipv6.conf.default.router_solicitation_interval'
p2524
I4
sS'kernel.sched_domain.cpu26.domain0.wake_idx'
p2525
I0
sS'net.ipv4.tcp_tso_win_divisor'
p2526
I3
sS'CONFIG_RELOCATABLE'
p2527
S'y'
sS'kernel.sched_domain.cpu24.domain0.max_interval'
p2528
I20
sS'fs.pipe-max-size'
p2529
I1048576
sS'CONFIG_NO_HZ'
p2530
S'y'
sS'CONFIG_DYNAMIC_FTRACE_WITH_REGS'
p2531
S'y'
sS'CONFIG_CHELSIO_T4_DCB'
p2532
S'y'
sS'kernel.sched_domain.cpu26.domain0.forkexec_idx'
p2533
I0
sS'CONFIG_RTC_SYSTOHC_DEVICE'
p2534
S'"rtc0"'
p2535
sS'CONFIG_DEFAULT_SECURITY_APPARMOR'
p2536
S'y'
sS'kernel.sched_domain.cpu18.domain0.min_interval'
p2537
I10
sS'CONFIG_HAVE_KERNEL_BZIP2'
p2538
S'y'
sS'kernel.sched_domain.cpu35.domain0.max_interval'
p2539
I20
sS'CONFIG_QED_SRIOV'
p2540
S'y'
sS'net.ipv4.route.gc_min_interval_ms'
p2541
I500
sS'kernel.sched_domain.cpu23.domain0.cache_nice_tries'
p2542
I1
sS'CONFIG_WLAN_VENDOR_RSI'
p2543
S'y'
sS'CONFIG_CPU_IDLE'
p2544
S'y'
sS'kernel.sched_domain.cpu2.domain1.name'
p2545
S'NUMA'
p2546
sS'CONFIG_HOTPLUG_PCI_PCIE'
p2547
S'y'
sS'net.ipv6.neigh.ens3.mcast_solicit'
p2548
I3
sS'kernel.sched_domain.cpu37.domain0.forkexec_idx'
p2549
I0
sS'kernel.sched_domain.cpu31.domain0.wake_idx'
p2550
I0
sS'CONFIG_IP_MULTIPLE_TABLES'
p2551
S'y'
sS'CONFIG_THP_SWAP'
p2552
S'y'
sS'CONFIG_RFS_ACCEL'
p2553
S'y'
sS'fs.dentry-state'
p2554
S'107358\t89988\t45\t0\t0\t0'
p2555
sS'CONFIG_TRACEPOINTS'
p2556
S'y'
sS'CONFIG_IP6_NF_IPTABLES'
p2557
S'm'
sS'CONFIG_CRYPTO_AKCIPHER2'
p2558
S'y'
sS'CONFIG_ARCH_HAS_ADD_PAGES'
p2559
S'y'
sS'net.ipv6.conf.lo.dad_transmits'
p2560
I1
sS'CONFIG_SECURITY_APPARMOR_HASH_DEFAULT'
p2561
S'y'
sS'CONFIG_SMP'
p2562
S'y'
sS'CONFIG_NEED_PER_CPU_EMBED_FIRST_CHUNK'
p2563
S'y'
sS'kernel.sched_domain.cpu28.domain0.cache_nice_tries'
p2564
I1
sS'kernel.sched_domain.cpu36.domain1.flags'
p2565
I25647
sS'net.ipv6.conf.default.accept_dad'
p2566
I1
sS'kernel.sched_domain.cpu10.domain1.newidle_idx'
p2567
I0
sS'kernel.sched_domain.cpu35.domain0.newidle_idx'
p2568
I0
sS'CONFIG_TMPFS_XATTR'
p2569
S'y'
sS'CONFIG_BLK_CGROUP'
p2570
S'y'
sS'CONFIG_PATA_ACPI'
p2571
S'm'
sS'kernel.sched_domain.cpu27.domain1.max_newidle_lb_cost'
p2572
I39297
sS'CONFIG_WATCHDOG'
p2573
S'y'
sS'CONFIG_RTC_CLASS'
p2574
S'y'
sS'CONFIG_ISCSI_TCP'
p2575
S'm'
sS'CONFIG_HAVE_DEBUG_STACKOVERFLOW'
p2576
S'y'
sS'net.ipv6.neigh.default.gc_stale_time'
p2577
I60
sS'net.ipv6.conf.ens3.force_tllao'
p2578
I0
sS'net.ipv4.neigh.ens3.unres_qlen'
p2579
I101
sS'kernel.sched_domain.cpu11.domain1.busy_idx'
p2580
I3
sS'CONFIG_IP_PIMSM_V1'
p2581
S'y'
sS'kernel.sched_domain.cpu28.domain1.busy_idx'
p2582
I3
sS'CONFIG_MICROCODE'
p2583
S'y'
sS'kernel.sched_domain.cpu27.domain0.forkexec_idx'
p2584
I0
sS'kernel.sched_domain.cpu3.domain1.max_newidle_lb_cost'
p2585
I28409
sS'CONFIG_TUN'
p2586
S'y'
sS'kernel.sched_domain.cpu20.domain0.cache_nice_tries'
p2587
I1
sS'CONFIG_NET_VENDOR_SEEQ'
p2588
S'y'
sS'CONFIG_IP_PIMSM_V2'
p2589
S'y'
sS'net.ipv4.tcp_low_latency'
p2590
I0
sS'kernel.sched_domain.cpu18.domain1.newidle_idx'
p2591
I0
sS'net.ipv4.ip_forward_use_pmtu'
p2592
I0
sS'CONFIG_VIRTIO'
p2593
S'y'
sS'kernel.randomize_va_space'
p2594
I2
sS'vm.legacy_va_layout'
p2595
I0
sS'kernel.sched_domain.cpu38.domain0.busy_idx'
p2596
I2
sS'CONFIG_PARAVIRT'
p2597
S'y'
sS'CONFIG_HAVE_OPTPROBES'
p2598
S'y'
sS'CONFIG_XZ_DEC_BCJ'
p2599
S'y'
sS'net.ipv4.icmp_echo_ignore_all'
p2600
I0
sS'net.ipv4.ip_dynaddr'
p2601
I0
sS'CONFIG_SYSFS'
p2602
S'y'
sS'dev.cdrom.autoeject'
p2603
I0
sS'CONFIG_PROFILING'
p2604
S'y'
sS'kernel.sched_domain.cpu19.domain0.max_newidle_lb_cost'
p2605
I18063
sS'kernel.sched_domain.cpu6.domain1.name'
p2606
S'NUMA'
p2607
sS'CONFIG_THREAD_INFO_IN_TASK'
p2608
S'y'
sS'CONFIG_NET_VENDOR_INTEL'
p2609
S'y'
sS'CONFIG_TASKSTATS'
p2610
S'y'
sS'vm.memory_failure_early_kill'
p2611
I0
sS'kernel.sched_domain.cpu6.domain1.busy_factor'
p2612
I32
sS'net.ipv6.conf.default.use_tempaddr'
p2613
I2
sS'CONFIG_DEVTMPFS'
p2614
S'y'
sS'CONFIG_CFS_BANDWIDTH'
p2615
S'y'
sS'kernel.sched_domain.cpu12.domain0.idle_idx'
p2616
I1
sS'net.ipv6.route.gc_timeout'
p2617
I60
sS'CONFIG_HAVE_MOD_ARCH_SPECIFIC'
p2618
S'y'
sS'net.ipv6.neigh.ens3.base_reachable_time_ms'
p2619
I30000
sS'CONFIG_FB_MODE_HELPERS'
p2620
S'y'
sS'CONFIG_USB_OHCI_LITTLE_ENDIAN'
p2621
S'y'
sS'kernel.sched_domain.cpu35.domain1.wake_idx'
p2622
I0
sS'net.ipv4.conf.default.ignore_routes_with_linkdown'
p2623
I0
sS'kernel.sched_domain.cpu2.domain1.max_interval'
p2624
I80
sS'net.ipv4.icmp_echo_ignore_broadcasts'
p2625
I1
sS'CONFIG_IRQ_WORK'
p2626
S'y'
sS'CONFIG_TCG_TIS'
p2627
S'y'
sS'CONFIG_XZ_DEC_POWERPC'
p2628
S'y'
sS'CONFIG_HZ_250'
p2629
S'y'
sS'kernel.sched_domain.cpu0.domain1.flags'
p2630
I25647
sS'kernel.sched_domain.cpu30.domain0.min_interval'
p2631
I10
sS'kernel.sched_domain.cpu31.domain1.min_interval'
p2632
I40
sS'kernel.pid_max'
p2633
I124928
sS'CONFIG_REGMAP_I2C'
p2634
S'y'
sS'net.ipv6.neigh.ens3.locktime'
p2635
I0
sS'kernel.sched_domain.cpu20.domain0.max_newidle_lb_cost'
p2636
I12953
sS'kernel.sched_domain.cpu24.domain0.forkexec_idx'
p2637
I0
sS'net.ipv4.conf.all.arp_filter'
p2638
I0
sS'net.ipv4.route.redirect_load'
p2639
I5
sS'CONFIG_THERMAL_GOV_BANG_BANG'
p2640
S'y'
sS'CONFIG_MFD_MAX8997'
p2641
S'y'
sS'CONFIG_HAVE_ACPI_APEI'
p2642
S'y'
sS'kernel.sched_domain.cpu13.domain1.imbalance_pct'
p2643
I125
sS'CONFIG_FONT_SUPPORT'
p2644
S'y'
sS'kernel.sched_domain.cpu6.domain0.imbalance_pct'
p2645
I125
sS'CONFIG_X86_PMEM_LEGACY_DEVICE'
p2646
S'y'
sS'kernel.sched_domain.cpu1.domain1.wake_idx'
p2647
I0
sS'CONFIG_REGMAP_IRQ'
p2648
S'y'
sS'CONFIG_ASSOCIATIVE_ARRAY'
p2649
S'y'
sS'CONFIG_EZX_PCAP'
p2650
S'y'
sS'CONFIG_SCSI_MOD'
p2651
S'y'
sS'CONFIG_CRYPTO_HASH_INFO'
p2652
S'y'
sS'kernel.sched_domain.cpu24.domain0.imbalance_pct'
p2653
I125
sS'net.ipv4.conf.all.shared_media'
p2654
I1
sS'CONFIG_IOMMU_API'
p2655
S'y'
sS'CONFIG_INLINE_SPIN_UNLOCK_IRQ'
p2656
S'y'
sS'CONFIG_BLOCK'
p2657
S'y'
sS'CONFIG_MEMORY_FAILURE'
p2658
S'y'
sS'CONFIG_FB_NOTIFY'
p2659
S'y'
sS'CONFIG_NET_VENDOR_EZCHIP'
p2660
S'y'
sS'CONFIG_TIMERFD'
p2661
S'y'
sS'kernel.sched_domain.cpu1.domain0.max_interval'
p2662
I20
sS'net.ipv4.conf.ens3.mc_forwarding'
p2663
I0
sS'CONFIG_CPU_RMAP'
p2664
S'y'
sS'kernel.sched_domain.cpu15.domain0.newidle_idx'
p2665
I0
sS'net.netfilter.nf_log.10'
p2666
S'NONE'
p2667
sS'net.netfilter.nf_log.12'
p2668
S'NONE'
p2669
sS'CONFIG_ARCH_HAS_PMEM_API'
p2670
S'y'
sS'net.ipv6.conf.all.drop_unicast_in_l2_multicast'
p2671
I0
sS'kernel.sched_domain.cpu31.domain0.max_interval'
p2672
I20
sS'CONFIG_X86_INTEL_LPSS'
p2673
S'y'
sS'net.core.rmem_max'
p2674
I212992
sS'CONFIG_CRYPTO_DRBG_HASH'
p2675
S'y'
sS'CONFIG_SECURITY_PATH'
p2676
S'y'
sS'CONFIG_THERMAL_EMERGENCY_POWEROFF_DELAY_MS'
p2677
I0
sS'CONFIG_DEBUG_FS'
p2678
S'y'
sS'kernel.sched_domain.cpu24.domain0.max_newidle_lb_cost'
p2679
I37742
sS'kernel.sched_domain.cpu30.domain1.flags'
p2680
I25647
sS'kernel.sched_domain.cpu19.domain0.forkexec_idx'
p2681
I0
sS'CONFIG_STACK_TRACER'
p2682
S'y'
sS'net.core.dev_weight'
p2683
I64
sS'kernel.sched_domain.cpu22.domain0.cache_nice_tries'
p2684
I1
sS'CONFIG_X86_MPPARSE'
p2685
S'y'
sS'CONFIG_NET_VENDOR_SYNOPSYS'
p2686
S'y'
sS'CONFIG_SECURITY_TOMOYO_MAX_AUDIT_LOG'
p2687
I1024
sS'CONFIG_PCIE_PME'
p2688
S'y'
sS'kernel.sched_domain.cpu6.domain1.max_newidle_lb_cost'
p2689
I18770
sS'CONFIG_HAVE_CC_STACKPROTECTOR'
p2690
S'y'
sS'net.ipv6.conf.ens3.accept_ra_rt_info_max_plen'
p2691
I0
sS'kernel.sched_domain.cpu15.domain1.idle_idx'
p2692
I2
sS'CONFIG_BLK_DEV_LOOP_MIN_COUNT'
p2693
I8
sS'kernel.sched_domain.cpu32.domain0.max_interval'
p2694
I20
sS'net.ipv6.conf.ens3.proxy_ndp'
p2695
I0
sS'CONFIG_DEFAULT_TCP_CONG'
p2696
S'"cubic"'
p2697
sS'CONFIG_CRYPTO_CBC'
p2698
S'y'
sS'CONFIG_PGTABLE_MAPPING'
p2699
S'y'
sS'kernel.sched_domain.cpu34.domain0.busy_factor'
p2700
I32
sS'CONFIG_HAVE_EBPF_JIT'
p2701
S'y'
sS'kernel.shmmax'
p2702
L18446744073692774399L
sS'net.ipv6.conf.all.accept_ra_min_hop_limit'
p2703
I1
sS'kernel.sched_domain.cpu19.domain1.newidle_idx'
p2704
I0
sS'CONFIG_PARAVIRT_SPINLOCKS'
p2705
S'y'
sS'CONFIG_FB_SIMPLE'
p2706
S'y'
sS'kernel.sched_domain.cpu0.domain1.imbalance_pct'
p2707
I125
sS'CONFIG_QUEUED_RWLOCKS'
p2708
S'y'
sS'CONFIG_SUSPEND_FREEZER'
p2709
S'y'
sS'kernel.sched_domain.cpu9.domain1.min_interval'
p2710
I40
sS'CONFIG_VHOST_NET'
p2711
S'm'
sS'net.ipv4.conf.ens3.forwarding'
p2712
I0
sS'kernel.sched_domain.cpu2.domain1.cache_nice_tries'
p2713
I2
sS'kernel.sched_domain.cpu6.domain0.cache_nice_tries'
p2714
I1
sS'net.ipv4.neigh.lo.unres_qlen_bytes'
p2715
I212992
sS'fs.pipe-user-pages-soft'
p2716
I16384
sS'CONFIG_CRYPTO_SIMD'
p2717
S'm'
sS'CONFIG_SND_PCM_TIMER'
p2718
S'y'
sS'CONFIG_X86_INTEL_PSTATE'
p2719
S'y'
sS'net.ipv4.tcp_mtu_probing'
p2720
I0
sS'kernel.sched_domain.cpu20.domain0.wake_idx'
p2721
I0
sS'CONFIG_MFD_TWL4030_AUDIO'
p2722
S'y'
sS'CONFIG_CGROUP_PERF'
p2723
S'y'
sS'CONFIG_WATCHDOG_HANDLE_BOOT_ENABLED'
p2724
S'y'
sS'CONFIG_SOLARIS_X86_PARTITION'
p2725
S'y'
sS'kernel.sched_domain.cpu12.domain1.newidle_idx'
p2726
I0
sS'kernel.sched_domain.cpu11.domain0.idle_idx'
p2727
I1
sS'kernel.sched_domain.cpu5.domain1.name'
p2728
S'NUMA'
p2729
sS'CONFIG_NEED_SG_DMA_LENGTH'
p2730
S'y'
sS'vm.hugepages_treat_as_movable'
p2731
I0
sS'CONFIG_GENERIC_CALIBRATE_DELAY'
p2732
S'y'
sS'CONFIG_ARCH_HAS_DEVMEM_IS_ALLOWED'
p2733
S'y'
sS'CONFIG_SND'
p2734
S'm'
sS'CONFIG_LZO_DECOMPRESS'
p2735
S'y'
sS'kernel.ftrace_enabled'
p2736
I1
sS'kernel.sched_domain.cpu32.domain1.imbalance_pct'
p2737
I125
sS'CONFIG_CRYPTO_RNG'
p2738
S'y'
sS'CONFIG_MODULES_TREE_LOOKUP'
p2739
S'y'
sS'CONFIG_ECRYPT_FS_MESSAGING'
p2740
S'y'
sS'CONFIG_RTC_HCTOSYS_DEVICE'
p2741
S'"rtc0"'
p2742
sS'net.ipv4.conf.ens3.src_valid_mark'
p2743
I0
sS'CONFIG_EFI_VARS'
p2744
S'y'
sS'kernel.sched_domain.cpu30.domain1.imbalance_pct'
p2745
I125
sS'CONFIG_KEXEC_FILE'
p2746
S'y'
sS'CONFIG_I2C_BOARDINFO'
p2747
S'y'
sS'net.ipv4.tcp_mem'
p2748
S'768591\t1024791\t1537182'
p2749
sS'CONFIG_SECCOMP'
p2750
S'y'
sS'CONFIG_CRYPTO_RNG2'
p2751
S'y'
sS'kernel.sched_domain.cpu10.domain0.newidle_idx'
p2752
I0
sS'CONFIG_ARCH_MMAP_RND_BITS'
p2753
I28
sS'kernel.sched_domain.cpu23.domain1.busy_factor'
p2754
I32
sS'kernel.sched_domain.cpu39.domain1.newidle_idx'
p2755
I0
sS'kernel.sched_domain.cpu22.domain1.newidle_idx'
p2756
I0
sS'CONFIG_PMIC_DA9052'
p2757
S'y'
sS'CONFIG_KGDB_SERIAL_CONSOLE'
p2758
S'y'
sS'kernel.sched_domain.cpu23.domain1.max_newidle_lb_cost'
p2759
I54507
sS'CONFIG_IMA_DEFAULT_TEMPLATE'
p2760
S'"ima-ng"'
p2761
sS'kernel.printk_devkmsg'
p2762
S'ratelimit'
p2763
sS'kernel.sched_domain.cpu6.domain0.busy_idx'
p2764
I2
sS'CONFIG_CRYPTO_SHA1'
p2765
S'y'
sS'CONFIG_MMIOTRACE'
p2766
S'y'
sS'kernel.sched_domain.cpu10.domain1.busy_factor'
p2767
I32
sS'CONFIG_HW_RANDOM'
p2768
S'y'
sS'CONFIG_ARCH_HAS_CPU_RELAX'
p2769
S'y'
sS'kernel.sched_domain.cpu11.domain1.wake_idx'
p2770
I0
sS'CONFIG_ARCH_ENABLE_THP_MIGRATION'
p2771
S'y'
sS'vm.user_reserve_kbytes'
p2772
I131072
sS'CONFIG_PARAVIRT_TIME_ACCOUNTING'
p2773
S'y'
sS'kernel.sched_domain.cpu7.domain0.name'
p2774
S'DIE'
p2775
sS'net.ipv4.neigh.ens3.delay_first_probe_time'
p2776
I5
sS'net.ipv4.neigh.ens3.retrans_time_ms'
p2777
I1000
sS'CONFIG_KALLSYMS'
p2778
S'y'
sS'CONFIG_SND_SPI'
p2779
S'y'
sS'CONFIG_RFKILL_INPUT'
p2780
S'y'
sS'net.ipv4.route.gc_timeout'
p2781
I300
sS'CONFIG_NET_VENDOR_SAMSUNG'
p2782
S'y'
sS'CONFIG_SPARSEMEM'
p2783
S'y'
sS'kernel.sched_domain.cpu39.domain0.cache_nice_tries'
p2784
I1
sS'kernel.sched_domain.cpu17.domain0.idle_idx'
p2785
I1
sS'CONFIG_HAVE_DMA_API_DEBUG'
p2786
S'y'
sS'CONFIG_ACPI_BUTTON'
p2787
S'y'
sS'CONFIG_TTY'
p2788
S'y'
sS'CONFIG_X86_BOOTPARAM_MEMORY_CORRUPTION_CHECK'
p2789
S'y'
sS'CONFIG_XZ_DEC'
p2790
S'y'
sS'kernel.sched_domain.cpu34.domain0.cache_nice_tries'
p2791
I1
sS'CONFIG_BOUNCE'
p2792
S'y'
sS'CONFIG_X86_PM_TIMER'
p2793
S'y'
sS'kernel.sched_domain.cpu0.domain0.max_interval'
p2794
I20
sS'CONFIG_SERIAL_8250_LPSS'
p2795
S'y'
sS'net.ipv6.conf.all.accept_ra_rtr_pref'
p2796
I1
sS'CONFIG_RPS'
p2797
S'y'
sS'CONFIG_AUDIT_WATCH'
p2798
S'y'
sS'CONFIG_KVM_GENERIC_DIRTYLOG_READ_PROTECT'
p2799
S'y'
sS'CONFIG_DMAR_TABLE'
p2800
S'y'
sS'CONFIG_SYSTEM_EXTRA_CERTIFICATE_SIZE'
p2801
I4096
sS'net.ipv4.conf.ens3.send_redirects'
p2802
I1
sS'net.ipv6.conf.default.accept_ra'
p2803
I1
sS'CONFIG_PREEMPT_VOLUNTARY'
p2804
S'y'
sS'CONFIG_DEVMEM'
p2805
S'y'
sS'CONFIG_FUSE_FS'
p2806
S'y'
sS'CONFIG_USER_RETURN_NOTIFIER'
p2807
S'y'
sS'kernel.sched_domain.cpu11.domain0.imbalance_pct'
p2808
I125
sS'net.ipv4.tcp_max_reordering'
p2809
I300
sS'net.ipv4.neigh.default.gc_interval'
p2810
I30
sS'kernel.sched_domain.cpu20.domain1.busy_idx'
p2811
I3
sS'kernel.sg-big-buff'
p2812
I32768
sS'net.ipv6.route.gc_elasticity'
p2813
I9
sS'CONFIG_ARCH_SPARSEMEM_ENABLE'
p2814
S'y'
sS'CONFIG_NETFILTER_INGRESS'
p2815
S'y'
sS'CONFIG_HAVE_MEMBLOCK'
p2816
S'y'
sS'CONFIG_SCHED_TRACER'
p2817
S'y'
sS'CONFIG_SQUASHFS_DECOMP_SINGLE'
p2818
S'y'
sS'kernel.sched_domain.cpu30.domain1.max_newidle_lb_cost'
p2819
I10907
sS'net.ipv6.conf.default.temp_valid_lft'
p2820
I604800
sS'kernel.sched_domain.cpu0.domain1.newidle_idx'
p2821
I0
sS'kernel.sched_domain.cpu3.domain1.idle_idx'
p2822
I2
sS'CONFIG_ZONE_DMA32'
p2823
S'y'
sS'net.ipv6.neigh.default.app_solicit'
p2824
I0
sS'net.ipv4.tcp_timestamps'
p2825
I1
sS'kernel.sched_domain.cpu5.domain0.busy_idx'
p2826
I2
sS'kernel.sched_domain.cpu35.domain0.flags'
p2827
I4143
sS'kernel.sched_domain.cpu15.domain1.wake_idx'
p2828
I0
sS'CONFIG_GENERIC_CPU_AUTOPROBE'
p2829
S'y'
sS'CONFIG_SCSI_LOGGING'
p2830
S'y'
sS'CONFIG_NR_CPUS'
p2831
I512
sS'CONFIG_ACPI_APEI_PCIEAER'
p2832
S'y'
sS'CONFIG_ARCH_USE_CMPXCHG_LOCKREF'
p2833
S'y'
sS'user.max_user_namespaces'
p2834
I257592
sS'CONFIG_BIG_KEYS'
p2835
S'y'
sS'kernel.sched_domain.cpu4.domain0.flags'
p2836
I4143
sS'kernel.keys.root_maxkeys'
p2837
I1000000
sS'kernel.sched_domain.cpu25.domain0.busy_idx'
p2838
I2
sS'CONFIG_POSIX_MQUEUE_SYSCTL'
p2839
S'y'
sS'kernel.sched_domain.cpu35.domain1.busy_idx'
p2840
I3
sS'kernel.sched_domain.cpu4.domain0.min_interval'
p2841
I10
sS'net.ipv6.conf.ens3.disable_policy'
p2842
I0
sS'CONFIG_IOMMU_SUPPORT'
p2843
S'y'
sS'kernel.sched_domain.cpu10.domain1.busy_idx'
p2844
I3
sS'net.ipv6.neigh.lo.delay_first_probe_time'
p2845
I5
sS'kernel.sched_domain.cpu36.domain1.name'
p2846
S'NUMA'
p2847
sS'CONFIG_AMD_NUMA'
p2848
S'y'
sS'net.core.somaxconn'
p2849
I128
sS'CONFIG_AMIGA_PARTITION'
p2850
S'y'
sS'CONFIG_CONSOLE_LOGLEVEL_DEFAULT'
p2851
I7
sS'CONFIG_SQUASHFS_LZ4'
p2852
S'y'
sS'net.ipv6.conf.ens3.accept_ra_pinfo'
p2853
I1
sS'CONFIG_SCSI_CONSTANTS'
p2854
S'y'
sS'CONFIG_CRYPTO_DRBG_CTR'
p2855
S'y'
sS'kernel.sched_domain.cpu17.domain0.max_newidle_lb_cost'
p2856
I12968
sS'CONFIG_CRYPTO_AES'
p2857
S'y'
sS'kernel.sched_domain.cpu19.domain0.imbalance_pct'
p2858
I125
sS'CONFIG_XZ_DEC_SPARC'
p2859
S'y'
sS'CONFIG_SECURITY_SELINUX_DEVELOP'
p2860
S'y'
sS'kernel.sched_domain.cpu28.domain1.wake_idx'
p2861
I0
sS'net.ipv4.conf.lo.mc_forwarding'
p2862
I0
sS'net.ipv6.conf.ens3.autoconf'
p2863
I1
sS'CONFIG_TREE_RCU'
p2864
S'y'
sS'vm.hugetlb_shm_group'
p2865
I0
sS'CONFIG_X86_TSC'
p2866
S'y'
sS'CONFIG_SECURITY_SELINUX_BOOTPARAM'
p2867
S'y'
sS'net.ipv6.flowlabel_state_ranges'
p2868
I0
sS'kernel.sched_domain.cpu15.domain1.newidle_idx'
p2869
I0
sS'CONFIG_X86_MCE_AMD'
p2870
S'y'
sS'CONFIG_PARAVIRT_CLOCK'
p2871
S'y'
sg3
(lp2872
S'HostInfo'
p2873
ag6
aS'object'
p2874
asS'CONFIG_MICROCODE_AMD'
p2875
S'y'
sS'kernel.sched_domain.cpu25.domain0.idle_idx'
p2876
I1
sS'CONFIG_LIBNVDIMM'
p2877
S'y'
sS'kernel.random.read_wakeup_threshold'
p2878
I64
sS'kernel.sched_domain.cpu1.domain0.wake_idx'
p2879
I0
sS'kernel.sched_domain.cpu27.domain0.busy_idx'
p2880
I2
sS'CONFIG_RESET_CONTROLLER'
p2881
S'y'
sS'net.ipv4.tcp_no_metrics_save'
p2882
I0
sS'CONFIG_I2C_HELPER_AUTO'
p2883
S'y'
sS'kernel.sched_domain.cpu38.domain1.cache_nice_tries'
p2884
I2
sS'CONFIG_JBD2'
p2885
S'y'
sS'kernel.sched_domain.cpu1.domain0.forkexec_idx'
p2886
I0
sS'kernel.sched_domain.cpu15.domain0.busy_factor'
p2887
I32
sS'CONFIG_PARTITION_ADVANCED'
p2888
S'y'
sS'CONFIG_EFI_STUB'
p2889
S'y'
sS'net.ipv6.neigh.ens3.mcast_resolicit'
p2890
I0
sS'kernel.sched_domain.cpu35.domain1.busy_factor'
p2891
I32
sS'kernel.sched_domain.cpu37.domain0.busy_factor'
p2892
I32
sS'net.ipv4.conf.all.arp_announce'
p2893
I0
sS'kernel.sched_domain.cpu29.domain1.busy_factor'
p2894
I32
sS'kernel.sched_domain.cpu24.domain1.idle_idx'
p2895
I2
sS'CONFIG_RTC_INTF_DEV'
p2896
S'y'
sS'CONFIG_EXT4_FS_POSIX_ACL'
p2897
S'y'
sS'CONFIG_SRCU'
p2898
S'y'
sS'CONFIG_SND_VMASTER'
p2899
S'y'
sS'CONFIG_INPUT_EVDEV'
p2900
S'y'
sS'net.ipv4.conf.all.arp_ignore'
p2901
I0
sS'kernel.sched_domain.cpu13.domain0.busy_idx'
p2902
I2
sS'CONFIG_GPIO_TPS6586X'
p2903
S'y'
sS'kernel.sched_domain.cpu33.domain0.forkexec_idx'
p2904
I0
sS'CONFIG_SECCOMP_FILTER'
p2905
S'y'
sS'kernel.sched_domain.cpu25.domain1.imbalance_pct'
p2906
I125
sS'kernel.sched_domain.cpu3.domain0.flags'
p2907
I4143
sS'kernel.sched_domain.cpu12.domain1.max_interval'
p2908
I80
sS'CONFIG_SERIO'
p2909
S'y'
sS'net.ipv6.conf.ens3.accept_ra_min_hop_limit'
p2910
I1
sS'CONFIG_HPET_EMULATE_RTC'
p2911
S'y'
sS'kernel.sched_domain.cpu31.domain1.name'
p2912
S'NUMA'
p2913
sS'CONFIG_SERIAL_8250_RUNTIME_UARTS'
p2914
I32
sS'CONFIG_FB_EFI'
p2915
S'y'
sS'CONFIG_MMU_NOTIFIER'
p2916
S'y'
sS'kernel.sched_domain.cpu29.domain0.max_newidle_lb_cost'
p2917
I14084
sS'CONFIG_ACPI_SYSTEM_POWER_STATES_SUPPORT'
p2918
S'y'
sS'CONFIG_SQUASHFS_LZO'
p2919
S'y'
sS'net.ipv4.tcp_stdurg'
p2920
I0
sS'CONFIG_SCSI_DH'
p2921
S'y'
sS'kernel.sched_domain.cpu32.domain0.flags'
p2922
I4143
sS'kernel.sched_domain.cpu4.domain1.name'
p2923
S'NUMA'
p2924
sS'kernel.unknown_nmi_panic'
p2925
I0
sS'kernel.sched_domain.cpu39.domain0.idle_idx'
p2926
I1
sS'net.ipv4.conf.all.route_localnet'
p2927
I0
sS'kernel.seccomp.actions_logged'
p2928
S'kill_process kill_thread trap errno trace log'
p2929
sS'kernel.sched_domain.cpu1.domain1.flags'
p2930
I25647
sS'net.ipv6.conf.all.force_mld_version'
p2931
I0
sS'CONFIG_SECURITY_TOMOYO'
p2932
S'y'
sS'CONFIG_MSDOS_PARTITION'
p2933
S'y'
sS'kernel.sched_domain.cpu15.domain1.imbalance_pct'
p2934
I125
sS'CONFIG_SND_MAX_CARDS'
p2935
I32
sS'vm.overcommit_kbytes'
p2936
I0
sS'net.ipv4.conf.all.drop_unicast_in_l2_multicast'
p2937
I0
sS'CONFIG_POWER_SUPPLY'
p2938
S'y'
sS'kernel.sched_domain.cpu2.domain0.cache_nice_tries'
p2939
I1
sS'CONFIG_DECOMPRESS_LZMA'
p2940
S'y'
sS'net.ipv6.conf.all.ndisc_notify'
p2941
I0
sS'kernel.sched_domain.cpu7.domain0.max_interval'
p2942
I20
sS'CONFIG_CALGARY_IOMMU'
p2943
S'y'
sS'net.ipv4.neigh.lo.unres_qlen'
p2944
I101
sS'kernel.sched_domain.cpu38.domain1.max_interval'
p2945
I80
sS'CONFIG_IO_DELAY_TYPE_0X80'
p2946
I0
sS'CONFIG_SND_JACK'
p2947
S'y'
sS'CONFIG_DYNAMIC_DEBUG'
p2948
S'y'
sS'CONFIG_CRYPTO_HW'
p2949
S'y'
sS'kernel.printk_ratelimit_burst'
p2950
I10
sS'CONFIG_CRYPTO_SEQIV'
p2951
S'y'
sS'CONFIG_NET_VENDOR_OKI'
p2952
S'y'
sS'kernel.sched_domain.cpu3.domain0.busy_factor'
p2953
I32
sS'fs.nr_open'
p2954
I1048576
sS'CONFIG_DECOMPRESS_GZIP'
p2955
S'y'
sS'net.ipv6.conf.lo.accept_ra_mtu'
p2956
I1
sS'kernel.sched_domain.cpu16.domain0.flags'
p2957
I4143
sS'CONFIG_RAID6_PQ'
p2958
S'm'
sS'CONFIG_CFQ_GROUP_IOSCHED'
p2959
S'y'
sS'CONFIG_HAVE_ARCH_MMAP_RND_BITS'
p2960
S'y'
sS'fs.quota.reads'
p2961
I0
sS'kernel.sched_domain.cpu5.domain1.newidle_idx'
p2962
I0
sS'kernel.numa_balancing_scan_size_mb'
p2963
I256
sS'CONFIG_OID_REGISTRY'
p2964
S'y'
sS'net.ipv4.conf.lo.shared_media'
p2965
I1
sS'CONFIG_NLS'
p2966
S'y'
sS'kernel.sched_domain.cpu22.domain0.max_interval'
p2967
I20
sS'kernel.sched_domain.cpu39.domain1.max_interval'
p2968
I80
sS'CONFIG_NODES_SHIFT'
p2969
I6
sS'CONFIG_ARCH_HAS_STRICT_MODULE_RWX'
p2970
S'y'
sS'net.ipv6.conf.lo.regen_max_retry'
p2971
I3
sS'CONFIG_SND_OSSEMUL'
p2972
S'y'
sS'CONFIG_CGROUP_FREEZER'
p2973
S'y'
sS'CONFIG_NET_VENDOR_CHELSIO'
p2974
S'y'
sS'CONFIG_FRAMEBUFFER_CONSOLE_DETECT_PRIMARY'
p2975
S'y'
sS'CONFIG_ASN1'
p2976
S'y'
sS'kernel.sched_domain.cpu24.domain1.max_interval'
p2977
I80
sS'CONFIG_PCIEASPM'
p2978
S'y'
sS'CONFIG_PARPORT'
p2979
S'm'
sS'CONFIG_CROSS_MEMORY_ATTACH'
p2980
S'y'
sS'CONFIG_COMPACTION'
p2981
S'y'
sS'kernel.io_delay_type'
p2982
I1
sS'CONFIG_HAVE_KRETPROBES'
p2983
S'y'
sS'CONFIG_MPLS'
p2984
S'y'
sS'kernel.sched_domain.cpu30.domain0.max_interval'
p2985
I20
sS'CONFIG_CPU_IDLE_GOV_LADDER'
p2986
S'y'
sS'CONFIG_UNISYSSPAR'
p2987
S'y'
sS'CONFIG_X86_64_SMP'
p2988
S'y'
sS'CONFIG_X86_EXTENDED_PLATFORM'
p2989
S'y'
sS'net.ipv6.conf.all.autoconf'
p2990
I1
sS'CONFIG_CRC16'
p2991
S'y'
sS'CONFIG_CPU_FREQ_GOV_ONDEMAND'
p2992
S'y'
sS'CONFIG_CROSS_COMPILE'
p2993
S'""'
p2994
sS'CONFIG_ARCH_HAS_SET_MEMORY'
p2995
S'y'
sS'CONFIG_SYSCTL_SYSCALL'
p2996
S'y'
sS'net.ipv4.neigh.ens3.mcast_solicit'
p2997
I3
sS'CONFIG_PRINTK_SAFE_LOG_BUF_SHIFT'
p2998
I13
sS'CONFIG_NET_RX_BUSY_POLL'
p2999
S'y'
sS'CONFIG_GENERIC_TIME_VSYSCALL'
p3000
S'y'
sS'CONFIG_HARDLOCKUP_DETECTOR_PERF'
p3001
S'y'
sS'CONFIG_USB_PHY'
p3002
S'y'
sS'CONFIG_LDM_PARTITION'
p3003
S'y'
sS'CONFIG_FUNCTION_PROFILER'
p3004
S'y'
sS'kernel.sched_domain.cpu14.domain0.max_newidle_lb_cost'
p3005
I124540
sS'CONFIG_RCU_NEED_SEGCBLIST'
p3006
S'y'
sS'kernel.sched_domain.cpu3.domain1.name'
p3007
S'NUMA'
p3008
sS'kernel.sched_domain.cpu38.domain0.wake_idx'
p3009
I0
sS'CONFIG_MULTIUSER'
p3010
S'y'
sS'net.ipv4.tcp_wmem'
p3011
S'4096\t16384\t4194304'
p3012
sS'kernel.sched_domain.cpu9.domain1.idle_idx'
p3013
I2
sS'CONFIG_VMAP_STACK'
p3014
S'y'
sS'kernel.sched_nr_migrate'
p3015
I32
sS'CONFIG_HAVE_KVM_MSI'
p3016
S'y'
sS'CONFIG_X86_PMEM_LEGACY'
p3017
S'y'
sS'kernel.sched_domain.cpu13.domain0.wake_idx'
p3018
I0
sS'kernel.sched_domain.cpu1.domain1.busy_idx'
p3019
I3
sS'kernel.sched_domain.cpu39.domain0.max_newidle_lb_cost'
p3020
I50528
sS'kernel.keys.root_maxbytes'
p3021
I25000000
sS'kernel.sched_domain.cpu25.domain0.max_newidle_lb_cost'
p3022
I37284
sS'CONFIG_NET_VENDOR_BROADCOM'
p3023
S'y'
sS'kernel.sched_domain.cpu24.domain0.min_interval'
p3024
I10
sS'CONFIG_PCIEAER'
p3025
S'y'
sS'net.ipv4.conf.ens3.bootp_relay'
p3026
I0
sS'CONFIG_MICROCODE_OLD_INTERFACE'
p3027
S'y'
sS'kernel.cap_last_cap'
p3028
I37
sS'kernel.sched_domain.cpu17.domain1.flags'
p3029
I25647
sS'CONFIG_TCP_MD5SIG'
p3030
S'y'
sS'CONFIG_ARCH_USE_QUEUED_RWLOCKS'
p3031
S'y'
sS'vm.nr_pdflush_threads'
p3032
I0
sS'net.ipv4.tcp_available_congestion_control'
p3033
S'cubic reno'
p3034
sS'kernel.sched_domain.cpu18.domain1.min_interval'
p3035
I40
sS'kernel.sched_domain.cpu13.domain1.cache_nice_tries'
p3036
I2
sS'kernel.sched_domain.cpu18.domain0.max_newidle_lb_cost'
p3037
I36070
sS'CONFIG_CRYPTO_CRC32C_INTEL'
p3038
S'y'
sS'CONFIG_ACPI_BATTERY'
p3039
S'y'
sS'kernel.sched_domain.cpu20.domain1.wake_idx'
p3040
I0
sS'CONFIG_ACPI_PROCESSOR_IDLE'
p3041
S'y'
sS'kernel.sched_domain.cpu13.domain0.flags'
p3042
I4143
sS'kernel.printk'
p3043
S'4\t4\t1\t7'
p3044
sS'CONFIG_PID_NS'
p3045
S'y'
sS'CONFIG_NETFILTER'
p3046
S'y'
sS'user.max_inotify_instances'
p3047
I1024
sS'CONFIG_ACPI_CPPC_LIB'
p3048
S'y'
sS'CONFIG_ACPI_AC'
p3049
S'y'
sS'kernel.sched_domain.cpu34.domain1.wake_idx'
p3050
I0
sS'CONFIG_BINFMT_SCRIPT'
p3051
S'y'
sS'CONFIG_TMPFS_POSIX_ACL'
p3052
S'y'
sS'net.ipv6.conf.default.max_desync_factor'
p3053
I600
sS'CONFIG_DEFAULT_DEADLINE'
p3054
S'y'
sS'CONFIG_MFD_SEC_CORE'
p3055
S'y'
sS'kernel.sched_domain.cpu10.domain1.min_interval'
p3056
I40
sS'CONFIG_NET_VENDOR_QUALCOMM'
p3057
S'y'
sS'net.ipv4.igmp_max_memberships'
p3058
I20
sS'CONFIG_X86_REROUTE_FOR_BROKEN_BOOT_IRQS'
p3059
S'y'
sS'kernel.sched_domain.cpu18.domain1.max_interval'
p3060
I80
sS'kernel.sched_domain.cpu39.domain1.imbalance_pct'
p3061
I125
sS'net.ipv6.conf.lo.router_solicitation_interval'
p3062
I4
sS'CONFIG_MODULE_SIG_HASH'
p3063
S'"sha512"'
p3064
sS'net.ipv6.conf.lo.accept_ra_defrtr'
p3065
I1
sS'CONFIG_SOCK_CGROUP_DATA'
p3066
S'y'
sS'debug.exception-trace'
p3067
I1
sS'CONFIG_ACPI_NUMA'
p3068
S'y'
sS'CONFIG_SECURITY_SELINUX_AVC_STATS'
p3069
S'y'
sS'net.ipv4.udp_l3mdev_accept'
p3070
I0
sS'CONFIG_IMA_MEASURE_PCR_IDX'
p3071
I10
sS'CONFIG_MODULE_SRCVERSION_ALL'
p3072
S'y'
sS'CONFIG_X86'
p3073
S'y'
sS'CONFIG_CRC_T10DIF'
p3074
S'y'
sS'kernel.sched_domain.cpu4.domain1.min_interval'
p3075
I40
sS'net.ipv6.neigh.lo.locktime'
p3076
I0
sS'kernel.sched_domain.cpu27.domain1.imbalance_pct'
p3077
I125
sS'kernel.sched_domain.cpu21.domain1.flags'
p3078
I25647
sS'CONFIG_NET_VENDOR_DLINK'
p3079
S'y'
sS'net.ipv6.conf.all.router_solicitation_delay'
p3080
I1
sS'CONFIG_EARLY_PRINTK_DBGP'
p3081
S'y'
sS'kernel.sched_domain.cpu35.domain1.max_interval'
p3082
I80
sS'kernel.sched_domain.cpu18.domain0.max_interval'
p3083
I20
sS'CONFIG_TREE_SRCU'
p3084
S'y'
sS'net.ipv4.tcp_rmem'
p3085
S'4096\t87380\t6291456'
p3086
sS'CONFIG_PCI_IOV'
p3087
S'y'
sS'CONFIG_ATA_PIIX'
p3088
S'y'
sS'kernel.sched_domain.cpu20.domain1.flags'
p3089
I25647
sS'CONFIG_CRYPTO_GF128MUL'
p3090
S'y'
sS'kernel.sched_domain.cpu1.domain0.max_newidle_lb_cost'
p3091
I16462
sS'kernel.sched_domain.cpu10.domain1.cache_nice_tries'
p3092
I2
sS'kernel.sched_domain.cpu31.domain1.busy_idx'
p3093
I3
sS'CONFIG_SND_HDA_INPUT_BEEP'
p3094
S'y'
sS'fs.epoll.max_user_watches'
p3095
I13505269
sS'CONFIG_SERIAL_8250'
p3096
S'y'
sS'CONFIG_CRYPTO_BLKCIPHER'
p3097
S'y'
sS'net.ipv6.conf.default.temp_prefered_lft'
p3098
I86400
sS'kernel.sched_domain.cpu32.domain0.min_interval'
p3099
I10
sS'CONFIG_IP_NF_IPTABLES'
p3100
S'm'
sS'kernel.sched_domain.cpu8.domain1.flags'
p3101
I25647
sS'kernel.sched_domain.cpu1.domain1.cache_nice_tries'
p3102
I2
sS'kernel.sched_domain.cpu17.domain1.busy_idx'
p3103
I3
sS'kernel.sched_domain.cpu36.domain0.wake_idx'
p3104
I0
sS'CONFIG_SND_X86'
p3105
S'y'
sS'kernel.sched_domain.cpu37.domain0.wake_idx'
p3106
I0
sS'kernel.sched_domain.cpu29.domain0.flags'
p3107
I4143
sS'kernel.pty.nr'
p3108
I0
sS'kernel.sched_domain.cpu29.domain1.newidle_idx'
p3109
I0
sS'net.ipv6.conf.lo.accept_dad'
p3110
S'-1'
p3111
sS'net.ipv6.conf.ens3.router_solicitation_delay'
p3112
I1
sS'net.ipv6.conf.lo.mldv1_unsolicited_report_interval'
p3113
I10000
sS'kernel.sched_domain.cpu32.domain0.busy_idx'
p3114
I2
sS'net.ipv6.conf.ens3.router_solicitation_max_interval'
p3115
I3600
sS'kernel.sched_domain.cpu38.domain0.cache_nice_tries'
p3116
I1
sS'net.ipv4.tcp_base_mss'
p3117
I1024
sS'CONFIG_HAVE_PERF_EVENTS_NMI'
p3118
S'y'
sS'CONFIG_ASYMMETRIC_KEY_TYPE'
p3119
S'y'
sS'CONFIG_MFD_WM8350'
p3120
S'y'
sS'net.ipv6.conf.all.accept_ra_mtu'
p3121
I1
sS'kernel.sched_domain.cpu10.domain1.name'
p3122
S'NUMA'
p3123
sS'kernel.sched_domain.cpu37.domain0.max_interval'
p3124
I20
sS'kernel.sched_domain.cpu9.domain0.max_interval'
p3125
I20
sS'CONFIG_FS_DAX'
p3126
S'y'
sS'net.ipv4.conf.default.bootp_relay'
p3127
I0
sS'kernel.sched_domain.cpu21.domain0.min_interval'
p3128
I10
sS'CONFIG_COREDUMP'
p3129
S'y'
sS'CONFIG_MFD_TPS65912'
p3130
S'y'
sS'kernel.sched_domain.cpu13.domain0.newidle_idx'
p3131
I0
sS'net.ipv6.neigh.lo.ucast_solicit'
p3132
I3
sS'kernel.sched_domain.cpu16.domain1.idle_idx'
p3133
I2
sS'kernel.core_uses_pid'
p3134
I0
sS'net.ipv6.conf.lo.drop_unicast_in_l2_multicast'
p3135
I0
sS'CONFIG_NET_FC'
p3136
S'y'
sS'net.ipv6.conf.default.router_solicitation_delay'
p3137
I1
sS'kernel.sched_domain.cpu24.domain1.imbalance_pct'
p3138
I125
sS'CONFIG_PCI_LOCKLESS_CONFIG'
p3139
S'y'
sS'CONFIG_UEVENT_HELPER_PATH'
p3140
S'""'
p3141
sS'net.ipv6.neigh.ens3.anycast_delay'
p3142
I100
sS'net.ipv6.neigh.default.proxy_qlen'
p3143
I64
sS'net.ipv4.conf.lo.drop_gratuitous_arp'
p3144
I0
sS'kernel.sched_domain.cpu4.domain1.newidle_idx'
p3145
I0
sS'net.ipv6.conf.ens3.mldv1_unsolicited_report_interval'
p3146
I10000
sS'net.ipv4.conf.lo.ignore_routes_with_linkdown'
p3147
I0
sS'CONFIG_NET_CORE'
p3148
S'y'
sS'kernel.panic_on_unrecovered_nmi'
p3149
I0
sS'kernel.sched_domain.cpu38.domain1.idle_idx'
p3150
I2
sS'net.ipv6.conf.default.keep_addr_on_down'
p3151
I0
sS'kernel.sched_domain.cpu4.domain0.max_newidle_lb_cost'
p3152
I26963
sS'kernel.sched_domain.cpu37.domain0.name'
p3153
S'DIE'
p3154
sS'kernel.sched_domain.cpu26.domain1.forkexec_idx'
p3155
I0
sS'kernel.sched_domain.cpu35.domain0.forkexec_idx'
p3156
I0
sS'CONFIG_NOP_TRACER'
p3157
S'y'
sS'CONFIG_FUNCTION_TRACER'
p3158
S'y'
sS'CONFIG_CPU_FREQ_STAT'
p3159
S'y'
sS'net.ipv4.neigh.ens3.locktime'
p3160
I100
sS'net.ipv4.ipfrag_high_thresh'
p3161
I4194304
sS'net.ipv4.tcp_fwmark_accept'
p3162
I0
sS'net.ipv6.neigh.lo.unres_qlen_bytes'
p3163
I212992
sS'CONFIG_POSIX_TIMERS'
p3164
S'y'
sS'CONFIG_LWTUNNEL_BPF'
p3165
S'y'
sS'kernel.sched_domain.cpu12.domain1.cache_nice_tries'
p3166
I2
sS'net.ipv4.conf.default.disable_xfrm'
p3167
I0
sS'kernel.sched_domain.cpu13.domain0.imbalance_pct'
p3168
I125
sS'CONFIG_PHYSICAL_START'
p3169
S'0x1000000'
p3170
sS'CONFIG_COMPAT_OLD_SIGACTION'
p3171
S'y'
sS'net.ipv6.conf.lo.router_probe_interval'
p3172
I60
sS'kernel.sched_domain.cpu33.domain0.flags'
p3173
I4143
sS'kernel.sched_domain.cpu23.domain1.busy_idx'
p3174
I3
sS'net.ipv6.conf.ens3.max_addresses'
p3175
I16
sS'CONFIG_PSTORE'
p3176
S'y'
sS'CONFIG_USER_STACKTRACE_SUPPORT'
p3177
S'y'
sS'net.ipv4.conf.all.accept_source_route'
p3178
I0
sS'CONFIG_I2C'
p3179
S'y'
sS'CONFIG_X86_PAT'
p3180
S'y'
sS'CONFIG_GENERIC_HWEIGHT'
p3181
S'y'
sS'kernel.sched_domain.cpu6.domain0.max_interval'
p3182
I20
sS'CONFIG_X86_CHECK_BIOS_CORRUPTION'
p3183
S'y'
sS'kernel.sched_domain.cpu24.domain1.wake_idx'
p3184
I0
sS'CONFIG_ARCH_HAS_SG_CHAIN'
p3185
S'y'
sS'CONFIG_ARCH_SUPPORTS_ATOMIC_RMW'
p3186
S'y'
sS'kernel.sched_domain.cpu26.domain0.max_newidle_lb_cost'
p3187
I17228
sS'kernel.sched_domain.cpu39.domain0.busy_factor'
p3188
I32
sS'net.ipv4.tcp_l3mdev_accept'
p3189
I0
sS'CONFIG_RT_MUTEXES'
p3190
S'y'
sS'net.core.rmem_default'
p3191
I212992
sS'vm.min_unmapped_ratio'
p3192
I1
sS'CONFIG_RFKILL_LEDS'
p3193
S'y'
sS'CONFIG_ARCH_USES_HIGH_VMA_FLAGS'
p3194
S'y'
sS'kernel.sched_domain.cpu30.domain0.name'
p3195
S'DIE'
p3196
sS'net.ipv4.conf.lo.drop_unicast_in_l2_multicast'
p3197
I0
sS'CONFIG_THIN_ARCHIVES'
p3198
S'y'
sS'kernel.sched_domain.cpu24.domain1.name'
p3199
S'NUMA'
p3200
sS'net.ipv6.conf.all.regen_max_retry'
p3201
I3
sS'net.ipv6.conf.all.accept_ra_defrtr'
p3202
I1
sS'kernel.numa_balancing_scan_delay_ms'
p3203
I1000
sS'net.ipv4.conf.all.arp_notify'
p3204
I0
sS'CONFIG_ARCH_DISCARD_MEMBLOCK'
p3205
S'y'
sS'CONFIG_VIRTIO_PCI'
p3206
S'y'
sS'kernel.kexec_load_disabled'
p3207
I0
sS'kernel.sched_domain.cpu0.domain1.busy_idx'
p3208
I3
sS'CONFIG_LEDS_TRIGGERS'
p3209
S'y'
sS'CONFIG_X86_64'
p3210
S'y'
sS'net.ipv6.conf.default.suppress_frag_ndisc'
p3211
I1
sS'CONFIG_CRYPTO_MANAGER2'
p3212
S'y'
sS'CONFIG_USB_ARCH_HAS_HCD'
p3213
S'y'
sS'fs.file-nr'
p3214
S'1960\t0\t6578986'
p3215
sS'CONFIG_OPROFILE_NMI_TIMER'
p3216
S'y'
sS'fs.quota.cache_hits'
p3217
I0
sS'CONFIG_X86_SMAP'
p3218
S'y'
sS'CONFIG_PANIC_TIMEOUT'
p3219
I0
sS'CONFIG_SLUB_CPU_PARTIAL'
p3220
S'y'
sS'kernel.sched_domain.cpu10.domain0.max_interval'
p3221
I20
sS'CONFIG_HAVE_MEMBLOCK_NODE_MAP'
p3222
S'y'
sS'kernel.sched_domain.cpu27.domain1.wake_idx'
p3223
I0
sS'CONFIG_CRYPTO_AEAD'
p3224
S'y'
sS'kernel.sched_domain.cpu34.domain1.idle_idx'
p3225
I2
sS'kernel.sched_domain.cpu38.domain1.newidle_idx'
p3226
I0
sS'kernel.sched_domain.cpu12.domain0.newidle_idx'
p3227
I0
sS'CONFIG_ARCH_MAY_HAVE_PC_FDC'
p3228
S'y'
sS'kernel.sched_domain.cpu23.domain1.name'
p3229
S'NUMA'
p3230
sS'net.ipv6.neigh.default.mcast_resolicit'
p3231
I0
sS'kernel.tainted'
p3232
I0
sS'kernel.sched_domain.cpu22.domain0.newidle_idx'
p3233
I0
sS'CONFIG_REGULATOR_TPS65217'
p3234
S'y'
sS'CONFIG_HIBERNATE_CALLBACKS'
p3235
S'y'
sS'CONFIG_CLKBLD_I8253'
p3236
S'y'
sS'CONFIG_IPV6_SUBTREES'
p3237
S'y'
sS'kernel.sched_domain.cpu4.domain0.wake_idx'
p3238
I0
sS'kernel.sched_latency_ns'
p3239
I24000000
sS'kernel.sched_domain.cpu13.domain0.min_interval'
p3240
I10
sS'CONFIG_NAMESPACES'
p3241
S'y'
sS'CONFIG_BPF_JIT'
p3242
S'y'
sS'CONFIG_DEFAULT_CUBIC'
p3243
S'y'
sS'kernel.sched_domain.cpu29.domain1.max_interval'
p3244
I80
sS'kernel.numa_balancing'
p3245
I1
sS'kernel.hardlockup_panic'
p3246
I0
sS'CONFIG_MFD_TPS65912_SPI'
p3247
S'y'
sS'CONFIG_PROC_CHILDREN'
p3248
S'y'
sS'CONFIG_PHYS_ADDR_T_64BIT'
p3249
S'y'
sS'CONFIG_HPET_TIMER'
p3250
S'y'
sS'net.ipv6.conf.all.accept_ra_rt_info_min_plen'
p3251
I0
sS'CONFIG_GENERIC_PENDING_IRQ'
p3252
S'y'
sS'net.ipv4.neigh.ens3.ucast_solicit'
p3253
I3
sS'CONFIG_KDB_CONTINUE_CATASTROPHIC'
p3254
I0
sS'kernel.sched_domain.cpu34.domain1.newidle_idx'
p3255
I0
sS'CONFIG_FB_BOOT_VESA_SUPPORT'
p3256
S'y'
sS'kernel.perf_event_max_contexts_per_stack'
p3257
I8
sS'CONFIG_DYNAMIC_FTRACE'
p3258
S'y'
sS'net.ipv6.conf.ens3.dad_transmits'
p3259
I1
sS'kernel.sched_domain.cpu10.domain0.flags'
p3260
I4143
sS'net.ipv6.conf.lo.mtu'
p3261
I65536
sS'net.ipv6.conf.all.disable_ipv6'
p3262
I0
sS'net.ipv6.conf.ens3.router_solicitations'
p3263
S'-1'
p3264
sS'kernel.sched_domain.cpu29.domain1.forkexec_idx'
p3265
I0
sS'net.ipv6.conf.lo.keep_addr_on_down'
p3266
I0
sS'CONFIG_USB_EHCI_PCI'
p3267
S'y'
sS'CONFIG_KVM_ASYNC_PF'
p3268
S'y'
sS'net.ipv6.ip6frag_time'
p3269
I60
sS'CONFIG_EFIVAR_FS'
p3270
S'y'
sS'fs.aio-max-nr'
p3271
I65536
sS'CONFIG_ARCH_SUPPORTS_INT128'
p3272
S'y'
sS'kernel.sched_domain.cpu33.domain0.imbalance_pct'
p3273
I125
sS'kernel.sched_domain.cpu7.domain1.name'
p3274
S'NUMA'
p3275
sS'CONFIG_SECURITY'
p3276
S'y'
sS'CONFIG_SPI'
p3277
S'y'
sS'net.ipv4.tcp_orphan_retries'
p3278
I0
sS'net.ipv4.tcp_fin_timeout'
p3279
I60
sS'CONFIG_IDLE_PAGE_TRACKING'
p3280
S'y'
sS'CONFIG_CRYPTO_CRYPTD'
p3281
S'm'
sS'CONFIG_DEVPORT'
p3282
S'y'
sS'kernel.sched_domain.cpu21.domain1.busy_idx'
p3283
I3
sS'CONFIG_MODULE_SIG'
p3284
S'y'
sS'kernel.sched_domain.cpu28.domain1.imbalance_pct'
p3285
I125
sS'CONFIG_ARCH_PROC_KCORE_TEXT'
p3286
S'y'
sS'CONFIG_SPARSEMEM_VMEMMAP_ENABLE'
p3287
S'y'
sS'net.ipv4.tcp_recovery'
p3288
I1
sS'kernel.sched_domain.cpu24.domain0.busy_factor'
p3289
I32
sS'CONFIG_NET_CADENCE'
p3290
S'y'
sS'kernel.sched_domain.cpu9.domain1.busy_factor'
p3291
I32
sS'kernel.sched_domain.cpu25.domain1.min_interval'
p3292
I40
sS'kernel.sched_domain.cpu12.domain0.max_newidle_lb_cost'
p3293
I11779
sS'kernel.sched_domain.cpu39.domain0.forkexec_idx'
p3294
I0
sS'net.ipv4.tcp_autocorking'
p3295
I1
sS'net.ipv6.conf.ens3.forwarding'
p3296
I0
sS'CONFIG_NET_VENDOR_MYRI'
p3297
S'y'
sS'CONFIG_ARCH_SUPPORTS_NUMA_BALANCING'
p3298
S'y'
sS'kernel.sched_domain.cpu24.domain0.flags'
p3299
I4143
sS'net.ipv4.neigh.ens3.anycast_delay'
p3300
I100
sS'CONFIG_SND_PCM'
p3301
S'm'
sS'net.ipv6.conf.default.mldv1_unsolicited_report_interval'
p3302
I10000
sS'kernel.sched_domain.cpu29.domain0.idle_idx'
p3303
I1
sS'net.core.message_cost'
p3304
I5
sS'CONFIG_ARCH_HAS_STRICT_KERNEL_RWX'
p3305
S'y'
sS'kernel.sched_domain.cpu39.domain1.name'
p3306
S'NUMA'
p3307
sS'CONFIG_TWL6040_CORE'
p3308
S'y'
sS'net.ipv4.tcp_sack'
p3309
I1
sS'CONFIG_BLK_DEV_MD'
p3310
S'y'
sS'kernel.panic_on_rcu_stall'
p3311
I0
sS'net.ipv6.conf.ens3.mtu'
p3312
I1500
sS'CONFIG_IOMMU_HELPER'
p3313
S'y'
sS'kernel.ns_last_pid'
p3314
I20361
sS'kernel.sched_domain.cpu29.domain0.forkexec_idx'
p3315
I0
sS'kernel.sched_domain.cpu31.domain1.wake_idx'
p3316
I0
sS'CONFIG_RWSEM_XCHGADD_ALGORITHM'
p3317
S'y'
sS'CONFIG_HAVE_KERNEL_GZIP'
p3318
S'y'
sS'CONFIG_MEGARAID_NEWGEN'
p3319
S'y'
sS'vm.overcommit_ratio'
p3320
I50
sS'CONFIG_MFD_TPS65217'
p3321
S'y'
sS'kernel.sched_domain.cpu8.domain1.idle_idx'
p3322
I2
sS'kernel.sched_domain.cpu16.domain0.wake_idx'
p3323
I0
sS'CONFIG_ENCRYPTED_KEYS'
p3324
S'y'
sS'kernel.sched_domain.cpu11.domain0.name'
p3325
S'DIE'
p3326
sS'kernel.sched_domain.cpu34.domain0.max_interval'
p3327
I20
sS'net.ipv6.neigh.ens3.retrans_time_ms'
p3328
I1000
sS'CONFIG_ACPI_PROCESSOR_CSTATE'
p3329
S'y'
sS'CONFIG_BLK_DEBUG_FS'
p3330
S'y'
sS'CONFIG_IPV6_PIMSM_V2'
p3331
S'y'
sS'CONFIG_INITRAMFS_SOURCE'
p3332
S'""'
p3333
sS'kernel.sched_domain.cpu10.domain0.cache_nice_tries'
p3334
I1
sS'CONFIG_NET_VENDOR_TI'
p3335
S'y'
sS'CONFIG_HPET_MMAP_DEFAULT'
p3336
S'y'
sS'CONFIG_PROCESSOR_SELECT'
p3337
S'y'
sS'CONFIG_MQ_IOSCHED_KYBER'
p3338
S'y'
sS'user.max_cgroup_namespaces'
p3339
I257592
sS'dev.scsi.logging_level'
p3340
I0
sS'CONFIG_SLHC'
p3341
S'y'
sS'CONFIG_PREVENT_FIRMWARE_BUILD'
p3342
S'y'
sS'net.ipv4.conf.default.accept_redirects'
p3343
I1
sS'CONFIG_PWM_CRC'
p3344
S'y'
sS'CONFIG_ARCH_MMAP_RND_COMPAT_BITS_MIN'
p3345
I8
sS'kernel.hung_task_panic'
p3346
I0
sS'net.ipv4.tcp_retrans_collapse'
p3347
I1
sS'CONFIG_HAVE_KPROBES_ON_FTRACE'
p3348
S'y'
sS'fs.quota.writes'
p3349
I0
sS'CONFIG_ARCH_WANT_HUGE_PMD_SHARE'
p3350
S'y'
sS'kernel.sched_domain.cpu36.domain0.busy_idx'
p3351
I2
sS'CONFIG_PROC_VMCORE'
p3352
S'y'
sS'CONFIG_ARCH_MIGHT_HAVE_PC_PARPORT'
p3353
S'y'
sS'kernel.sched_domain.cpu7.domain0.wake_idx'
p3354
I0
sS'net.ipv6.conf.default.accept_ra_rt_info_max_plen'
p3355
I0
sS'CONFIG_ARCH_SUPPORTS_UPROBES'
p3356
S'y'
sS'CONFIG_FB_CFB_COPYAREA'
p3357
S'y'
sS'CONFIG_GENERIC_NET_UTILS'
p3358
S'y'
sS'CONFIG_SLAB_MERGE_DEFAULT'
p3359
S'y'
sS'kernel.sched_domain.cpu5.domain1.imbalance_pct'
p3360
I125
sS'CONFIG_MODULES'
p3361
S'y'
sS'CONFIG_PCI_DOMAINS'
p3362
S'y'
sS'CONFIG_HAVE_MMIOTRACE_SUPPORT'
p3363
S'y'
sS'CONFIG_WLAN_VENDOR_TI'
p3364
S'y'
sS'CONFIG_ARCH_CLOCKSOURCE_DATA'
p3365
S'y'
sS'kernel.sched_domain.cpu9.domain0.max_newidle_lb_cost'
p3366
I214167
sS'kernel.sched_domain.cpu39.domain1.busy_idx'
p3367
I3
sS'vm.dirty_background_bytes'
p3368
I0
sS'CONFIG_ARCH_SUSPEND_POSSIBLE'
p3369
S'y'
sS'kernel.hardlockup_all_cpu_backtrace'
p3370
I0
sS'kernel.sched_domain.cpu34.domain0.newidle_idx'
p3371
I0
sS'net.ipv6.conf.ens3.accept_source_route'
p3372
I0
sS'net.ipv6.conf.default.router_solicitation_max_interval'
p3373
I3600
sS'kernel.sched_domain.cpu31.domain1.forkexec_idx'
p3374
I0
sS'CONFIG_FRONTSWAP'
p3375
S'y'
sS'CONFIG_NET_VENDOR_EMULEX'
p3376
S'y'
sS'kernel.watchdog'
p3377
I1
sS'kernel.sched_domain.cpu19.domain1.cache_nice_tries'
p3378
I2
sS'CONFIG_HYPERVISOR_GUEST'
p3379
S'y'
sS'CONFIG_GART_IOMMU'
p3380
S'y'
sS'net.ipv6.conf.all.suppress_frag_ndisc'
p3381
I1
sS'kernel.sched_domain.cpu2.domain1.newidle_idx'
p3382
I0
sS'kernel.sched_domain.cpu19.domain1.imbalance_pct'
p3383
I125
sS'net.ipv6.conf.ens3.max_desync_factor'
p3384
I600
sS'net.ipv4.icmp_ratelimit'
p3385
I1000
sS'CONFIG_ALLOW_DEV_COREDUMP'
p3386
S'y'
sS'CONFIG_X86_PCC_CPUFREQ'
p3387
S'y'
sS'net.ipv4.neigh.lo.app_solicit'
p3388
I0
sS'CONFIG_ARCH_USES_PG_UNCACHED'
p3389
S'y'
sS'CONFIG_UEVENT_HELPER'
p3390
S'y'
sS'CONFIG_IMA_DEFAULT_HASH_SHA1'
p3391
S'y'
sS'kernel.sched_domain.cpu26.domain1.wake_idx'
p3392
I0
sS'net.ipv6.conf.all.use_oif_addrs_only'
p3393
I0
sS'kernel.sched_tunable_scaling'
p3394
I1
sS'CONFIG_RD_LZMA'
p3395
S'y'
sS'kernel.sched_domain.cpu11.domain0.wake_idx'
p3396
I0
sS'CONFIG_PCI_REALLOC_ENABLE_AUTO'
p3397
S'y'
sS'net.ipv6.conf.lo.mc_forwarding'
p3398
I0
sS'CONFIG_WLAN_VENDOR_ATH'
p3399
S'y'
sS'kernel.sched_domain.cpu32.domain1.busy_factor'
p3400
I32
sS'CONFIG_PM_ADVANCED_DEBUG'
p3401
S'y'
sS'kernel.bootloader_version'
p3402
I2
sS'kernel.sched_domain.cpu13.domain0.max_interval'
p3403
I20
sS'CONFIG_ARCH_MMAP_RND_COMPAT_BITS'
p3404
I8
sS'CONFIG_SND_HDA_INPUT_BEEP_MODE'
p3405
I0
sS'kernel.sched_domain.cpu26.domain0.newidle_idx'
p3406
I0
sS'net.ipv6.calipso_cache_enable'
p3407
I1
sS'fs.mount-max'
p3408
I100000
sS'net.ipv6.conf.all.force_tllao'
p3409
I0
sS'CONFIG_USERFAULTFD'
p3410
S'y'
sS'CONFIG_CHELSIO_T4'
p3411
S'm'
sS'kernel.sched_schedstats'
p3412
I0
sS'CONFIG_ACPI_BGRT'
p3413
S'y'
sS'net.ipv4.neigh.default.gc_thresh1'
p3414
I128
sS'net.ipv4.neigh.default.gc_thresh2'
p3415
I512
sS'net.ipv4.neigh.default.gc_thresh3'
p3416
I1024
sS'kernel.sched_domain.cpu31.domain0.min_interval'
p3417
I10
sS'kernel.sched_domain.cpu30.domain1.name'
p3418
S'NUMA'
p3419
sS'CONFIG_MOUSE_PS2_FOCALTECH'
p3420
S'y'
sS'net.ipv4.fwmark_reflect'
p3421
I0
sS'CONFIG_IMA'
p3422
S'y'
sS'CONFIG_CPU_IDLE_GOV_MENU'
p3423
S'y'
sS'vm.dirty_background_ratio'
p3424
I10
sS'kernel.sched_domain.cpu27.domain0.imbalance_pct'
p3425
I125
sS'CONFIG_SCHED_OMIT_FRAME_POINTER'
p3426
S'y'
sS'kernel.hostname'
p3427
S'nestedvm'
p3428
sS'CONFIG_PINCTRL_AMD'
p3429
S'y'
sS'CONFIG_PROC_EVENTS'
p3430
S'y'
sS'CONFIG_UIO'
p3431
S'm'
sS'net.ipv4.conf.ens3.drop_unicast_in_l2_multicast'
p3432
I0
sS'net.ipv4.conf.lo.proxy_arp_pvlan'
p3433
I0
sS'CONFIG_DDR'
p3434
S'y'
sS'net.ipv4.conf.lo.promote_secondaries'
p3435
I0
sS'CONFIG_SECTION_MISMATCH_WARN_ONLY'
p3436
S'y'
sS'CONFIG_SRAM'
p3437
S'y'
sS'CONFIG_ARCH_HAVE_NMI_SAFE_CMPXCHG'
p3438
S'y'
sS'vm.min_free_kbytes'
p3439
I225280
sS'kernel.sched_domain.cpu25.domain1.newidle_idx'
p3440
I0
sS'CONFIG_RING_BUFFER'
p3441
S'y'
sS'kernel.sched_domain.cpu21.domain1.max_interval'
p3442
I80
sS'net.ipv4.route.min_pmtu'
p3443
I552
sS'CONFIG_HAVE_ARCH_SOFT_DIRTY'
p3444
S'y'
sS'kernel.perf_cpu_time_max_percent'
p3445
I25
sS'kernel.sched_domain.cpu25.domain1.flags'
p3446
I25647
sS'CONFIG_UPROBE_EVENTS'
p3447
S'y'
sS'kernel.sched_domain.cpu10.domain0.min_interval'
p3448
I10
sS'CONFIG_PROC_KCORE'
p3449
S'y'
sS'vm.zone_reclaim_mode'
p3450
I0
sS'dev.raid.speed_limit_min'
p3451
I1000
sS'kernel.sched_domain.cpu36.domain0.forkexec_idx'
p3452
I0
sS'kernel.sched_domain.cpu8.domain1.max_newidle_lb_cost'
p3453
I10414
sS'CONFIG_SECURITY_TOMOYO_MAX_ACCEPT_ENTRY'
p3454
I2048
sS'net.ipv4.route.gc_min_interval'
p3455
I0
sS'CONFIG_MAGIC_SYSRQ_DEFAULT_ENABLE'
p3456
S'0x1'
p3457
sS'CONFIG_DEVTMPFS_MOUNT'
p3458
S'y'
sS'kernel.sched_domain.cpu16.domain1.busy_idx'
p3459
I3
sS'kernel.sched_domain.cpu4.domain1.wake_idx'
p3460
I0
sS'CONFIG_USB_DWC2'
p3461
S'y'
sS'kernel.sched_domain.cpu15.domain0.name'
p3462
S'DIE'
p3463
sS'kernel.sched_domain.cpu18.domain1.cache_nice_tries'
p3464
I2
sS'net.ipv4.fib_multipath_use_neigh'
p3465
I0
sS'net.ipv4.icmp_msgs_per_sec'
p3466
I1000
sS'kernel.sched_domain.cpu15.domain0.idle_idx'
p3467
I1
sS'net.ipv4.tcp_retries1'
p3468
I3
sS'net.ipv4.tcp_retries2'
p3469
I15
sS'CONFIG_SECURITY_APPARMOR_HASH'
p3470
S'y'
sS'CONFIG_PGTABLE_LEVELS'
p3471
I4
sS'kernel.sched_domain.cpu26.domain1.imbalance_pct'
p3472
I125
sS'kernel.sched_domain.cpu39.domain1.min_interval'
p3473
I40
sS'CONFIG_KRETPROBES'
p3474
S'y'
sS'CONFIG_NET_VENDOR_ALACRITECH'
p3475
S'y'
sS'CONFIG_KPROBES_ON_FTRACE'
p3476
S'y'
sS'kernel.sched_domain.cpu5.domain1.idle_idx'
p3477
I2
sS'CONFIG_ARCH_MEMORY_PROBE'
p3478
S'y'
sS'CONFIG_GPIO_ACPI'
p3479
S'y'
sS'kernel.sched_domain.cpu34.domain0.busy_idx'
p3480
I2
sS'kernel.sched_domain.cpu25.domain0.imbalance_pct'
p3481
I125
sS'CONFIG_RELAY'
p3482
S'y'
sS'kernel.sched_domain.cpu29.domain1.min_interval'
p3483
I40
sS'kernel.sched_domain.cpu7.domain1.forkexec_idx'
p3484
I0
sS'kernel.sched_domain.cpu1.domain1.max_interval'
p3485
I80
sS'kernel.domainname'
p3486
S'(none)'
p3487
sS'dev.raid.speed_limit_max'
p3488
I200000
sS'CONFIG_FB_ASILIANT'
p3489
S'y'
sS'CONFIG_SYSV68_PARTITION'
p3490
S'y'
sS'CONFIG_HAVE_FTRACE_MCOUNT_RECORD'
p3491
S'y'
sS'CONFIG_XZ_DEC_ARMTHUMB'
p3492
S'y'
sS'CONFIG_VGA_ARB'
p3493
S'y'
sS'CONFIG_INTEGRITY_TRUSTED_KEYRING'
p3494
S'y'
sS'CONFIG_HW_CONSOLE'
p3495
S'y'
sS'CONFIG_MFD_TPS65910'
p3496
S'y'
sS'net.ipv4.igmp_max_msf'
p3497
I10
sS'vm.percpu_pagelist_fraction'
p3498
I0
sS'net.ipv4.conf.all.disable_xfrm'
p3499
I0
sS'kernel.sched_domain.cpu29.domain0.imbalance_pct'
p3500
I125
sS'CONFIG_PM_SLEEP_DEBUG'
p3501
S'y'
sS'CONFIG_INLINE_WRITE_UNLOCK_IRQ'
p3502
S'y'
sS'CONFIG_NET_VENDOR_RDC'
p3503
S'y'
sS'CONFIG_MFD_MAX8925'
p3504
S'y'
sS'CONFIG_XZ_DEC_X86'
p3505
S'y'
sS'kernel.sched_domain.cpu30.domain0.wake_idx'
p3506
I0
sS'CONFIG_X86_X32'
p3507
S'y'
sS'kernel.sched_domain.cpu37.domain0.max_newidle_lb_cost'
p3508
I111028
sS'kernel.msg_next_id'
p3509
S'-1'
p3510
sS'net.ipv4.tcp_allowed_congestion_control'
p3511
S'cubic reno'
p3512
sS'kernel.sched_wakeup_granularity_ns'
p3513
I4000000
sS'net.ipv4.neigh.ens3.mcast_resolicit'
p3514
I0
sS'net.ipv6.conf.lo.disable_policy'
p3515
I0
sS'net.ipv6.conf.lo.addr_gen_mode'
p3516
I0
sS'CONFIG_X86_SPEEDSTEP_CENTRINO'
p3517
S'y'
sS'net.ipv4.route.gc_elasticity'
p3518
I8
sS'kernel.sched_domain.cpu28.domain0.wake_idx'
p3519
I0
sS'CONFIG_HAVE_PCSPKR_PLATFORM'
p3520
S'y'
sS'kernel.sched_domain.cpu23.domain0.max_interval'
p3521
I20
sS'kernel.sched_domain.cpu36.domain1.idle_idx'
p3522
I2
sS'net.ipv4.tcp_syncookies'
p3523
I1
sS'kernel.sched_domain.cpu37.domain0.idle_idx'
p3524
I1
sS'CONFIG_ARCH_WANTS_THP_SWAP'
p3525
S'y'
sS'kernel.sched_domain.cpu24.domain1.cache_nice_tries'
p3526
I2
sS'net.ipv6.neigh.lo.mcast_solicit'
p3527
I3
sS'CONFIG_IO_DELAY_TYPE_NONE'
p3528
I3
sS'net.ipv4.tcp_slow_start_after_idle'
p3529
I1
sS'kernel.sched_domain.cpu25.domain0.min_interval'
p3530
I10
sS'CONFIG_EARLY_PRINTK_EFI'
p3531
S'y'
sS'CONFIG_PROBE_EVENTS'
p3532
S'y'
sS'CONFIG_WLAN_VENDOR_CISCO'
p3533
S'y'
sS'CONFIG_USB_DWC2_HOST'
p3534
S'y'
sS'kernel.sched_domain.cpu27.domain0.idle_idx'
p3535
I1
sS'kernel.sched_domain.cpu30.domain0.forkexec_idx'
p3536
I0
sS'CONFIG_FRAMEBUFFER_CONSOLE_ROTATION'
p3537
S'y'
sS'kernel.sched_domain.cpu34.domain0.forkexec_idx'
p3538
I0
sS'kernel.sched_domain.cpu1.domain1.idle_idx'
p3539
I2
sS'kernel.sched_domain.cpu14.domain0.newidle_idx'
p3540
I0
sS'net.core.tstamp_allow_data'
p3541
I1
sS'kernel.sched_domain.cpu18.domain0.wake_idx'
p3542
I0
sS'kernel.sched_domain.cpu0.domain1.wake_idx'
p3543
I0
sS'CONFIG_LOCALVERSION'
p3544
S'""'
p3545
sS'CONFIG_PWM'
p3546
S'y'
sS'net.unix.max_dgram_qlen'
p3547
I512
sS'kernel.sched_domain.cpu10.domain1.forkexec_idx'
p3548
I0
sS'CONFIG_TTY_PRINTK'
p3549
S'y'
sS'kernel.ctrl-alt-del'
p3550
I0
sS'kernel.sched_domain.cpu2.domain1.max_newidle_lb_cost'
p3551
I75995
sS'net.ipv4.conf.default.rp_filter'
p3552
I1
sS'kernel.sched_domain.cpu3.domain0.imbalance_pct'
p3553
I125
sS'kernel.sched_domain.cpu15.domain1.max_interval'
p3554
I80
sS'CONFIG_CRC32_SLICEBY8'
p3555
S'y'
sS'kernel.sched_domain.cpu31.domain0.max_newidle_lb_cost'
p3556
I111966
sS'CONFIG_PINMUX'
p3557
S'y'
sS'net.ipv4.conf.lo.force_igmp_version'
p3558
I0
sS'CONFIG_INTEL_IOMMU_SVM'
p3559
S'y'
sS'kernel.sched_domain.cpu13.domain1.busy_idx'
p3560
I3
sS'CONFIG_TRACE_CLOCK'
p3561
S'y'
sS'kernel.sched_domain.cpu21.domain1.forkexec_idx'
p3562
I0
sS'net.ipv4.conf.all.send_redirects'
p3563
I1
sg10
g11
sS'kernel.sched_domain.cpu15.domain1.min_interval'
p3564
I40
sS'CONFIG_NET_VENDOR_CISCO'
p3565
S'y'
sS'CONFIG_BASE_FULL'
p3566
S'y'
sS'kernel.sched_domain.cpu32.domain1.newidle_idx'
p3567
I0
sS'CONFIG_STP'
p3568
S'm'
sS'net.ipv4.conf.all.rp_filter'
p3569
I1
sS'kernel.sched_domain.cpu4.domain1.imbalance_pct'
p3570
I125
sS'CONFIG_ATA'
p3571
S'y'
sS'CONFIG_EVM_ATTR_FSUUID'
p3572
S'y'
sS'CONFIG_CRYPTO_GLUE_HELPER_X86'
p3573
S'm'
sS'net.ipv4.ip_early_demux'
p3574
I1
sS'CONFIG_BOOTPARAM_HARDLOCKUP_PANIC_VALUE'
p3575
I0
sS'CONFIG_SYSTEM_EXTRA_CERTIFICATE'
p3576
S'y'
sS'kernel.sched_domain.cpu34.domain0.max_newidle_lb_cost'
p3577
I11749
sS'kernel.sched_domain.cpu5.domain1.busy_idx'
p3578
I3
sS'CONFIG_SYSTEM_TRUSTED_KEYS'
p3579
S'""'
p3580
sS'kernel.tracepoint_printk'
p3581
I0
sS'net.ipv6.conf.lo.router_solicitation_delay'
p3582
I1
sS'CONFIG_HOTPLUG_PCI'
p3583
S'y'
sS'kernel.sched_domain.cpu0.domain0.min_interval'
p3584
I10
sS'CONFIG_SERIAL_MAX310X'
p3585
S'y'
sS'kernel.sched_domain.cpu0.domain0.idle_idx'
p3586
I1
sS'CONFIG_PNPACPI'
p3587
S'y'
sS'CONFIG_EDAC'
p3588
S'y'
sS'CONFIG_INPUT_TOUCHSCREEN'
p3589
S'y'
sS'kernel.sched_domain.cpu35.domain1.max_newidle_lb_cost'
p3590
I49333
sS'vm.numa_zonelist_order'
p3591
S'Node'
p3592
sS'kernel.sched_domain.cpu11.domain0.cache_nice_tries'
p3593
I1
sS'CONFIG_FANOTIFY'
p3594
S'y'
sS'kernel.sched_domain.cpu12.domain1.min_interval'
p3595
I40
sS'vm.memory_failure_recovery'
p3596
I1
sS'CONFIG_ACPI_HED'
p3597
S'y'
sS'kernel.sched_domain.cpu25.domain1.busy_factor'
p3598
I32
sS'net.ipv6.neigh.lo.unres_qlen'
p3599
I101
sS'CONFIG_X86_AMD_PLATFORM_DEVICE'
p3600
S'y'
sS'kernel.sched_domain.cpu27.domain0.cache_nice_tries'
p3601
I1
sS'CONFIG_FONT_8x16'
p3602
S'y'
sS'net.ipv6.mld_max_msf'
p3603
I64
sS'net.ipv4.neigh.default.proxy_delay'
p3604
I80
sS'kernel.sched_domain.cpu14.domain1.imbalance_pct'
p3605
I125
sS'kernel.seccomp.actions_avail'
p3606
S'kill_process kill_thread trap errno trace log allow'
p3607
sS'CONFIG_USB_XHCI_PCI'
p3608
S'y'
sS'CONFIG_FUTEX_PI'
p3609
S'y'
sS'kernel.sched_domain.cpu34.domain1.cache_nice_tries'
p3610
I2
sS'kernel.numa_balancing_scan_period_min_ms'
p3611
I1000
sS'kernel.sched_domain.cpu18.domain0.flags'
p3612
I4143
sS'net.ipv4.tcp_early_retrans'
p3613
I3
sS'kernel.sched_domain.cpu17.domain0.busy_idx'
p3614
I2
sS'CONFIG_NET_VENDOR_SUN'
p3615
S'y'
sS'CONFIG_KERNEL_GZIP'
p3616
S'y'
sS'kernel.sched_domain.cpu13.domain0.max_newidle_lb_cost'
p3617
I12157
sS'net.ipv6.conf.default.ndisc_notify'
p3618
I0
sS'CONFIG_SOUND_OSS_CORE'
p3619
S'y'
sS'CONFIG_DEFAULT_SECURITY'
p3620
S'"apparmor"'
p3621
sS'kernel.sched_domain.cpu3.domain1.busy_idx'
p3622
I3
sS'net.ipv4.conf.ens3.route_localnet'
p3623
I0
sS'kernel.sched_domain.cpu25.domain1.cache_nice_tries'
p3624
I2
sS'net.ipv4.conf.default.igmpv3_unsolicited_report_interval'
p3625
I1000
sS'kernel.sched_domain.cpu9.domain1.wake_idx'
p3626
I0
sS'kernel.sched_domain.cpu33.domain1.imbalance_pct'
p3627
I125
sS'CONFIG_GDB_SCRIPTS'
p3628
S'y'
sS'net.core.warnings'
p3629
I0
sS'CONFIG_CC_OPTIMIZE_FOR_PERFORMANCE'
p3630
S'y'
sS'net.ipv6.conf.default.accept_source_route'
p3631
I0
sS'kernel.sched_domain.cpu7.domain1.busy_factor'
p3632
I32
sS'kernel.sched_domain.cpu15.domain0.wake_idx'
p3633
I0
sS'kernel.sched_domain.cpu13.domain1.flags'
p3634
I25647
sS'net.ipv6.conf.all.mc_forwarding'
p3635
I0
sS'net.ipv6.conf.lo.mldv2_unsolicited_report_interval'
p3636
I1000
sS'kernel.sched_domain.cpu30.domain0.cache_nice_tries'
p3637
I1
sS'net.ipv6.conf.default.drop_unsolicited_na'
p3638
I0
sS'kernel.sched_domain.cpu29.domain0.cache_nice_tries'
p3639
I1
sS'CONFIG_SECURITY_NETWORK'
p3640
S'y'
sS'kernel.sched_domain.cpu21.domain0.flags'
p3641
I4143
sS'CONFIG_TRACER_SNAPSHOT'
p3642
S'y'
sS'kernel.sched_domain.cpu36.domain1.newidle_idx'
p3643
I0
sS'net.ipv6.conf.all.router_solicitation_interval'
p3644
I4
sS'net.ipv6.neigh.lo.retrans_time_ms'
p3645
I1000
sS'vm.stat_interval'
p3646
I1
sS'CONFIG_CGROUP_CPUACCT'
p3647
S'y'
sS'CONFIG_INPUT_JOYSTICK'
p3648
S'y'
sS'kernel.sched_domain.cpu35.domain0.cache_nice_tries'
p3649
I1
sS'kernel.sched_domain.cpu38.domain0.min_interval'
p3650
I10
sS'net.ipv4.conf.all.igmpv2_unsolicited_report_interval'
p3651
I10000
sS'net.ipv4.conf.all.accept_local'
p3652
I0
sS'net.ipv4.conf.lo.disable_policy'
p3653
I1
sS'CONFIG_MAC_EMUMOUSEBTN'
p3654
S'm'
sS'CONFIG_DW_DMAC_CORE'
p3655
S'y'
sS'CONFIG_HIBERNATION'
p3656
S'y'
sS'net.ipv4.udp_mem'
p3657
S'1537185\t2049582\t3074370'
p3658
sS'CONFIG_IMA_APPRAISE'
p3659
S'y'
sS'kernel.sched_domain.cpu6.domain1.idle_idx'
p3660
I2
sS'CONFIG_I8253_LOCK'
p3661
S'y'
sS'CONFIG_SND_JACK_INPUT_DEV'
p3662
S'y'
sS'CONFIG_INPUT_MOUSE'
p3663
S'y'
sS'kernel.sched_domain.cpu30.domain1.min_interval'
p3664
I40
sS'kernel.sched_domain.cpu7.domain1.wake_idx'
p3665
I0
sS'kernel.sched_domain.cpu32.domain1.min_interval'
p3666
I40
sS'CONFIG_MFD_WM8350_I2C'
p3667
S'y'
sS'net.ipv6.neigh.default.delay_first_probe_time'
p3668
I5
sS'CONFIG_CRYPTO_MD5'
p3669
S'y'
sS'kernel.sched_domain.cpu3.domain0.name'
p3670
S'DIE'
p3671
sS'kernel.sched_domain.cpu14.domain1.flags'
p3672
I25647
sS'kernel.sched_domain.cpu24.domain1.busy_idx'
p3673
I3
sS'CONFIG_USB_SUPPORT'
p3674
S'y'
sS'CONFIG_IOSF_MBI_DEBUG'
p3675
S'y'
sS'fs.leases-enable'
p3676
I1
sS'kernel.sched_domain.cpu28.domain0.forkexec_idx'
p3677
I0
sS'net.ipv6.conf.all.temp_prefered_lft'
p3678
I86400
sS'CONFIG_GENERIC_IO'
p3679
S'y'
sS'kernel.sched_domain.cpu22.domain1.busy_factor'
p3680
I32
sS'CONFIG_64BIT'
p3681
S'y'
sS'CONFIG_HAVE_IRQ_TIME_ACCOUNTING'
p3682
S'y'
sS'kernel.sched_domain.cpu4.domain0.cache_nice_tries'
p3683
I1
sS'CONFIG_AUDIT_ARCH'
p3684
S'y'
sS'fs.aio-nr'
p3685
I0
sS'CONFIG_THERMAL_HWMON'
p3686
S'y'
sS'net.ipv4.route.max_size'
p3687
I2147483647
sS'kernel.watchdog_thresh'
p3688
I10
sS'CONFIG_HZ'
p3689
I250
sS'CONFIG_X86_DEBUG_FPU'
p3690
S'y'
sS'CONFIG_MPILIB'
p3691
S'y'
sS'CONFIG_INTEGRITY_AUDIT'
p3692
S'y'
sS'CONFIG_GPIO_SYSFS'
p3693
S'y'
sS'CONFIG_KEXEC_CORE'
p3694
S'y'
sS'kernel.sched_domain.cpu9.domain0.forkexec_idx'
p3695
I0
sS'kernel.sched_domain.cpu6.domain1.imbalance_pct'
p3696
I125
sS'CONFIG_EFI'
p3697
S'y'
sS'kernel.sched_domain.cpu22.domain1.wake_idx'
p3698
I0
sS'CONFIG_NET_VENDOR_SMSC'
p3699
S'y'
sS'kernel.sched_domain.cpu0.domain1.idle_idx'
p3700
I2
sS'net.ipv6.conf.all.accept_redirects'
p3701
I1
sS'CONFIG_KEYS'
p3702
S'y'
sS'kernel.sched_domain.cpu6.domain1.min_interval'
p3703
I40
sS'kernel.sched_domain.cpu2.domain1.min_interval'
p3704
I40
sS'CONFIG_KVM_VFIO'
p3705
S'y'
sS'kernel.sched_domain.cpu36.domain1.max_interval'
p3706
I80
sS'kernel.sched_domain.cpu1.domain0.imbalance_pct'
p3707
I125
sS'CONFIG_MEMORY_HOTREMOVE'
p3708
S'y'
sS'kernel.sched_domain.cpu34.domain0.wake_idx'
p3709
I0
sS'CONFIG_SECURITY_TOMOYO_POLICY_LOADER'
p3710
S'"/sbin/tomoyo-init"'
p3711
sS'CONFIG_BINFMT_ELF'
p3712
S'y'
sS'net.ipv4.tcp_rfc1337'
p3713
I0
sS'kernel.sysrq'
p3714
I176
sS'CONFIG_TASK_IO_ACCOUNTING'
p3715
S'y'
sS'kernel.sched_domain.cpu36.domain0.max_newidle_lb_cost'
p3716
I11534
sS'CONFIG_DOUBLEFAULT'
p3717
S'y'
sS'net.ipv6.conf.lo.router_solicitation_max_interval'
p3718
I3600
sa(dp3719
g10
g11
sS'fstype'
p3720
S'tmpfs-separate'
p3721
sg3
(lp3722
S'FileSystem'
p3723
ag6
ag14
aS'object'
p3724
asg8
S'FileSystem.host-192.168.123.30.fstype-tmpfs-separate'
p3725
sa(dp3726
S'topDir'
p3727
S'~/vm-scalability/bench/tmp/linux-3.18'
p3728
sS'excludes'
p3729
(lp3730
S'*/.git'
p3731
asg10
g11
sg3
(lp3732
S'PrefetchDir'
p3733
ag6
ag14
aS'object'
p3734
asg8
S'PrefetchDir.topDir-~/vm-scalability/bench/tmp/linux-3.18.host-192.168.123.30'
p3735
sa(dp3736
g8
S'SetCPUs.host-192.168.123.30'
p3737
sS'seq'
p3738
g3738
sg10
g11
sS'hotplug'
p3739
I01
sg3
(lp3740
S'SetCPUs'
p3741
ag6
ag14
aS'object'
p3742
asS'num'
p3743
I40
sa(dp3744
g10
g11
sg3
(lp3745
S'SystemMonitor'
p3746
ag6
ag14
aS'object'
p3747
asg8
S'SystemMonitor.host-192.168.123.30'
p3748
sa(dp3749
S'real'
p3750
F37.939999999999998
sS'time.iowait'
p3751
F0.089999999999999997
sg8
S'GmakeLoad.trial-0.host-192.168.123.30'
p3752
sS'time.real'
p3753
F37.939999999999998
sS'time.idle'
p3754
F430.75799999999998
sS'time.sys'
p3755
F145.49000000000001
sg3
(lp3756
S'GmakeLoad'
p3757
ag6
aS'ResultsProvider'
p3758
ag14
aS'object'
p3759
asS'objPath'
p3760
S'/tmp/mosbench/tmpfs-separate/0'
p3761
sS'units'
p3762
S'builds'
p3763
sg10
g11
sS'result'
p3764
F1
sS'srcPath'
p3765
g3728
sS'cores'
p3766
I40
sS'time.steal'
p3767
F0.46999999999999997
sS'time.irq'
p3768
F0
sS'time.softirq'
p3769
F0.68000000000000005
sS'time.nice'
p3770
F0
sS'unit'
p3771
S'build'
p3772
sS'time.user'
p3773
F941.35000000000002
sa.