(lp1
(dp2
S'classNames'
p3
(lp4
S'ResultPath'
p5
aS'Task'
p6
aS'object'
p7
asS'name'
p8
g5
sa(dp9
S'host'
p10
S'192.168.123.30'
p11
sg3
(lp12
S'Host'
p13
ag6
aS'SourceFileProvider'
p14
aS'object'
p15
asg8
S'Host.host-192.168.123.30'
p16
sa(dp17
S'CONFIG_USB_OHCI_HCD_PLATFORM'
p18
S'y'
sS'CONFIG_DEFAULT_IO_DELAY_TYPE'
p19
I1
sS'CONFIG_DNS_RESOLVER'
p20
S'y'
sS'net.ipv6.conf.lo.suppress_frag_ndisc'
p21
I1
sS'CONFIG_GENERIC_STRNCPY_FROM_USER'
p22
S'y'
sS'net.netfilter.nf_log_all_netns'
p23
I0
sS'kernel.sched_domain.cpu1.domain1.forkexec_idx'
p24
I0
sS'CONFIG_KVM_SCHEDACT'
p25
S'y'
sS'CONFIG_WLAN_VENDOR_RALINK'
p26
S'y'
sS'CONFIG_HAVE_DYNAMIC_FTRACE_WITH_REGS'
p27
S'y'
sS'kernel.sched_domain.cpu5.domain0.newidle_idx'
p28
I0
sS'net.ipv4.conf.all.tag'
p29
I0
sS'CONFIG_EVENT_TRACING'
p30
S'y'
sS'CONFIG_LIVEPATCH'
p31
S'y'
sS'CONFIG_LEDS_TRIGGER_CPU'
p32
S'y'
sS'CONFIG_PCIEPORTBUS'
p33
S'y'
sS'CONFIG_INIT_ENV_ARG_LIMIT'
p34
I32
sS'net.ipv6.conf.default.accept_ra_min_hop_limit'
p35
I1
sS'CONFIG_LEDS_CLASS'
p36
S'y'
sS'kernel.sched_domain.cpu2.domain0.newidle_idx'
p37
I0
sS'net.ipv4.neigh.default.proxy_qlen'
p38
I64
sS'CONFIG_PMC_ATOM'
p39
S'y'
sS'CONFIG_MANDATORY_FILE_LOCKING'
p40
S'y'
sS'fs.quota.free_dquots'
p41
I0
sS'CONFIG_PRINTK_NMI'
p42
S'y'
sS'CONFIG_NETDEVICES'
p43
S'y'
sS'CONFIG_HAVE_DYNAMIC_FTRACE'
p44
S'y'
sS'CONFIG_PINCTRL_SX150X'
p45
S'y'
sS'CONFIG_NET_SCHED'
p46
S'y'
sS'CONFIG_UNIXWARE_DISKLABEL'
p47
S'y'
sS'CONFIG_INLINE_WRITE_UNLOCK'
p48
S'y'
sS'CONFIG_ACPI_REV_OVERRIDE_POSSIBLE'
p49
S'y'
sS'CONFIG_HAVE_ARCH_AUDITSYSCALL'
p50
S'y'
sS'kernel.sched_domain.cpu11.domain0.flags'
p51
I4143
sS'CONFIG_NET_VENDOR_RENESAS'
p52
S'y'
sS'CONFIG_FIRMWARE_EDID'
p53
S'y'
sS'CONFIG_CGROUPS'
p54
S'y'
sS'net.ipv6.conf.ens3.regen_max_retry'
p55
I3
sS'net.ipv4.conf.lo.medium_id'
p56
I0
sS'CONFIG_DEFAULT_MMAP_MIN_ADDR'
p57
I65536
sS'CONFIG_AIO'
p58
S'y'
sS'CONFIG_X86_DEBUGCTLMSR'
p59
S'y'
sS'CONFIG_ARCH_HIBERNATION_HEADER'
p60
S'y'
sS'net.ipv4.tcp_synack_retries'
p61
I5
sS'CONFIG_SECURITY_YAMA'
p62
S'y'
sS'kernel.sched_domain.cpu18.domain0.idle_idx'
p63
I1
sS'CONFIG_CRYPTO_ECB'
p64
S'y'
sS'CONFIG_ACPI_HOTPLUG_MEMORY'
p65
S'y'
sS'net.ipv4.tcp_notsent_lowat'
p66
I4294967295
sS'kernel.sched_domain.cpu17.domain0.name'
p67
S'DIE'
p68
sS'CONFIG_FS_DAX_PMD'
p69
S'y'
sS'CONFIG_X86_LOCAL_APIC'
p70
S'y'
sS'CONFIG_GENERIC_SMP_IDLE_THREAD'
p71
S'y'
sS'kernel.sched_domain.cpu18.domain0.imbalance_pct'
p72
I125
sS'CONFIG_GENERIC_CLOCKEVENTS_MIN_ADJUST'
p73
S'y'
sS'net.ipv6.conf.all.disable_policy'
p74
I0
sS'CONFIG_TASK_XACCT'
p75
S'y'
sS'CONFIG_KEXEC_BZIMAGE_VERIFY_SIG'
p76
S'y'
sS'CONFIG_EVENTFD'
p77
S'y'
sS'CONFIG_FTRACE_MCOUNT_RECORD'
p78
S'y'
sS'CONFIG_HAVE_PERF_EVENTS'
p79
S'y'
sS'CONFIG_SND_HDA_CORE'
p80
S'm'
sS'CONFIG_ARCH_SUPPORTS_UPROBES'
p81
S'y'
sS'CONFIG_PACKET'
p82
S'y'
sS'kernel.sched_domain.cpu15.domain1.min_interval'
p83
I20
sS'kernel.sched_domain.cpu10.domain0.name'
p84
S'DIE'
p85
sS'net.ipv6.conf.all.router_solicitation_max_interval'
p86
I3600
sS'net.ipv4.neigh.lo.proxy_delay'
p87
I80
sS'CONFIG_PARPORT_PC'
p88
S'm'
sS'CONFIG_NLATTR'
p89
S'y'
sS'CONFIG_AGP'
p90
S'y'
sS'CONFIG_INPUT_JOYDEV'
p91
S'm'
sS'net.ipv6.conf.default.addr_gen_mode'
p92
I0
sS'net.ipv4.conf.ens3.igmpv2_unsolicited_report_interval'
p93
I10000
sS'CONFIG_INFINIBAND_ADDR_TRANS'
p94
S'y'
sS'CONFIG_CRYPTO_SHA512'
p95
S'y'
sS'CONFIG_WLAN_VENDOR_INTERSIL'
p96
S'y'
sS'net.ipv6.conf.ens3.use_oif_addrs_only'
p97
I0
sS'net.ipv6.conf.ens3.force_mld_version'
p98
I0
sS'CONFIG_INTEGRITY_ASYMMETRIC_KEYS'
p99
S'y'
sS'CONFIG_BLK_MQ_RDMA'
p100
S'y'
sS'CONFIG_FRAME_POINTER_UNWINDER'
p101
S'y'
sS'CONFIG_HAVE_IRQ_EXIT_ON_IRQ_STACK'
p102
S'y'
sS'CONFIG_CRYPTO_AES_NI_INTEL'
p103
S'm'
sS'CONFIG_MOUSE_PS2'
p104
S'm'
sS'CONFIG_EFI_PARTITION'
p105
S'y'
sS'kernel.sched_domain.cpu13.domain1.busy_factor'
p106
I32
sS'CONFIG_NODES_SPAN_OTHER_NODES'
p107
S'y'
sS'CONFIG_FUNCTION_GRAPH_TRACER'
p108
S'y'
sS'net.ipv6.conf.all.seg6_enabled'
p109
I0
sS'CONFIG_IPV6_MROUTE'
p110
S'y'
sS'kernel.sched_domain.cpu2.domain0.busy_idx'
p111
I2
sS'net.ipv4.conf.default.disable_policy'
p112
I0
sS'CONFIG_FHANDLE'
p113
S'y'
sS'CONFIG_HAVE_FUNCTION_GRAPH_TRACER'
p114
S'y'
sS'CONFIG_FS_IOMAP'
p115
S'y'
sS'kernel.sched_domain.cpu17.domain0.flags'
p116
I4143
sS'CONFIG_CRYPTO_ACOMP2'
p117
S'y'
sS'CONFIG_HAVE_KERNEL_LZMA'
p118
S'y'
sS'CONFIG_ARCH_HAS_DEBUG_VIRTUAL'
p119
S'y'
sS'net.ipv6.neigh.default.unres_qlen_bytes'
p120
I212992
sS'kernel.sem_next_id'
p121
S'-1'
p122
sS'kernel.random.write_wakeup_threshold'
p123
I896
sS'net.ipv6.conf.lo.use_oif_addrs_only'
p124
I0
sS'net.ipv6.conf.ens3.accept_ra_defrtr'
p125
I1
sS'kernel.sched_domain.cpu3.domain0.max_newidle_lb_cost'
p126
I94250
sS'net.ipv4.neigh.ens3.proxy_delay'
p127
I80
sS'net.ipv4.tcp_fastopen'
p128
I1
sS'CONFIG_CRYPTO_CRCT10DIF_PCLMUL'
p129
S'm'
sS'CONFIG_DEFAULT_IOSCHED'
p130
S'"deadline"'
p131
sS'CONFIG_FUSION_LOGGING'
p132
S'y'
sS'kernel.sched_domain.cpu13.domain1.wake_idx'
p133
I0
sS'CONFIG_NET_PACKET_ENGINE'
p134
S'y'
sS'CONFIG_DQL'
p135
S'y'
sS'net.ipv6.conf.lo.force_tllao'
p136
I0
sS'kernel.sched_domain.cpu7.domain1.busy_idx'
p137
I3
sS'CONFIG_IP_ADVANCED_ROUTER'
p138
S'y'
sS'CONFIG_SERIAL_SCCNXP_CONSOLE'
p139
S'y'
sS'kernel.sched_domain.cpu17.domain0.imbalance_pct'
p140
I125
sS'CONFIG_NOP_USB_XCEIV'
p141
S'y'
sS'kernel.sched_domain.cpu16.domain1.max_interval'
p142
I40
sS'kernel.print-fatal-signals'
p143
I0
sS'CONFIG_INET'
p144
S'y'
sS'net.ipv4.tcp_probe_interval'
p145
I600
sS'kernel.sched_domain.cpu10.domain0.max_newidle_lb_cost'
p146
I1564674
sS'CONFIG_EXTRA_FIRMWARE'
p147
S'""'
p148
sS'CONFIG_I2C_DESIGNWARE_CORE'
p149
S'y'
sS'net.ipv4.conf.lo.arp_accept'
p150
I0
sS'CONFIG_REGMAP_MMIO'
p151
S'y'
sS'kernel.sched_domain.cpu3.domain1.flags'
p152
I25647
sS'CONFIG_SND_HDA_POWER_SAVE_DEFAULT'
p153
I0
sS'kernel.sched_domain.cpu19.domain1.wake_idx'
p154
I0
sS'kernel.sched_domain.cpu0.domain0.cache_nice_tries'
p155
I1
sS'net.ipv6.conf.lo.forwarding'
p156
I0
sS'CONFIG_NET_VENDOR_SOLARFLARE'
p157
S'y'
sS'CONFIG_FIXED_PHY'
p158
S'y'
sS'net.ipv4.conf.default.shared_media'
p159
I1
sS'CONFIG_NET_VENDOR_TEHUTI'
p160
S'y'
sS'net.ipv6.conf.default.router_solicitations'
p161
S'-1'
p162
sS'CONFIG_MFD_DA9063'
p163
S'y'
sS'CONFIG_CRYPTO'
p164
S'y'
sS'CONFIG_WLAN_VENDOR_ZYDAS'
p165
S'y'
sS'net.ipv6.calipso_cache_enable'
p166
I1
sS'net.ipv6.mld_qrv'
p167
I2
sS'CONFIG_SND_HDA_PATCH_LOADER'
p168
S'y'
sS'net.ipv4.conf.all.disable_policy'
p169
I0
sS'kernel.sched_domain.cpu3.domain1.cache_nice_tries'
p170
I2
sS'CONFIG_PPP_FILTER'
p171
S'y'
sS'CONFIG_CPU_FREQ'
p172
S'y'
sS'net.core.netdev_tstamp_prequeue'
p173
I1
sS'kernel.sched_domain.cpu18.domain0.forkexec_idx'
p174
I0
sS'net.ipv6.conf.all.accept_dad'
p175
I1
sS'kernel.sched_domain.cpu15.domain1.busy_idx'
p176
I3
sS'CONFIG_DCB'
p177
S'y'
sS'kernel.sched_domain.cpu4.domain1.max_newidle_lb_cost'
p178
I1704593
sS'kernel.panic_on_oops'
p179
I0
sS'CONFIG_MEMORY_HOTPLUG'
p180
S'y'
sS'dev.cdrom.debug'
p181
I0
sS'CONFIG_SUSPEND'
p182
S'y'
sS'kernel.sched_domain.cpu15.domain0.forkexec_idx'
p183
I0
sS'kernel.sched_domain.cpu16.domain1.flags'
p184
I25647
sS'CONFIG_UNIX98_PTYS'
p185
S'y'
sS'CONFIG_MOUSE_PS2_SYNAPTICS'
p186
S'y'
sS'CONFIG_SECURITY_SELINUX'
p187
S'y'
sS'net.ipv6.conf.lo.max_addresses'
p188
I16
sS'CONFIG_PCI_PASID'
p189
S'y'
sS'CONFIG_SCSI_LOWLEVEL'
p190
S'y'
sS'CONFIG_GENERIC_MSI_IRQ'
p191
S'y'
sS'kernel.ngroups_max'
p192
I65536
sS'CONFIG_MTRR_SANITIZER'
p193
S'y'
sS'CONFIG_EXTCON'
p194
S'y'
sS'CONFIG_PM_DEVFREQ_EVENT'
p195
S'y'
sS'CONFIG_POWER_RESET_RESTART'
p196
S'y'
sS'kernel.max_lock_depth'
p197
I1024
sS'kernel.sched_domain.cpu5.domain1.flags'
p198
I25647
sS'CONFIG_ZPOOL'
p199
S'y'
sS'CONFIG_PATA_SIS'
p200
S'y'
sS'CONFIG_GENERIC_ALLOCATOR'
p201
S'y'
sS'kernel.sched_domain.cpu18.domain1.forkexec_idx'
p202
I0
sS'kernel.sched_domain.cpu0.domain1.max_interval'
p203
I40
sS'CONFIG_MESSAGE_LOGLEVEL_DEFAULT'
p204
I4
sS'CONFIG_ARCH_HAS_UACCESS_FLUSHCACHE'
p205
S'y'
sS'CONFIG_SYN_COOKIES'
p206
S'y'
sS'net.ipv6.conf.default.max_addresses'
p207
I16
sS'net.ipv4.inet_peer_maxttl'
p208
I600
sS'CONFIG_CGROUP_WRITEBACK'
p209
S'y'
sS'CONFIG_X86_ACPI_CPUFREQ'
p210
S'y'
sS'CONFIG_DUMMY_CONSOLE'
p211
S'y'
sS'kernel.sched_domain.cpu7.domain1.max_newidle_lb_cost'
p212
I272401
sS'CONFIG_RWSEM_SPIN_ON_OWNER'
p213
S'y'
sS'CONFIG_SECURITY_APPARMOR_BOOTPARAM_VALUE'
p214
I1
sS'vm.dirtytime_expire_seconds'
p215
I43200
sS'net.ipv4.tcp_challenge_ack_limit'
p216
I1000
sS'CONFIG_HOTPLUG_PCI_ACPI'
p217
S'y'
sS'CONFIG_KARMA_PARTITION'
p218
S'y'
sS'CONFIG_INFINIBAND_ISER'
p219
S'm'
sS'vm.min_slab_ratio'
p220
I5
sS'CONFIG_CLZ_TAB'
p221
S'y'
sS'CONFIG_MODIFY_LDT_SYSCALL'
p222
S'y'
sS'CONFIG_X86_THERMAL_VECTOR'
p223
S'y'
sS'CONFIG_RCU_CPU_STALL_TIMEOUT'
p224
I60
sS'CONFIG_BACKLIGHT_CLASS_DEVICE'
p225
S'y'
sS'CONFIG_BOOTPARAM_SOFTLOCKUP_PANIC_VALUE'
p226
I0
sS'CONFIG_PM_WAKELOCKS'
p227
S'y'
sS'CONFIG_GPIOLIB_IRQCHIP'
p228
S'y'
sS'vm.oom_kill_allocating_task'
p229
I0
sS'CONFIG_WLAN'
p230
S'y'
sS'CONFIG_BLK_DEV_INTEGRITY'
p231
S'y'
sS'kernel.sched_domain.cpu11.domain0.busy_idx'
p232
I2
sS'CONFIG_ARCH_HAS_HMM'
p233
S'y'
sS'CONFIG_SQUASHFS_FILE_DIRECT'
p234
S'y'
sS'CONFIG_NETWORK_FILESYSTEMS'
p235
S'y'
sS'CONFIG_SERIAL_8250_RSA'
p236
S'y'
sS'net.ipv4.tcp_min_tso_segs'
p237
I2
sS'CONFIG_SCHED_STACK_END_CHECK'
p238
S'y'
sS'CONFIG_LEGACY_VSYSCALL_EMULATE'
p239
S'y'
sS'CONFIG_POWERCAP'
p240
S'y'
sS'CONFIG_UNUSED_SYMBOLS'
p241
S'y'
sS'CONFIG_PM_WAKELOCKS_LIMIT'
p242
I100
sS'kernel.sched_domain.cpu15.domain1.max_newidle_lb_cost'
p243
I134267
sS'CONFIG_INTEGRITY'
p244
S'y'
sS'kernel.sched_domain.cpu6.domain1.cache_nice_tries'
p245
I2
sS'fs.mqueue.msg_default'
p246
I10
sS'CONFIG_MD_LINEAR'
p247
S'm'
sS'net.ipv4.tcp_max_orphans'
p248
I262144
sS'kernel.sched_domain.cpu6.domain1.flags'
p249
I25647
sS'kernel.sched_domain.cpu15.domain1.cache_nice_tries'
p250
I2
sS'CONFIG_MFD_MAX77843'
p251
S'y'
sS'CONFIG_CONSOLE_TRANSLATIONS'
p252
S'y'
sS'CONFIG_SLABINFO'
p253
S'y'
sS'kernel.perf_event_max_stack'
p254
I127
sS'CONFIG_PCI'
p255
S'y'
sS'CONFIG_GENERIC_MSI_IRQ_DOMAIN'
p256
S'y'
sS'kernel.sched_domain.cpu4.domain0.name'
p257
S'DIE'
p258
sS'CONFIG_SYSTEM_BLACKLIST_KEYRING'
p259
S'y'
sS'kernel.sched_domain.cpu6.domain0.wake_idx'
p260
I0
sS'CONFIG_IP_ROUTE_MULTIPATH'
p261
S'y'
sS'CONFIG_SCHED_SMT'
p262
S'y'
sS'net.ipv4.tcp_adv_win_scale'
p263
I1
sS'CONFIG_INTEL_IDLE'
p264
S'y'
sS'CONFIG_ASYNC_CORE'
p265
S'm'
sS'net.ipv4.udp_rmem_min'
p266
I4096
sS'CONFIG_FIRMWARE_IN_KERNEL'
p267
S'y'
sS'CONFIG_IP6_NF_FILTER'
p268
S'm'
sS'CONFIG_GPIO_TPS65910'
p269
S'y'
sS'CONFIG_CRC_CCITT'
p270
S'y'
sS'CONFIG_PERSISTENT_KEYRINGS'
p271
S'y'
sS'CONFIG_MOUSE_PS2_LIFEBOOK'
p272
S'y'
sS'CONFIG_ARCH_WANT_COMPAT_IPC_PARSE_VERSION'
p273
S'y'
sS'kernel.sched_domain.cpu11.domain1.imbalance_pct'
p274
I125
sS'net.ipv6.neigh.lo.gc_stale_time'
p275
I60
sS'kernel.sched_domain.cpu7.domain1.min_interval'
p276
I20
sS'CONFIG_ACPI_CPPC_LIB'
p277
S'y'
sS'CONFIG_ASYNC_RAID6_RECOV'
p278
S'm'
sS'net.ipv6.conf.default.ignore_routes_with_linkdown'
p279
I0
sS'kernel.sched_domain.cpu8.domain1.imbalance_pct'
p280
I125
sS'CONFIG_BLK_DEV_SR'
p281
S'y'
sS'kernel.sched_domain.cpu10.domain1.imbalance_pct'
p282
I125
sS'net.ipv6.conf.lo.accept_ra_from_local'
p283
I0
sS'CONFIG_EXPORTFS'
p284
S'y'
sS'CONFIG_CRYPTO_CRC32_PCLMUL'
p285
S'm'
sS'CONFIG_INPUT'
p286
S'y'
sS'CONFIG_THERMAL_DEFAULT_GOV_STEP_WISE'
p287
S'y'
sS'fs.suid_dumpable'
p288
I2
sS'kernel.sched_domain.cpu10.domain1.flags'
p289
I25647
sS'CONFIG_SERIAL_8250_DMA'
p290
S'y'
sS'kernel.sched_domain.cpu8.domain0.busy_factor'
p291
I32
sS'CONFIG_SCHED_AUTOGROUP'
p292
S'y'
sS'kernel.sched_domain.cpu6.domain1.max_interval'
p293
I40
sS'net.core.optmem_max'
p294
I20480
sS'user.max_inotify_watches'
p295
I8192
sS'vm.nr_overcommit_hugepages'
p296
I0
sS'net.ipv6.conf.default.accept_ra_defrtr'
p297
I1
sS'net.ipv6.conf.default.accept_ra_rt_info_min_plen'
p298
I0
sS'kernel.sched_domain.cpu7.domain0.flags'
p299
I4143
sS'CONFIG_DEBUG_INFO_DWARF4'
p300
S'y'
sS'CONFIG_NET_EMATCH'
p301
S'y'
sS'kernel.sched_domain.cpu16.domain1.cache_nice_tries'
p302
I2
sS'CONFIG_CPU_SUP_CENTAUR'
p303
S'y'
sS'kernel.sched_domain.cpu3.domain0.cache_nice_tries'
p304
I1
sS'net.core.message_burst'
p305
I10
sS'CONFIG_SERIAL_NONSTANDARD'
p306
S'y'
sS'kernel.sched_domain.cpu14.domain0.idle_idx'
p307
I1
sS'user.max_uts_namespaces'
p308
I257592
sS'net.ipv6.route.gc_interval'
p309
I30
sS'CONFIG_TRACER_MAX_TRACE'
p310
S'y'
sS'CONFIG_VIRT_DRIVERS'
p311
S'y'
sS'net.ipv6.bindv6only'
p312
I0
sS'CONFIG_PARPORT'
p313
S'm'
sS'net.ipv6.conf.ens3.accept_ra_rtr_pref'
p314
I1
sS'CONFIG_SUN_PARTITION'
p315
S'y'
sS'net.ipv4.conf.all.drop_gratuitous_arp'
p316
I0
sS'CONFIG_PINCTRL'
p317
S'y'
sS'CONFIG_THERMAL_GOV_FAIR_SHARE'
p318
S'y'
sS'kernel.sched_domain.cpu5.domain1.forkexec_idx'
p319
I0
sS'CONFIG_MOUSE_PS2_LOGIPS2PP'
p320
S'y'
sS'net.ipv6.route.gc_min_interval_ms'
p321
I500
sS'CONFIG_IRQ_FORCED_THREADING'
p322
S'y'
sS'CONFIG_MTRR_SANITIZER_SPARE_REG_NR_DEFAULT'
p323
I1
sS'CONFIG_BLK_MQ_PCI'
p324
S'y'
sS'CONFIG_DEBUG_BUGVERBOSE'
p325
S'y'
sS'CONFIG_LSM_MMAP_MIN_ADDR'
p326
I0
sS'CONFIG_FS_MBCACHE'
p327
S'y'
sS'CONFIG_KVM_INTEL'
p328
S'm'
sS'net.ipv6.neigh.ens3.proxy_qlen'
p329
I64
sS'net.ipv6.conf.default.keep_addr_on_down'
p330
I0
sS'CONFIG_USB'
p331
S'y'
sS'kernel.sched_domain.cpu8.domain1.busy_idx'
p332
I3
sS'CONFIG_SND_DYNAMIC_MINORS'
p333
S'y'
sS'CONFIG_MD_RAID1'
p334
S'm'
sS'CONFIG_HAVE_SETUP_PER_CPU_AREA'
p335
S'y'
sS'user.max_net_namespaces'
p336
I257592
sS'kernel.sched_domain.cpu12.domain0.max_interval'
p337
I20
sS'vm.laptop_mode'
p338
I0
sS'CONFIG_SIGNED_PE_FILE_VERIFICATION'
p339
S'y'
sS'CONFIG_NET_VENDOR_CAVIUM'
p340
S'y'
sS'CONFIG_IMA_NG_TEMPLATE'
p341
S'y'
sS'net.ipv6.ip6frag_low_thresh'
p342
I3145728
sS'CONFIG_KEXEC'
p343
S'y'
sS'CONFIG_CRYPTO_DEV_PADLOCK'
p344
S'y'
sS'CONFIG_HAVE_ARCH_WITHIN_STACK_FRAMES'
p345
S'y'
sS'kernel.sched_domain.cpu2.domain0.wake_idx'
p346
I0
sS'net.ipv4.conf.all.secure_redirects'
p347
I1
sS'kernel.sched_domain.cpu5.domain0.cache_nice_tries'
p348
I1
sS'CONFIG_HAVE_REGS_AND_STACK_ACCESS_API'
p349
S'y'
sS'CONFIG_FRAME_POINTER'
p350
S'y'
sS'CONFIG_DEVFREQ_GOV_SIMPLE_ONDEMAND'
p351
S'y'
sS'net.ipv4.conf.lo.igmpv2_unsolicited_report_interval'
p352
I10000
sS'kernel.sched_domain.cpu4.domain0.idle_idx'
p353
I1
sS'CONFIG_VFAT_FS'
p354
S'y'
sS'net.ipv6.conf.ens3.accept_ra_mtu'
p355
I1
sS'CONFIG_INPUT_MISC'
p356
S'y'
sS'CONFIG_PARPORT_1284'
p357
S'y'
sS'net.ipv4.conf.all.force_igmp_version'
p358
I0
sS'CONFIG_UTS_NS'
p359
S'y'
sS'CONFIG_BRIDGE_IGMP_SNOOPING'
p360
S'y'
sS'kernel.sched_domain.cpu11.domain1.name'
p361
S'NUMA'
p362
sS'CONFIG_MFD_MAX14577'
p363
S'y'
sS'CONFIG_CPU_FREQ_GOV_PERFORMANCE'
p364
S'y'
sS'net.ipv6.neigh.lo.mcast_resolicit'
p365
I0
sS'CONFIG_PREEMPT_NOTIFIERS'
p366
S'y'
sS'CONFIG_IO_DELAY_0XED'
p367
S'y'
sS'CONFIG_AGP_AMD64'
p368
S'y'
sS'kernel.sched_domain.cpu19.domain0.flags'
p369
I4143
sS'CONFIG_MTRR'
p370
S'y'
sS'kernel.overflowgid'
p371
I65534
sS'CONFIG_CRYPTO_RNG_DEFAULT'
p372
S'y'
sS'kernel.sched_domain.cpu7.domain0.busy_idx'
p373
I2
sS'CONFIG_X86_MCE'
p374
S'y'
sS'CONFIG_KALLSYMS_BASE_RELATIVE'
p375
S'y'
sS'CONFIG_ISA_DMA_API'
p376
S'y'
sS'CONFIG_ASYMMETRIC_PUBLIC_KEY_SUBTYPE'
p377
S'y'
sS'kernel.sched_domain.cpu15.domain1.name'
p378
S'NUMA'
p379
sS'CONFIG_ELF_CORE'
p380
S'y'
sS'net.ipv6.conf.lo.router_solicitations'
p381
S'-1'
p382
sS'kernel.ftrace_dump_on_oops'
p383
I0
sS'net.ipv4.conf.default.arp_filter'
p384
I0
sS'kernel.sched_domain.cpu14.domain1.busy_idx'
p385
I3
sS'kernel.sched_autogroup_enabled'
p386
I1
sS'net.ipv6.neigh.default.unres_qlen'
p387
I101
sS'kernel.sched_domain.cpu14.domain0.cache_nice_tries'
p388
I1
sS'net.ipv6.neigh.lo.anycast_delay'
p389
I100
sS'CONFIG_USB_DYNAMIC_MINORS'
p390
S'y'
sS'CONFIG_ARCH_HAS_FORTIFY_SOURCE'
p391
S'y'
sS'kernel.sched_domain.cpu12.domain1.busy_factor'
p392
I32
sS'net.ipv4.icmp_ratemask'
p393
I6168
sS'CONFIG_SERIAL_8250_EXAR'
p394
S'y'
sS'kernel.hung_task_warnings'
p395
I10
sS'CONFIG_SYSTEM_BLACKLIST_HASH_LIST'
p396
S'""'
p397
sS'CONFIG_ARCH_MMAP_RND_BITS_MIN'
p398
I28
sS'CONFIG_EXPERT'
p399
S'y'
sS'net.ipv4.tcp_abort_on_overflow'
p400
I0
sS'CONFIG_WLAN_VENDOR_ATMEL'
p401
S'y'
sS'CONFIG_HAVE_MIXED_BREAKPOINTS_REGS'
p402
S'y'
sS'CONFIG_ARCH_ENABLE_THP_MIGRATION'
p403
S'y'
sS'CONFIG_SWIOTLB'
p404
S'y'
sS'kernel.sched_domain.cpu9.domain0.busy_factor'
p405
I32
sS'net.ipv4.conf.lo.bootp_relay'
p406
I0
sS'kernel.sched_domain.cpu18.domain0.busy_idx'
p407
I2
sS'CONFIG_SCSI_PROC_FS'
p408
S'y'
sS'CONFIG_RD_BZIP2'
p409
S'y'
sS'CONFIG_CGROUP_HUGETLB'
p410
S'y'
sS'net.ipv6.conf.ens3.accept_ra_rt_info_min_plen'
p411
I0
sS'CONFIG_FDDI'
p412
S'y'
sS'net.ipv6.neigh.lo.proxy_delay'
p413
I80
sS'CONFIG_MMC'
p414
S'y'
sS'kernel.sched_domain.cpu1.domain1.busy_idx'
p415
I3
sS'net.ipv6.conf.lo.router_probe_interval'
p416
I60
sS'vm.nr_hugepages_mempolicy'
p417
I0
sS'net.ipv4.conf.all.ignore_routes_with_linkdown'
p418
I0
sS'CONFIG_HPET_EMULATE_RTC'
p419
S'y'
sS'CONFIG_XOR_BLOCKS'
p420
S'm'
sS'kernel.sched_domain.cpu1.domain0.name'
p421
S'DIE'
p422
sS'CONFIG_REGULATOR'
p423
S'y'
sS'CONFIG_MAILBOX'
p424
S'y'
sS'kernel.sched_domain.cpu5.domain1.min_interval'
p425
I20
sS'kernel.sched_domain.cpu5.domain0.wake_idx'
p426
I0
sS'kernel.sched_domain.cpu10.domain0.idle_idx'
p427
I1
sS'net.ipv6.conf.lo.regen_max_retry'
p428
I3
sS'net.ipv6.conf.default.proxy_ndp'
p429
I0
sS'CONFIG_MEMTEST'
p430
S'y'
sS'net.ipv4.ip_unprivileged_port_start'
p431
I1024
sS'net.ipv6.neigh.lo.app_solicit'
p432
I0
sS'CONFIG_PCI_BUS_ADDR_T_64BIT'
p433
S'y'
sS'CONFIG_VGA_SWITCHEROO'
p434
S'y'
sS'CONFIG_XZ_DEC_IA64'
p435
S'y'
sS'kernel.sched_domain.cpu8.domain0.newidle_idx'
p436
I0
sS'CONFIG_IKCONFIG'
p437
S'm'
sS'CONFIG_ARCH_USE_QUEUED_SPINLOCKS'
p438
S'y'
sS'kernel.sched_domain.cpu3.domain1.wake_idx'
p439
I0
sS'CONFIG_NET_EMATCH_STACK'
p440
I32
sS'kernel.sched_domain.cpu1.domain1.min_interval'
p441
I20
sS'kernel.panic_on_warn'
p442
I0
sS'net.ipv6.conf.lo.enhanced_dad'
p443
I1
sS'CONFIG_GPIOLIB'
p444
S'y'
sS'kernel.keys.maxkeys'
p445
I200
sS'kernel.sched_domain.cpu16.domain0.name'
p446
S'DIE'
p447
sS'vm.panic_on_oom'
p448
I0
sS'CONFIG_NET_VENDOR_AMD'
p449
S'y'
sS'kernel.sched_domain.cpu16.domain1.newidle_idx'
p450
I0
sS'net.ipv4.neigh.ens3.app_solicit'
p451
I0
sS'CONFIG_HAVE_KVM_IRQ_BYPASS'
p452
S'y'
sS'CONFIG_ARCH_DISCARD_MEMBLOCK'
p453
S'y'
sS'net.ipv6.conf.default.suppress_frag_ndisc'
p454
I1
sS'fs.inotify.max_user_instances'
p455
I1024
sS'CONFIG_SYSCTL'
p456
S'y'
sS'net.ipv4.icmp_ignore_bogus_error_responses'
p457
I1
sS'CONFIG_HAVE_FENTRY'
p458
S'y'
sS'CONFIG_KRETPROBES'
p459
S'y'
sS'fs.quota.syncs'
p460
I0
sS'CONFIG_SECURITY_SMACK_NETFILTER'
p461
S'y'
sS'kernel.sched_domain.cpu2.domain1.busy_idx'
p462
I3
sS'net.ipv6.neigh.ens3.delay_first_probe_time'
p463
I5
sS'kernel.stack_tracer_enabled'
p464
I0
sS'CONFIG_FB_CMDLINE'
p465
S'y'
sS'kernel.sched_domain.cpu0.domain0.flags'
p466
I4143
sS'CONFIG_CRYPTO_DRBG_HMAC'
p467
S'y'
sS'CONFIG_MAC_PARTITION'
p468
S'y'
sS'CONFIG_MISC_FILESYSTEMS'
p469
S'y'
sS'abi.vsyscall32'
p470
I1
sS'net.ipv4.route.error_cost'
p471
I250
sS'CONFIG_CRYPTO_SKEIN'
p472
S'y'
sS'net.ipv6.conf.all.suppress_frag_ndisc'
p473
I1
sS'CONFIG_GENERIC_PCI_IOMAP'
p474
S'y'
sS'CONFIG_SND_HDA_INPUT_BEEP_MODE'
p475
I0
sS'CONFIG_DEBUG_KERNEL'
p476
S'y'
sS'net.ipv4.igmp_qrv'
p477
I2
sS'CONFIG_RANDOMIZE_BASE'
p478
S'y'
sS'CONFIG_MODULE_SIG_SHA512'
p479
S'y'
sS'CONFIG_CHELSIO_T3'
p480
S'm'
sS'CONFIG_SECTION_MISMATCH_WARN_ONLY'
p481
S'y'
sS'user.max_mnt_namespaces'
p482
I257592
sS'net.core.wmem_max'
p483
I212992
sS'vm.swappiness'
p484
I60
sS'vm.zone_reclaim_mode'
p485
I0
sS'kernel.sched_domain.cpu3.domain1.imbalance_pct'
p486
I125
sS'kernel.sched_domain.cpu5.domain1.busy_factor'
p487
I32
sS'net.ipv4.tcp_l3mdev_accept'
p488
I0
sS'CONFIG_SBITMAP'
p489
S'y'
sS'vm.vfs_cache_pressure'
p490
I100
sS'net.ipv4.ipfrag_low_thresh'
p491
I3145728
sS'kernel.sched_domain.cpu15.domain1.flags'
p492
I25647
sS'net.ipv4.route.mtu_expires'
p493
I600
sS'CONFIG_KPROBE_EVENTS'
p494
S'y'
sS'net.ipv6.conf.default.drop_unicast_in_l2_multicast'
p495
I0
sS'CONFIG_USB_EHCI_TT_NEWSCHED'
p496
S'y'
sS'CONFIG_X86_16BIT'
p497
S'y'
sS'CONFIG_VIRTIO_BALLOON'
p498
S'y'
sS'kernel.sched_domain.cpu14.domain1.newidle_idx'
p499
I0
sS'CONFIG_CRYPTO_CTR'
p500
S'y'
sS'CONFIG_CRC32_SLICEBY8'
p501
S'y'
sS'net.ipv4.tcp_reordering'
p502
I3
sS'CONFIG_NET'
p503
S'y'
sS'CONFIG_TWL4030_CORE'
p504
S'y'
sS'kernel.sched_domain.cpu18.domain1.name'
p505
S'NUMA'
p506
sS'CONFIG_HAS_DMA'
p507
S'y'
sS'kernel.random.uuid'
p508
S'e926ffb6-85da-409e-9f99-a64a8b532fa4'
p509
sS'CONFIG_SOUND_OSS_CORE'
p510
S'y'
sS'net.ipv4.conf.lo.secure_redirects'
p511
I1
sS'kernel.sched_domain.cpu10.domain0.forkexec_idx'
p512
I0
sS'fs.overflowgid'
p513
I65534
sS'net.ipv4.tcp_dsack'
p514
I1
sS'CONFIG_CPU_SUP_INTEL'
p515
S'y'
sS'CONFIG_TRANSPARENT_HUGEPAGE'
p516
S'y'
sS'CONFIG_SCSI_ISCSI_ATTRS'
p517
S'm'
sS'CONFIG_MQ_IOSCHED_DEADLINE'
p518
S'y'
sS'CONFIG_CRYPTO_HMAC'
p519
S'y'
sS'kernel.sched_domain.cpu12.domain0.imbalance_pct'
p520
I125
sS'CONFIG_VT_CONSOLE'
p521
S'y'
sS'kernel.acpi_video_flags'
p522
I0
sS'net.ipv6.conf.lo.router_solicitation_max_interval'
p523
I3600
sS'CONFIG_VGA_ARB_MAX_GPUS'
p524
I16
sS'CONFIG_BUILDTIME_EXTABLE_SORT'
p525
S'y'
sS'kernel.sched_domain.cpu17.domain1.newidle_idx'
p526
I0
sS'CONFIG_KEXEC_JUMP'
p527
S'y'
sS'net.ipv4.tcp_autocorking'
p528
I1
sS'kernel.sched_domain.cpu7.domain0.imbalance_pct'
p529
I125
sS'net.ipv4.conf.lo.forwarding'
p530
I0
sS'kernel.sched_domain.cpu17.domain0.forkexec_idx'
p531
I0
sS'kernel.sched_domain.cpu10.domain0.wake_idx'
p532
I0
sS'dev.cdrom.lock'
p533
I1
sS'CONFIG_HAVE_HW_BREAKPOINT'
p534
S'y'
sS'CONFIG_MACINTOSH_DRIVERS'
p535
S'y'
sS'CONFIG_HAVE_DEBUG_KMEMLEAK'
p536
S'y'
sS'CONFIG_ISDN'
p537
S'y'
sS'CONFIG_MFD_CORE'
p538
S'y'
sS'CONFIG_ACPI_FAN'
p539
S'y'
sS'kernel.sched_domain.cpu11.domain0.max_newidle_lb_cost'
p540
I1912189
sS'net.ipv4.conf.lo.src_valid_mark'
p541
I0
sS'CONFIG_AIX_PARTITION'
p542
S'y'
sS'kernel.sched_domain.cpu16.domain0.cache_nice_tries'
p543
I1
sS'kernel.sched_domain.cpu1.domain0.cache_nice_tries'
p544
I1
sS'CONFIG_MD_RAID456'
p545
S'm'
sS'net.ipv4.conf.ens3.arp_ignore'
p546
I0
sS'CONFIG_TICK_CPU_ACCOUNTING'
p547
S'y'
sS'CONFIG_MFD_TPS65090'
p548
S'y'
sS'CONFIG_SFI'
p549
S'y'
sS'fs.inode-nr'
p550
S'115504\t511'
p551
sS'CONFIG_NET_SCH_FIFO'
p552
S'y'
sS'net.core.netdev_rss_key'
p553
S'00:00:00:00:00:00:00:00:00:00:00:00:00:00:00:00:00:00:00:00:00:00:00:00:00:00:00:00:00:00:00:00:00:00:00:00:00:00:00:00:00:00:00:00:00:00:00:00:00:00:00:00'
p554
sS'kernel.sched_domain.cpu18.domain1.max_newidle_lb_cost'
p555
I108507
sS'net.ipv4.conf.default.igmpv2_unsolicited_report_interval'
p556
I10000
sS'CONFIG_X86_64_ACPI_NUMA'
p557
S'y'
sS'CONFIG_SYSFS_SYSCALL'
p558
S'y'
sS'kernel.sched_domain.cpu12.domain0.busy_factor'
p559
I32
sS'CONFIG_ARCH_WANT_GENERAL_HUGETLB'
p560
S'y'
sS'CONFIG_GENERIC_CMOS_UPDATE'
p561
S'y'
sS'net.ipv4.tcp_max_tw_buckets'
p562
I262144
sS'CONFIG_SERIAL_8250_EXTENDED'
p563
S'y'
sS'kernel.sched_domain.cpu0.domain0.max_newidle_lb_cost'
p564
I86082
sS'CONFIG_NET_VENDOR_ADAPTEC'
p565
S'y'
sS'CONFIG_EPOLL'
p566
S'y'
sS'net.ipv4.conf.lo.disable_xfrm'
p567
I1
sS'kernel.sched_domain.cpu2.domain0.imbalance_pct'
p568
I125
sS'kernel.panic'
p569
I0
sS'CONFIG_FAT_DEFAULT_CODEPAGE'
p570
I437
sS'CONFIG_X86_SUPPORTS_MEMORY_FAILURE'
p571
S'y'
sS'CONFIG_CALGARY_IOMMU_ENABLED_BY_DEFAULT'
p572
S'y'
sS'kernel.sched_domain.cpu0.domain1.forkexec_idx'
p573
I0
sS'CONFIG_SCHED_HRTICK'
p574
S'y'
sS'CONFIG_SECURITY_SELINUX_DISABLE'
p575
S'y'
sS'kernel.sched_domain.cpu9.domain0.idle_idx'
p576
I1
sS'CONFIG_NET_VENDOR_REALTEK'
p577
S'y'
sS'CONFIG_FAT_DEFAULT_IOCHARSET'
p578
S'"iso8859-1"'
p579
sS'net.ipv6.route.min_adv_mss'
p580
I1220
sS'CONFIG_IP_ROUTE_VERBOSE'
p581
S'y'
sS'CONFIG_BLK_DEV_SD'
p582
S'y'
sS'CONFIG_BRIDGE_EBT_T_FILTER'
p583
S'm'
sS'CONFIG_USB_OHCI_HCD'
p584
S'y'
sS'CONFIG_VIRTIO_CONSOLE'
p585
S'y'
sS'kernel.sched_domain.cpu5.domain1.wake_idx'
p586
I0
sS'CONFIG_USB_UHCI_HCD'
p587
S'y'
sS'CONFIG_BSD_DISKLABEL'
p588
S'y'
sS'kernel.sched_domain.cpu19.domain0.min_interval'
p589
I10
sS'net.core.flow_limit_cpu_bitmap'
p590
S'0000000,00000000,00000000,00000000'
p591
sS'CONFIG_SECURITY_WRITABLE_HOOKS'
p592
S'y'
sS'CONFIG_NVM'
p593
S'y'
sS'net.ipv6.conf.ens3.accept_dad'
p594
I1
sS'CONFIG_TRACING_EVENTS_GPIO'
p595
S'y'
sS'fs.quota.allocated_dquots'
p596
I0
sS'CONFIG_X509_CERTIFICATE_PARSER'
p597
S'y'
sS'kernel.sched_domain.cpu11.domain1.idle_idx'
p598
I2
sS'net.ipv4.ip_forward_use_pmtu'
p599
I0
sS'net.ipv4.conf.lo.send_redirects'
p600
I1
sS'kernel.sched_domain.cpu16.domain0.max_interval'
p601
I20
sS'net.ipv6.conf.all.proxy_ndp'
p602
I0
sS'CONFIG_OPTPROBES'
p603
S'y'
sS'net.ipv4.tcp_pacing_ss_ratio'
p604
I200
sS'kernel.keys.persistent_keyring_expiry'
p605
I259200
sS'CONFIG_MD'
p606
S'y'
sS'kernel.sched_domain.cpu7.domain0.forkexec_idx'
p607
I0
sS'kernel.sched_domain.cpu11.domain1.max_newidle_lb_cost'
p608
I107876
sS'CONFIG_DETECT_HUNG_TASK'
p609
S'y'
sS'CONFIG_DMI'
p610
S'y'
sS'CONFIG_INTEL_IOMMU_SVM'
p611
S'y'
sS'net.ipv4.conf.lo.arp_notify'
p612
I0
sS'kernel.sched_domain.cpu16.domain0.idle_idx'
p613
I1
sS'net.ipv4.tcp_ecn'
p614
I2
sS'kernel.sched_domain.cpu17.domain0.min_interval'
p615
I10
sS'kernel.version'
p616
S'#3 SMP Tue Mar 13 14:28:42 EDT 2018'
p617
sS'net.ipv6.neigh.default.gc_interval'
p618
I30
sS'kernel.sched_domain.cpu0.domain0.busy_idx'
p619
I2
sS'CONFIG_CGROUP_SCHED'
p620
S'y'
sS'CONFIG_HT_IRQ'
p621
S'y'
sS'CONFIG_NET_VENDOR_ATHEROS'
p622
S'y'
sS'net.ipv6.neigh.ens3.unres_qlen_bytes'
p623
I212992
sS'kernel.panic_on_io_nmi'
p624
I0
sS'CONFIG_SERIAL_8250_CONSOLE'
p625
S'y'
sS'CONFIG_HAVE_ARCH_MMAP_RND_COMPAT_BITS'
p626
S'y'
sS'CONFIG_NVDIMM_PFN'
p627
S'y'
sS'net.ipv4.neigh.default.anycast_delay'
p628
I100
sS'kernel.sched_domain.cpu11.domain0.newidle_idx'
p629
I0
sS'kernel.sched_domain.cpu7.domain0.newidle_idx'
p630
I0
sS'CONFIG_SERIAL_CORE'
p631
S'y'
sS'net.ipv4.conf.ens3.arp_filter'
p632
I0
sS'net.ipv6.idgen_delay'
p633
I1
sS'CONFIG_HAVE_HARDENED_USERCOPY_ALLOCATOR'
p634
S'y'
sS'CONFIG_MMU'
p635
S'y'
sS'CONFIG_HAVE_KERNEL_XZ'
p636
S'y'
sS'CONFIG_MFD_DA9052_SPI'
p637
S'y'
sS'CONFIG_USE_PERCPU_NUMA_NODE_ID'
p638
S'y'
sS'CONFIG_NET_INGRESS'
p639
S'y'
sS'kernel.sched_domain.cpu19.domain1.name'
p640
S'NUMA'
p641
sS'net.ipv6.conf.ens3.disable_ipv6'
p642
I0
sS'kernel.msgmax'
p643
I8192
sS'CONFIG_ARCH_ENABLE_HUGEPAGE_MIGRATION'
p644
S'y'
sS'CONFIG_WIRELESS'
p645
S'y'
sS'CONFIG_CHARGER_MANAGER'
p646
S'y'
sS'net.ipv6.conf.lo.drop_unsolicited_na'
p647
I0
sS'net.ipv4.conf.ens3.medium_id'
p648
I0
sS'kernel.sched_domain.cpu19.domain1.busy_idx'
p649
I3
sS'CONFIG_SYSVIPC'
p650
S'y'
sS'net.ipv6.neigh.ens3.ucast_solicit'
p651
I3
sS'CONFIG_PARPORT_PC_FIFO'
p652
S'y'
sS'CONFIG_FANOTIFY_ACCESS_PERMISSIONS'
p653
S'y'
sS'CONFIG_DAX'
p654
S'y'
sS'CONFIG_RD_XZ'
p655
S'y'
sS'kernel.sched_domain.cpu17.domain0.busy_factor'
p656
I32
sS'kernel.sched_domain.cpu17.domain1.wake_idx'
p657
I0
sS'CONFIG_CONNECTOR'
p658
S'y'
sS'net.ipv4.conf.default.arp_accept'
p659
I0
sS'net.ipv4.udp_early_demux'
p660
I1
sS'CONFIG_MFD_88PM860X'
p661
S'y'
sS'kernel.numa_balancing_scan_period_max_ms'
p662
I60000
sS'kernel.sched_domain.cpu15.domain0.imbalance_pct'
p663
I125
sS'CONFIG_MODVERSIONS'
p664
S'y'
sS'kernel.sched_migration_cost_ns'
p665
I500000
sS'CONFIG_HAVE_INTEL_TXT'
p666
S'y'
sS'CONFIG_ARCH_HAS_UBSAN_SANITIZE_ALL'
p667
S'y'
sS'CONFIG_OLD_SIGSUSPEND3'
p668
S'y'
sS'net.ipv6.neigh.default.gc_thresh1'
p669
I128
sS'dev.mac_hid.mouse_button2_keycode'
p670
I97
sS'net.ipv6.neigh.lo.proxy_qlen'
p671
I64
sS'net.ipv6.conf.default.router_probe_interval'
p672
I60
sS'kernel.sched_domain.cpu14.domain1.busy_factor'
p673
I32
sS'net.ipv4.route.error_burst'
p674
I1250
sS'CONFIG_NET_VENDOR_ARC'
p675
S'y'
sS'net.ipv6.conf.all.keep_addr_on_down'
p676
I0
sS'kernel.sched_domain.cpu16.domain1.forkexec_idx'
p677
I0
sS'CONFIG_EDAC_ATOMIC_SCRUB'
p678
S'y'
sS'CONFIG_TRUSTED_KEYS'
p679
S'y'
sS'CONFIG_PWM_SYSFS'
p680
S'y'
sS'CONFIG_AUDITSYSCALL'
p681
S'y'
sS'net.ipv6.conf.lo.proxy_ndp'
p682
I0
sS'CONFIG_HAVE_KVM_EVENTFD'
p683
S'y'
sS'CONFIG_HAVE_ARCH_KMEMCHECK'
p684
S'y'
sS'CONFIG_PM_DEVFREQ'
p685
S'y'
sS'CONFIG_UID16'
p686
S'y'
sS'CONFIG_ACPI_SLEEP'
p687
S'y'
sS'kernel.watchdog_cpumask'
p688
S'0-121'
p689
sS'CONFIG_SND_SUPPORT_OLD_API'
p690
S'y'
sS'net.ipv4.conf.lo.accept_redirects'
p691
I1
sS'net.ipv6.conf.all.max_addresses'
p692
I16
sS'kernel.sched_child_runs_first'
p693
I0
sS'net.ipv6.conf.all.accept_ra_from_local'
p694
I0
sS'CONFIG_PINCONF'
p695
S'y'
sS'CONFIG_RTC_HCTOSYS'
p696
S'y'
sS'CONFIG_CRYPTO_GCM'
p697
S'y'
sS'kernel.softlockup_panic'
p698
I0
sS'kernel.sched_domain.cpu18.domain1.imbalance_pct'
p699
I125
sS'CONFIG_RTC_I2C_AND_SPI'
p700
S'y'
sS'CONFIG_USB_EHCI_HCD'
p701
S'y'
sS'CONFIG_CHROME_PLATFORMS'
p702
S'y'
sS'kernel.sched_domain.cpu7.domain1.max_interval'
p703
I40
sS'CONFIG_HAVE_ARCH_KGDB'
p704
S'y'
sS'CONFIG_IO_DELAY_TYPE_0XED'
p705
I1
sS'net.ipv6.conf.ens3.drop_unicast_in_l2_multicast'
p706
I0
sS'net.ipv6.conf.default.force_mld_version'
p707
I0
sS'net.ipv4.ip_no_pmtu_disc'
p708
I0
sS'CONFIG_WLAN_VENDOR_MEDIATEK'
p709
S'y'
sS'vm.dirty_writeback_centisecs'
p710
I500
sS'kernel.sched_domain.cpu14.domain1.idle_idx'
p711
I2
sS'CONFIG_SCSI_CXGB3_ISCSI'
p712
S'm'
sS'net.ipv6.conf.lo.accept_ra'
p713
I1
sS'kernel.sched_domain.cpu2.domain0.max_newidle_lb_cost'
p714
I134094
sS'CONFIG_ARCH_SUPPORTS_OPTIMIZED_INLINING'
p715
S'y'
sS'net.ipv4.conf.default.proxy_arp_pvlan'
p716
I0
sS'CONFIG_PM_STD_PARTITION'
p717
S'""'
p718
sS'net.ipv4.conf.ens3.secure_redirects'
p719
I1
sS'CONFIG_ULTRIX_PARTITION'
p720
S'y'
sS'CONFIG_HAVE_NMI'
p721
S'y'
sS'kernel.sched_domain.cpu19.domain1.busy_factor'
p722
I32
sS'CONFIG_NET_VENDOR_3COM'
p723
S'y'
sS'kernel.sched_domain.cpu16.domain1.name'
p724
S'NUMA'
p725
sS'net.ipv6.conf.ens3.seg6_enabled'
p726
I0
sS'kernel.sched_domain.cpu13.domain1.idle_idx'
p727
I2
sS'fs.mqueue.msgsize_max'
p728
I8192
sS'CONFIG_HAS_IOMEM'
p729
S'y'
sS'kernel.sched_domain.cpu13.domain0.name'
p730
S'DIE'
p731
sS'net.ipv4.conf.all.forwarding'
p732
I0
sS'CONFIG_USB_DEFAULT_PERSIST'
p733
S'y'
sS'CONFIG_NEW_LEDS'
p734
S'y'
sS'CONFIG_DMI_SCAN_MACHINE_NON_EFI_FALLBACK'
p735
S'y'
sS'kernel.sched_latency_ns'
p736
I24000000
sS'net.ipv4.conf.all.bootp_relay'
p737
I0
sS'net.ipv6.neigh.default.base_reachable_time_ms'
p738
I30000
sS'kernel.perf_event_mlock_kb'
p739
I516
sS'vm.block_dump'
p740
I0
sS'kernel.sched_domain.cpu16.domain0.busy_factor'
p741
I32
sS'CONFIG_PHYLIB'
p742
S'y'
sS'kernel.pty.reserve'
p743
I1024
sS'net.ipv4.conf.all.igmpv3_unsolicited_report_interval'
p744
I1000
sS'CONFIG_PCI_MSI'
p745
S'y'
sS'net.ipv4.conf.default.send_redirects'
p746
I1
sS'net.ipv6.conf.default.disable_ipv6'
p747
I0
sS'CONFIG_MD_RAID0'
p748
S'm'
sS'CONFIG_INLINE_READ_UNLOCK_IRQ'
p749
S'y'
sS'CONFIG_DW_DMAC_PCI'
p750
S'y'
sS'kernel.sched_domain.cpu0.domain0.imbalance_pct'
p751
I125
sS'net.ipv6.conf.lo.hop_limit'
p752
I64
sS'kernel.sched_domain.cpu7.domain1.newidle_idx'
p753
I0
sS'net.ipv4.conf.all.arp_accept'
p754
I0
sS'CONFIG_BINARY_PRINTF'
p755
S'y'
sS'kernel.sched_domain.cpu6.domain0.min_interval'
p756
I10
sS'kernel.msgmnb'
p757
I16384
sS'CONFIG_IRQ_BYPASS_MANAGER'
p758
S'm'
sS'kernel.msgmni'
p759
I32000
sS'CONFIG_SLUB'
p760
S'y'
sS'kernel.soft_watchdog'
p761
I1
sS'CONFIG_USB_LED_TRIG'
p762
S'y'
sS'kernel.sched_time_avg_ms'
p763
I1000
sS'kernel.sched_domain.cpu8.domain0.cache_nice_tries'
p764
I1
sS'CONFIG_X86_INTEL_MPX'
p765
S'y'
sS'CONFIG_X86_ACPI_CPUFREQ_CPB'
p766
S'y'
sS'net.ipv6.conf.default.mc_forwarding'
p767
I0
sS'kernel.threads-max'
p768
I515185
sS'kernel.sched_domain.cpu1.domain1.busy_factor'
p769
I32
sS'kernel.sched_domain.cpu18.domain1.busy_idx'
p770
I3
sS'net.ipv4.neigh.default.mcast_resolicit'
p771
I0
sS'net.ipv4.conf.default.arp_announce'
p772
I0
sS'CONFIG_ACPI_DOCK'
p773
S'y'
sS'CONFIG_X86_INTEL_MEMORY_PROTECTION_KEYS'
p774
S'y'
sS'net.ipv4.neigh.ens3.base_reachable_time_ms'
p775
I30000
sS'CONFIG_SCHED_MC'
p776
S'y'
sS'CONFIG_ARCH_HAS_MEM_ENCRYPT'
p777
S'y'
sS'CONFIG_BOUNCE'
p778
S'y'
sS'kernel.sched_domain.cpu8.domain1.max_interval'
p779
I40
sS'kernel.sched_domain.cpu17.domain1.min_interval'
p780
I20
sS'kernel.keys.gc_delay'
p781
I300
sS'CONFIG_HAVE_ARCH_TRANSPARENT_HUGEPAGE_PUD'
p782
S'y'
sS'kernel.hung_task_timeout_secs'
p783
I120
sS'CONFIG_X86_MINIMUM_CPU_FAMILY'
p784
I64
sS'CONFIG_CRYPTO_KPP2'
p785
S'y'
sS'CONFIG_SQUASHFS_ZLIB'
p786
S'y'
sS'CONFIG_X86_PLATFORM_DEVICES'
p787
S'y'
sS'CONFIG_CONTEXT_SWITCH_TRACER'
p788
S'y'
sS'net.ipv4.conf.default.accept_source_route'
p789
I1
sS'kernel.core_pipe_limit'
p790
I0
sS'kernel.dmesg_restrict'
p791
I0
sS'kernel.sched_domain.cpu7.domain1.imbalance_pct'
p792
I125
sS'kernel.sched_domain.cpu19.domain1.max_interval'
p793
I40
sS'CONFIG_PERF_EVENTS_INTEL_RAPL'
p794
S'y'
sS'CONFIG_HAVE_PERF_USER_STACK_DUMP'
p795
S'y'
sS'CONFIG_SERIAL_SCCNXP'
p796
S'y'
sS'CONFIG_EFI_RUNTIME_MAP'
p797
S'y'
sS'kernel.sched_domain.cpu18.domain1.flags'
p798
I25647
sS'net.ipv6.neigh.lo.base_reachable_time_ms'
p799
I30000
sS'debug.kprobes-optimization'
p800
I1
sS'kernel.sched_domain.cpu6.domain0.idle_idx'
p801
I1
sS'CONFIG_BPF_SYSCALL'
p802
S'y'
sS'net.ipv6.conf.default.accept_ra_pinfo'
p803
I1
sS'kernel.sched_domain.cpu19.domain0.name'
p804
S'DIE'
p805
sS'CONFIG_VIRTIO_PCI_LEGACY'
p806
S'y'
sS'net.ipv6.flowlabel_consistency'
p807
I1
sS'CONFIG_WLAN_VENDOR_QUANTENNA'
p808
S'y'
sS'kernel.sched_domain.cpu4.domain1.max_interval'
p809
I40
sS'CONFIG_CRYPTO_DEV_CCP'
p810
S'y'
sS'CONFIG_HAVE_EFFICIENT_UNALIGNED_ACCESS'
p811
S'y'
sS'CONFIG_USB_ANNOUNCE_NEW_DEVICES'
p812
S'y'
sS'CONFIG_AUTOFS4_FS'
p813
S'm'
sS'CONFIG_ARCH_SUPPORTS_MEMORY_FAILURE'
p814
S'y'
sS'CONFIG_STAGING'
p815
S'y'
sS'CONFIG_ARCH_HAS_FAST_MULTIPLIER'
p816
S'y'
sS'CONFIG_IPV6_MROUTE_MULTIPLE_TABLES'
p817
S'y'
sS'CONFIG_NET_VENDOR_STMICRO'
p818
S'y'
sS'CONFIG_NUMA_BALANCING_DEFAULT_ENABLED'
p819
S'y'
sS'kernel.sched_domain.cpu12.domain0.flags'
p820
I4143
sS'kernel.sched_domain.cpu15.domain1.forkexec_idx'
p821
I0
sS'net.ipv6.conf.all.accept_ra_rt_info_max_plen'
p822
I0
sS'CONFIG_X86_DEV_DMA_OPS'
p823
S'y'
sS'CONFIG_PCI_ATS'
p824
S'y'
sS'CONFIG_RD_LZO'
p825
S'y'
sS'kernel.sched_domain.cpu7.domain1.cache_nice_tries'
p826
I2
sS'CONFIG_BLK_DEV'
p827
S'y'
sS'CONFIG_HARDLOCKUP_CHECK_TIMESTAMP'
p828
S'y'
sS'CONFIG_SQUASHFS_XZ'
p829
S'y'
sS'kernel.sched_domain.cpu10.domain0.busy_factor'
p830
I32
sS'CONFIG_MDIO_DEVICE'
p831
S'y'
sS'CONFIG_GPIO_RC5T583'
p832
S'y'
sS'net.ipv4.tcp_moderate_rcvbuf'
p833
I1
sS'CONFIG_ACPI_CONTAINER'
p834
S'y'
sS'CONFIG_STACKTRACE'
p835
S'y'
sS'CONFIG_ATA_BMDMA'
p836
S'y'
sS'CONFIG_BLK_CMDLINE_PARSER'
p837
S'y'
sS'net.ipv4.tcp_min_rtt_wlen'
p838
I300
sS'net.ipv6.fwmark_reflect'
p839
I0
sS'CONFIG_MOUSE_PS2_VMMOUSE'
p840
S'y'
sS'CONFIG_RTC_CLASS'
p841
S'y'
sS'CONFIG_SECURITY_APPARMOR'
p842
S'y'
sS'CONFIG_WATCHDOG_CORE'
p843
S'y'
sS'CONFIG_SERIAL_KGDB_NMI'
p844
S'y'
sS'CONFIG_INSTRUCTION_DECODER'
p845
S'y'
sS'net.ipv6.neigh.ens3.proxy_delay'
p846
I80
sS'CONFIG_SOC_TI'
p847
S'y'
sS'CONFIG_MFD_TPS80031'
p848
S'y'
sS'kernel.sched_domain.cpu2.domain1.forkexec_idx'
p849
I0
sS'CONFIG_MEMCG'
p850
S'y'
sS'net.ipv6.conf.default.dad_transmits'
p851
I1
sS'kernel.sched_domain.cpu12.domain1.max_newidle_lb_cost'
p852
I134524
sS'net.core.busy_poll'
p853
I0
sS'kernel.sched_domain.cpu8.domain1.busy_factor'
p854
I32
sS'CONFIG_IOSCHED_CFQ'
p855
S'y'
sS'CONFIG_MEMBARRIER'
p856
S'y'
sS'net.ipv6.conf.all.mldv1_unsolicited_report_interval'
p857
I10000
sS'kernel.sched_domain.cpu2.domain0.idle_idx'
p858
I1
sS'CONFIG_BLK_DEV_DM'
p859
S'y'
sS'CONFIG_DEFAULT_HUNG_TASK_TIMEOUT'
p860
I120
sS'net.ipv6.conf.default.regen_max_retry'
p861
I3
sS'CONFIG_SND_PCI'
p862
S'y'
sS'CONFIG_GENERIC_CPU'
p863
S'y'
sS'net.ipv4.conf.default.accept_local'
p864
I0
sS'net.ipv6.conf.default.forwarding'
p865
I0
sS'net.core.dev_weight_rx_bias'
p866
I1
sS'CONFIG_CPU_SUP_AMD'
p867
S'y'
sS'CONFIG_GENERIC_FIND_FIRST_BIT'
p868
S'y'
sS'CONFIG_HAVE_USER_RETURN_NOTIFIER'
p869
S'y'
sS'kernel.core_pattern'
p870
S'|/usr/share/apport/apport %p %s %c %d %P'
p871
sS'kernel.perf_event_max_sample_rate'
p872
I100000
sS'CONFIG_SCSI'
p873
S'y'
sS'CONFIG_KPROBES'
p874
S'y'
sS'CONFIG_HAVE_GCC_PLUGINS'
p875
S'y'
sS'CONFIG_GENERIC_EARLY_IOREMAP'
p876
S'y'
sS'kernel.random.poolsize'
p877
I4096
sS'CONFIG_GLOB'
p878
S'y'
sS'CONFIG_ZBUD'
p879
S'y'
sS'CONFIG_ARCH_MMAP_RND_BITS_MAX'
p880
I32
sS'net.ipv6.conf.lo.force_mld_version'
p881
I0
sS'CONFIG_NUMA_BALANCING'
p882
S'y'
sS'net.ipv4.conf.ens3.accept_redirects'
p883
I1
sS'kernel.sched_domain.cpu1.domain0.busy_factor'
p884
I32
sS'CONFIG_EDD_OFF'
p885
S'y'
sS'CONFIG_THERMAL'
p886
S'y'
sS'CONFIG_BPF'
p887
S'y'
sS'CONFIG_HUGETLBFS'
p888
S'y'
sS'net.ipv4.tcp_frto'
p889
I2
sS'CONFIG_ETHERNET'
p890
S'y'
sS'net.ipv4.tcp_probe_threshold'
p891
I8
sS'CONFIG_CPU_IDLE'
p892
S'y'
sS'net.ipv4.conf.default.forwarding'
p893
I0
sS'CONFIG_DECOMPRESS_BZIP2'
p894
S'y'
sS'net.ipv6.conf.default.accept_ra_rtr_pref'
p895
I1
sS'CONFIG_STRICT_KERNEL_RWX'
p896
S'y'
sS'net.ipv4.neigh.lo.delay_first_probe_time'
p897
I5
sS'net.ipv6.conf.ens3.force_tllao'
p898
I0
sS'CONFIG_AB3100_CORE'
p899
S'y'
sS'CONFIG_PM'
p900
S'y'
sS'CONFIG_FAIR_GROUP_SCHED'
p901
S'y'
sS'CONFIG_HAVE_ARCH_HUGE_VMAP'
p902
S'y'
sS'net.ipv4.ip_forward'
p903
I0
sS'CONFIG_COMPAT_32'
p904
S'y'
sS'kernel.sched_domain.cpu12.domain0.forkexec_idx'
p905
I0
sS'kernel.sched_domain.cpu7.domain0.busy_factor'
p906
I32
sS'kernel.sched_domain.cpu0.domain0.name'
p907
S'DIE'
p908
sS'kernel.sched_domain.cpu3.domain0.busy_idx'
p909
I2
sS'kernel.sched_domain.cpu14.domain1.min_interval'
p910
I20
sS'CONFIG_DDR'
p911
S'y'
sS'kernel.sched_domain.cpu12.domain1.flags'
p912
I25647
sS'kernel.sched_domain.cpu18.domain0.name'
p913
S'DIE'
p914
sS'CONFIG_NETFILTER_ADVANCED'
p915
S'y'
sS'CONFIG_RANDOMIZE_MEMORY'
p916
S'y'
sS'CONFIG_ASYNC_MEMCPY'
p917
S'm'
sS'net.ipv6.conf.default.accept_ra_from_local'
p918
I0
sS'CONFIG_WLAN_VENDOR_REALTEK'
p919
S'y'
sS'CONFIG_PCIE_PME'
p920
S'y'
sS'net.ipv6.conf.ens3.accept_ra_rt_info_max_plen'
p921
I0
sS'net.core.flow_limit_table_len'
p922
I4096
sS'kernel.sched_domain.cpu9.domain0.flags'
p923
I4143
sS'kernel.sched_domain.cpu17.domain0.wake_idx'
p924
I0
sS'CONFIG_MOUSE_PS2_SYNAPTICS_SMBUS'
p925
S'y'
sS'CONFIG_ZONE_DMA'
p926
S'y'
sS'net.core.max_skb_frags'
p927
I17
sS'CONFIG_COMPAT_FOR_U64_ALIGNMENT'
p928
S'y'
sS'CONFIG_MODULE_SIG_KEY'
p929
S'"certs/signing_key.pem"'
p930
sS'CONFIG_HAVE_KVM_CPU_RELAX_INTERCEPT'
p931
S'y'
sS'CONFIG_VHOST'
p932
S'm'
sS'kernel.printk_devkmsg'
p933
S'ratelimit'
p934
sS'net.ipv6.neigh.ens3.gc_stale_time'
p935
I60
sS'kernel.sched_domain.cpu15.domain1.busy_factor'
p936
I32
sS'CONFIG_HAVE_NET_DSA'
p937
S'y'
sS'CONFIG_PCI_LABEL'
p938
S'y'
sS'CONFIG_IOMMU_IOVA'
p939
S'y'
sS'net.ipv6.conf.default.accept_ra'
p940
I1
sS'kernel.sched_domain.cpu6.domain0.max_newidle_lb_cost'
p941
I133921
sS'CONFIG_ISCSI_IBFT_FIND'
p942
S'y'
sS'kernel.sched_domain.cpu6.domain1.busy_idx'
p943
I3
sS'kernel.sched_domain.cpu5.domain1.max_interval'
p944
I40
sS'CONFIG_EVM'
p945
S'y'
sS'CONFIG_PKCS7_MESSAGE_PARSER'
p946
S'y'
sS'net.ipv4.tcp_workaround_signed_windows'
p947
I0
sS'CONFIG_PM_SLEEP'
p948
S'y'
sS'CONFIG_IP_MROUTE'
p949
S'y'
sS'net.ipv4.ipfrag_secret_interval'
p950
I0
sS'CONFIG_ZSTD_DECOMPRESS'
p951
S'm'
sS'net.ipv6.neigh.default.ucast_solicit'
p952
I3
sS'net.ipv6.neigh.default.locktime'
p953
I0
sS'CONFIG_AGP_VIA'
p954
S'y'
sS'net.ipv6.auto_flowlabels'
p955
I1
sS'fs.quota.reads'
p956
I0
sS'CONFIG_SCHED_MC_PRIO'
p957
S'y'
sS'kernel.sched_domain.cpu19.domain0.cache_nice_tries'
p958
I1
sS'kernel.sched_domain.cpu14.domain0.flags'
p959
I4143
sS'CONFIG_ELFCORE'
p960
S'y'
sS'CONFIG_BPF_EVENTS'
p961
S'y'
sS'net.ipv4.neigh.lo.mcast_solicit'
p962
I3
sS'CONFIG_BUILD_BIN2C'
p963
S'y'
sS'kernel.sched_domain.cpu14.domain1.max_interval'
p964
I40
sS'CONFIG_I2C_PIIX4'
p965
S'm'
sS'CONFIG_SND_HDA_GENERIC'
p966
S'm'
sS'kernel.sched_domain.cpu13.domain0.wake_idx'
p967
I0
sS'CONFIG_SND_HDA'
p968
S'm'
sS'fs.quota.drops'
p969
I0
sS'kernel.acct'
p970
S'4\t2\t30'
p971
sS'kernel.sched_domain.cpu8.domain0.name'
p972
S'DIE'
p973
sS'fs.mqueue.msg_max'
p974
I10
sS'kernel.yama.ptrace_scope'
p975
I1
sS'kernel.sched_domain.cpu19.domain0.idle_idx'
p976
I1
sS'CONFIG_MAC80211_STA_HASH_MAX_SIZE'
p977
I0
sS'dev.parport.default.timeslice'
p978
I200
sS'net.ipv4.inet_peer_threshold'
p979
I65664
sS'CONFIG_HAVE_ARCH_TRACEHOOK'
p980
S'y'
sS'net.ipv6.conf.all.ignore_routes_with_linkdown'
p981
I0
sS'net.core.rps_sock_flow_entries'
p982
I0
sS'CONFIG_ARCH_SELECT_MEMORY_MODEL'
p983
S'y'
sS'CONFIG_FONT_8x8'
p984
S'y'
sS'kernel.sched_domain.cpu1.domain0.min_interval'
p985
I10
sS'net.ipv6.conf.default.disable_policy'
p986
I0
sS'CONFIG_EARLY_PRINTK_USB'
p987
S'y'
sS'net.ipv6.neigh.default.proxy_qlen'
p988
I64
sS'CONFIG_EDD'
p989
S'y'
sS'net.ipv6.route.max_size'
p990
I4096
sS'kernel.sched_domain.cpu5.domain0.imbalance_pct'
p991
I125
sS'kernel.sched_domain.cpu13.domain1.name'
p992
S'NUMA'
p993
sS'CONFIG_FTRACE_SYSCALLS'
p994
S'y'
sS'net.ipv6.conf.lo.accept_ra_rt_info_min_plen'
p995
I0
sS'CONFIG_GENERIC_IRQ_MIGRATION'
p996
S'y'
sS'kernel.sched_domain.cpu5.domain0.max_interval'
p997
I20
sS'fs.inode-state'
p998
S'115504\t511\t0\t0\t0\t0\t0'
p999
sS'CONFIG_HTC_I2CPLD'
p1000
S'y'
sS'CONFIG_LEDS_TRIGGERS'
p1001
S'y'
sS'net.ipv4.ipfrag_max_dist'
p1002
I64
sS'kernel.sched_rt_period_us'
p1003
I1000000
sS'CONFIG_HAVE_CONTEXT_TRACKING'
p1004
S'y'
sS'CONFIG_CRYPTO_DRBG'
p1005
S'y'
sS'CONFIG_ADVISE_SYSCALLS'
p1006
S'y'
sS'CONFIG_STRICT_MODULE_RWX'
p1007
S'y'
sS'kernel.sched_domain.cpu19.domain0.busy_idx'
p1008
I2
sS'kernel.printk_delay'
p1009
I0
sS'kernel.sched_domain.cpu8.domain0.forkexec_idx'
p1010
I0
sS'CONFIG_GENERIC_ISA_DMA'
p1011
S'y'
sS'net.ipv4.neigh.default.retrans_time_ms'
p1012
I1000
sS'net.core.wmem_default'
p1013
I212992
sS'CONFIG_RATIONAL'
p1014
S'y'
sS'kernel.sched_domain.cpu16.domain1.max_newidle_lb_cost'
p1015
I117047
sS'CONFIG_ARCH_DMA_ADDR_T_64BIT'
p1016
S'y'
sS'CONFIG_IP_NF_FILTER'
p1017
S'm'
sS'net.ipv4.conf.default.route_localnet'
p1018
I0
sS'net.ipv4.conf.lo.proxy_arp'
p1019
I0
sS'CONFIG_PMIC_DA903X'
p1020
S'y'
sS'CONFIG_X86_POWERNOW_K8'
p1021
S'y'
sS'CONFIG_ACPI_APEI_MEMORY_FAILURE'
p1022
S'y'
sS'net.ipv4.ip_local_reserved_ports'
p1023
S''
sS'CONFIG_NET_VENDOR_QLOGIC'
p1024
S'y'
sS'CONFIG_PCSPKR_PLATFORM'
p1025
S'y'
sS'kernel.sched_domain.cpu17.domain0.max_interval'
p1026
I20
sS'kernel.sysctl_writes_strict'
p1027
I1
sS'vm.drop_caches'
p1028
I0
sS'CONFIG_I2C_COMPAT'
p1029
S'y'
sS'net.ipv6.conf.ens3.temp_valid_lft'
p1030
I604800
sS'CONFIG_HAVE_FUNCTION_TRACER'
p1031
S'y'
sS'CONFIG_TRACING_SUPPORT'
p1032
S'y'
sS'kernel.sched_domain.cpu2.domain1.flags'
p1033
I25647
sS'CONFIG_IMA_APPRAISE'
p1034
S'y'
sS'dev.cdrom.info'
p1035
S''
sS'CONFIG_NET_VENDOR_AQUANTIA'
p1036
S'y'
sS'kernel.sched_domain.cpu9.domain0.wake_idx'
p1037
I0
sS'CONFIG_TRANSPARENT_HUGEPAGE_ALWAYS'
p1038
S'y'
sg8
S'HostInfo.host-192.168.123.30'
p1039
sS'CONFIG_X86_L1_CACHE_SHIFT'
p1040
I6
sS'kernel.sched_domain.cpu12.domain0.wake_idx'
p1041
I0
sS'kernel.sched_domain.cpu13.domain0.busy_factor'
p1042
I32
sS'CONFIG_NET_VENDOR_HP'
p1043
S'y'
sS'CONFIG_NET_VENDOR_MELLANOX'
p1044
S'y'
sS'CONFIG_SHMEM'
p1045
S'y'
sS'CONFIG_EFI_RUNTIME_WRAPPERS'
p1046
S'y'
sS'net.core.netdev_max_backlog'
p1047
I1000
sS'kernel.sched_domain.cpu8.domain0.max_newidle_lb_cost'
p1048
I146029
sS'CONFIG_PM_TRACE_RTC'
p1049
S'y'
sS'net.ipv6.neigh.ens3.unres_qlen'
p1050
I101
sS'CONFIG_ARCH_HIBERNATION_POSSIBLE'
p1051
S'y'
sS'kernel.hotplug'
p1052
S''
sS'CONFIG_SERIAL_CORE_CONSOLE'
p1053
S'y'
sS'kernel.sched_domain.cpu4.domain1.cache_nice_tries'
p1054
I2
sS'kernel.sched_domain.cpu9.domain0.busy_idx'
p1055
I2
sS'kernel.ostype'
p1056
S'Linux'
p1057
sS'CONFIG_PNP'
p1058
S'y'
sS'kernel.sched_domain.cpu9.domain0.imbalance_pct'
p1059
I125
sS'CONFIG_IPV6'
p1060
S'y'
sS'CONFIG_GENERIC_CLOCKEVENTS'
p1061
S'y'
sS'CONFIG_MICROCODE_INTEL'
p1062
S'y'
sS'CONFIG_PM_CLK'
p1063
S'y'
sS'kernel.sched_domain.cpu12.domain0.min_interval'
p1064
I10
sS'kernel.sched_domain.cpu11.domain1.newidle_idx'
p1065
I0
sS'CONFIG_KVM_COMPAT'
p1066
S'y'
sS'CONFIG_TCG_TPM'
p1067
S'y'
sS'CONFIG_I2C_DESIGNWARE_PLATFORM'
p1068
S'y'
sS'net.ipv6.conf.ens3.ignore_routes_with_linkdown'
p1069
I0
sS'CONFIG_CHECKPOINT_RESTORE'
p1070
S'y'
sS'vm.nr_pdflush_threads'
p1071
I0
sS'kernel.sched_domain.cpu6.domain0.busy_factor'
p1072
I32
sS'kernel.sched_domain.cpu4.domain0.imbalance_pct'
p1073
I125
sS'CONFIG_SQUASHFS'
p1074
S'y'
sS'CONFIG_WQ_POWER_EFFICIENT_DEFAULT'
p1075
S'y'
sS'CONFIG_MFD_MAX77693'
p1076
S'y'
sS'kernel.sched_domain.cpu0.domain1.max_newidle_lb_cost'
p1077
I1312079
sS'kernel.core_uses_pid'
p1078
I0
sS'kernel.sched_domain.cpu17.domain1.cache_nice_tries'
p1079
I2
sS'CONFIG_CGROUP_DEVICE'
p1080
S'y'
sS'CONFIG_NET_VENDOR_ALTEON'
p1081
S'y'
sS'CONFIG_BSD_PROCESS_ACCT_V3'
p1082
S'y'
sS'net.ipv4.conf.ens3.tag'
p1083
I0
sS'CONFIG_AMD_NB'
p1084
S'y'
sS'net.ipv4.conf.default.tag'
p1085
I0
sS'net.ipv4.tcp_max_syn_backlog'
p1086
I2048
sS'kernel.sched_domain.cpu10.domain1.idle_idx'
p1087
I2
sS'CONFIG_DECOMPRESS_XZ'
p1088
S'y'
sS'CONFIG_SGI_PARTITION'
p1089
S'y'
sS'kernel.sched_domain.cpu18.domain1.wake_idx'
p1090
I0
sS'net.ipv6.conf.all.dad_transmits'
p1091
I1
sS'CONFIG_BASE_SMALL'
p1092
I0
sS'CONFIG_HAVE_ARCH_JUMP_LABEL'
p1093
S'y'
sS'vm.dirty_expire_centisecs'
p1094
I3000
sS'kernel.sched_domain.cpu17.domain1.name'
p1095
S'NUMA'
p1096
sS'CONFIG_KERNFS'
p1097
S'y'
sS'CONFIG_IP_MULTICAST'
p1098
S'y'
sS'CONFIG_PM_WAKELOCKS_GC'
p1099
S'y'
sS'kernel.sched_domain.cpu3.domain0.wake_idx'
p1100
I0
sS'kernel.sched_domain.cpu18.domain0.newidle_idx'
p1101
I0
sS'CONFIG_GENERIC_IRQ_SHOW'
p1102
S'y'
sS'CONFIG_MFD_WM8400'
p1103
S'y'
sS'net.ipv6.conf.all.forwarding'
p1104
I0
sS'CONFIG_SERIAL_8250_MANY_PORTS'
p1105
S'y'
sS'net.ipv4.conf.default.medium_id'
p1106
I0
sS'CONFIG_ARCH_HAS_GIGANTIC_PAGE'
p1107
S'y'
sS'vm.oom_dump_tasks'
p1108
I1
sS'net.ipv6.ip6frag_secret_interval'
p1109
I0
sS'CONFIG_PMIC_ADP5520'
p1110
S'y'
sS'CONFIG_USER_NS'
p1111
S'y'
sS'net.ipv4.neigh.default.gc_stale_time'
p1112
I60
sS'kernel.sched_domain.cpu8.domain1.min_interval'
p1113
I20
sS'CONFIG_ARCH_WANTS_DYNAMIC_TASK_STRUCT'
p1114
S'y'
sS'net.ipv4.conf.ens3.accept_source_route'
p1115
I1
sS'CONFIG_SYSTEM_TRUSTED_KEYRING'
p1116
S'y'
sS'net.ipv6.icmp.ratelimit'
p1117
I1000
sS'net.ipv4.conf.lo.log_martians'
p1118
I0
sS'dev.cdrom.check_media'
p1119
I0
sS'CONFIG_INTEL_SOC_PMIC'
p1120
S'y'
sS'kernel.panic_on_rcu_stall'
p1121
I0
sS'net.ipv6.conf.ens3.keep_addr_on_down'
p1122
I0
sS'net.ipv4.conf.default.mc_forwarding'
p1123
I0
sS'net.core.dev_weight_tx_bias'
p1124
I1
sS'CONFIG_MDIO'
p1125
S'm'
sS'net.ipv6.neigh.default.retrans_time_ms'
p1126
I1000
sS'kernel.sched_domain.cpu14.domain1.cache_nice_tries'
p1127
I2
sS'net.ipv6.conf.ens3.drop_unsolicited_na'
p1128
I0
sS'kernel.sem'
p1129
S'32000\t1024000000\t500\t32000'
p1130
sS'kernel.sched_domain.cpu9.domain1.max_interval'
p1131
I40
sS'net.ipv4.tcp_window_scaling'
p1132
I1
sS'net.ipv4.tcp_available_ulp'
p1133
S''
sS'CONFIG_NEED_DMA_MAP_STATE'
p1134
S'y'
sS'net.ipv6.conf.lo.temp_prefered_lft'
p1135
I86400
sS'CONFIG_HAVE_ARCH_SECCOMP_FILTER'
p1136
S'y'
sS'CONFIG_INPUT_MOUSEDEV_SCREEN_X'
p1137
I1024
sS'CONFIG_INPUT_MOUSEDEV_SCREEN_Y'
p1138
I768
sS'CONFIG_DMIID'
p1139
S'y'
sS'net.ipv4.conf.default.arp_notify'
p1140
I0
sS'CONFIG_INPUT_UINPUT'
p1141
S'y'
sS'net.ipv6.flowlabel_reflect'
p1142
I0
sS'CONFIG_NET_L3_MASTER_DEV'
p1143
S'y'
sS'CONFIG_SERIAL_EARLYCON'
p1144
S'y'
sS'CONFIG_NETLABEL'
p1145
S'y'
sS'CONFIG_ARCH_HAS_ACPI_TABLE_UPGRADE'
p1146
S'y'
sS'CONFIG_IRQ_REMAP'
p1147
S'y'
sS'CONFIG_GENERIC_TRACER'
p1148
S'y'
sS'kernel.sched_domain.cpu15.domain0.busy_idx'
p1149
I2
sS'CONFIG_BE2ISCSI'
p1150
S'm'
sS'kernel.sched_domain.cpu14.domain1.forkexec_idx'
p1151
I0
sS'CONFIG_NET_VENDOR_DEC'
p1152
S'y'
sS'CONFIG_FUTEX'
p1153
S'y'
sS'net.ipv6.neigh.ens3.app_solicit'
p1154
I0
sS'CONFIG_ARCH_WANT_OLD_COMPAT_IPC'
p1155
S'y'
sS'CONFIG_SSB_POSSIBLE'
p1156
S'y'
sS'net.ipv4.conf.default.arp_ignore'
p1157
I0
sS'kernel.sched_domain.cpu19.domain1.flags'
p1158
I25647
sS'CONFIG_WLAN_VENDOR_ADMTEK'
p1159
S'y'
sS'kernel.softlockup_all_cpu_backtrace'
p1160
I0
sS'CONFIG_ZSTD_COMPRESS'
p1161
S'm'
sS'CONFIG_HWMON'
p1162
S'y'
sS'kernel.bootloader_type'
p1163
I114
sS'CONFIG_MFD_DA9052_I2C'
p1164
S'y'
sS'CONFIG_LOG_BUF_SHIFT'
p1165
I18
sS'CONFIG_INTEL_IOMMU'
p1166
S'y'
sS'CONFIG_IRQ_DOMAIN_HIERARCHY'
p1167
S'y'
sS'CONFIG_NET_VENDOR_BROCADE'
p1168
S'y'
sS'CONFIG_ACPI_CUSTOM_DSDT_FILE'
p1169
S'""'
p1170
sS'net.ipv6.neigh.default.gc_thresh2'
p1171
I512
sS'net.ipv6.neigh.default.gc_thresh3'
p1172
I1024
sS'net.ipv6.conf.ens3.use_tempaddr'
p1173
I0
sS'vm.nr_hugepages'
p1174
I0
sS'kernel.sched_domain.cpu1.domain1.imbalance_pct'
p1175
I125
sS'CONFIG_NO_HZ_IDLE'
p1176
S'y'
sS'user.max_ipc_namespaces'
p1177
I257592
sS'kernel.sched_domain.cpu15.domain0.flags'
p1178
I4143
sS'CONFIG_COMPAT'
p1179
S'y'
sS'CONFIG_CRYPTO_SHA256'
p1180
S'y'
sS'net.ipv4.neigh.ens3.unres_qlen_bytes'
p1181
I212992
sS'vm.overcommit_memory'
p1182
I0
sS'CONFIG_MODULE_UNLOAD'
p1183
S'y'
sS'CONFIG_NLS_DEFAULT'
p1184
S'"utf8"'
p1185
sS'CONFIG_MFD_RC5T583'
p1186
S'y'
sS'CONFIG_BTRFS_FS_POSIX_ACL'
p1187
S'y'
sS'CONFIG_GENERIC_PHY'
p1188
S'y'
sS'net.ipv6.conf.lo.accept_source_route'
p1189
I0
sS'CONFIG_CHELSIO_LIB'
p1190
S'm'
sS'kernel.sched_domain.cpu18.domain0.cache_nice_tries'
p1191
I1
sS'net.ipv4.neigh.lo.retrans_time_ms'
p1192
I1000
sS'CONFIG_X86_RESERVE_LOW'
p1193
I64
sS'kernel.modules_disabled'
p1194
I0
sS'CONFIG_X86_NUMACHIP'
p1195
S'y'
sS'net.ipv6.ip_nonlocal_bind'
p1196
I0
sS'CONFIG_TCP_CONG_CUBIC'
p1197
S'y'
sS'net.ipv6.neigh.default.proxy_delay'
p1198
I80
sS'kernel.sched_domain.cpu16.domain0.busy_idx'
p1199
I2
sS'kernel.sched_domain.cpu8.domain1.cache_nice_tries'
p1200
I2
sS'CONFIG_INOTIFY_USER'
p1201
S'y'
sS'net.ipv4.neigh.lo.ucast_solicit'
p1202
I3
sS'CONFIG_UEFI_CPER'
p1203
S'y'
sS'CONFIG_RTC_DRV_CMOS'
p1204
S'y'
sS'CONFIG_TRANSPARENT_HUGE_PAGECACHE'
p1205
S'y'
sS'net.ipv4.neigh.lo.base_reachable_time_ms'
p1206
I30000
sS'net.ipv4.tcp_tw_reuse'
p1207
I0
sS'CONFIG_MOUSE_PS2_SENTELIC'
p1208
S'y'
sS'CONFIG_LOCKUP_DETECTOR'
p1209
S'y'
sS'kernel.sched_domain.cpu12.domain1.name'
p1210
S'NUMA'
p1211
sS'CONFIG_RAPIDIO'
p1212
S'y'
sS'CONFIG_STAGING_MEDIA'
p1213
S'y'
sS'net.ipv4.conf.ens3.igmpv3_unsolicited_report_interval'
p1214
I1000
sS'CONFIG_DEFCONFIG_LIST'
p1215
S'"/lib/modules/$UNAME_RELEASE/.config"'
p1216
sS'net.ipv4.ip_local_port_range'
p1217
S'32768\t60999'
p1218
sS'kernel.sched_domain.cpu2.domain0.min_interval'
p1219
I10
sS'CONFIG_HUGETLB_PAGE'
p1220
S'y'
sS'CONFIG_PERF_EVENTS'
p1221
S'y'
sS'net.ipv4.neigh.lo.locktime'
p1222
I100
sS'CONFIG_SECURITY_TOMOYO_ACTIVATION_TRIGGER'
p1223
S'"/sbin/init"'
p1224
sS'kernel.sched_domain.cpu13.domain1.min_interval'
p1225
I20
sS'CONFIG_NET_VENDOR_VIA'
p1226
S'y'
sS'CONFIG_UCS2_STRING'
p1227
S'y'
sS'kernel.sched_domain.cpu10.domain1.wake_idx'
p1228
I0
sS'kernel.sched_domain.cpu6.domain1.newidle_idx'
p1229
I0
sS'CONFIG_ARCH_SPARSEMEM_DEFAULT'
p1230
S'y'
sS'CONFIG_IPV6_ROUTE_INFO'
p1231
S'y'
sS'CONFIG_CLKEVT_I8253'
p1232
S'y'
sS'CONFIG_RAPIDIO_DMA_ENGINE'
p1233
S'y'
sS'CONFIG_MFD_SMSC'
p1234
S'y'
sS'kernel.sched_domain.cpu12.domain1.idle_idx'
p1235
I2
sS'CONFIG_SERIAL_8250_PCI'
p1236
S'y'
sS'CONFIG_PCIEASPM_DEFAULT'
p1237
S'y'
sS'kernel.sched_domain.cpu8.domain1.name'
p1238
S'NUMA'
p1239
sS'CONFIG_HAVE_EXIT_THREAD'
p1240
S'y'
sS'CONFIG_SND_HDA_HWDEP'
p1241
S'y'
sS'CONFIG_SOFTLOCKUP_DETECTOR'
p1242
S'y'
sS'kernel.sched_domain.cpu14.domain1.wake_idx'
p1243
I0
sS'CONFIG_EARLY_PRINTK'
p1244
S'y'
sS'net.ipv6.conf.ens3.ndisc_notify'
p1245
I0
sS'net.ipv4.conf.all.proxy_arp_pvlan'
p1246
I0
sS'kernel'
p1247
S'4.14.0-rc8-stock'
p1248
sS'user.max_cgroup_namespaces'
p1249
I257592
sS'CONFIG_BACKLIGHT_LCD_SUPPORT'
p1250
S'y'
sS'CONFIG_DUMMY_CONSOLE_ROWS'
p1251
I25
sS'CONFIG_MOUSE_PS2_ELANTECH'
p1252
S'y'
sS'CONFIG_PCI_MMCONFIG'
p1253
S'y'
sS'CONFIG_KVM_MMIO'
p1254
S'y'
sS'net.ipv4.neigh.default.unres_qlen_bytes'
p1255
I212992
sS'kernel.sched_domain.cpu14.domain0.busy_factor'
p1256
I32
sS'CONFIG_PINCTRL_BAYTRAIL'
p1257
S'y'
sS'net.ipv4.icmp_errors_use_inbound_ifaddr'
p1258
I0
sS'net.ipv6.conf.all.addr_gen_mode'
p1259
I0
sS'kernel.sched_domain.cpu8.domain1.wake_idx'
p1260
I0
sS'CONFIG_HAVE_ACPI_APEI_NMI'
p1261
S'y'
sS'vm.page-cluster'
p1262
I3
sS'kernel.sched_domain.cpu9.domain1.newidle_idx'
p1263
I0
sS'CONFIG_MOUSE_PS2_CYPRESS'
p1264
S'y'
sS'kernel.sched_rt_runtime_us'
p1265
I950000
sS'CONFIG_USB_DWC2_PCI'
p1266
S'y'
sS'CONFIG_X86_CMOV'
p1267
S'y'
sS'net.ipv4.tcp_fastopen_blackhole_timeout_sec'
p1268
I3600
sS'CONFIG_SIGNATURE'
p1269
S'y'
sS'net.ipv4.conf.all.mc_forwarding'
p1270
I0
sS'CONFIG_PM_DEBUG'
p1271
S'y'
sS'net.ipv4.neigh.default.ucast_solicit'
p1272
I3
sS'net.ipv4.tcp_keepalive_intvl'
p1273
I75
sS'CONFIG_SOUND'
p1274
S'm'
sS'kernel.sched_domain.cpu6.domain0.flags'
p1275
I4143
sS'CONFIG_SERIO_I8042'
p1276
S'y'
sS'CONFIG_NET_VENDOR_NETRONOME'
p1277
S'y'
sS'CONFIG_BLK_DEV_LOOP'
p1278
S'y'
sS'vm.mmap_min_addr'
p1279
I65536
sS'CONFIG_CRYPTO_DRBG_CTR'
p1280
S'y'
sS'CONFIG_HAVE_CMPXCHG_LOCAL'
p1281
S'y'
sS'net.ipv6.route.mtu_expires'
p1282
I600
sS'CONFIG_SND_USB'
p1283
S'y'
sS'CONFIG_CMDLINE_PARTITION'
p1284
S'y'
sS'CONFIG_NETWORK_SECMARK'
p1285
S'y'
sS'CONFIG_SND_HDA_INTEL'
p1286
S'm'
sS'net.ipv4.ping_group_range'
p1287
S'1\t0'
p1288
sS'CONFIG_PERF_EVENTS_INTEL_CSTATE'
p1289
S'y'
sS'kernel.sched_domain.cpu5.domain0.max_newidle_lb_cost'
p1290
I123480
sS'net.ipv4.icmp_msgs_burst'
p1291
I50
sS'CONFIG_PPP_MULTILINK'
p1292
S'y'
sS'CONFIG_BLK_DEV_FD'
p1293
S'm'
sS'kernel.sched_domain.cpu16.domain0.forkexec_idx'
p1294
I0
sS'CONFIG_SND_DRIVERS'
p1295
S'y'
sS'CONFIG_SCSI_CXGB4_ISCSI'
p1296
S'm'
sS'CONFIG_CRASH_DUMP'
p1297
S'y'
sS'vm.watermark_scale_factor'
p1298
I10
sS'CONFIG_HAVE_UID16'
p1299
S'y'
sS'CONFIG_NET_VENDOR_WIZNET'
p1300
S'y'
sS'kernel.sched_domain.cpu14.domain0.max_interval'
p1301
I20
sS'kernel.sched_domain.cpu0.domain1.cache_nice_tries'
p1302
I2
sS'dev.parport.default.spintime'
p1303
I500
sS'CONFIG_IOSF_MBI'
p1304
S'y'
sS'net.ipv4.fib_multipath_hash_policy'
p1305
I0
sS'CONFIG_BLK_DEV_BSG'
p1306
S'y'
sS'kernel.sched_domain.cpu5.domain0.flags'
p1307
I4143
sS'kernel.sched_domain.cpu19.domain0.newidle_idx'
p1308
I0
sS'CONFIG_CPU_FREQ_GOV_CONSERVATIVE'
p1309
S'y'
sS'CONFIG_MEMORY_HOTPLUG_SPARSE'
p1310
S'y'
sS'CONFIG_ZSWAP'
p1311
S'y'
sS'CONFIG_KVM'
p1312
S'm'
sS'kernel.sched_domain.cpu10.domain1.max_newidle_lb_cost'
p1313
I119815
sS'CONFIG_PCIEASPM_DEBUG'
p1314
S'y'
sS'CONFIG_PROC_PID_CPUSET'
p1315
S'y'
sS'CONFIG_MEMORY_BALLOON'
p1316
S'y'
sS'CONFIG_INFINIBAND'
p1317
S'm'
sS'CONFIG_NET_VENDOR_SILAN'
p1318
S'y'
sS'net.ipv4.conf.ens3.log_martians'
p1319
I0
sS'CONFIG_CC_STACKPROTECTOR_STRONG'
p1320
S'y'
sS'CONFIG_HOTPLUG_CPU'
p1321
S'y'
sS'CONFIG_PROC_FS'
p1322
S'y'
sS'net.ipv4.route.redirect_number'
p1323
I9
sS'CONFIG_MOUSE_PS2_ALPS'
p1324
S'y'
sS'kernel.sched_domain.cpu3.domain0.min_interval'
p1325
I10
sS'kernel.sched_domain.cpu14.domain0.busy_idx'
p1326
I2
sS'CONFIG_THERMAL_WRITABLE_TRIPS'
p1327
S'y'
sS'CONFIG_TOUCHSCREEN_PROPERTIES'
p1328
S'y'
sS'vm.lowmem_reserve_ratio'
p1329
S'256\t256\t32\t1'
p1330
sS'CONFIG_BLK_DEV_THROTTLING'
p1331
S'y'
sS'CONFIG_SWAP'
p1332
S'y'
sS'kernel.osrelease'
p1333
S'4.14.0-rc8-stock'
p1334
sS'kernel.sched_domain.cpu8.domain0.busy_idx'
p1335
I2
sS'CONFIG_AMD_IOMMU'
p1336
S'y'
sS'CONFIG_PAGE_COUNTER'
p1337
S'y'
sS'CONFIG_ARCH_MIGHT_HAVE_ACPI_PDC'
p1338
S'y'
sS'kernel.sched_domain.cpu14.domain0.forkexec_idx'
p1339
I0
sS'CONFIG_MFD_AS3711'
p1340
S'y'
sS'CONFIG_EFI_MIXED'
p1341
S'y'
sS'CONFIG_FILE_LOCKING'
p1342
S'y'
sS'CONFIG_MFD_WM831X_I2C'
p1343
S'y'
sS'CONFIG_ATA_ACPI'
p1344
S'y'
sS'net.ipv4.conf.lo.route_localnet'
p1345
I0
sS'net.ipv6.conf.all.drop_unsolicited_na'
p1346
I0
sS'CONFIG_ACPI_APEI'
p1347
S'y'
sS'kernel.sched_domain.cpu1.domain1.name'
p1348
S'NUMA'
p1349
sS'CONFIG_IRQ_DOMAIN'
p1350
S'y'
sS'net.ipv4.udp_wmem_min'
p1351
I4096
sS'net.ipv4.tcp_invalid_ratelimit'
p1352
I500
sS'net.ipv4.neigh.ens3.proxy_qlen'
p1353
I64
sS'CONFIG_NET_VENDOR_AMAZON'
p1354
S'y'
sS'kernel.sched_domain.cpu2.domain0.busy_factor'
p1355
I32
sS'CONFIG_VT'
p1356
S'y'
sS'net.ipv4.conf.lo.arp_announce'
p1357
I0
sS'kernel.sched_domain.cpu17.domain0.cache_nice_tries'
p1358
I1
sS'CONFIG_HAVE_IDE'
p1359
S'y'
sS'kernel.sched_domain.cpu6.domain0.forkexec_idx'
p1360
I0
sS'CONFIG_NET_VENDOR_8390'
p1361
S'y'
sS'kernel.sched_domain.cpu15.domain0.cache_nice_tries'
p1362
I1
sS'kernel.sched_domain.cpu3.domain1.max_interval'
p1363
I40
sS'fs.mqueue.queues_max'
p1364
I256
sS'net.ipv4.conf.ens3.rp_filter'
p1365
I1
sS'CONFIG_NET_NS'
p1366
S'y'
sS'CONFIG_HAVE_LIVEPATCH'
p1367
S'y'
sS'CONFIG_KGDB_LOW_LEVEL_TRAP'
p1368
S'y'
sS'CONFIG_HAVE_OPROFILE'
p1369
S'y'
sS'CONFIG_NVDIMM_DAX'
p1370
S'y'
sS'CONFIG_IMA_DEFAULT_HASH'
p1371
S'"sha1"'
p1372
sS'CONFIG_ACPI_THERMAL'
p1373
S'y'
sS'CONFIG_BLK_DEV_BSGLIB'
p1374
S'y'
sS'kernel.sched_domain.cpu2.domain1.wake_idx'
p1375
I0
sS'net.ipv4.neigh.default.locktime'
p1376
I100
sS'CONFIG_PINCTRL_CHERRYVIEW'
p1377
S'y'
sS'CONFIG_HPET_MMAP'
p1378
S'y'
sS'CONFIG_SERIAL_8250_RT288X'
p1379
S'y'
sS'CONFIG_CLOCKSOURCE_VALIDATE_LAST_CYCLE'
p1380
S'y'
sS'kernel.sched_domain.cpu14.domain1.max_newidle_lb_cost'
p1381
I132862
sS'net.ipv4.conf.lo.rp_filter'
p1382
I0
sS'net.core.busy_read'
p1383
I0
sS'CONFIG_BTRFS_FS'
p1384
S'm'
sS'CONFIG_DCACHE_WORD_ACCESS'
p1385
S'y'
sS'net.ipv6.conf.default.mtu'
p1386
I1280
sS'kernel.sched_domain.cpu7.domain0.idle_idx'
p1387
I1
sS'CONFIG_SPARSEMEM_MANUAL'
p1388
S'y'
sS'net.ipv4.conf.default.drop_gratuitous_arp'
p1389
I0
sS'CONFIG_UPROBES'
p1390
S'y'
sS'kernel.sched_domain.cpu16.domain0.imbalance_pct'
p1391
I125
sS'CONFIG_ARCH_ENABLE_MEMORY_HOTPLUG'
p1392
S'y'
sS'kernel.sched_domain.cpu4.domain1.forkexec_idx'
p1393
I0
sS'CONFIG_FIRMWARE_MEMMAP'
p1394
S'y'
sS'kernel.sched_domain.cpu11.domain1.busy_factor'
p1395
I32
sS'CONFIG_IPV6_ROUTER_PREF'
p1396
S'y'
sS'CONFIG_SCHED_DEBUG'
p1397
S'y'
sS'CONFIG_BOOT_PRINTK_DELAY'
p1398
S'y'
sS'CONFIG_TMPFS'
p1399
S'y'
sS'kernel.sched_domain.cpu14.domain1.name'
p1400
S'NUMA'
p1401
sS'CONFIG_X86_MCE_INTEL'
p1402
S'y'
sS'CONFIG_RTC_INTF_PROC'
p1403
S'y'
sS'kernel.sched_domain.cpu1.domain0.busy_idx'
p1404
I2
sS'CONFIG_MD_AUTODETECT'
p1405
S'y'
sS'net.ipv6.conf.lo.max_desync_factor'
p1406
I600
sS'kernel.sched_domain.cpu4.domain1.flags'
p1407
I25647
sS'kernel.sched_domain.cpu1.domain1.newidle_idx'
p1408
I0
sS'CONFIG_X86_ESPFIX64'
p1409
S'y'
sS'net.ipv4.neigh.lo.gc_stale_time'
p1410
I60
sS'kernel.traceoff_on_warning'
p1411
I0
sS'kernel.sched_domain.cpu2.domain1.busy_factor'
p1412
I32
sS'net.ipv4.conf.all.proxy_arp'
p1413
I0
sS'kernel.sched_domain.cpu15.domain0.max_newidle_lb_cost'
p1414
I1457387
sS'CONFIG_ARCH_USE_BUILTIN_BSWAP'
p1415
S'y'
sS'CONFIG_PROC_SYSCTL'
p1416
S'y'
sS'fs.file-max'
p1417
I6578986
sS'CONFIG_ACPI_APEI_GHES'
p1418
S'y'
sS'kernel.sched_domain.cpu11.domain0.busy_factor'
p1419
I32
sS'kernel.sched_domain.cpu19.domain0.wake_idx'
p1420
I0
sS'net.ipv4.tcp_limit_output_bytes'
p1421
I262144
sS'CONFIG_NET_VENDOR_NVIDIA'
p1422
S'y'
sS'net.ipv6.conf.default.accept_ra_rt_info_max_plen'
p1423
I0
sS'CONFIG_ACPI_HOTPLUG_CPU'
p1424
S'y'
sS'net.ipv4.conf.ens3.disable_xfrm'
p1425
I0
sS'CONFIG_FRAME_WARN'
p1426
I1024
sS'net.ipv6.conf.all.enhanced_dad'
p1427
I1
sS'CONFIG_FAT_FS'
p1428
S'y'
sS'CONFIG_IRQ_POLL'
p1429
S'y'
sS'net.ipv6.conf.all.hop_limit'
p1430
I64
sS'CONFIG_VT_CONSOLE_SLEEP'
p1431
S'y'
sS'kernel.random.entropy_avail'
p1432
I389
sS'net.ipv4.conf.default.force_igmp_version'
p1433
I0
sS'net.ipv4.ip_default_ttl'
p1434
I64
sS'CONFIG_CLEANCACHE'
p1435
S'y'
sS'CONFIG_PCI_PRI'
p1436
S'y'
sS'kernel.sched_domain.cpu9.domain1.flags'
p1437
I25647
sS'CONFIG_CRYPTO_ALGAPI'
p1438
S'y'
sS'kernel.random.boot_id'
p1439
S'c0ea6fa3-072e-4c1b-a591-02e4300a8978'
p1440
sS'net.ipv4.conf.lo.accept_local'
p1441
I0
sS'kernel.sched_domain.cpu2.domain0.max_interval'
p1442
I20
sS'CONFIG_QUOTA'
p1443
S'y'
sS'net.ipv4.neigh.default.app_solicit'
p1444
I0
sS'kernel.sched_domain.cpu13.domain0.forkexec_idx'
p1445
I0
sS'CONFIG_CPUSETS'
p1446
S'y'
sS'CONFIG_THERMAL_GOV_BANG_BANG'
p1447
S'y'
sS'CONFIG_REGMAP_IRQ'
p1448
S'y'
sS'CONFIG_CMA'
p1449
S'y'
sS'CONFIG_TRACING'
p1450
S'y'
sS'CONFIG_KDB_KEYBOARD'
p1451
S'y'
sS'CONFIG_RADIX_TREE_MULTIORDER'
p1452
S'y'
sS'net.ipv4.conf.all.promote_secondaries'
p1453
I0
sS'CONFIG_LWTUNNEL'
p1454
S'y'
sS'CONFIG_ARCH_MIGHT_HAVE_PC_SERIO'
p1455
S'y'
sS'kernel.sched_domain.cpu7.domain1.flags'
p1456
I25647
sS'net.ipv4.neigh.lo.proxy_qlen'
p1457
I64
sS'CONFIG_CC_STACKPROTECTOR'
p1458
S'y'
sS'net.ipv6.conf.lo.router_solicitation_delay'
p1459
I1
sS'CONFIG_FIB_RULES'
p1460
S'y'
sS'net.ipv4.neigh.lo.unres_qlen_bytes'
p1461
I212992
sS'CONFIG_COMPAT_BINFMT_ELF'
p1462
S'y'
sS'kernel.sched_domain.cpu10.domain0.busy_idx'
p1463
I2
sS'CONFIG_HAVE_KPROBES'
p1464
S'y'
sS'net.ipv4.tcp_mem'
p1465
S'768591\t1024791\t1537182'
p1466
sS'CONFIG_VME_BUS'
p1467
S'y'
sS'CONFIG_FW_LOADER'
p1468
S'y'
sS'CONFIG_ATA_VERBOSE_ERROR'
p1469
S'y'
sS'CONFIG_IOSCHED_DEADLINE'
p1470
S'y'
sS'net.ipv6.conf.all.max_desync_factor'
p1471
I600
sS'CONFIG_ARCH_MMAP_RND_COMPAT_BITS_MAX'
p1472
I16
sS'kernel.sched_domain.cpu4.domain0.busy_factor'
p1473
I32
sS'CONFIG_FB_CFB_IMAGEBLIT'
p1474
S'y'
sS'CONFIG_EXT4_USE_FOR_EXT2'
p1475
S'y'
sS'CONFIG_INPUT_MOUSEDEV_PSAUX'
p1476
S'y'
sS'CONFIG_BLOCK_COMPAT'
p1477
S'y'
sS'CONFIG_ATH5K_PCI'
p1478
S'y'
sS'kernel.sched_domain.cpu6.domain1.forkexec_idx'
p1479
I0
sS'CONFIG_SCSI_LOGGING'
p1480
S'y'
sS'kernel.sched_domain.cpu13.domain1.newidle_idx'
p1481
I0
sS'CONFIG_NET_CLS'
p1482
S'y'
sS'CONFIG_ACPI_LEGACY_TABLES_LOOKUP'
p1483
S'y'
sS'CONFIG_INPUT_TABLET'
p1484
S'y'
sS'CONFIG_ILLEGAL_POINTER_VALUE'
p1485
S'0xdead000000000000'
p1486
sS'CONFIG_THERMAL_GOV_STEP_WISE'
p1487
S'y'
sS'CONFIG_PRINTK'
p1488
S'y'
sS'net.ipv4.conf.default.promote_secondaries'
p1489
I0
sS'CONFIG_WLAN_VENDOR_MARVELL'
p1490
S'y'
sS'CONFIG_MINIX_SUBPARTITION'
p1491
S'y'
sS'CONFIG_SND_MAX_CARDS'
p1492
I32
sS'kernel.sched_domain.cpu13.domain1.max_newidle_lb_cost'
p1493
I117992
sS'CONFIG_FRAMEBUFFER_CONSOLE'
p1494
S'y'
sS'CONFIG_BRIDGE'
p1495
S'm'
sS'net.ipv6.conf.lo.accept_ra_pinfo'
p1496
I1
sS'kernel.sched_domain.cpu19.domain1.forkexec_idx'
p1497
I0
sS'CONFIG_NET_VENDOR_AGERE'
p1498
S'y'
sS'CONFIG_ASYNC_XOR'
p1499
S'm'
sS'CONFIG_SND_HDA_PREALLOC_SIZE'
p1500
I64
sS'CONFIG_ACPI_HOTPLUG_IOAPIC'
p1501
S'y'
sS'kernel.sched_domain.cpu1.domain0.flags'
p1502
I4143
sS'CONFIG_TRACE_IRQFLAGS_SUPPORT'
p1503
S'y'
sS'CONFIG_KEYBOARD_ATKBD'
p1504
S'y'
sS'net.core.default_qdisc'
p1505
S'pfifo_fast'
p1506
sS'kernel.sched_domain.cpu14.domain0.min_interval'
p1507
I10
sS'CONFIG_VIRTIO_MMIO'
p1508
S'y'
sS'CONFIG_VIRT_TO_BUS'
p1509
S'y'
sS'kernel.sched_domain.cpu12.domain1.wake_idx'
p1510
I0
sS'CONFIG_INPUT_KEYBOARD'
p1511
S'y'
sS'CONFIG_ARCH_SUPPORTS_DEFERRED_STRUCT_PAGE_INIT'
p1512
S'y'
sS'net.ipv6.conf.all.accept_ra_mtu'
p1513
I1
sS'net.ipv4.ipfrag_high_thresh'
p1514
I4194304
sS'kernel.sched_domain.cpu5.domain0.idle_idx'
p1515
I1
sS'CONFIG_NET_VENDOR_ROCKER'
p1516
S'y'
sS'CONFIG_I2C'
p1517
S'y'
sS'CONFIG_BUG'
p1518
S'y'
sS'CONFIG_CPU_FREQ_GOV_COMMON'
p1519
S'y'
sS'CONFIG_PHYSICAL_ALIGN'
p1520
S'0x1000000'
p1521
sS'kernel.sched_domain.cpu11.domain1.cache_nice_tries'
p1522
I2
sS'kernel.timer_migration'
p1523
I1
sS'CONFIG_HAVE_ARCH_VMAP_STACK'
p1524
S'y'
sS'kernel.sched_domain.cpu9.domain0.name'
p1525
S'DIE'
p1526
sS'kernel.sched_domain.cpu9.domain1.max_newidle_lb_cost'
p1527
I245665
sS'CONFIG_PSTORE_ZLIB_COMPRESS'
p1528
S'y'
sS'CONFIG_CRYPTO_BLKCIPHER2'
p1529
S'y'
sS'CONFIG_GENERIC_IRQ_EFFECTIVE_AFF_MASK'
p1530
S'y'
sS'CONFIG_CHR_DEV_SG'
p1531
S'y'
sS'CONFIG_ARCH_HAS_PKEYS'
p1532
S'y'
sS'CONFIG_SIGNALFD'
p1533
S'y'
sS'CONFIG_IMA_LSM_RULES'
p1534
S'y'
sS'CONFIG_MD_MULTIPATH'
p1535
S'm'
sS'net.ipv4.neigh.default.mcast_solicit'
p1536
I3
sS'kernel.sched_domain.cpu13.domain0.idle_idx'
p1537
I1
sS'CONFIG_SYSTEM_DATA_VERIFICATION'
p1538
S'y'
sS'CONFIG_ALLOW_DEV_COREDUMP'
p1539
S'y'
sS'CONFIG_RTC_MC146818_LIB'
p1540
S'y'
sS'kernel.sched_domain.cpu5.domain0.forkexec_idx'
p1541
I0
sS'CONFIG_STACKTRACE_SUPPORT'
p1542
S'y'
sS'kernel.sched_domain.cpu8.domain0.flags'
p1543
I4143
sS'CONFIG_INTEL_GTT'
p1544
S'y'
sS'CONFIG_THERMAL_EMULATION'
p1545
S'y'
sS'CONFIG_HAVE_DMA_CONTIGUOUS'
p1546
S'y'
sS'kernel.sched_domain.cpu18.domain1.busy_factor'
p1547
I32
sS'net.netfilter.nf_log.5'
p1548
S'NONE'
p1549
sS'net.netfilter.nf_log.4'
p1550
S'NONE'
p1551
sS'net.netfilter.nf_log.7'
p1552
S'NONE'
p1553
sS'net.netfilter.nf_log.6'
p1554
S'NONE'
p1555
sS'net.netfilter.nf_log.1'
p1556
S'NONE'
p1557
sS'net.netfilter.nf_log.0'
p1558
S'NONE'
p1559
sS'net.netfilter.nf_log.3'
p1560
S'NONE'
p1561
sS'net.netfilter.nf_log.2'
p1562
S'NONE'
p1563
sS'kernel.sched_domain.cpu9.domain1.busy_idx'
p1564
I3
sS'net.netfilter.nf_log.9'
p1565
S'NONE'
p1566
sS'net.netfilter.nf_log.8'
p1567
S'NONE'
p1568
sS'net.ipv4.conf.ens3.arp_announce'
p1569
I0
sS'kernel.real-root-dev'
p1570
I0
sS'vm.user_reserve_kbytes'
p1571
I131072
sS'CONFIG_HAVE_KERNEL_LZO'
p1572
S'y'
sS'dev.raid.speed_limit_max'
p1573
I200000
sS'kernel.sched_domain.cpu9.domain1.cache_nice_tries'
p1574
I2
sS'CONFIG_IP_FIB_TRIE_STATS'
p1575
S'y'
sS'CONFIG_DEVFREQ_GOV_PERFORMANCE'
p1576
S'y'
sS'net.ipv4.conf.all.disable_xfrm'
p1577
I0
sS'CONFIG_IPV6_MULTIPLE_TABLES'
p1578
S'y'
sS'CONFIG_MFD_SYSCON'
p1579
S'y'
sS'kernel.sched_domain.cpu3.domain0.newidle_idx'
p1580
I0
sS'fs.quota.lookups'
p1581
I0
sS'CONFIG_QUOTACTL'
p1582
S'y'
sS'CONFIG_TWL6040_CORE'
p1583
S'y'
sS'CONFIG_ARCH_WANT_BATCHED_UNMAP_TLB_FLUSH'
p1584
S'y'
sS'CONFIG_SCSI_QLA_ISCSI'
p1585
S'm'
sS'net.ipv6.conf.lo.temp_valid_lft'
p1586
I604800
sS'CONFIG_RTC_LIB'
p1587
S'y'
sS'kernel.pty.max'
p1588
I4096
sS'CONFIG_ISCSI_BOOT_SYSFS'
p1589
S'm'
sS'CONFIG_HAVE_KERNEL_LZ4'
p1590
S'y'
sS'CONFIG_GPIO_PALMAS'
p1591
S'y'
sS'CONFIG_SQUASHFS_XATTR'
p1592
S'y'
sS'CONFIG_NEED_MULTIPLE_NODES'
p1593
S'y'
sS'net.ipv6.conf.default.use_oif_addrs_only'
p1594
I0
sS'kernel.sched_domain.cpu4.domain1.busy_factor'
p1595
I32
sS'vm.extfrag_threshold'
p1596
I500
sS'kernel.sched_domain.cpu0.domain0.newidle_idx'
p1597
I0
sS'CONFIG_ARCH_HAS_GCOV_PROFILE_ALL'
p1598
S'y'
sS'CONFIG_MODULE_SIG_ALL'
p1599
S'y'
sS'CONFIG_CONSOLE_POLL'
p1600
S'y'
sS'CONFIG_VIRTIO_MMIO_CMDLINE_DEVICES'
p1601
S'y'
sS'kernel.sched_domain.cpu0.domain1.name'
p1602
S'NUMA'
p1603
sS'net.ipv4.cipso_rbm_strictvalid'
p1604
I1
sS'CONFIG_HAVE_CLK_PREPARE'
p1605
S'y'
sS'kernel.sched_domain.cpu8.domain1.newidle_idx'
p1606
I0
sS'net.ipv6.conf.ens3.router_solicitation_interval'
p1607
I4
sS'CONFIG_NET_TULIP'
p1608
S'y'
sS'kernel.sched_domain.cpu11.domain0.wake_idx'
p1609
I0
sS'CONFIG_POSIX_MQUEUE'
p1610
S'y'
sS'CONFIG_MDIO_BUS'
p1611
S'y'
sS'CONFIG_KALLSYMS_ALL'
p1612
S'y'
sS'net.ipv4.conf.lo.igmpv3_unsolicited_report_interval'
p1613
I1000
sS'CONFIG_ANON_INODES'
p1614
S'y'
sS'kernel.sched_domain.cpu5.domain1.max_newidle_lb_cost'
p1615
I1529461
sS'kernel.shmmni'
p1616
I4096
sS'CONFIG_ATARI_PARTITION'
p1617
S'y'
sS'kernel.sched_domain.cpu8.domain0.min_interval'
p1618
I10
sS'CONFIG_SECURITY_SELINUX_CHECKREQPROT_VALUE'
p1619
I1
sS'net.ipv4.conf.ens3.proxy_arp'
p1620
I0
sS'CONFIG_CRYPTO_CRCT10DIF'
p1621
S'y'
sS'kernel.sched_domain.cpu10.domain1.max_interval'
p1622
I40
sS'kernel.sched_domain.cpu19.domain1.min_interval'
p1623
I20
sS'CONFIG_ARCH_HAS_KCOV'
p1624
S'y'
sS'net.ipv6.conf.lo.accept_ra_rtr_pref'
p1625
I1
sS'CONFIG_RAPIDIO_DISC_TIMEOUT'
p1626
I30
sS'kernel.modprobe'
p1627
S'/sbin/modprobe'
p1628
sS'net.ipv6.conf.ens3.enhanced_dad'
p1629
I1
sS'net.ipv6.conf.all.router_probe_interval'
p1630
I60
sS'CONFIG_BSD_PROCESS_ACCT'
p1631
S'y'
sS'CONFIG_SPI_MASTER'
p1632
S'y'
sS'kernel.sched_domain.cpu17.domain1.busy_factor'
p1633
I32
sS'kernel.sched_domain.cpu10.domain0.imbalance_pct'
p1634
I125
sS'kernel.sched_domain.cpu2.domain1.idle_idx'
p1635
I2
sS'CONFIG_KALLSYMS_ABSOLUTE_PERCPU'
p1636
S'y'
sS'kernel.sched_domain.cpu6.domain0.name'
p1637
S'DIE'
p1638
sS'net.ipv6.conf.all.temp_valid_lft'
p1639
I604800
sS'CONFIG_LZ4_DECOMPRESS'
p1640
S'y'
sS'CONFIG_CRYPTO_MANAGER'
p1641
S'y'
sS'kernel.sched_domain.cpu12.domain1.forkexec_idx'
p1642
I0
sS'net.ipv4.conf.default.drop_unicast_in_l2_multicast'
p1643
I0
sS'CONFIG_SND_PROC_FS'
p1644
S'y'
sS'net.ipv6.conf.ens3.hop_limit'
p1645
I64
sS'CONFIG_VGA_CONSOLE'
p1646
S'y'
sS'CONFIG_RANDOMIZE_MEMORY_PHYSICAL_PADDING'
p1647
S'0xa'
p1648
sS'CONFIG_ECRYPT_FS'
p1649
S'y'
sS'CONFIG_QUOTACTL_COMPAT'
p1650
S'y'
sS'kernel.sched_domain.cpu1.domain0.idle_idx'
p1651
I1
sS'kernel.sched_domain.cpu8.domain0.idle_idx'
p1652
I1
sS'CONFIG_X86_MCE_THRESHOLD'
p1653
S'y'
sS'CONFIG_CGROUP_PIDS'
p1654
S'y'
sS'CONFIG_FB_TILEBLITTING'
p1655
S'y'
sS'net.ipv4.conf.ens3.accept_local'
p1656
I0
sS'CONFIG_NLS_ISO8859_1'
p1657
S'y'
sS'CONFIG_SND_TIMER'
p1658
S'm'
sS'CONFIG_SCHED_INFO'
p1659
S'y'
sS'CONFIG_CRYPTO_AES_X86_64'
p1660
S'm'
sS'kernel.sched_domain.cpu0.domain1.busy_factor'
p1661
I32
sS'CONFIG_HID_PID'
p1662
S'y'
sS'CONFIG_SPLIT_PTLOCK_CPUS'
p1663
I4
sS'dev.cdrom.autoclose'
p1664
I1
sS'CONFIG_LIBCRC32C'
p1665
S'm'
sS'CONFIG_WLAN_VENDOR_BROADCOM'
p1666
S'y'
sS'CONFIG_EDAC_SUPPORT'
p1667
S'y'
sS'CONFIG_HAVE_ARCH_COMPAT_MMAP_BASES'
p1668
S'y'
sS'CONFIG_TASK_DELAY_ACCT'
p1669
S'y'
sS'CONFIG_CRYPTO_NULL'
p1670
S'y'
sS'net.ipv6.conf.all.force_tllao'
p1671
I0
sS'net.ipv4.route.gc_interval'
p1672
I60
sS'CONFIG_ARCH_SUSPEND_POSSIBLE'
p1673
S'y'
sS'CONFIG_SPARSEMEM_EXTREME'
p1674
S'y'
sS'CONFIG_DMA_ACPI'
p1675
S'y'
sS'kernel.kptr_restrict'
p1676
I1
sS'CONFIG_INPUT_MOUSEDEV'
p1677
S'y'
sS'CONFIG_X86_DIRECT_GBPAGES'
p1678
S'y'
sS'CONFIG_NET_VENDOR_MICROCHIP'
p1679
S'y'
sS'net.ipv6.conf.ens3.accept_redirects'
p1680
I1
sS'vm.compact_unevictable_allowed'
p1681
I1
sS'CONFIG_ZLIB_DEFLATE'
p1682
S'y'
sS'kernel.sched_domain.cpu18.domain0.busy_factor'
p1683
I32
sS'CONFIG_ACPI_CPU_FREQ_PSS'
p1684
S'y'
sS'CONFIG_SYSVIPC_COMPAT'
p1685
S'y'
sS'CONFIG_X86_VSYSCALL_EMULATION'
p1686
S'y'
sS'net.ipv6.conf.all.use_tempaddr'
p1687
I2
sS'net.ipv6.conf.all.accept_ra_rtr_pref'
p1688
I1
sS'CONFIG_I2C_DESIGNWARE_BAYTRAIL'
p1689
S'y'
sS'CONFIG_HOTPLUG_PCI_CPCI'
p1690
S'y'
sS'net.ipv4.conf.ens3.force_igmp_version'
p1691
I0
sS'CONFIG_FTRACE'
p1692
S'y'
sS'CONFIG_GENERIC_IOMAP'
p1693
S'y'
sS'CONFIG_CGROUP_NET_CLASSID'
p1694
S'y'
sS'CONFIG_DEVFREQ_GOV_USERSPACE'
p1695
S'y'
sS'CONFIG_AUDIT_TREE'
p1696
S'y'
sS'CONFIG_MOUSE_PS2_BYD'
p1697
S'y'
sS'CONFIG_USB_OHCI_HCD_PCI'
p1698
S'y'
sS'net.ipv4.route.min_adv_mss'
p1699
I256
sS'CONFIG_HAVE_KVM_IRQFD'
p1700
S'y'
sS'CONFIG_ARCH_DEFCONFIG'
p1701
S'"arch/x86/configs/x86_64_defconfig"'
p1702
sS'CONFIG_WAN'
p1703
S'y'
sS'net.ipv4.tcp_thin_linear_timeouts'
p1704
I0
sS'CONFIG_CRYPTO_ALGAPI2'
p1705
S'y'
sS'kernel.sched_domain.cpu16.domain1.wake_idx'
p1706
I0
sS'CONFIG_INTEL_TXT'
p1707
S'y'
sS'CONFIG_MOUSE_PS2_TOUCHKIT'
p1708
S'y'
sS'CONFIG_LLC'
p1709
S'm'
sS'net.ipv6.conf.ens3.mc_forwarding'
p1710
I0
sS'kernel.sched_domain.cpu12.domain0.cache_nice_tries'
p1711
I1
sS'CONFIG_QUEUED_SPINLOCKS'
p1712
S'y'
sS'kernel.sched_domain.cpu11.domain0.min_interval'
p1713
I10
sS'net.ipv4.tcp_congestion_control'
p1714
S'cubic'
p1715
sS'CONFIG_ATA_SFF'
p1716
S'y'
sS'CONFIG_NVMEM'
p1717
S'y'
sS'CONFIG_SERIO_RAW'
p1718
S'm'
sS'CONFIG_HAVE_KVM_IRQ_ROUTING'
p1719
S'y'
sS'dev.mac_hid.mouse_button3_keycode'
p1720
I100
sS'CONFIG_GENERIC_BUG'
p1721
S'y'
sS'CONFIG_BLK_DEV_IO_TRACE'
p1722
S'y'
sS'net.ipv4.conf.ens3.drop_gratuitous_arp'
p1723
I0
sS'CONFIG_MUTEX_SPIN_ON_OWNER'
p1724
S'y'
sS'CONFIG_MEMORY_ISOLATION'
p1725
S'y'
sS'net.ipv6.conf.all.accept_ra_pinfo'
p1726
I1
sS'kernel.shm_next_id'
p1727
S'-1'
p1728
sS'net.ipv6.calipso_cache_bucket_size'
p1729
I10
sS'CONFIG_NET_VENDOR_AURORA'
p1730
S'y'
sS'CONFIG_LOCKDEP_SUPPORT'
p1731
S'y'
sS'net.ipv4.conf.ens3.ignore_routes_with_linkdown'
p1732
I0
sS'CONFIG_GENERIC_CLOCKEVENTS_BROADCAST'
p1733
S'y'
sS'net.ipv6.conf.ens3.accept_ra'
p1734
I1
sS'vm.dirty_background_ratio'
p1735
I10
sS'net.ipv6.conf.all.mtu'
p1736
I1280
sS'kernel.sched_domain.cpu5.domain0.busy_factor'
p1737
I32
sS'net.ipv6.conf.default.mldv2_unsolicited_report_interval'
p1738
I1000
sS'CONFIG_ZONE_DEVICE'
p1739
S'y'
sS'CONFIG_VIRTUALIZATION'
p1740
S'y'
sS'fs.pipe-user-pages-hard'
p1741
I0
sS'net.ipv6.route.gc_min_interval'
p1742
I0
sS'kernel.sched_domain.cpu7.domain0.cache_nice_tries'
p1743
I1
sS'CONFIG_HAVE_VIRT_CPU_ACCOUNTING_GEN'
p1744
S'y'
sS'CONFIG_HAVE_ARCH_TRANSPARENT_HUGEPAGE'
p1745
S'y'
sS'CONFIG_PROC_PAGE_MONITOR'
p1746
S'y'
sS'dev.hpet.max-user-freq'
p1747
I64
sS'net.ipv4.conf.all.send_redirects'
p1748
I1
sS'kernel.sched_domain.cpu16.domain0.max_newidle_lb_cost'
p1749
I269219
sS'net.ipv4.route.gc_thresh'
p1750
S'-1'
p1751
sS'CONFIG_THERMAL_GOV_POWER_ALLOCATOR'
p1752
S'y'
sS'CONFIG_HAVE_CLK'
p1753
S'y'
sS'CONFIG_GENERIC_STRNLEN_USER'
p1754
S'y'
sS'dev.mac_hid.mouse_button_emulation'
p1755
I0
sS'CONFIG_SND_DMA_SGBUF'
p1756
S'y'
sS'CONFIG_ATA_GENERIC'
p1757
S'y'
sS'CONFIG_MOUSE_PS2_TRACKPOINT'
p1758
S'y'
sS'CONFIG_BLK_MQ_VIRTIO'
p1759
S'y'
sS'CONFIG_RD_LZ4'
p1760
S'y'
sS'CONFIG_STRICT_DEVMEM'
p1761
S'y'
sS'CONFIG_ARCH_ENABLE_MEMORY_HOTREMOVE'
p1762
S'y'
sS'CONFIG_DUMMY_CONSOLE_COLUMNS'
p1763
I80
sS'net.ipv4.conf.all.medium_id'
p1764
I0
sS'net.ipv6.conf.lo.use_tempaddr'
p1765
S'-1'
p1766
sS'kernel.sched_domain.cpu7.domain1.idle_idx'
p1767
I2
sS'kernel.sched_domain.cpu9.domain0.cache_nice_tries'
p1768
I1
sS'kernel.sched_domain.cpu5.domain1.cache_nice_tries'
p1769
I2
sS'CONFIG_DMA_ENGINE'
p1770
S'y'
sS'kernel.sched_domain.cpu3.domain1.busy_factor'
p1771
I32
sS'net.ipv6.conf.all.mldv2_unsolicited_report_interval'
p1772
I1000
sS'CONFIG_OUTPUT_FORMAT'
p1773
S'"elf64-x86-64"'
p1774
sS'CONFIG_X86_X2APIC'
p1775
S'y'
sS'CONFIG_CGROUP_BPF'
p1776
S'y'
sS'CONFIG_ARCH_ENABLE_SPLIT_PMD_PTLOCK'
p1777
S'y'
sS'CONFIG_NET_CLS_ACT'
p1778
S'y'
sS'CONFIG_DECOMPRESS_LZO'
p1779
S'y'
sS'net.ipv4.conf.default.src_valid_mark'
p1780
I0
sS'kernel.sched_domain.cpu16.domain0.newidle_idx'
p1781
I0
sS'CONFIG_NETFILTER_XTABLES'
p1782
S'm'
sS'net.ipv4.conf.lo.proxy_arp_pvlan'
p1783
I0
sS'CONFIG_SCSI_BNX2_ISCSI'
p1784
S'm'
sS'net.ipv4.conf.default.log_martians'
p1785
I0
sS'CONFIG_FREEZER'
p1786
S'y'
sS'CONFIG_QUOTA_NETLINK_INTERFACE'
p1787
S'y'
sS'net.ipv4.tcp_ecn_fallback'
p1788
I1
sS'CONFIG_FB'
p1789
S'y'
sS'CONFIG_MFD_WM831X'
p1790
S'y'
sS'CONFIG_SLUB_DEBUG'
p1791
S'y'
sS'CONFIG_MFD_DA9055'
p1792
S'y'
sS'CONFIG_CGROUP_NET_PRIO'
p1793
S'y'
sS'net.ipv6.neigh.default.mcast_solicit'
p1794
I3
sS'CONFIG_GPIO_LYNXPOINT'
p1795
S'y'
sS'CONFIG_IPC_NS'
p1796
S'y'
sS'CONFIG_PRINTK_TIME'
p1797
S'y'
sS'CONFIG_PCI_MSI_IRQ_DOMAIN'
p1798
S'y'
sS'CONFIG_HAVE_C_RECORDMCOUNT'
p1799
S'y'
sS'net.ipv6.neigh.default.anycast_delay'
p1800
I100
sS'CONFIG_MFD_TPS6586X'
p1801
S'y'
sS'net.ipv6.conf.lo.seg6_enabled'
p1802
I0
sS'kernel.sched_domain.cpu11.domain1.max_interval'
p1803
I40
sS'net.ipv4.conf.ens3.disable_policy'
p1804
I0
sS'CONFIG_PCC'
p1805
S'y'
sS'CONFIG_REGMAP'
p1806
S'y'
sS'CONFIG_SCHEDSTATS'
p1807
S'y'
sS'CONFIG_CLOCKSOURCE_WATCHDOG'
p1808
S'y'
sS'CONFIG_PCI_QUIRKS'
p1809
S'y'
sS'CONFIG_NET_VENDOR_EXAR'
p1810
S'y'
sS'CONFIG_GENERIC_IRQ_PROBE'
p1811
S'y'
sS'CONFIG_BTT'
p1812
S'y'
sS'CONFIG_DECOMPRESS_LZ4'
p1813
S'y'
sS'net.ipv6.conf.lo.ignore_routes_with_linkdown'
p1814
I0
sS'CONFIG_HARDLOCKUP_DETECTOR'
p1815
S'y'
sS'CONFIG_BQL'
p1816
S'y'
sS'kernel.sched_domain.cpu14.domain0.imbalance_pct'
p1817
I125
sS'CONFIG_RTC_SYSTOHC'
p1818
S'y'
sS'CONFIG_USB_XHCI_HCD'
p1819
S'y'
sS'CONFIG_SERIO_LIBPS2'
p1820
S'y'
sS'CONFIG_UNIX'
p1821
S'y'
sS'net.ipv4.tcp_fack'
p1822
I0
sS'net.ipv6.conf.ens3.mldv2_unsolicited_report_interval'
p1823
I1000
sS'net.ipv4.neigh.lo.mcast_resolicit'
p1824
I0
sS'uname'
p1825
S'Linux nestedvm 4.14.0-rc8-stock #3 SMP Tue Mar 13 14:28:42 EDT 2018 x86_64 x86_64 x86_64 GNU/Linux'
p1826
sS'CONFIG_DMADEVICES'
p1827
S'y'
sS'CONFIG_DEFAULT_HOSTNAME'
p1828
S'"(none)"'
p1829
sS'CONFIG_CRYPTO_LZO'
p1830
S'y'
sS'CONFIG_HAVE_STACK_VALIDATION'
p1831
S'y'
sS'kernel.sched_domain.cpu11.domain1.flags'
p1832
I25647
sS'CONFIG_INTEL_IOMMU_FLOPPY_WA'
p1833
S'y'
sS'CONFIG_HAVE_KVM'
p1834
S'y'
sS'CONFIG_USB_PCI'
p1835
S'y'
sS'CONFIG_ACPI_I2C_OPREGION'
p1836
S'y'
sS'CONFIG_SATA_ZPODD'
p1837
S'y'
sS'CONFIG_SPARSEMEM_VMEMMAP'
p1838
S'y'
sS'CONFIG_NET_VENDOR_SIS'
p1839
S'y'
sS'net.core.netdev_budget_usecs'
p1840
I2000
sS'CONFIG_TCP_CONG_ADVANCED'
p1841
S'y'
sS'CONFIG_CPU_FREQ_DEFAULT_GOV_PERFORMANCE'
p1842
S'y'
sS'net.ipv6.ip6frag_high_thresh'
p1843
I4194304
sS'CONFIG_FSNOTIFY'
p1844
S'y'
sS'CONFIG_POWER_RESET'
p1845
S'y'
sS'CONFIG_VIRTIO_NET'
p1846
S'y'
sS'CONFIG_RFKILL'
p1847
S'y'
sS'CONFIG_BCMA_POSSIBLE'
p1848
S'y'
sS'CONFIG_OPTIMIZE_INLINING'
p1849
S'y'
sS'net.ipv4.ipfrag_time'
p1850
I30
sS'net.ipv4.conf.default.secure_redirects'
p1851
I1
sS'CONFIG_MOUSE_PS2_SMBUS'
p1852
S'y'
sS'CONFIG_MD_RAID10'
p1853
S'm'
sS'kernel.sched_domain.cpu11.domain0.max_interval'
p1854
I20
sS'CONFIG_PPDEV'
p1855
S'm'
sS'CONFIG_BLK_DEV_INITRD'
p1856
S'y'
sS'CONFIG_CNIC'
p1857
S'm'
sS'CONFIG_DM_UEVENT'
p1858
S'y'
sS'CONFIG_LEGACY_PTYS'
p1859
S'y'
sS'CONFIG_FS_POSIX_ACL'
p1860
S'y'
sS'kernel.auto_msgmni'
p1861
I0
sS'fs.mqueue.msgsize_default'
p1862
I8192
sS'CONFIG_KEXEC_VERIFY_SIG'
p1863
S'y'
sS'fs.inotify.max_user_watches'
p1864
I8192
sS'CONFIG_IMA_APPRAISE_BOOTPARAM'
p1865
S'y'
sS'CONFIG_HPET'
p1866
S'y'
sS'CONFIG_CRYPTO_WORKQUEUE'
p1867
S'y'
sS'CONFIG_INTEGRITY_SIGNATURE'
p1868
S'y'
sS'kernel.sched_domain.cpu12.domain1.busy_idx'
p1869
I3
sS'CONFIG_SPARSE_IRQ'
p1870
S'y'
sS'kernel.sched_domain.cpu16.domain1.min_interval'
p1871
I20
sS'CONFIG_BLK_SCSI_REQUEST'
p1872
S'y'
sS'kernel.sched_domain.cpu12.domain0.name'
p1873
S'DIE'
p1874
sS'CONFIG_BITREVERSE'
p1875
S'y'
sS'CONFIG_HAVE_ARCH_MMAP_RND_BITS'
p1876
S'y'
sS'net.ipv6.conf.lo.accept_ra_rt_info_max_plen'
p1877
I0
sS'CONFIG_NET_VENDOR_MICREL'
p1878
S'y'
sS'kernel.sched_domain.cpu17.domain0.newidle_idx'
p1879
I0
sS'CONFIG_DEBUG_INFO'
p1880
S'y'
sS'kernel.sched_domain.cpu18.domain1.idle_idx'
p1881
I2
sS'CONFIG_MAGIC_SYSRQ'
p1882
S'y'
sS'CONFIG_SERIAL_8250_PNP'
p1883
S'y'
sS'CONFIG_CLKDEV_LOOKUP'
p1884
S'y'
sS'kernel.sched_domain.cpu11.domain0.forkexec_idx'
p1885
I0
sS'kernel.keys.maxbytes'
p1886
I20000
sS'CONFIG_BRANCH_PROFILE_NONE'
p1887
S'y'
sS'CONFIG_NO_BOOTMEM'
p1888
S'y'
sS'CONFIG_XXHASH'
p1889
S'm'
sS'vm.dirty_ratio'
p1890
I20
sS'net.ipv6.idgen_retries'
p1891
I3
sS'CONFIG_MAGIC_SYSRQ_SERIAL'
p1892
S'y'
sS'CONFIG_CRYPTO_HASH2'
p1893
S'y'
sS'CONFIG_MEMCG_SWAP'
p1894
S'y'
sS'CONFIG_IOSCHED_NOOP'
p1895
S'y'
sS'CONFIG_USB_COMMON'
p1896
S'y'
sS'kernel.sched_domain.cpu0.domain0.wake_idx'
p1897
I0
sS'CONFIG_SND_VERBOSE_PROCFS'
p1898
S'y'
sS'net.ipv6.conf.ens3.temp_prefered_lft'
p1899
I86400
sS'CONFIG_BRIDGE_NF_EBTABLES'
p1900
S'm'
sS'CONFIG_CRYPTO_JITTERENTROPY'
p1901
S'y'
sS'CONFIG_CRYPTO_DRBG_MENU'
p1902
S'y'
sS'CONFIG_ARCH_USE_CMPXCHG_LOCKREF'
p1903
S'y'
sS'CONFIG_RD_GZIP'
p1904
S'y'
sS'user.max_pid_namespaces'
p1905
I257592
sS'kernel.sched_domain.cpu0.domain1.min_interval'
p1906
I20
sS'CONFIG_PANIC_ON_OOPS_VALUE'
p1907
I0
sS'CONFIG_USB_EHCI_ROOT_HUB_TT'
p1908
S'y'
sS'kernel.sched_min_granularity_ns'
p1909
I3000000
sS'CONFIG_X86_NEED_RELOCS'
p1910
S'y'
sS'kernel.sched_domain.cpu4.domain1.busy_idx'
p1911
I3
sS'CONFIG_XZ_DEC_ARM'
p1912
S'y'
sS'CONFIG_SCSI_DMA'
p1913
S'y'
sS'kernel.sched_domain.cpu4.domain0.max_interval'
p1914
I20
sS'CONFIG_ARCH_HAS_ZONE_DEVICE'
p1915
S'y'
sS'CONFIG_HVC_DRIVER'
p1916
S'y'
sS'CONFIG_HAVE_RCU_TABLE_FREE'
p1917
S'y'
sS'CONFIG_ZSMALLOC'
p1918
S'y'
sS'CONFIG_HAVE_PERF_REGS'
p1919
S'y'
sS'CONFIG_SND_HWDEP'
p1920
S'm'
sS'CONFIG_CRYPTO_HASH'
p1921
S'y'
sS'kernel.sched_domain.cpu9.domain0.newidle_idx'
p1922
I0
sS'CONFIG_KEYS_COMPAT'
p1923
S'y'
sS'kernel.sched_domain.cpu15.domain0.max_interval'
p1924
I20
sS'kernel.sched_domain.cpu3.domain1.newidle_idx'
p1925
I0
sS'CONFIG_CRYPTO_NULL2'
p1926
S'y'
sS'CONFIG_RCU_STALL_COMMON'
p1927
S'y'
sS'net.ipv6.conf.lo.accept_ra_min_hop_limit'
p1928
I1
sS'CONFIG_MFD_SEC_CORE'
p1929
S'y'
sS'net.ipv4.conf.default.proxy_arp'
p1930
I0
sS'kernel.sched_rr_timeslice_ms'
p1931
I100
sS'net.ipv6.conf.lo.disable_ipv6'
p1932
I0
sS'kernel.sched_domain.cpu16.domain0.min_interval'
p1933
I10
sS'CONFIG_NEED_PER_CPU_PAGE_FIRST_CHUNK'
p1934
S'y'
sS'CONFIG_KGDB_KDB'
p1935
S'y'
sS'kernel.sched_domain.cpu19.domain0.busy_factor'
p1936
I32
sS'net.ipv4.conf.all.src_valid_mark'
p1937
I0
sS'fs.overflowuid'
p1938
I65534
sS'net.ipv4.conf.ens3.arp_accept'
p1939
I0
sS'CONFIG_FB_CFB_FILLRECT'
p1940
S'y'
sS'CONFIG_SECURITYFS'
p1941
S'y'
sS'CONFIG_OSF_PARTITION'
p1942
S'y'
sS'CONFIG_CRYPTO_AKCIPHER'
p1943
S'y'
sS'CONFIG_MAY_USE_DEVLINK'
p1944
S'y'
sS'kernel.sched_domain.cpu17.domain1.imbalance_pct'
p1945
I125
sS'net.ipv6.conf.default.accept_redirects'
p1946
I1
sS'CONFIG_BNX2'
p1947
S'm'
sS'CONFIG_I2C_CHARDEV'
p1948
S'y'
sS'CONFIG_CMA_AREAS'
p1949
I7
sS'CONFIG_ARM_GIC_MAX_NR'
p1950
I1
sS'net.ipv4.conf.all.accept_redirects'
p1951
I1
sS'kernel.sched_domain.cpu2.domain1.imbalance_pct'
p1952
I125
sS'vm.max_map_count'
p1953
I65530
sS'CONFIG_SCSI_SCAN_ASYNC'
p1954
S'y'
sS'net.ipv6.conf.default.enhanced_dad'
p1955
I1
sS'net.ipv4.conf.lo.arp_ignore'
p1956
I0
sS'kernel.sched_domain.cpu13.domain1.forkexec_idx'
p1957
I0
sS'CONFIG_HAVE_KVM_IRQCHIP'
p1958
S'y'
sS'CONFIG_INLINE_READ_UNLOCK'
p1959
S'y'
sS'CONFIG_PM_SLEEP_SMP'
p1960
S'y'
sS'kernel.sched_domain.cpu7.domain0.max_newidle_lb_cost'
p1961
I123624
sS'net.ipv4.conf.ens3.proxy_arp_pvlan'
p1962
I0
sS'CONFIG_FIX_EARLYCON_MEM'
p1963
S'y'
sS'kernel.sched_domain.cpu3.domain0.forkexec_idx'
p1964
I0
sS'net.netfilter.nf_log.11'
p1965
S'NONE'
p1966
sS'net.ipv6.conf.lo.ndisc_notify'
p1967
I0
sS'net.ipv4.conf.ens3.promote_secondaries'
p1968
I0
sS'CONFIG_VT_HW_CONSOLE_BINDING'
p1969
S'y'
sS'CONFIG_MIGRATION'
p1970
S'y'
sS'CONFIG_SYSVIPC_SYSCTL'
p1971
S'y'
sS'CONFIG_HAMRADIO'
p1972
S'y'
sS'CONFIG_KGDB'
p1973
S'y'
sS'CONFIG_EFI_ESRT'
p1974
S'y'
sS'CONFIG_RAS'
p1975
S'y'
sS'CONFIG_GENERIC_PINCONF'
p1976
S'y'
sS'kernel.sched_domain.cpu8.domain0.max_interval'
p1977
I20
sS'CONFIG_HIGH_RES_TIMERS'
p1978
S'y'
sS'CONFIG_PPP'
p1979
S'y'
sS'CONFIG_HAVE_GENERIC_GUP'
p1980
S'y'
sS'CONFIG_NET_VENDOR_HUAWEI'
p1981
S'y'
sS'CONFIG_ZLIB_INFLATE'
p1982
S'y'
sS'CONFIG_CORE_DUMP_DEFAULT_ELF_HEADERS'
p1983
S'y'
sS'CONFIG_POWER_AVS'
p1984
S'y'
sS'CONFIG_MFD_AAT2870_CORE'
p1985
S'y'
sS'CONFIG_QED'
p1986
S'm'
sS'CONFIG_LEGACY_PTY_COUNT'
p1987
I0
sS'CONFIG_GENERIC_CALIBRATE_DELAY'
p1988
S'y'
sS'net.ipv6.conf.default.force_tllao'
p1989
I0
sS'CONFIG_AGP_INTEL'
p1990
S'y'
sS'CONFIG_CRYPTO_CRC32C'
p1991
S'y'
sS'kernel.sched_domain.cpu3.domain1.min_interval'
p1992
I20
sS'CONFIG_LOCK_SPIN_ON_OWNER'
p1993
S'y'
sS'CONFIG_CRYPTO_GHASH'
p1994
S'y'
sS'kernel.sched_domain.cpu0.domain0.max_interval'
p1995
I20
sS'net.ipv4.inet_peer_minttl'
p1996
I120
sS'net.core.netdev_budget'
p1997
I300
sS'kernel.shmall'
p1998
L18446744073692774399L
sS'CONFIG_ABX500_CORE'
p1999
S'y'
sS'CONFIG_ACPI_APEI_PCIEAER'
p2000
S'y'
sS'CONFIG_CRYPTO_MANAGER_DISABLE_TESTS'
p2001
S'y'
sS'kernel.sched_domain.cpu12.domain0.busy_idx'
p2002
I2
sS'CONFIG_GENERIC_BUG_RELATIVE_POINTERS'
p2003
S'y'
sS'CONFIG_TICK_ONESHOT'
p2004
S'y'
sS'CONFIG_LOG_CPU_MAX_BUF_SHIFT'
p2005
I12
sS'CONFIG_WLAN_VENDOR_INTEL'
p2006
S'y'
sS'net.ipv6.conf.default.seg6_enabled'
p2007
I0
sS'net.ipv4.ip_nonlocal_bind'
p2008
I0
sS'CONFIG_EXT4_FS'
p2009
S'y'
sS'kernel.sched_domain.cpu1.domain0.newidle_idx'
p2010
I0
sS'net.ipv4.neigh.default.base_reachable_time_ms'
p2011
I30000
sS'CONFIG_BALLOON_COMPACTION'
p2012
S'y'
sS'CONFIG_ASYNC_PQ'
p2013
S'm'
sS'CONFIG_USELIB'
p2014
S'y'
sS'net.ipv4.route.redirect_silence'
p2015
I5120
sS'net.ipv6.conf.default.hop_limit'
p2016
I64
sS'CONFIG_FB_IMSTT'
p2017
S'y'
sS'CONFIG_X86_64_SMP'
p2018
S'y'
sS'CONFIG_PM_OPP'
p2019
S'y'
sS'kernel.sched_domain.cpu5.domain0.min_interval'
p2020
I10
sS'CONFIG_TCG_TIS_CORE'
p2021
S'y'
sS'CONFIG_KSM'
p2022
S'y'
sS'CONFIG_RTC_INTF_SYSFS'
p2023
S'y'
sS'kernel.sched_domain.cpu14.domain0.name'
p2024
S'DIE'
p2025
sS'net.ipv6.conf.all.accept_ra'
p2026
I1
sS'CONFIG_MFD_TPS65912_I2C'
p2027
S'y'
sS'net.ipv4.conf.lo.arp_filter'
p2028
I0
sS'CONFIG_EFIVAR_FS'
p2029
S'y'
sS'CONFIG_SERIAL_8250_SHARE_IRQ'
p2030
S'y'
sS'kernel.sched_domain.cpu2.domain0.forkexec_idx'
p2031
I0
sS'net.ipv6.conf.all.router_solicitations'
p2032
S'-1'
p2033
sS'net.ipv4.udp_l3mdev_accept'
p2034
I0
sS'kernel.unprivileged_bpf_disabled'
p2035
I0
sS'CONFIG_FUSION_MAX_SGE'
p2036
I128
sS'CONFIG_HAS_IOPORT_MAP'
p2037
S'y'
sS'CONFIG_MFD_WM831X_SPI'
p2038
S'y'
sS'kernel.sched_domain.cpu9.domain1.name'
p2039
S'NUMA'
p2040
sS'CONFIG_JUMP_LABEL'
p2041
S'y'
sS'CONFIG_INPUT_LEDS'
p2042
S'm'
sS'net.ipv4.tcp_app_win'
p2043
I31
sS'net.ipv4.cipso_cache_enable'
p2044
I1
sS'CONFIG_EVM_EXTRA_SMACK_XATTRS'
p2045
S'y'
sS'net.ipv6.conf.ens3.autoconf'
p2046
I1
sS'kernel.sched_domain.cpu19.domain0.max_interval'
p2047
I20
sS'CONFIG_MEMORY'
p2048
S'y'
sS'kernel.numa_balancing_scan_delay_ms'
p2049
I1000
sS'CONFIG_KDB_DEFAULT_ENABLE'
p2050
S'0x1'
p2051
sS'fs.inotify.max_queued_events'
p2052
I16384
sS'CONFIG_SG_POOL'
p2053
S'y'
sS'CONFIG_CRYPTO_RSA'
p2054
S'y'
sS'net.ipv4.tcp_pacing_ca_ratio'
p2055
I120
sS'CONFIG_CPU_FREQ_GOV_POWERSAVE'
p2056
S'y'
sS'CONFIG_HAVE_BOOTMEM_INFO_NODE'
p2057
S'y'
sS'kernel.sched_domain.cpu17.domain1.forkexec_idx'
p2058
I0
sS'CONFIG_SPARSEMEM_ALLOC_MEM_MAP_TOGETHER'
p2059
S'y'
sS'CONFIG_ARCH_PHYS_ADDR_T_64BIT'
p2060
S'y'
sS'kernel.sched_domain.cpu8.domain0.wake_idx'
p2061
I0
sS'CONFIG_CPU_FREQ_GOV_USERSPACE'
p2062
S'y'
sS'kernel.sched_domain.cpu19.domain1.idle_idx'
p2063
I2
sS'CONFIG_HAVE_UNSTABLE_SCHED_CLOCK'
p2064
S'y'
sS'kernel.sched_domain.cpu8.domain1.forkexec_idx'
p2065
I0
sS'net.ipv4.igmp_link_local_mcast_reports'
p2066
I1
sS'CONFIG_MEM_SOFT_DIRTY'
p2067
S'y'
sS'CONFIG_MODULES_USE_ELF_RELA'
p2068
S'y'
sS'CONFIG_SECURITY_SMACK'
p2069
S'y'
sS'net.ipv6.anycast_src_echo_reply'
p2070
I0
sS'CONFIG_IO_DELAY_TYPE_UDELAY'
p2071
I2
sS'CONFIG_SGETMASK_SYSCALL'
p2072
S'y'
sS'CONFIG_BLK_DEV_DM_BUILTIN'
p2073
S'y'
sS'net.ipv4.conf.lo.tag'
p2074
I0
sS'CONFIG_SQUASHFS_FRAGMENT_CACHE_SIZE'
p2075
I3
sS'kernel.sched_domain.cpu3.domain0.idle_idx'
p2076
I1
sS'CONFIG_AUDIT'
p2077
S'y'
sS'CONFIG_UPROBE_EVENTS'
p2078
S'y'
sS'CONFIG_ARCH_SUPPORTS_DEBUG_PAGEALLOC'
p2079
S'y'
sS'CONFIG_X86_CMPXCHG64'
p2080
S'y'
sS'CONFIG_NET_FLOW_LIMIT'
p2081
S'y'
sS'CONFIG_ND_CLAIM'
p2082
S'y'
sS'CONFIG_TOUCHSCREEN_ELAN'
p2083
S'y'
sS'kernel.sched_domain.cpu4.domain0.newidle_idx'
p2084
I0
sS'CONFIG_CRYPTO_BLKCIPHER'
p2085
S'y'
sS'net.ipv6.conf.default.accept_ra_mtu'
p2086
I1
sS'fs.dir-notify-enable'
p2087
I1
sS'CONFIG_HAVE_HARDLOCKUP_DETECTOR_PERF'
p2088
S'y'
sS'kernel.sched_domain.cpu0.domain0.busy_factor'
p2089
I32
sS'kernel.sched_domain.cpu17.domain1.max_newidle_lb_cost'
p2090
I205040
sS'kernel.nmi_watchdog'
p2091
I0
sS'kernel.sched_domain.cpu12.domain1.imbalance_pct'
p2092
I125
sS'CONFIG_HAVE_COPY_THREAD_TLS'
p2093
S'y'
sS'net.ipv6.route.gc_thresh'
p2094
I1024
sS'CONFIG_ARCH_RANDOM'
p2095
S'y'
sS'net.ipv6.conf.ens3.router_probe_interval'
p2096
I60
sS'CONFIG_X86_EXTENDED_PLATFORM'
p2097
S'y'
sS'CONFIG_PM_TRACE'
p2098
S'y'
sS'CONFIG_SYSCTL_EXCEPTION_TRACE'
p2099
S'y'
sS'CONFIG_X86_INTERNODE_CACHE_SHIFT'
p2100
I6
sS'CONFIG_HAVE_SYSCALL_TRACEPOINTS'
p2101
S'y'
sS'kernel.sched_domain.cpu13.domain1.max_interval'
p2102
I40
sS'CONFIG_CRC32'
p2103
S'y'
sS'CONFIG_FUSION'
p2104
S'y'
sS'net.ipv4.conf.lo.accept_source_route'
p2105
I1
sS'net.ipv6.conf.ens3.suppress_frag_ndisc'
p2106
I1
sS'CONFIG_SWPHY'
p2107
S'y'
sS'CONFIG_FUTEX_PI'
p2108
S'y'
sS'CONFIG_HAVE_IOREMAP_PROT'
p2109
S'y'
sS'net.ipv6.conf.all.mc_forwarding'
p2110
I0
sS'vm.admin_reserve_kbytes'
p2111
I8192
sS'CONFIG_ASYNC_TX_DMA'
p2112
S'y'
sS'CONFIG_DW_DMAC_CORE'
p2113
S'y'
sS'CONFIG_RTC_NVMEM'
p2114
S'y'
sS'kernel.sched_domain.cpu6.domain0.newidle_idx'
p2115
I0
sS'kernel.sched_domain.cpu5.domain0.name'
p2116
S'DIE'
p2117
sS'net.ipv4.tcp_early_demux'
p2118
I1
sS'CONFIG_EXT4_FS_SECURITY'
p2119
S'y'
sS'kernel.sched_domain.cpu9.domain0.forkexec_idx'
p2120
I0
sS'kernel.sched_domain.cpu19.domain1.max_newidle_lb_cost'
p2121
I78507
sS'net.ipv4.neigh.default.unres_qlen'
p2122
I101
sS'kernel.sched_domain.cpu4.domain1.idle_idx'
p2123
I2
sS'CONFIG_COMMON_CLK'
p2124
S'y'
sS'CONFIG_MFD_PALMAS'
p2125
S'y'
sS'CONFIG_AUXDISPLAY'
p2126
S'y'
sS'CONFIG_WLAN_VENDOR_ST'
p2127
S'y'
sS'kernel.printk_ratelimit'
p2128
I5
sS'net.ipv4.neigh.default.delay_first_probe_time'
p2129
I5
sS'CONFIG_SECURITY_SELINUX_BOOTPARAM_VALUE'
p2130
I0
sS'fs.lease-break-time'
p2131
I45
sS'CONFIG_SELECT_MEMORY_MODEL'
p2132
S'y'
sS'vm.dirty_bytes'
p2133
I0
sS'net.ipv6.conf.lo.accept_redirects'
p2134
I1
sS'CONFIG_KVM_GUEST'
p2135
S'y'
sS'net.ipv4.tcp_syn_retries'
p2136
I6
sS'kernel.shm_rmid_forced'
p2137
I0
sS'CONFIG_PERF_EVENTS_INTEL_UNCORE'
p2138
S'y'
sS'kernel.hung_task_check_count'
p2139
I4194304
sS'kernel.sched_domain.cpu17.domain1.max_interval'
p2140
I40
sS'kernel.sched_domain.cpu13.domain0.cache_nice_tries'
p2141
I1
sS'kernel.sched_domain.cpu11.domain1.forkexec_idx'
p2142
I0
sS'CONFIG_NET_VENDOR_I825XX'
p2143
S'y'
sS'CONFIG_X86_FAST_FEATURE_TESTS'
p2144
S'y'
sS'CONFIG_FB_NOTIFY'
p2145
S'y'
sS'CONFIG_UEVENT_HELPER_PATH'
p2146
S'""'
p2147
sS'CONFIG_CRYPTO_GHASH_CLMUL_NI_INTEL'
p2148
S'm'
sS'CONFIG_DEVFREQ_GOV_POWERSAVE'
p2149
S'y'
sS'kernel.sched_domain.cpu11.domain1.min_interval'
p2150
I20
sS'net.ipv6.conf.ens3.accept_ra_from_local'
p2151
I0
sS'net.ipv6.conf.default.router_solicitation_interval'
p2152
I4
sS'net.ipv4.tcp_tso_win_divisor'
p2153
I3
sS'CONFIG_RELOCATABLE'
p2154
S'y'
sS'fs.pipe-max-size'
p2155
I1048576
sS'CONFIG_NO_HZ'
p2156
S'y'
sS'CONFIG_DYNAMIC_FTRACE_WITH_REGS'
p2157
S'y'
sS'CONFIG_CHELSIO_T4_DCB'
p2158
S'y'
sS'CONFIG_RTC_SYSTOHC_DEVICE'
p2159
S'"rtc0"'
p2160
sS'CONFIG_DEFAULT_SECURITY_APPARMOR'
p2161
S'y'
sS'kernel.sched_domain.cpu18.domain0.min_interval'
p2162
I10
sS'CONFIG_HAVE_KERNEL_BZIP2'
p2163
S'y'
sS'net.ipv6.conf.ens3.addr_gen_mode'
p2164
I0
sS'CONFIG_QED_SRIOV'
p2165
S'y'
sS'net.ipv4.route.gc_min_interval_ms'
p2166
I500
sS'CONFIG_IOMMU_HELPER'
p2167
S'y'
sS'CONFIG_WLAN_VENDOR_RSI'
p2168
S'y'
sS'CONFIG_VIRTIO_BLK'
p2169
S'y'
sS'kernel.sched_domain.cpu2.domain1.name'
p2170
S'NUMA'
p2171
sS'CONFIG_HOTPLUG_PCI_PCIE'
p2172
S'y'
sS'net.ipv6.neigh.ens3.mcast_solicit'
p2173
I3
sS'CONFIG_GPIO_SX150X'
p2174
S'y'
sS'CONFIG_IP_MULTIPLE_TABLES'
p2175
S'y'
sS'CONFIG_THP_SWAP'
p2176
S'y'
sS'CONFIG_RFS_ACCEL'
p2177
S'y'
sS'fs.dentry-state'
p2178
S'255577\t237885\t45\t0\t0\t0'
p2179
sS'CONFIG_TRACEPOINTS'
p2180
S'y'
sS'CONFIG_IP6_NF_IPTABLES'
p2181
S'm'
sS'CONFIG_CRYPTO_AKCIPHER2'
p2182
S'y'
sS'CONFIG_ARCH_HAS_ADD_PAGES'
p2183
S'y'
sS'net.ipv6.conf.lo.dad_transmits'
p2184
I1
sS'CONFIG_SECURITY_APPARMOR_HASH_DEFAULT'
p2185
S'y'
sS'CONFIG_SMP'
p2186
S'y'
sS'CONFIG_NEED_PER_CPU_EMBED_FIRST_CHUNK'
p2187
S'y'
sS'kernel.sched_domain.cpu0.domain0.forkexec_idx'
p2188
I0
sS'net.ipv6.conf.default.accept_dad'
p2189
I1
sS'kernel.sched_domain.cpu10.domain1.newidle_idx'
p2190
I0
sS'CONFIG_BLK_CGROUP'
p2191
S'y'
sS'CONFIG_PATA_ACPI'
p2192
S'm'
sS'CONFIG_WATCHDOG'
p2193
S'y'
sS'CONFIG_ISCSI_TCP'
p2194
S'm'
sS'CONFIG_HAVE_DEBUG_STACKOVERFLOW'
p2195
S'y'
sS'net.ipv6.neigh.default.gc_stale_time'
p2196
I60
sS'CONFIG_TCP_MD5SIG'
p2197
S'y'
sS'net.ipv4.neigh.ens3.unres_qlen'
p2198
I101
sS'net.ipv4.route.gc_elasticity'
p2199
I8
sS'CONFIG_IP_PIMSM_V1'
p2200
S'y'
sS'CONFIG_MICROCODE'
p2201
S'y'
sS'kernel.sched_domain.cpu3.domain1.max_newidle_lb_cost'
p2202
I209151
sS'CONFIG_TUN'
p2203
S'y'
sS'net.ipv6.conf.lo.autoconf'
p2204
I1
sS'CONFIG_IP_PIMSM_V2'
p2205
S'y'
sS'net.ipv4.tcp_low_latency'
p2206
I0
sS'kernel.sched_domain.cpu18.domain1.newidle_idx'
p2207
I0
sS'net.ipv6.flowlabel_state_ranges'
p2208
I0
sS'CONFIG_VIRTIO'
p2209
S'y'
sS'kernel.randomize_va_space'
p2210
I2
sS'vm.legacy_va_layout'
p2211
I0
sS'CONFIG_PARAVIRT'
p2212
S'y'
sS'CONFIG_HAVE_OPTPROBES'
p2213
S'y'
sS'CONFIG_XZ_DEC_BCJ'
p2214
S'y'
sS'net.ipv4.icmp_echo_ignore_all'
p2215
I0
sS'net.ipv4.ip_dynaddr'
p2216
I0
sS'CONFIG_SYSFS'
p2217
S'y'
sS'dev.cdrom.autoeject'
p2218
I0
sS'CONFIG_PROFILING'
p2219
S'y'
sS'kernel.sched_domain.cpu19.domain0.max_newidle_lb_cost'
p2220
I228003
sS'kernel.sched_domain.cpu6.domain1.name'
p2221
S'NUMA'
p2222
sS'CONFIG_THREAD_INFO_IN_TASK'
p2223
S'y'
sS'CONFIG_NET_VENDOR_INTEL'
p2224
S'y'
sS'CONFIG_TASKSTATS'
p2225
S'y'
sS'vm.memory_failure_early_kill'
p2226
I0
sS'kernel.sched_domain.cpu6.domain1.busy_factor'
p2227
I32
sS'net.ipv6.conf.default.use_tempaddr'
p2228
I2
sS'CONFIG_DEVTMPFS'
p2229
S'y'
sS'CONFIG_CFS_BANDWIDTH'
p2230
S'y'
sS'kernel.sched_domain.cpu12.domain0.idle_idx'
p2231
I1
sS'net.ipv6.route.gc_timeout'
p2232
I60
sS'CONFIG_HAVE_MOD_ARCH_SPECIFIC'
p2233
S'y'
sS'net.ipv6.neigh.ens3.base_reachable_time_ms'
p2234
I30000
sS'CONFIG_FB_MODE_HELPERS'
p2235
S'y'
sS'CONFIG_USB_OHCI_LITTLE_ENDIAN'
p2236
S'y'
sS'net.ipv4.conf.default.ignore_routes_with_linkdown'
p2237
I0
sS'kernel.sched_domain.cpu2.domain1.max_interval'
p2238
I40
sS'net.ipv4.icmp_echo_ignore_broadcasts'
p2239
I1
sS'CONFIG_IRQ_WORK'
p2240
S'y'
sS'CONFIG_TCG_TIS'
p2241
S'y'
sS'CONFIG_XZ_DEC_POWERPC'
p2242
S'y'
sS'CONFIG_HZ_250'
p2243
S'y'
sS'kernel.sched_domain.cpu0.domain1.flags'
p2244
I25647
sS'CONFIG_ACPI_PROCESSOR'
p2245
S'y'
sS'kernel.sched_domain.cpu4.domain0.busy_idx'
p2246
I2
sS'CONFIG_REGMAP_I2C'
p2247
S'y'
sS'net.ipv6.neigh.ens3.locktime'
p2248
I0
sS'net.ipv4.conf.all.arp_filter'
p2249
I0
sS'net.ipv4.route.redirect_load'
p2250
I5
sS'CONFIG_MFD_MAX8998'
p2251
S'y'
sS'CONFIG_MFD_MAX8997'
p2252
S'y'
sS'CONFIG_HAVE_ACPI_APEI'
p2253
S'y'
sS'kernel.sched_domain.cpu13.domain1.imbalance_pct'
p2254
I125
sS'CONFIG_FONT_SUPPORT'
p2255
S'y'
sS'kernel.sched_domain.cpu6.domain0.imbalance_pct'
p2256
I125
sS'CONFIG_X86_PMEM_LEGACY_DEVICE'
p2257
S'y'
sS'kernel.sched_domain.cpu1.domain1.wake_idx'
p2258
I0
sS'CONFIG_ASSOCIATIVE_ARRAY'
p2259
S'y'
sS'CONFIG_EZX_PCAP'
p2260
S'y'
sS'CONFIG_SCSI_MOD'
p2261
S'y'
sS'CONFIG_CRYPTO_HASH_INFO'
p2262
S'y'
sS'net.ipv4.conf.all.shared_media'
p2263
I1
sS'CONFIG_IOMMU_API'
p2264
S'y'
sS'CONFIG_INLINE_SPIN_UNLOCK_IRQ'
p2265
S'y'
sS'CONFIG_BLOCK'
p2266
S'y'
sS'CONFIG_MEMORY_FAILURE'
p2267
S'y'
sS'CONFIG_NET_VENDOR_EZCHIP'
p2268
S'y'
sS'CONFIG_TIMERFD'
p2269
S'y'
sS'kernel.sched_domain.cpu1.domain0.max_interval'
p2270
I20
sS'net.ipv4.conf.ens3.mc_forwarding'
p2271
I0
sS'CONFIG_CPU_RMAP'
p2272
S'y'
sS'kernel.sched_domain.cpu15.domain0.newidle_idx'
p2273
I0
sS'net.netfilter.nf_log.10'
p2274
S'NONE'
p2275
sS'net.netfilter.nf_log.12'
p2276
S'NONE'
p2277
sS'CONFIG_ARCH_HAS_PMEM_API'
p2278
S'y'
sS'net.ipv6.conf.all.drop_unicast_in_l2_multicast'
p2279
I0
sS'CONFIG_X86_INTEL_LPSS'
p2280
S'y'
sS'net.core.rmem_max'
p2281
I212992
sS'CONFIG_CRYPTO_DRBG_HASH'
p2282
S'y'
sS'CONFIG_SECURITY_PATH'
p2283
S'y'
sS'CONFIG_THERMAL_EMERGENCY_POWEROFF_DELAY_MS'
p2284
I0
sS'CONFIG_DEBUG_FS'
p2285
S'y'
sS'CONFIG_USB_ARCH_HAS_HCD'
p2286
S'y'
sS'CONFIG_STACK_TRACER'
p2287
S'y'
sS'net.core.dev_weight'
p2288
I64
sS'CONFIG_HAVE_ALIGNED_STRUCT_PAGE'
p2289
S'y'
sS'CONFIG_X86_MPPARSE'
p2290
S'y'
sS'CONFIG_NET_VENDOR_SYNOPSYS'
p2291
S'y'
sS'CONFIG_SECURITY_TOMOYO_MAX_AUDIT_LOG'
p2292
I1024
sS'kernel.sched_domain.cpu6.domain1.max_newidle_lb_cost'
p2293
I460595
sS'CONFIG_HAVE_CC_STACKPROTECTOR'
p2294
S'y'
sS'CONFIG_NET_VENDOR_MARVELL'
p2295
S'y'
sS'kernel.sched_domain.cpu15.domain1.idle_idx'
p2296
I2
sS'CONFIG_BLK_DEV_LOOP_MIN_COUNT'
p2297
I8
sS'CONFIG_CRASH_CORE'
p2298
S'y'
sS'net.ipv6.conf.ens3.proxy_ndp'
p2299
I0
sS'CONFIG_DEFAULT_TCP_CONG'
p2300
S'"cubic"'
p2301
sS'CONFIG_CRYPTO_CBC'
p2302
S'y'
sS'CONFIG_PGTABLE_MAPPING'
p2303
S'y'
sS'CONFIG_NET_VENDOR_NATSEMI'
p2304
S'y'
sS'CONFIG_HAVE_EBPF_JIT'
p2305
S'y'
sS'kernel.shmmax'
p2306
L18446744073692774399L
sS'net.ipv6.conf.all.accept_ra_min_hop_limit'
p2307
I1
sS'kernel.sched_domain.cpu19.domain1.newidle_idx'
p2308
I0
sS'CONFIG_PARAVIRT_SPINLOCKS'
p2309
S'y'
sS'CONFIG_FB_SIMPLE'
p2310
S'y'
sS'kernel.sched_domain.cpu0.domain1.imbalance_pct'
p2311
I125
sS'CONFIG_QUEUED_RWLOCKS'
p2312
S'y'
sS'CONFIG_SUSPEND_FREEZER'
p2313
S'y'
sS'kernel.sched_domain.cpu9.domain1.min_interval'
p2314
I20
sS'CONFIG_VHOST_NET'
p2315
S'm'
sS'net.ipv4.conf.ens3.forwarding'
p2316
I0
sS'kernel.sched_domain.cpu2.domain1.cache_nice_tries'
p2317
I2
sS'kernel.sched_domain.cpu6.domain0.cache_nice_tries'
p2318
I1
sS'net.ipv6.conf.default.autoconf'
p2319
I1
sS'fs.pipe-user-pages-soft'
p2320
I16384
sS'CONFIG_CRYPTO_SIMD'
p2321
S'm'
sS'CONFIG_SND_PCM_TIMER'
p2322
S'y'
sS'CONFIG_X86_INTEL_PSTATE'
p2323
S'y'
sS'net.ipv4.tcp_mtu_probing'
p2324
I0
sS'CONFIG_MFD_TWL4030_AUDIO'
p2325
S'y'
sS'CONFIG_CGROUP_PERF'
p2326
S'y'
sS'CONFIG_WATCHDOG_HANDLE_BOOT_ENABLED'
p2327
S'y'
sS'CONFIG_SOLARIS_X86_PARTITION'
p2328
S'y'
sS'kernel.sched_domain.cpu12.domain1.newidle_idx'
p2329
I0
sS'kernel.sched_domain.cpu11.domain0.idle_idx'
p2330
I1
sS'kernel.sched_domain.cpu5.domain1.name'
p2331
S'NUMA'
p2332
sS'CONFIG_NEED_SG_DMA_LENGTH'
p2333
S'y'
sS'vm.hugepages_treat_as_movable'
p2334
I0
sS'CONFIG_ARCH_HAS_DEVMEM_IS_ALLOWED'
p2335
S'y'
sS'CONFIG_SND'
p2336
S'm'
sS'CONFIG_LZO_DECOMPRESS'
p2337
S'y'
sS'kernel.ftrace_enabled'
p2338
I1
sS'CONFIG_CRYPTO_RNG'
p2339
S'y'
sS'CONFIG_MODULES_TREE_LOOKUP'
p2340
S'y'
sS'CONFIG_ECRYPT_FS_MESSAGING'
p2341
S'y'
sS'CONFIG_RTC_HCTOSYS_DEVICE'
p2342
S'"rtc0"'
p2343
sS'net.ipv4.conf.ens3.src_valid_mark'
p2344
I0
sS'CONFIG_EFI_VARS'
p2345
S'y'
sS'kernel.numa_balancing_scan_size_mb'
p2346
I256
sS'CONFIG_KEXEC_FILE'
p2347
S'y'
sS'CONFIG_I2C_BOARDINFO'
p2348
S'y'
sS'CONFIG_SECCOMP'
p2349
S'y'
sS'CONFIG_CRYPTO_RNG2'
p2350
S'y'
sS'kernel.sched_domain.cpu10.domain0.newidle_idx'
p2351
I0
sS'CONFIG_ARCH_MMAP_RND_BITS'
p2352
I28
sS'CONFIG_PMIC_DA9052'
p2353
S'y'
sS'CONFIG_KGDB_SERIAL_CONSOLE'
p2354
S'y'
sS'CONFIG_CPU_FREQ_GOV_ATTR_SET'
p2355
S'y'
sS'CONFIG_IMA_DEFAULT_TEMPLATE'
p2356
S'"ima-ng"'
p2357
sS'CONFIG_BOOTPARAM_HUNG_TASK_PANIC_VALUE'
p2358
I0
sS'kernel.sched_domain.cpu6.domain0.busy_idx'
p2359
I2
sS'CONFIG_CRYPTO_SHA1'
p2360
S'y'
sS'CONFIG_MMIOTRACE'
p2361
S'y'
sS'kernel.sched_domain.cpu10.domain1.busy_factor'
p2362
I32
sS'CONFIG_HW_RANDOM'
p2363
S'y'
sS'CONFIG_ARCH_HAS_CPU_RELAX'
p2364
S'y'
sS'kernel.sched_domain.cpu11.domain1.wake_idx'
p2365
I0
sS'net.ipv6.conf.all.accept_source_route'
p2366
I0
sS'CONFIG_PARAVIRT_TIME_ACCOUNTING'
p2367
S'y'
sS'kernel.sched_domain.cpu7.domain0.name'
p2368
S'DIE'
p2369
sS'net.ipv4.neigh.ens3.delay_first_probe_time'
p2370
I5
sS'net.ipv4.neigh.ens3.retrans_time_ms'
p2371
I1000
sS'CONFIG_KALLSYMS'
p2372
S'y'
sS'CONFIG_SND_SPI'
p2373
S'y'
sS'CONFIG_RFKILL_INPUT'
p2374
S'y'
sS'net.ipv4.route.gc_timeout'
p2375
I300
sS'CONFIG_NET_VENDOR_SAMSUNG'
p2376
S'y'
sS'CONFIG_SPARSEMEM'
p2377
S'y'
sS'CONFIG_ARCH_HAS_ELF_RANDOMIZE'
p2378
S'y'
sS'kernel.sched_domain.cpu17.domain0.idle_idx'
p2379
I1
sS'CONFIG_HAVE_DMA_API_DEBUG'
p2380
S'y'
sS'CONFIG_ACPI_BUTTON'
p2381
S'y'
sS'CONFIG_TTY'
p2382
S'y'
sS'CONFIG_X86_BOOTPARAM_MEMORY_CORRUPTION_CHECK'
p2383
S'y'
sS'CONFIG_XZ_DEC'
p2384
S'y'
sS'CONFIG_X86_PM_TIMER'
p2385
S'y'
sS'net.ipv4.conf.ens3.arp_notify'
p2386
I0
sS'CONFIG_SERIAL_8250_LPSS'
p2387
S'y'
sS'net.ipv4.neigh.lo.anycast_delay'
p2388
I100
sS'CONFIG_RPS'
p2389
S'y'
sS'CONFIG_AUDIT_WATCH'
p2390
S'y'
sS'CONFIG_KVM_GENERIC_DIRTYLOG_READ_PROTECT'
p2391
S'y'
sS'CONFIG_DMAR_TABLE'
p2392
S'y'
sS'CONFIG_SYSTEM_EXTRA_CERTIFICATE_SIZE'
p2393
I4096
sS'net.ipv4.conf.ens3.send_redirects'
p2394
I1
sS'CONFIG_FB_VESA'
p2395
S'y'
sS'CONFIG_PREEMPT_VOLUNTARY'
p2396
S'y'
sS'CONFIG_DEVMEM'
p2397
S'y'
sS'CONFIG_FUSE_FS'
p2398
S'y'
sS'CONFIG_USER_RETURN_NOTIFIER'
p2399
S'y'
sS'kernel.sched_domain.cpu11.domain0.imbalance_pct'
p2400
I125
sS'net.ipv4.tcp_max_reordering'
p2401
I300
sS'net.ipv4.neigh.default.gc_interval'
p2402
I30
sS'kernel.sg-big-buff'
p2403
I32768
sS'net.ipv6.route.gc_elasticity'
p2404
I9
sS'CONFIG_ARCH_SPARSEMEM_ENABLE'
p2405
S'y'
sS'CONFIG_NETFILTER_INGRESS'
p2406
S'y'
sS'CONFIG_HAVE_MEMBLOCK'
p2407
S'y'
sS'CONFIG_SCHED_TRACER'
p2408
S'y'
sS'CONFIG_SQUASHFS_DECOMP_SINGLE'
p2409
S'y'
sS'CONFIG_X86_IO_APIC'
p2410
S'y'
sS'net.ipv6.conf.default.temp_valid_lft'
p2411
I604800
sS'kernel.sched_domain.cpu0.domain1.newidle_idx'
p2412
I0
sS'kernel.sched_domain.cpu3.domain1.idle_idx'
p2413
I2
sS'CONFIG_ZONE_DMA32'
p2414
S'y'
sS'net.ipv6.neigh.default.app_solicit'
p2415
I0
sS'net.ipv4.tcp_timestamps'
p2416
I1
sS'kernel.sched_domain.cpu5.domain0.busy_idx'
p2417
I2
sS'kernel.sched_domain.cpu16.domain1.busy_factor'
p2418
I32
sS'kernel.sched_domain.cpu15.domain1.wake_idx'
p2419
I0
sS'CONFIG_GENERIC_CPU_AUTOPROBE'
p2420
S'y'
sS'CONFIG_NR_CPUS'
p2421
I512
sS'CONFIG_DOUBLEFAULT'
p2422
S'y'
sS'user.max_user_namespaces'
p2423
I257592
sS'CONFIG_BIG_KEYS'
p2424
S'y'
sS'kernel.sched_domain.cpu4.domain0.flags'
p2425
I4143
sS'kernel.keys.root_maxkeys'
p2426
I1000000
sS'CONFIG_POSIX_MQUEUE_SYSCTL'
p2427
S'y'
sS'fs.nr_open'
p2428
I1048576
sS'net.ipv6.conf.ens3.disable_policy'
p2429
I0
sS'kernel.sched_domain.cpu10.domain1.busy_idx'
p2430
I3
sS'net.ipv6.neigh.lo.delay_first_probe_time'
p2431
I5
sS'CONFIG_AMD_NUMA'
p2432
S'y'
sS'net.core.somaxconn'
p2433
I128
sS'CONFIG_AMIGA_PARTITION'
p2434
S'y'
sS'CONFIG_CONSOLE_LOGLEVEL_DEFAULT'
p2435
I7
sS'CONFIG_SQUASHFS_LZ4'
p2436
S'y'
sS'net.ipv6.conf.ens3.accept_ra_pinfo'
p2437
I1
sS'CONFIG_SCSI_CONSTANTS'
p2438
S'y'
sS'kernel.sched_domain.cpu17.domain0.max_newidle_lb_cost'
p2439
I1709085
sS'CONFIG_CRYPTO_AES'
p2440
S'y'
sS'kernel.sched_domain.cpu19.domain0.imbalance_pct'
p2441
I125
sS'CONFIG_XZ_DEC_SPARC'
p2442
S'y'
sS'CONFIG_SECURITY_SELINUX_DEVELOP'
p2443
S'y'
sS'net.ipv4.conf.lo.mc_forwarding'
p2444
I0
sS'net.ipv4.tcp_keepalive_probes'
p2445
I9
sS'CONFIG_TREE_RCU'
p2446
S'y'
sS'vm.hugetlb_shm_group'
p2447
I0
sS'CONFIG_X86_TSC'
p2448
S'y'
sS'CONFIG_SECURITY_SELINUX_BOOTPARAM'
p2449
S'y'
sS'CONFIG_ACPI_PCI_SLOT'
p2450
S'y'
sS'kernel.sched_domain.cpu15.domain1.newidle_idx'
p2451
I0
sS'CONFIG_X86_MCE_AMD'
p2452
S'y'
sg3
(lp2453
S'HostInfo'
p2454
ag6
aS'object'
p2455
asS'CONFIG_MICROCODE_AMD'
p2456
S'y'
sS'kernel.random.urandom_min_reseed_secs'
p2457
I60
sS'CONFIG_LIBNVDIMM'
p2458
S'y'
sS'kernel.random.read_wakeup_threshold'
p2459
I64
sS'kernel.sched_domain.cpu1.domain0.wake_idx'
p2460
I0
sS'kernel.sched_domain.cpu10.domain0.cache_nice_tries'
p2461
I1
sS'CONFIG_RESET_CONTROLLER'
p2462
S'y'
sS'net.ipv4.tcp_no_metrics_save'
p2463
I0
sS'CONFIG_I2C_HELPER_AUTO'
p2464
S'y'
sS'CONFIG_JBD2'
p2465
S'y'
sS'kernel.sched_domain.cpu1.domain0.forkexec_idx'
p2466
I0
sS'kernel.sched_domain.cpu15.domain0.busy_factor'
p2467
I32
sS'CONFIG_PARTITION_ADVANCED'
p2468
S'y'
sS'CONFIG_EFI_STUB'
p2469
S'y'
sS'net.ipv6.neigh.ens3.mcast_resolicit'
p2470
I0
sS'net.ipv4.conf.all.arp_announce'
p2471
I0
sS'CONFIG_CRYPTO_AEAD2'
p2472
S'y'
sS'CONFIG_RTC_INTF_DEV'
p2473
S'y'
sS'CONFIG_EXT4_FS_POSIX_ACL'
p2474
S'y'
sS'CONFIG_SRCU'
p2475
S'y'
sS'CONFIG_SND_VMASTER'
p2476
S'y'
sS'CONFIG_INPUT_EVDEV'
p2477
S'y'
sS'net.ipv4.conf.all.arp_ignore'
p2478
I0
sS'kernel.sched_domain.cpu13.domain0.busy_idx'
p2479
I2
sS'CONFIG_GPIO_TPS6586X'
p2480
S'y'
sS'CONFIG_SECCOMP_FILTER'
p2481
S'y'
sS'kernel.sched_domain.cpu3.domain0.flags'
p2482
I4143
sS'kernel.sched_domain.cpu12.domain1.max_interval'
p2483
I40
sS'CONFIG_SERIO'
p2484
S'y'
sS'net.ipv6.conf.ens3.accept_ra_min_hop_limit'
p2485
I1
sS'CONFIG_ARCH_HAS_CACHE_LINE_SIZE'
p2486
S'y'
sS'CONFIG_SERIAL_8250_RUNTIME_UARTS'
p2487
I32
sS'CONFIG_FB_EFI'
p2488
S'y'
sS'CONFIG_MMU_NOTIFIER'
p2489
S'y'
sS'CONFIG_HW_CONSOLE'
p2490
S'y'
sS'CONFIG_ACPI_SYSTEM_POWER_STATES_SUPPORT'
p2491
S'y'
sS'CONFIG_SQUASHFS_LZO'
p2492
S'y'
sS'net.ipv4.tcp_stdurg'
p2493
I0
sS'CONFIG_SCSI_DH'
p2494
S'y'
sS'kernel.sched_domain.cpu19.domain0.forkexec_idx'
p2495
I0
sS'kernel.sched_domain.cpu4.domain1.name'
p2496
S'NUMA'
p2497
sS'kernel.unknown_nmi_panic'
p2498
I0
sS'CONFIG_NO_HZ_COMMON'
p2499
S'y'
sS'net.ipv4.conf.all.route_localnet'
p2500
I0
sS'kernel.seccomp.actions_logged'
p2501
S'kill_process kill_thread trap errno trace log'
p2502
sS'net.ipv6.conf.all.force_mld_version'
p2503
I0
sS'CONFIG_SECURITY_TOMOYO'
p2504
S'y'
sS'CONFIG_MSDOS_PARTITION'
p2505
S'y'
sS'kernel.sched_domain.cpu15.domain1.imbalance_pct'
p2506
I125
sS'vm.overcommit_kbytes'
p2507
I0
sS'net.ipv4.conf.all.drop_unicast_in_l2_multicast'
p2508
I0
sS'CONFIG_POWER_SUPPLY'
p2509
S'y'
sS'kernel.sched_domain.cpu2.domain0.cache_nice_tries'
p2510
I1
sS'CONFIG_DECOMPRESS_LZMA'
p2511
S'y'
sS'net.ipv6.conf.all.ndisc_notify'
p2512
I0
sS'kernel.sched_domain.cpu7.domain0.max_interval'
p2513
I20
sS'CONFIG_CALGARY_IOMMU'
p2514
S'y'
sS'net.ipv4.neigh.lo.unres_qlen'
p2515
I101
sS'CONFIG_IO_DELAY_TYPE_0X80'
p2516
I0
sS'CONFIG_SND_JACK'
p2517
S'y'
sS'CONFIG_DYNAMIC_DEBUG'
p2518
S'y'
sS'CONFIG_CRYPTO_HW'
p2519
S'y'
sS'kernel.printk_ratelimit_burst'
p2520
I10
sS'CONFIG_CRYPTO_SEQIV'
p2521
S'y'
sS'CONFIG_NET_VENDOR_OKI'
p2522
S'y'
sS'kernel.sched_domain.cpu3.domain0.busy_factor'
p2523
I32
sS'kernel.sched_domain.cpu4.domain0.min_interval'
p2524
I10
sS'CONFIG_DECOMPRESS_GZIP'
p2525
S'y'
sS'net.ipv6.conf.lo.accept_ra_mtu'
p2526
I1
sS'kernel.sched_domain.cpu16.domain0.flags'
p2527
I4143
sS'CONFIG_RAID6_PQ'
p2528
S'm'
sS'CONFIG_CFQ_GROUP_IOSCHED'
p2529
S'y'
sS'CONFIG_PARAVIRT_CLOCK'
p2530
S'y'
sS'kernel.sched_domain.cpu5.domain1.newidle_idx'
p2531
I0
sS'CONFIG_OID_REGISTRY'
p2532
S'y'
sS'net.ipv4.conf.lo.shared_media'
p2533
I1
sS'CONFIG_NLS'
p2534
S'y'
sS'kernel.sched_domain.cpu1.domain1.flags'
p2535
I25647
sS'CONFIG_NODES_SHIFT'
p2536
I6
sS'CONFIG_ARCH_HAS_STRICT_MODULE_RWX'
p2537
S'y'
sS'CONFIG_SND_OSSEMUL'
p2538
S'y'
sS'CONFIG_CGROUP_FREEZER'
p2539
S'y'
sS'CONFIG_NET_VENDOR_CHELSIO'
p2540
S'y'
sS'CONFIG_FRAMEBUFFER_CONSOLE_DETECT_PRIMARY'
p2541
S'y'
sS'CONFIG_ASN1'
p2542
S'y'
sS'CONFIG_CRC16'
p2543
S'y'
sS'CONFIG_PCIEASPM'
p2544
S'y'
sS'CONFIG_LDM_PARTITION'
p2545
S'y'
sS'CONFIG_CROSS_MEMORY_ATTACH'
p2546
S'y'
sS'CONFIG_COMPACTION'
p2547
S'y'
sS'kernel.io_delay_type'
p2548
I1
sS'CONFIG_HAVE_KRETPROBES'
p2549
S'y'
sS'CONFIG_MPLS'
p2550
S'y'
sS'CONFIG_CPU_IDLE_GOV_LADDER'
p2551
S'y'
sS'CONFIG_UNISYSSPAR'
p2552
S'y'
sS'net.ipv6.conf.all.autoconf'
p2553
I1
sS'CONFIG_CPU_FREQ_GOV_ONDEMAND'
p2554
S'y'
sS'CONFIG_CROSS_COMPILE'
p2555
S'""'
p2556
sS'CONFIG_ARCH_HAS_SET_MEMORY'
p2557
S'y'
sS'CONFIG_SYSCTL_SYSCALL'
p2558
S'y'
sS'net.ipv4.neigh.ens3.mcast_solicit'
p2559
I3
sS'CONFIG_PRINTK_SAFE_LOG_BUF_SHIFT'
p2560
I13
sS'CONFIG_NET_RX_BUSY_POLL'
p2561
S'y'
sS'CONFIG_GENERIC_TIME_VSYSCALL'
p2562
S'y'
sS'CONFIG_HARDLOCKUP_DETECTOR_PERF'
p2563
S'y'
sS'CONFIG_USB_PHY'
p2564
S'y'
sS'CONFIG_FUNCTION_PROFILER'
p2565
S'y'
sS'kernel.sched_domain.cpu14.domain0.max_newidle_lb_cost'
p2566
I2109818
sS'CONFIG_RCU_NEED_SEGCBLIST'
p2567
S'y'
sS'kernel.sched_domain.cpu3.domain1.name'
p2568
S'NUMA'
p2569
sS'CONFIG_MULTIUSER'
p2570
S'y'
sS'net.ipv4.tcp_wmem'
p2571
S'4096\t16384\t4194304'
p2572
sS'kernel.sched_domain.cpu9.domain1.idle_idx'
p2573
I2
sS'CONFIG_VMAP_STACK'
p2574
S'y'
sS'kernel.sched_nr_migrate'
p2575
I32
sS'CONFIG_HAVE_KVM_MSI'
p2576
S'y'
sS'CONFIG_X86_PMEM_LEGACY'
p2577
S'y'
sS'net.core.bpf_jit_enable'
p2578
I0
sS'kernel.keys.root_maxbytes'
p2579
I25000000
sS'CONFIG_NET_VENDOR_BROADCOM'
p2580
S'y'
sS'kernel.pid_max'
p2581
I124928
sS'net.ipv4.conf.ens3.bootp_relay'
p2582
I0
sS'CONFIG_MICROCODE_OLD_INTERFACE'
p2583
S'y'
sS'kernel.cap_last_cap'
p2584
I37
sS'kernel.sched_domain.cpu17.domain1.flags'
p2585
I25647
sS'CONFIG_ARCH_USE_QUEUED_RWLOCKS'
p2586
S'y'
sS'CONFIG_ARCH_MIGHT_HAVE_PC_PARPORT'
p2587
S'y'
sS'net.ipv4.tcp_available_congestion_control'
p2588
S'cubic reno'
p2589
sS'kernel.sched_domain.cpu18.domain1.min_interval'
p2590
I20
sS'kernel.sched_domain.cpu13.domain1.cache_nice_tries'
p2591
I2
sS'CONFIG_CRYPTO_CRC32C_INTEL'
p2592
S'y'
sS'CONFIG_ACPI_BATTERY'
p2593
S'y'
sS'CONFIG_ACPI_PROCESSOR_IDLE'
p2594
S'y'
sS'kernel.sched_domain.cpu13.domain0.flags'
p2595
I4143
sS'kernel.printk'
p2596
S'4\t4\t1\t7'
p2597
sS'CONFIG_PID_NS'
p2598
S'y'
sS'CONFIG_NETFILTER'
p2599
S'y'
sS'user.max_inotify_instances'
p2600
I1024
sS'CONFIG_ACPI_AC'
p2601
S'y'
sS'CONFIG_VM_EVENT_COUNTERS'
p2602
S'y'
sS'CONFIG_BINFMT_SCRIPT'
p2603
S'y'
sS'CONFIG_TMPFS_POSIX_ACL'
p2604
S'y'
sS'net.ipv6.conf.default.max_desync_factor'
p2605
I600
sS'CONFIG_DEFAULT_DEADLINE'
p2606
S'y'
sS'kernel.sched_domain.cpu10.domain1.min_interval'
p2607
I20
sS'CONFIG_NET_VENDOR_QUALCOMM'
p2608
S'y'
sS'net.ipv4.igmp_max_memberships'
p2609
I20
sS'CONFIG_X86_REROUTE_FOR_BROKEN_BOOT_IRQS'
p2610
S'y'
sS'kernel.sched_domain.cpu18.domain1.max_interval'
p2611
I40
sS'net.ipv6.conf.lo.router_solicitation_interval'
p2612
I4
sS'CONFIG_MODULE_SIG_HASH'
p2613
S'"sha512"'
p2614
sS'net.ipv6.conf.lo.accept_ra_defrtr'
p2615
I1
sS'CONFIG_SOCK_CGROUP_DATA'
p2616
S'y'
sS'debug.exception-trace'
p2617
I1
sS'CONFIG_ACPI_NUMA'
p2618
S'y'
sS'CONFIG_SECURITY_SELINUX_AVC_STATS'
p2619
S'y'
sS'CONFIG_IMA_MEASURE_PCR_IDX'
p2620
I10
sS'CONFIG_X86'
p2621
S'y'
sS'CONFIG_CRC_T10DIF'
p2622
S'y'
sS'net.ipv6.neigh.lo.locktime'
p2623
I0
sS'kernel.sched_domain.cpu12.domain1.min_interval'
p2624
I20
sS'CONFIG_NET_VENDOR_DLINK'
p2625
S'y'
sS'net.ipv6.conf.all.router_solicitation_delay'
p2626
I1
sS'CONFIG_EARLY_PRINTK_DBGP'
p2627
S'y'
sS'CONFIG_CC_OPTIMIZE_FOR_PERFORMANCE'
p2628
S'y'
sS'kernel.sched_domain.cpu18.domain0.max_interval'
p2629
I20
sS'CONFIG_TREE_SRCU'
p2630
S'y'
sS'net.ipv4.tcp_rmem'
p2631
S'4096\t87380\t6291456'
p2632
sS'CONFIG_PCI_IOV'
p2633
S'y'
sS'CONFIG_ATA_PIIX'
p2634
S'y'
sS'CONFIG_CRYPTO_MD5'
p2635
S'y'
sS'CONFIG_CRYPTO_GF128MUL'
p2636
S'y'
sS'kernel.sched_domain.cpu1.domain0.max_newidle_lb_cost'
p2637
I101663
sS'kernel.sched_domain.cpu10.domain1.cache_nice_tries'
p2638
I2
sS'CONFIG_SND_HDA_INPUT_BEEP'
p2639
S'y'
sS'fs.epoll.max_user_watches'
p2640
I13505269
sS'CONFIG_SERIAL_8250'
p2641
S'y'
sS'net.ipv6.conf.default.temp_prefered_lft'
p2642
I86400
sS'CONFIG_IP_NF_IPTABLES'
p2643
S'm'
sS'kernel.sched_domain.cpu8.domain1.flags'
p2644
I25647
sS'kernel.sched_domain.cpu1.domain1.cache_nice_tries'
p2645
I2
sS'kernel.sched_domain.cpu17.domain1.busy_idx'
p2646
I3
sS'CONFIG_SND_X86'
p2647
S'y'
sS'kernel.pty.nr'
p2648
I0
sS'net.ipv6.conf.lo.accept_dad'
p2649
S'-1'
p2650
sS'net.ipv6.conf.ens3.router_solicitation_delay'
p2651
I1
sS'net.ipv6.conf.lo.mldv1_unsolicited_report_interval'
p2652
I10000
sS'CONFIG_HAVE_ARCH_KASAN'
p2653
S'y'
sS'net.ipv6.conf.ens3.router_solicitation_max_interval'
p2654
I3600
sS'kernel.sched_domain.cpu8.domain0.imbalance_pct'
p2655
I125
sS'net.ipv4.tcp_base_mss'
p2656
I1024
sS'CONFIG_HAVE_PERF_EVENTS_NMI'
p2657
S'y'
sS'CONFIG_ASYMMETRIC_KEY_TYPE'
p2658
S'y'
sS'CONFIG_MFD_WM8350'
p2659
S'y'
sS'kernel.sched_domain.cpu2.domain0.name'
p2660
S'DIE'
p2661
sS'kernel.sched_domain.cpu10.domain1.name'
p2662
S'NUMA'
p2663
sS'kernel.sched_domain.cpu9.domain0.max_interval'
p2664
I20
sS'CONFIG_FS_DAX'
p2665
S'y'
sS'kernel.sched_domain.cpu14.domain1.imbalance_pct'
p2666
I125
sS'CONFIG_MODULE_SRCVERSION_ALL'
p2667
S'y'
sS'CONFIG_COMPAT_OLD_SIGACTION'
p2668
S'y'
sS'CONFIG_COREDUMP'
p2669
S'y'
sS'CONFIG_MFD_TPS65912'
p2670
S'y'
sS'kernel.sched_domain.cpu13.domain0.newidle_idx'
p2671
I0
sS'net.ipv6.neigh.lo.ucast_solicit'
p2672
I3
sS'kernel.sched_domain.cpu16.domain1.idle_idx'
p2673
I2
sS'CONFIG_MTRR_SANITIZER_ENABLE_DEFAULT'
p2674
I1
sS'net.ipv6.conf.lo.drop_unicast_in_l2_multicast'
p2675
I0
sS'CONFIG_NET_FC'
p2676
S'y'
sS'net.ipv6.conf.default.router_solicitation_delay'
p2677
I1
sS'CONFIG_PCI_LOCKLESS_CONFIG'
p2678
S'y'
sS'net.ipv6.neigh.ens3.anycast_delay'
p2679
I100
sS'net.ipv4.conf.lo.drop_gratuitous_arp'
p2680
I0
sS'kernel.sched_domain.cpu4.domain1.newidle_idx'
p2681
I0
sS'net.ipv6.conf.ens3.mldv1_unsolicited_report_interval'
p2682
I10000
sS'net.ipv4.conf.lo.ignore_routes_with_linkdown'
p2683
I0
sS'CONFIG_NET_CORE'
p2684
S'y'
sS'kernel.panic_on_unrecovered_nmi'
p2685
I0
sS'CONFIG_HAVE_MEMORY_PRESENT'
p2686
S'y'
sS'kernel.sched_domain.cpu17.domain1.idle_idx'
p2687
I2
sS'kernel.sched_domain.cpu4.domain0.max_newidle_lb_cost'
p2688
I128506
sS'CONFIG_X86_FEATURE_NAMES'
p2689
S'y'
sS'CONFIG_NOP_TRACER'
p2690
S'y'
sS'CONFIG_FUNCTION_TRACER'
p2691
S'y'
sS'CONFIG_CPU_FREQ_STAT'
p2692
S'y'
sS'net.ipv4.neigh.ens3.locktime'
p2693
I100
sS'kernel.sched_domain.cpu14.domain0.wake_idx'
p2694
I0
sS'net.ipv4.tcp_fwmark_accept'
p2695
I0
sS'net.ipv6.neigh.lo.unres_qlen_bytes'
p2696
I212992
sS'CONFIG_POSIX_TIMERS'
p2697
S'y'
sS'CONFIG_LWTUNNEL_BPF'
p2698
S'y'
sS'kernel.sched_domain.cpu12.domain1.cache_nice_tries'
p2699
I2
sS'net.ipv4.conf.default.disable_xfrm'
p2700
I0
sS'kernel.sched_domain.cpu13.domain0.imbalance_pct'
p2701
I125
sS'CONFIG_PHYSICAL_START'
p2702
S'0x1000000'
p2703
sS'net.core.rmem_default'
p2704
I212992
sS'net.ipv4.tcp_keepalive_time'
p2705
I7200
sS'net.ipv6.conf.ens3.max_addresses'
p2706
I16
sS'CONFIG_PSTORE'
p2707
S'y'
sS'CONFIG_USER_STACKTRACE_SUPPORT'
p2708
S'y'
sS'net.ipv4.conf.all.accept_source_route'
p2709
I0
sS'CONFIG_X86_PAT'
p2710
S'y'
sS'CONFIG_GENERIC_HWEIGHT'
p2711
S'y'
sS'net.ipv6.conf.default.ndisc_notify'
p2712
I0
sS'CONFIG_X86_CHECK_BIOS_CORRUPTION'
p2713
S'y'
sS'CONFIG_ARCH_HAS_SG_CHAIN'
p2714
S'y'
sS'CONFIG_ARCH_SUPPORTS_ATOMIC_RMW'
p2715
S'y'
sS'net.ipv4.conf.ens3.shared_media'
p2716
I1
sS'CONFIG_RT_MUTEXES'
p2717
S'y'
sS'net.iw_cm.default_backlog'
p2718
I256
sS'vm.min_unmapped_ratio'
p2719
I1
sS'CONFIG_RFKILL_LEDS'
p2720
S'y'
sS'CONFIG_ARCH_USES_HIGH_VMA_FLAGS'
p2721
S'y'
sS'net.ipv4.conf.lo.drop_unicast_in_l2_multicast'
p2722
I0
sS'CONFIG_THIN_ARCHIVES'
p2723
S'y'
sS'net.ipv6.conf.all.regen_max_retry'
p2724
I3
sS'net.ipv6.conf.all.accept_ra_defrtr'
p2725
I1
sS'kernel.sched_domain.cpu16.domain1.imbalance_pct'
p2726
I125
sS'net.ipv4.conf.all.arp_notify'
p2727
I0
sS'CONFIG_VIRTIO_PCI'
p2728
S'y'
sS'kernel.kexec_load_disabled'
p2729
I0
sS'kernel.sched_domain.cpu0.domain1.busy_idx'
p2730
I3
sS'CONFIG_X86_64'
p2731
S'y'
sS'CONFIG_CRYPTO_MANAGER2'
p2732
S'y'
sS'CONFIG_NUMA'
p2733
S'y'
sS'fs.file-nr'
p2734
S'1413\t0\t6578986'
p2735
sS'CONFIG_OPROFILE_NMI_TIMER'
p2736
S'y'
sS'fs.quota.cache_hits'
p2737
I0
sS'CONFIG_X86_SMAP'
p2738
S'y'
sS'CONFIG_PANIC_TIMEOUT'
p2739
I0
sS'CONFIG_SLUB_CPU_PARTIAL'
p2740
S'y'
sS'kernel.sched_domain.cpu10.domain0.max_interval'
p2741
I20
sS'CONFIG_HAVE_MEMBLOCK_NODE_MAP'
p2742
S'y'
sS'CONFIG_SND_HDA_RECONFIG'
p2743
S'y'
sS'CONFIG_CRYPTO_AEAD'
p2744
S'y'
sS'kernel.sched_domain.cpu12.domain0.newidle_idx'
p2745
I0
sS'CONFIG_ARCH_MAY_HAVE_PC_FDC'
p2746
S'y'
sS'net.ipv6.neigh.default.mcast_resolicit'
p2747
I0
sS'kernel.tainted'
p2748
I0
sS'CONFIG_REGULATOR_TPS65217'
p2749
S'y'
sS'CONFIG_HIBERNATE_CALLBACKS'
p2750
S'y'
sS'CONFIG_CLKBLD_I8253'
p2751
S'y'
sS'CONFIG_IPV6_SUBTREES'
p2752
S'y'
sS'kernel.sched_domain.cpu4.domain0.wake_idx'
p2753
I0
sS'kernel.perf_event_paranoid'
p2754
I2
sS'kernel.sched_domain.cpu13.domain0.min_interval'
p2755
I10
sS'CONFIG_NAMESPACES'
p2756
S'y'
sS'CONFIG_BPF_JIT'
p2757
S'y'
sS'CONFIG_DEFAULT_CUBIC'
p2758
S'y'
sS'kernel.sched_domain.cpu12.domain0.max_newidle_lb_cost'
p2759
I135352
sS'kernel.numa_balancing'
p2760
I1
sS'kernel.hardlockup_panic'
p2761
I0
sS'CONFIG_MFD_TPS65912_SPI'
p2762
S'y'
sS'CONFIG_PROC_CHILDREN'
p2763
S'y'
sS'CONFIG_PHYS_ADDR_T_64BIT'
p2764
S'y'
sS'net.ipv6.conf.all.accept_ra_rt_info_min_plen'
p2765
I0
sS'CONFIG_GENERIC_PENDING_IRQ'
p2766
S'y'
sS'net.ipv4.neigh.ens3.ucast_solicit'
p2767
I3
sS'CONFIG_KDB_CONTINUE_CATASTROPHIC'
p2768
I0
sS'CONFIG_FB_BOOT_VESA_SUPPORT'
p2769
S'y'
sS'kernel.perf_event_max_contexts_per_stack'
p2770
I8
sS'CONFIG_DYNAMIC_FTRACE'
p2771
S'y'
sS'net.ipv6.conf.ens3.dad_transmits'
p2772
I1
sS'kernel.sched_domain.cpu10.domain0.flags'
p2773
I4143
sS'net.ipv6.conf.lo.mtu'
p2774
I65536
sS'net.ipv6.conf.all.disable_ipv6'
p2775
I0
sS'net.ipv6.conf.ens3.router_solicitations'
p2776
S'-1'
p2777
sS'net.ipv6.conf.lo.keep_addr_on_down'
p2778
I0
sS'CONFIG_USB_EHCI_PCI'
p2779
S'y'
sS'CONFIG_KVM_ASYNC_PF'
p2780
S'y'
sS'net.ipv6.ip6frag_time'
p2781
I60
sS'net.ipv4.conf.all.log_martians'
p2782
I0
sS'fs.aio-max-nr'
p2783
I65536
sS'CONFIG_ARCH_SUPPORTS_INT128'
p2784
S'y'
sS'kernel.sched_domain.cpu7.domain1.name'
p2785
S'NUMA'
p2786
sS'CONFIG_SECURITY'
p2787
S'y'
sS'CONFIG_SPI'
p2788
S'y'
sS'net.ipv4.tcp_orphan_retries'
p2789
I0
sS'net.ipv4.tcp_fin_timeout'
p2790
I60
sS'CONFIG_IDLE_PAGE_TRACKING'
p2791
S'y'
sS'CONFIG_CRYPTO_CRYPTD'
p2792
S'm'
sS'CONFIG_DEVPORT'
p2793
S'y'
sS'CONFIG_ARCH_PROC_KCORE_TEXT'
p2794
S'y'
sS'CONFIG_SPARSEMEM_VMEMMAP_ENABLE'
p2795
S'y'
sS'net.ipv4.tcp_recovery'
p2796
I1
sS'CONFIG_NET_CADENCE'
p2797
S'y'
sS'CONFIG_PCIEAER'
p2798
S'y'
sS'kernel.sched_domain.cpu9.domain1.busy_factor'
p2799
I32
sS'kernel.sched_domain.cpu7.domain0.min_interval'
p2800
I10
sS'CONFIG_SERIAL_8250_NR_UARTS'
p2801
I48
sS'net.ipv6.conf.ens3.forwarding'
p2802
I0
sS'CONFIG_NET_VENDOR_MYRI'
p2803
S'y'
sS'CONFIG_ARCH_SUPPORTS_NUMA_BALANCING'
p2804
S'y'
sS'CONFIG_TMPFS_XATTR'
p2805
S'y'
sS'net.ipv4.neigh.ens3.anycast_delay'
p2806
I100
sS'CONFIG_SND_PCM'
p2807
S'm'
sS'net.ipv6.conf.default.mldv1_unsolicited_report_interval'
p2808
I10000
sS'CONFIG_ARCH_HAS_STRICT_KERNEL_RWX'
p2809
S'y'
sS'net.ipv4.tcp_sack'
p2810
I1
sS'CONFIG_BLK_DEV_MD'
p2811
S'y'
sS'kernel.sched_domain.cpu9.domain0.min_interval'
p2812
I10
sS'net.ipv6.conf.ens3.mtu'
p2813
I1500
sS'CONFIG_PCI_DIRECT'
p2814
S'y'
sS'kernel.ns_last_pid'
p2815
I28037
sS'CONFIG_RWSEM_XCHGADD_ALGORITHM'
p2816
S'y'
sS'CONFIG_HAVE_KERNEL_GZIP'
p2817
S'y'
sS'CONFIG_MEGARAID_NEWGEN'
p2818
S'y'
sS'vm.overcommit_ratio'
p2819
I50
sS'CONFIG_MFD_TPS65217'
p2820
S'y'
sS'kernel.sched_domain.cpu8.domain1.idle_idx'
p2821
I2
sS'CONFIG_ACPI'
p2822
S'y'
sS'kernel.sched_domain.cpu16.domain0.wake_idx'
p2823
I0
sS'CONFIG_ENCRYPTED_KEYS'
p2824
S'y'
sS'kernel.sched_domain.cpu11.domain0.name'
p2825
S'DIE'
p2826
sS'net.ipv6.neigh.ens3.retrans_time_ms'
p2827
I1000
sS'CONFIG_ACPI_PROCESSOR_CSTATE'
p2828
S'y'
sS'CONFIG_BLK_DEBUG_FS'
p2829
S'y'
sS'CONFIG_IPV6_PIMSM_V2'
p2830
S'y'
sS'CONFIG_INITRAMFS_SOURCE'
p2831
S'""'
p2832
sS'kernel.sched_domain.cpu18.domain0.max_newidle_lb_cost'
p2833
I2010772
sS'CONFIG_NET_VENDOR_TI'
p2834
S'y'
sS'CONFIG_HPET_MMAP_DEFAULT'
p2835
S'y'
sS'CONFIG_PROCESSOR_SELECT'
p2836
S'y'
sS'CONFIG_MQ_IOSCHED_KYBER'
p2837
S'y'
sS'kernel.sched_domain.cpu3.domain0.max_interval'
p2838
I20
sS'dev.scsi.logging_level'
p2839
I0
sS'CONFIG_SLHC'
p2840
S'y'
sS'CONFIG_PREVENT_FIRMWARE_BUILD'
p2841
S'y'
sS'net.ipv4.conf.default.accept_redirects'
p2842
I1
sS'CONFIG_PWM_CRC'
p2843
S'y'
sS'CONFIG_ARCH_MMAP_RND_COMPAT_BITS_MIN'
p2844
I8
sS'kernel.hung_task_panic'
p2845
I0
sS'net.ipv4.tcp_retrans_collapse'
p2846
I1
sS'CONFIG_HAVE_KPROBES_ON_FTRACE'
p2847
S'y'
sS'fs.quota.writes'
p2848
I0
sS'CONFIG_ARCH_WANT_HUGE_PMD_SHARE'
p2849
S'y'
sS'kernel.sched_domain.cpu2.domain0.flags'
p2850
I4143
sS'CONFIG_PROC_VMCORE'
p2851
S'y'
sS'CONFIG_GDB_SCRIPTS'
p2852
S'y'
sS'kernel.sched_domain.cpu7.domain0.wake_idx'
p2853
I0
sS'CONFIG_HAVE_CMPXCHG_DOUBLE'
p2854
S'y'
sS'CONFIG_FB_CFB_COPYAREA'
p2855
S'y'
sS'CONFIG_GENERIC_NET_UTILS'
p2856
S'y'
sS'CONFIG_SLAB_MERGE_DEFAULT'
p2857
S'y'
sS'kernel.sched_domain.cpu5.domain1.imbalance_pct'
p2858
I125
sS'CONFIG_MODULES'
p2859
S'y'
sS'CONFIG_PCI_DOMAINS'
p2860
S'y'
sS'CONFIG_HAVE_MMIOTRACE_SUPPORT'
p2861
S'y'
sS'CONFIG_WLAN_VENDOR_TI'
p2862
S'y'
sS'CONFIG_ARCH_CLOCKSOURCE_DATA'
p2863
S'y'
sS'kernel.sched_domain.cpu9.domain0.max_newidle_lb_cost'
p2864
I244913
sS'vm.dirty_background_bytes'
p2865
I0
sS'kernel.hardlockup_all_cpu_backtrace'
p2866
I0
sS'net.ipv6.conf.ens3.accept_source_route'
p2867
I0
sS'net.ipv6.conf.default.router_solicitation_max_interval'
p2868
I3600
sS'CONFIG_MFD_LP8788'
p2869
S'y'
sS'CONFIG_FRONTSWAP'
p2870
S'y'
sS'CONFIG_NET_VENDOR_EMULEX'
p2871
S'y'
sS'kernel.watchdog'
p2872
I1
sS'kernel.sched_domain.cpu19.domain1.cache_nice_tries'
p2873
I2
sS'CONFIG_HYPERVISOR_GUEST'
p2874
S'y'
sS'CONFIG_GART_IOMMU'
p2875
S'y'
sS'kernel.sched_domain.cpu2.domain1.newidle_idx'
p2876
I0
sS'kernel.sched_domain.cpu19.domain1.imbalance_pct'
p2877
I125
sS'net.ipv6.conf.ens3.max_desync_factor'
p2878
I600
sS'net.ipv4.icmp_ratelimit'
p2879
I1000
sS'kernel.overflowuid'
p2880
I65534
sS'CONFIG_X86_PCC_CPUFREQ'
p2881
S'y'
sS'net.ipv4.neigh.lo.app_solicit'
p2882
I0
sS'CONFIG_ARCH_USES_PG_UNCACHED'
p2883
S'y'
sS'CONFIG_UEVENT_HELPER'
p2884
S'y'
sS'CONFIG_IMA_DEFAULT_HASH_SHA1'
p2885
S'y'
sS'net.ipv6.conf.all.use_oif_addrs_only'
p2886
I0
sS'kernel.sched_tunable_scaling'
p2887
I1
sS'CONFIG_RD_LZMA'
p2888
S'y'
sS'kernel.sched_domain.cpu15.domain0.min_interval'
p2889
I10
sS'CONFIG_PCI_REALLOC_ENABLE_AUTO'
p2890
S'y'
sS'net.ipv6.conf.lo.mc_forwarding'
p2891
I0
sS'CONFIG_WLAN_VENDOR_ATH'
p2892
S'y'
sS'CONFIG_PM_ADVANCED_DEBUG'
p2893
S'y'
sS'kernel.bootloader_version'
p2894
I2
sS'kernel.sched_domain.cpu13.domain0.max_interval'
p2895
I20
sS'CONFIG_ARCH_MMAP_RND_COMPAT_BITS'
p2896
I8
sS'CONFIG_THERMAL_GOV_USER_SPACE'
p2897
S'y'
sS'net.ipv4.neigh.ens3.gc_stale_time'
p2898
I60
sS'fs.mount-max'
p2899
I100000
sS'net.ipv4.cipso_rbm_optfmt'
p2900
I0
sS'CONFIG_USERFAULTFD'
p2901
S'y'
sS'CONFIG_CHELSIO_T4'
p2902
S'm'
sS'kernel.sched_schedstats'
p2903
I0
sS'CONFIG_ACPI_BGRT'
p2904
S'y'
sS'net.ipv4.neigh.default.gc_thresh1'
p2905
I128
sS'net.ipv4.neigh.default.gc_thresh2'
p2906
I512
sS'net.ipv4.neigh.default.gc_thresh3'
p2907
I1024
sS'kernel.sched_domain.cpu3.domain1.forkexec_idx'
p2908
I0
sS'CONFIG_LZO_COMPRESS'
p2909
S'y'
sS'CONFIG_MOUSE_PS2_FOCALTECH'
p2910
S'y'
sS'net.ipv4.fwmark_reflect'
p2911
I0
sS'CONFIG_IMA'
p2912
S'y'
sS'CONFIG_CPU_IDLE_GOV_MENU'
p2913
S'y'
sS'kernel.sched_domain.cpu1.domain1.max_newidle_lb_cost'
p2914
I172528
sS'CONFIG_USB_EHCI_HCD_PLATFORM'
p2915
S'y'
sS'CONFIG_SCHED_OMIT_FRAME_POINTER'
p2916
S'y'
sS'kernel.hostname'
p2917
S'nestedvm'
p2918
sS'CONFIG_PINCTRL_AMD'
p2919
S'y'
sS'CONFIG_UIO'
p2920
S'm'
sS'net.ipv4.conf.ens3.drop_unicast_in_l2_multicast'
p2921
I0
sS'kernel.poweroff_cmd'
p2922
S'/sbin/poweroff'
p2923
sS'net.ipv4.conf.lo.promote_secondaries'
p2924
I0
sS'CONFIG_IA32_EMULATION'
p2925
S'y'
sS'CONFIG_SRAM'
p2926
S'y'
sS'CONFIG_ARCH_HAVE_NMI_SAFE_CMPXCHG'
p2927
S'y'
sS'vm.min_free_kbytes'
p2928
I225280
sS'CONFIG_RING_BUFFER'
p2929
S'y'
sS'net.ipv4.route.min_pmtu'
p2930
I552
sS'CONFIG_HAVE_ARCH_SOFT_DIRTY'
p2931
S'y'
sS'kernel.perf_cpu_time_max_percent'
p2932
I25
sS'kernel.sched_domain.cpu10.domain0.min_interval'
p2933
I10
sS'CONFIG_PROC_KCORE'
p2934
S'y'
sS'kernel.sched_domain.cpu9.domain1.forkexec_idx'
p2935
I0
sS'dev.raid.speed_limit_min'
p2936
I1000
sS'kernel.sched_domain.cpu8.domain1.max_newidle_lb_cost'
p2937
I1708000
sS'CONFIG_SECURITY_TOMOYO_MAX_ACCEPT_ENTRY'
p2938
I2048
sS'net.ipv4.route.gc_min_interval'
p2939
I0
sS'CONFIG_MAGIC_SYSRQ_DEFAULT_ENABLE'
p2940
S'0x1'
p2941
sS'CONFIG_DEVTMPFS_MOUNT'
p2942
S'y'
sS'kernel.sched_domain.cpu16.domain1.busy_idx'
p2943
I3
sS'kernel.sched_domain.cpu4.domain1.wake_idx'
p2944
I0
sS'CONFIG_USB_DWC2'
p2945
S'y'
sS'kernel.sched_domain.cpu15.domain0.name'
p2946
S'DIE'
p2947
sS'kernel.sched_domain.cpu18.domain1.cache_nice_tries'
p2948
I2
sS'net.ipv4.fib_multipath_use_neigh'
p2949
I0
sS'net.ipv4.icmp_msgs_per_sec'
p2950
I1000
sS'kernel.sched_domain.cpu15.domain0.idle_idx'
p2951
I1
sS'net.ipv4.tcp_retries1'
p2952
I3
sS'net.ipv4.tcp_retries2'
p2953
I15
sS'CONFIG_SECURITY_APPARMOR_HASH'
p2954
S'y'
sS'CONFIG_PGTABLE_LEVELS'
p2955
I4
sS'CONFIG_NET_VENDOR_ALACRITECH'
p2956
S'y'
sS'CONFIG_KPROBES_ON_FTRACE'
p2957
S'y'
sS'kernel.sched_domain.cpu5.domain1.idle_idx'
p2958
I2
sS'CONFIG_DNOTIFY'
p2959
S'y'
sS'CONFIG_GPIO_ACPI'
p2960
S'y'
sS'CONFIG_ACPI_TABLE_UPGRADE'
p2961
S'y'
sS'CONFIG_RELAY'
p2962
S'y'
sS'CONFIG_MODULE_SIG'
p2963
S'y'
sS'kernel.sched_domain.cpu7.domain1.forkexec_idx'
p2964
I0
sS'kernel.sched_domain.cpu1.domain1.max_interval'
p2965
I40
sS'kernel.domainname'
p2966
S'(none)'
p2967
sS'kernel.sched_domain.cpu4.domain0.forkexec_idx'
p2968
I0
sS'CONFIG_FB_ASILIANT'
p2969
S'y'
sS'CONFIG_SYSV68_PARTITION'
p2970
S'y'
sS'CONFIG_HAVE_FTRACE_MCOUNT_RECORD'
p2971
S'y'
sS'CONFIG_XZ_DEC_ARMTHUMB'
p2972
S'y'
sS'CONFIG_VGA_ARB'
p2973
S'y'
sS'CONFIG_INTEGRITY_TRUSTED_KEYRING'
p2974
S'y'
sS'CONFIG_MFD_TPS65910'
p2975
S'y'
sS'net.ipv4.igmp_max_msf'
p2976
I10
sS'vm.percpu_pagelist_fraction'
p2977
I0
sS'kernel.sched_domain.cpu6.domain1.wake_idx'
p2978
I0
sS'CONFIG_PM_SLEEP_DEBUG'
p2979
S'y'
sS'CONFIG_INLINE_WRITE_UNLOCK_IRQ'
p2980
S'y'
sS'CONFIG_NET_VENDOR_RDC'
p2981
S'y'
sS'CONFIG_MFD_MAX8925'
p2982
S'y'
sS'CONFIG_XZ_DEC_X86'
p2983
S'y'
sS'CONFIG_X86_X32'
p2984
S'y'
sS'net.ipv4.cipso_cache_bucket_size'
p2985
I10
sS'kernel.msg_next_id'
p2986
S'-1'
p2987
sS'net.ipv4.tcp_allowed_congestion_control'
p2988
S'cubic reno'
p2989
sS'kernel.sched_wakeup_granularity_ns'
p2990
I4000000
sS'net.ipv4.neigh.ens3.mcast_resolicit'
p2991
I0
sS'net.ipv6.conf.lo.disable_policy'
p2992
I0
sS'net.ipv6.conf.lo.addr_gen_mode'
p2993
I0
sS'CONFIG_X86_SPEEDSTEP_CENTRINO'
p2994
S'y'
sS'kernel.sched_domain.cpu11.domain1.busy_idx'
p2995
I3
sS'CONFIG_HAVE_PCSPKR_PLATFORM'
p2996
S'y'
sS'CONFIG_NET_VENDOR_SEEQ'
p2997
S'y'
sS'net.ipv4.tcp_syncookies'
p2998
I1
sS'CONFIG_ARCH_WANTS_THP_SWAP'
p2999
S'y'
sS'net.ipv6.neigh.lo.mcast_solicit'
p3000
I3
sS'CONFIG_IO_DELAY_TYPE_NONE'
p3001
I3
sS'net.ipv4.tcp_slow_start_after_idle'
p3002
I1
sS'CONFIG_EARLY_PRINTK_EFI'
p3003
S'y'
sS'CONFIG_PROBE_EVENTS'
p3004
S'y'
sS'CONFIG_WLAN_VENDOR_CISCO'
p3005
S'y'
sS'CONFIG_USB_DWC2_HOST'
p3006
S'y'
sS'CONFIG_FRAMEBUFFER_CONSOLE_ROTATION'
p3007
S'y'
sS'CONFIG_PROC_EVENTS'
p3008
S'y'
sS'kernel.sched_domain.cpu1.domain1.idle_idx'
p3009
I2
sS'kernel.sched_domain.cpu14.domain0.newidle_idx'
p3010
I0
sS'net.core.tstamp_allow_data'
p3011
I1
sS'kernel.sched_domain.cpu18.domain0.wake_idx'
p3012
I0
sS'kernel.sched_domain.cpu0.domain1.wake_idx'
p3013
I0
sS'CONFIG_LOCALVERSION'
p3014
S'""'
p3015
sS'CONFIG_PWM'
p3016
S'y'
sS'net.unix.max_dgram_qlen'
p3017
I512
sS'kernel.sched_domain.cpu10.domain1.forkexec_idx'
p3018
I0
sS'CONFIG_TTY_PRINTK'
p3019
S'y'
sS'kernel.ctrl-alt-del'
p3020
I0
sS'kernel.sched_domain.cpu2.domain1.max_newidle_lb_cost'
p3021
I2786101
sS'net.ipv4.conf.default.rp_filter'
p3022
I1
sS'kernel.sched_domain.cpu3.domain0.imbalance_pct'
p3023
I125
sS'kernel.sched_domain.cpu15.domain1.max_interval'
p3024
I40
sS'CONFIG_REGMAP_SPI'
p3025
S'y'
sS'CONFIG_PINMUX'
p3026
S'y'
sS'net.ipv4.conf.lo.force_igmp_version'
p3027
I0
sS'CONFIG_IOMMU_SUPPORT'
p3028
S'y'
sS'kernel.sched_domain.cpu13.domain1.busy_idx'
p3029
I3
sS'CONFIG_TRACE_CLOCK'
p3030
S'y'
sS'kernel.sched_domain.cpu4.domain1.min_interval'
p3031
I20
sg10
g11
sS'CONFIG_NET_VENDOR_CISCO'
p3032
S'y'
sS'CONFIG_BASE_FULL'
p3033
S'y'
sS'CONFIG_STP'
p3034
S'm'
sS'net.ipv4.conf.all.rp_filter'
p3035
I1
sS'kernel.sched_domain.cpu4.domain1.imbalance_pct'
p3036
I125
sS'CONFIG_ATA'
p3037
S'y'
sS'CONFIG_EVM_ATTR_FSUUID'
p3038
S'y'
sS'CONFIG_CRYPTO_GLUE_HELPER_X86'
p3039
S'm'
sS'net.ipv4.ip_early_demux'
p3040
I1
sS'CONFIG_BOOTPARAM_HARDLOCKUP_PANIC_VALUE'
p3041
I0
sS'CONFIG_SYSTEM_EXTRA_CERTIFICATE'
p3042
S'y'
sS'kernel.sched_domain.cpu5.domain1.busy_idx'
p3043
I3
sS'CONFIG_SYSTEM_TRUSTED_KEYS'
p3044
S'""'
p3045
sS'kernel.tracepoint_printk'
p3046
I0
sS'CONFIG_HOTPLUG_PCI'
p3047
S'y'
sS'kernel.sched_domain.cpu0.domain0.min_interval'
p3048
I10
sS'CONFIG_SERIAL_MAX310X'
p3049
S'y'
sS'kernel.sched_domain.cpu0.domain0.idle_idx'
p3050
I1
sS'CONFIG_PNPACPI'
p3051
S'y'
sS'CONFIG_EDAC'
p3052
S'y'
sS'CONFIG_INPUT_TOUCHSCREEN'
p3053
S'y'
sS'CONFIG_NLS_CODEPAGE_437'
p3054
S'y'
sS'vm.numa_zonelist_order'
p3055
S'Node'
p3056
sS'kernel.sched_domain.cpu11.domain0.cache_nice_tries'
p3057
I1
sS'CONFIG_FANOTIFY'
p3058
S'y'
sS'vm.memory_failure_recovery'
p3059
I1
sS'CONFIG_ACPI_HED'
p3060
S'y'
sS'net.ipv6.neigh.lo.unres_qlen'
p3061
I101
sS'CONFIG_X86_AMD_PLATFORM_DEVICE'
p3062
S'y'
sS'CONFIG_FONT_8x16'
p3063
S'y'
sS'net.ipv6.mld_max_msf'
p3064
I64
sS'net.ipv4.neigh.default.proxy_delay'
p3065
I80
sS'net.ipv4.conf.default.bootp_relay'
p3066
I0
sS'kernel.seccomp.actions_avail'
p3067
S'kill_process kill_thread trap errno trace log allow'
p3068
sS'CONFIG_USB_XHCI_PCI'
p3069
S'y'
sS'kernel.numa_balancing_scan_period_min_ms'
p3070
I1000
sS'kernel.sched_domain.cpu18.domain0.flags'
p3071
I4143
sS'net.ipv4.tcp_early_retrans'
p3072
I3
sS'kernel.sched_domain.cpu17.domain0.busy_idx'
p3073
I2
sS'CONFIG_NET_VENDOR_SUN'
p3074
S'y'
sS'CONFIG_KERNEL_GZIP'
p3075
S'y'
sS'kernel.sched_domain.cpu13.domain0.max_newidle_lb_cost'
p3076
I318026
sS'kernel.sched_domain.cpu6.domain0.max_interval'
p3077
I20
sS'CONFIG_DEFAULT_SECURITY'
p3078
S'"apparmor"'
p3079
sS'kernel.sched_domain.cpu3.domain1.busy_idx'
p3080
I3
sS'net.ipv4.conf.ens3.route_localnet'
p3081
I0
sS'net.ipv4.conf.default.igmpv3_unsolicited_report_interval'
p3082
I1000
sS'kernel.sched_domain.cpu9.domain1.wake_idx'
p3083
I0
sS'net.core.warnings'
p3084
I0
sS'CONFIG_HPET_TIMER'
p3085
S'y'
sS'net.ipv6.conf.default.accept_source_route'
p3086
I0
sS'kernel.sched_domain.cpu7.domain1.busy_factor'
p3087
I32
sS'kernel.sched_domain.cpu15.domain0.wake_idx'
p3088
I0
sS'kernel.sched_domain.cpu13.domain1.flags'
p3089
I25647
sS'kernel.sched_cfs_bandwidth_slice_us'
p3090
I5000
sS'net.ipv6.conf.lo.mldv2_unsolicited_report_interval'
p3091
I1000
sS'net.ipv6.conf.default.drop_unsolicited_na'
p3092
I0
sS'CONFIG_SECURITY_NETWORK'
p3093
S'y'
sS'CONFIG_TRACER_SNAPSHOT'
p3094
S'y'
sS'net.core.message_cost'
p3095
I5
sS'net.ipv6.conf.all.router_solicitation_interval'
p3096
I4
sS'net.ipv6.neigh.lo.retrans_time_ms'
p3097
I1000
sS'vm.stat_interval'
p3098
I1
sS'CONFIG_CGROUP_CPUACCT'
p3099
S'y'
sS'CONFIG_INPUT_JOYSTICK'
p3100
S'y'
sS'net.ipv4.conf.all.igmpv2_unsolicited_report_interval'
p3101
I10000
sS'net.ipv4.conf.all.accept_local'
p3102
I0
sS'CONFIG_I8253_LOCK'
p3103
S'y'
sS'CONFIG_MAC_EMUMOUSEBTN'
p3104
S'm'
sS'CONFIG_HIBERNATION'
p3105
S'y'
sS'net.ipv4.udp_mem'
p3106
S'1537185\t2049582\t3074370'
p3107
sS'CONFIG_XPS'
p3108
S'y'
sS'kernel.sched_domain.cpu6.domain1.idle_idx'
p3109
I2
sS'CONFIG_SND_JACK_INPUT_DEV'
p3110
S'y'
sS'CONFIG_INPUT_MOUSE'
p3111
S'y'
sS'kernel.sched_domain.cpu7.domain1.wake_idx'
p3112
I0
sS'CONFIG_IMA_TRUSTED_KEYRING'
p3113
S'y'
sS'CONFIG_MFD_WM8350_I2C'
p3114
S'y'
sS'net.ipv6.neigh.default.delay_first_probe_time'
p3115
I5
sS'kernel.sched_domain.cpu3.domain0.name'
p3116
S'DIE'
p3117
sS'kernel.sched_domain.cpu14.domain1.flags'
p3118
I25647
sS'CONFIG_USB_SUPPORT'
p3119
S'y'
sS'CONFIG_IOSF_MBI_DEBUG'
p3120
S'y'
sS'fs.leases-enable'
p3121
I1
sS'CONFIG_ARCH_MEMORY_PROBE'
p3122
S'y'
sS'net.ipv6.conf.all.temp_prefered_lft'
p3123
I86400
sS'CONFIG_GENERIC_IO'
p3124
S'y'
sS'CONFIG_64BIT'
p3125
S'y'
sS'CONFIG_HAVE_IRQ_TIME_ACCOUNTING'
p3126
S'y'
sS'kernel.sched_domain.cpu4.domain0.cache_nice_tries'
p3127
I1
sS'CONFIG_AUDIT_ARCH'
p3128
S'y'
sS'fs.aio-nr'
p3129
I0
sS'CONFIG_THERMAL_HWMON'
p3130
S'y'
sS'net.ipv4.route.max_size'
p3131
I2147483647
sS'kernel.watchdog_thresh'
p3132
I10
sS'CONFIG_HZ'
p3133
I250
sS'CONFIG_X86_DEBUG_FPU'
p3134
S'y'
sS'CONFIG_MPILIB'
p3135
S'y'
sS'CONFIG_INTEGRITY_AUDIT'
p3136
S'y'
sS'CONFIG_GPIO_SYSFS'
p3137
S'y'
sS'CONFIG_KEXEC_CORE'
p3138
S'y'
sS'kernel.sched_domain.cpu6.domain1.imbalance_pct'
p3139
I125
sS'CONFIG_EFI'
p3140
S'y'
sS'CONFIG_NET_VENDOR_SMSC'
p3141
S'y'
sS'kernel.sched_domain.cpu0.domain1.idle_idx'
p3142
I2
sS'net.ipv6.conf.all.accept_redirects'
p3143
I1
sS'CONFIG_KEYS'
p3144
S'y'
sS'kernel.sched_domain.cpu6.domain1.min_interval'
p3145
I20
sS'kernel.sched_domain.cpu2.domain1.min_interval'
p3146
I20
sS'CONFIG_KVM_VFIO'
p3147
S'y'
sS'net.ipv4.conf.lo.disable_policy'
p3148
I1
sS'kernel.sched_domain.cpu1.domain0.imbalance_pct'
p3149
I125
sS'CONFIG_MEMORY_HOTREMOVE'
p3150
S'y'
sS'CONFIG_SECURITY_TOMOYO_POLICY_LOADER'
p3151
S'"/sbin/tomoyo-init"'
p3152
sS'CONFIG_BINFMT_ELF'
p3153
S'y'
sS'net.ipv4.tcp_rfc1337'
p3154
I0
sS'kernel.sysrq'
p3155
I176
sS'CONFIG_TASK_IO_ACCOUNTING'
p3156
S'y'
sS'CONFIG_SATA_PMP'
p3157
S'y'
sS'kernel.sched_domain.cpu9.domain1.imbalance_pct'
p3158
I125
sa(dp3159
g3
(lp3160
S'Sleep'
p3161
ag6
aS'object'
p3162
asg8
S'Sleep.host-192.168.123.30'
p3163
sa(dp3164
g10
g11
sS'fstype'
p3165
S'tmpfs-separate'
p3166
sg3
(lp3167
S'FileSystem'
p3168
ag6
ag14
aS'object'
p3169
asg8
S'FileSystem.host-192.168.123.30.fstype-tmpfs-separate'
p3170
sa(dp3171
g8
S'SetCPUs.host-192.168.123.30'
p3172
sS'seq'
p3173
g3173
sg10
g11
sS'hotplug'
p3174
I01
sg3
(lp3175
S'SetCPUs'
p3176
ag6
ag14
aS'object'
p3177
asS'num'
p3178
I20
sa(dp3179
g8
S'EximDaemon.host-192.168.123.30'
p3180
sg3
(lp3181
S'EximDaemon'
p3182
ag6
aS'object'
p3183
asS'eximBuild'
p3184
S'exim-mod'
p3185
sg10
g11
sS'eximPath'
p3186
S'~/vm-scalability/bench/exim'
p3187
sS'port'
p3188
I2526
sS'spoolDir'
p3189
S'/tmp/mosbench/tmpfs-separate/spool'
p3190
sS'mailDir'
p3191
S'/tmp/mosbench/tmpfs-separate/0'
p3192
sa(dp3193
g10
g11
sg3
(lp3194
S'SystemMonitor'
p3195
ag6
ag14
aS'object'
p3196
asg8
S'SystemMonitor.host-192.168.123.30'
p3197
sa(dp3198
S'real'
p3199
F15.023999999999999
sS'time.iowait'
p3200
F64.280000000000001
sg8
S'EximLoad.trial-0.host-192.168.123.30'
p3201
sS'time.real'
p3202
F15.023999999999999
sS'time.idle'
p3203
F268.791
sS'time.sys'
p3204
F29.48
sS'clients'
p3205
I160
sg3
(lp3206
S'EximLoad'
p3207
ag6
aS'ResultsProvider'
p3208
aS'object'
p3209
asS'time.nice'
p3210
F0
sS'trial'
p3211
I0
sg10
g11
sS'result'
p3212
F8163
sS'time.softirq'
p3213
F5.1399999999999997
sS'units'
p3214
S'messages'
p3215
sS'cores'
p3216
I20
sS'time.steal'
p3217
F1.0900000000000001
sS'time.irq'
p3218
F0
sg3186
g3187
sg3188
I2526
sS'unit'
p3219
S'message'
p3220
sS'time.user'
p3221
F2.21
sa.