(lp1
(dp2
S'classNames'
p3
(lp4
S'ResultPath'
p5
aS'Task'
p6
aS'object'
p7
asS'name'
p8
g5
sa(dp9
S'host'
p10
S'192.168.123.30'
p11
sg3
(lp12
S'Host'
p13
ag6
aS'SourceFileProvider'
p14
aS'object'
p15
asg8
S'Host.host-192.168.123.30'
p16
sa(dp17
S'CONFIG_USB_OHCI_HCD_PLATFORM'
p18
S'y'
sS'CONFIG_DEFAULT_IO_DELAY_TYPE'
p19
I1
sS'CONFIG_DNS_RESOLVER'
p20
S'y'
sS'net.ipv6.conf.lo.suppress_frag_ndisc'
p21
I1
sS'CONFIG_GENERIC_STRNCPY_FROM_USER'
p22
S'y'
sS'net.netfilter.nf_log_all_netns'
p23
I0
sS'CONFIG_KVM_SCHEDACT'
p24
S'y'
sS'CONFIG_WLAN_VENDOR_RALINK'
p25
S'y'
sS'CONFIG_HAVE_DYNAMIC_FTRACE_WITH_REGS'
p26
S'y'
sS'net.ipv4.conf.all.tag'
p27
I0
sS'CONFIG_EVENT_TRACING'
p28
S'y'
sS'CONFIG_LIVEPATCH'
p29
S'y'
sS'CONFIG_LEDS_TRIGGER_CPU'
p30
S'y'
sS'CONFIG_PCIEPORTBUS'
p31
S'y'
sS'CONFIG_INIT_ENV_ARG_LIMIT'
p32
I32
sS'net.ipv6.conf.default.accept_ra_min_hop_limit'
p33
I1
sS'CONFIG_LEDS_CLASS'
p34
S'y'
sS'net.ipv4.neigh.default.proxy_qlen'
p35
I64
sS'CONFIG_PMC_ATOM'
p36
S'y'
sS'CONFIG_MANDATORY_FILE_LOCKING'
p37
S'y'
sS'fs.quota.free_dquots'
p38
I0
sS'CONFIG_PRINTK_NMI'
p39
S'y'
sS'CONFIG_NETDEVICES'
p40
S'y'
sS'CONFIG_HAVE_DYNAMIC_FTRACE'
p41
S'y'
sS'CONFIG_PINCTRL_SX150X'
p42
S'y'
sS'CONFIG_NET_SCHED'
p43
S'y'
sS'CONFIG_UNIXWARE_DISKLABEL'
p44
S'y'
sS'CONFIG_INLINE_WRITE_UNLOCK'
p45
S'y'
sS'CONFIG_ACPI_REV_OVERRIDE_POSSIBLE'
p46
S'y'
sS'CONFIG_HAVE_ARCH_AUDITSYSCALL'
p47
S'y'
sS'CONFIG_NET_VENDOR_RENESAS'
p48
S'y'
sS'CONFIG_FIRMWARE_EDID'
p49
S'y'
sS'CONFIG_CGROUPS'
p50
S'y'
sS'net.ipv6.conf.ens3.regen_max_retry'
p51
I3
sS'net.ipv4.conf.lo.medium_id'
p52
I0
sS'CONFIG_DEFAULT_MMAP_MIN_ADDR'
p53
I65536
sS'CONFIG_AIO'
p54
S'y'
sS'CONFIG_X86_DEBUGCTLMSR'
p55
S'y'
sS'CONFIG_ARCH_HIBERNATION_HEADER'
p56
S'y'
sS'net.ipv4.tcp_synack_retries'
p57
I5
sS'CONFIG_SECURITY_YAMA'
p58
S'y'
sS'CONFIG_CRYPTO_ECB'
p59
S'y'
sS'CONFIG_ACPI_HOTPLUG_MEMORY'
p60
S'y'
sS'net.ipv4.tcp_notsent_lowat'
p61
I4294967295
sS'CONFIG_HAVE_ARCH_WITHIN_STACK_FRAMES'
p62
S'y'
sS'CONFIG_FS_DAX_PMD'
p63
S'y'
sS'CONFIG_X86_LOCAL_APIC'
p64
S'y'
sS'CONFIG_MFD_SEC_CORE'
p65
S'y'
sS'CONFIG_GENERIC_CLOCKEVENTS_MIN_ADJUST'
p66
S'y'
sS'net.ipv6.conf.lo.accept_redirects'
p67
I1
sS'CONFIG_TASK_XACCT'
p68
S'y'
sS'CONFIG_KEXEC_BZIMAGE_VERIFY_SIG'
p69
S'y'
sS'CONFIG_EVENTFD'
p70
S'y'
sS'CONFIG_FTRACE_MCOUNT_RECORD'
p71
S'y'
sS'CONFIG_HAVE_PERF_EVENTS'
p72
S'y'
sS'CONFIG_SND_HDA_CORE'
p73
S'm'
sS'CONFIG_ARCH_SUPPORTS_UPROBES'
p74
S'y'
sS'CONFIG_PACKET'
p75
S'y'
sS'net.ipv6.conf.ens3.use_oif_addrs_only'
p76
I0
sS'net.ipv6.conf.all.router_solicitation_max_interval'
p77
I3600
sS'net.ipv4.neigh.lo.proxy_delay'
p78
I80
sS'CONFIG_PARPORT_PC'
p79
S'm'
sS'CONFIG_AGP'
p80
S'y'
sS'CONFIG_INPUT_JOYDEV'
p81
S'm'
sS'net.ipv6.conf.default.addr_gen_mode'
p82
I0
sS'kernel.hung_task_check_count'
p83
I4194304
sS'CONFIG_INFINIBAND_ADDR_TRANS'
p84
S'y'
sS'CONFIG_CRYPTO_SHA512'
p85
S'y'
sS'CONFIG_WLAN_VENDOR_INTERSIL'
p86
S'y'
sS'CONFIG_CRYPTO_NULL'
p87
S'y'
sS'net.ipv6.conf.ens3.force_mld_version'
p88
I0
sS'CONFIG_INTEGRITY_ASYMMETRIC_KEYS'
p89
S'y'
sS'CONFIG_TWL4030_CORE'
p90
S'y'
sS'CONFIG_FRAME_POINTER_UNWINDER'
p91
S'y'
sS'CONFIG_HAVE_IRQ_EXIT_ON_IRQ_STACK'
p92
S'y'
sS'CONFIG_MOUSE_PS2'
p93
S'm'
sS'CONFIG_EFI_PARTITION'
p94
S'y'
sS'CONFIG_NODES_SPAN_OTHER_NODES'
p95
S'y'
sS'CONFIG_FUNCTION_GRAPH_TRACER'
p96
S'y'
sS'net.ipv6.conf.all.seg6_enabled'
p97
I0
sS'CONFIG_IPV6_MROUTE'
p98
S'y'
sS'CONFIG_SCHED_HRTICK'
p99
S'y'
sS'net.ipv4.conf.default.disable_policy'
p100
I0
sS'CONFIG_FHANDLE'
p101
S'y'
sS'CONFIG_HAVE_FUNCTION_GRAPH_TRACER'
p102
S'y'
sS'CONFIG_FS_IOMAP'
p103
S'y'
sS'CONFIG_CRYPTO_ACOMP2'
p104
S'y'
sS'CONFIG_HAVE_KERNEL_LZMA'
p105
S'y'
sS'CONFIG_ARCH_HAS_DEBUG_VIRTUAL'
p106
S'y'
sS'net.ipv6.neigh.default.unres_qlen_bytes'
p107
I212992
sS'kernel.sem_next_id'
p108
S'-1'
p109
sS'kernel.random.write_wakeup_threshold'
p110
I896
sS'net.ipv6.conf.lo.use_oif_addrs_only'
p111
I0
sS'net.ipv6.conf.ens3.accept_ra_defrtr'
p112
I1
sS'net.ipv6.neigh.lo.proxy_qlen'
p113
I64
sS'net.ipv4.tcp_fastopen'
p114
I1
sS'CONFIG_CRYPTO_CRCT10DIF_PCLMUL'
p115
S'm'
sS'CONFIG_DEFAULT_IOSCHED'
p116
S'"deadline"'
p117
sS'CONFIG_FUSION_LOGGING'
p118
S'y'
sS'CONFIG_NET_PACKET_ENGINE'
p119
S'y'
sS'CONFIG_DQL'
p120
S'y'
sS'net.ipv6.conf.lo.force_tllao'
p121
I0
sS'CONFIG_IP_ADVANCED_ROUTER'
p122
S'y'
sS'CONFIG_SERIAL_SCCNXP_CONSOLE'
p123
S'y'
sS'CONFIG_MINIX_SUBPARTITION'
p124
S'y'
sS'CONFIG_NOP_USB_XCEIV'
p125
S'y'
sS'kernel.print-fatal-signals'
p126
I0
sS'CONFIG_INET'
p127
S'y'
sS'net.ipv4.tcp_probe_interval'
p128
I600
sS'CONFIG_EXTRA_FIRMWARE'
p129
S'""'
p130
sS'CONFIG_I2C_DESIGNWARE_CORE'
p131
S'y'
sS'net.ipv4.conf.lo.arp_accept'
p132
I0
sS'CONFIG_REGMAP_MMIO'
p133
S'y'
sS'CONFIG_SND_HDA_POWER_SAVE_DEFAULT'
p134
I0
sS'net.ipv6.conf.lo.forwarding'
p135
I0
sS'CONFIG_NET_VENDOR_SOLARFLARE'
p136
S'y'
sS'CONFIG_FIXED_PHY'
p137
S'y'
sS'net.ipv4.conf.default.shared_media'
p138
I1
sS'CONFIG_NET_VENDOR_TEHUTI'
p139
S'y'
sS'net.ipv6.conf.default.router_solicitations'
p140
S'-1'
p141
sS'CONFIG_MFD_DA9063'
p142
S'y'
sS'CONFIG_CRYPTO'
p143
S'y'
sS'CONFIG_WLAN_VENDOR_ZYDAS'
p144
S'y'
sS'CONFIG_STRICT_KERNEL_RWX'
p145
S'y'
sS'net.ipv6.mld_qrv'
p146
I2
sS'CONFIG_SND_HDA_PATCH_LOADER'
p147
S'y'
sS'net.ipv4.conf.all.disable_policy'
p148
I0
sS'CONFIG_CGROUP_SCHED'
p149
S'y'
sS'CONFIG_COMPAT_FOR_U64_ALIGNMENT'
p150
S'y'
sS'CONFIG_PPP_FILTER'
p151
S'y'
sS'CONFIG_CPU_FREQ'
p152
S'y'
sS'net.core.netdev_tstamp_prequeue'
p153
I1
sS'net.ipv6.conf.all.accept_dad'
p154
I1
sS'CONFIG_DCB'
p155
S'y'
sS'CONFIG_I2C_PIIX4'
p156
S'm'
sS'kernel.panic_on_oops'
p157
I0
sS'CONFIG_MEMORY_HOTPLUG'
p158
S'y'
sS'dev.cdrom.debug'
p159
I0
sS'CONFIG_MOUSE_PS2_SYNAPTICS'
p160
S'y'
sS'CONFIG_SECURITY_SELINUX'
p161
S'y'
sS'net.ipv6.conf.lo.max_addresses'
p162
I16
sS'CONFIG_PCI_PASID'
p163
S'y'
sS'CONFIG_SCSI_LOWLEVEL'
p164
S'y'
sS'CONFIG_GENERIC_MSI_IRQ'
p165
S'y'
sS'kernel.ngroups_max'
p166
I65536
sS'CONFIG_MTRR_SANITIZER'
p167
S'y'
sS'CONFIG_PM_DEVFREQ_EVENT'
p168
S'y'
sS'CONFIG_POWER_RESET_RESTART'
p169
S'y'
sS'kernel.max_lock_depth'
p170
I1024
sS'CONFIG_ZPOOL'
p171
S'y'
sS'CONFIG_PATA_SIS'
p172
S'y'
sS'CONFIG_MFD_TPS65910'
p173
S'y'
sS'CONFIG_ARCH_HAS_UACCESS_FLUSHCACHE'
p174
S'y'
sS'CONFIG_ARCH_WANT_GENERAL_HUGETLB'
p175
S'y'
sS'net.ipv6.conf.default.max_addresses'
p176
I16
sS'CONFIG_ARCH_WANT_OLD_COMPAT_IPC'
p177
S'y'
sS'CONFIG_CGROUP_WRITEBACK'
p178
S'y'
sS'CONFIG_X86_ACPI_CPUFREQ'
p179
S'y'
sS'CONFIG_DUMMY_CONSOLE'
p180
S'y'
sS'CONFIG_RWSEM_SPIN_ON_OWNER'
p181
S'y'
sS'CONFIG_SECURITY_APPARMOR_BOOTPARAM_VALUE'
p182
I1
sS'vm.dirtytime_expire_seconds'
p183
I43200
sS'net.ipv4.tcp_challenge_ack_limit'
p184
I1000
sS'CONFIG_HOTPLUG_PCI_ACPI'
p185
S'y'
sS'CONFIG_KARMA_PARTITION'
p186
S'y'
sS'CONFIG_INFINIBAND_ISER'
p187
S'm'
sS'net.ipv4.conf.ens3.igmpv3_unsolicited_report_interval'
p188
I1000
sS'CONFIG_CLZ_TAB'
p189
S'y'
sS'CONFIG_MODIFY_LDT_SYSCALL'
p190
S'y'
sS'CONFIG_X86_THERMAL_VECTOR'
p191
S'y'
sS'CONFIG_RCU_CPU_STALL_TIMEOUT'
p192
I60
sS'CONFIG_BACKLIGHT_CLASS_DEVICE'
p193
S'y'
sS'CONFIG_BOOTPARAM_SOFTLOCKUP_PANIC_VALUE'
p194
I0
sS'CONFIG_PM_WAKELOCKS'
p195
S'y'
sS'CONFIG_GPIOLIB_IRQCHIP'
p196
S'y'
sS'CONFIG_HOTPLUG_CPU'
p197
S'y'
sS'CONFIG_WLAN'
p198
S'y'
sS'CONFIG_BLK_DEV_INTEGRITY'
p199
S'y'
sS'CONFIG_ARCH_HAS_HMM'
p200
S'y'
sS'CONFIG_SQUASHFS_FILE_DIRECT'
p201
S'y'
sS'CONFIG_NETWORK_FILESYSTEMS'
p202
S'y'
sS'CONFIG_SERIAL_8250_RSA'
p203
S'y'
sS'net.ipv4.tcp_min_tso_segs'
p204
I2
sS'CONFIG_SCHED_STACK_END_CHECK'
p205
S'y'
sS'net.ipv4.conf.lo.disable_xfrm'
p206
I1
sS'CONFIG_POWERCAP'
p207
S'y'
sS'CONFIG_UNUSED_SYMBOLS'
p208
S'y'
sS'CONFIG_INTEGRITY'
p209
S'y'
sS'fs.mqueue.msg_default'
p210
I10
sS'CONFIG_MD_LINEAR'
p211
S'm'
sS'net.ipv4.tcp_max_orphans'
p212
I262144
sS'CONFIG_MFD_MAX77843'
p213
S'y'
sS'CONFIG_CONSOLE_TRANSLATIONS'
p214
S'y'
sS'CONFIG_SLABINFO'
p215
S'y'
sS'kernel.perf_event_max_stack'
p216
I127
sS'CONFIG_PCI'
p217
S'y'
sS'CONFIG_GENERIC_MSI_IRQ_DOMAIN'
p218
S'y'
sS'CONFIG_NET_VENDOR_AGERE'
p219
S'y'
sS'CONFIG_SYSTEM_BLACKLIST_KEYRING'
p220
S'y'
sS'CONFIG_IP_ROUTE_MULTIPATH'
p221
S'y'
sS'CONFIG_SCHED_SMT'
p222
S'y'
sS'net.ipv4.tcp_adv_win_scale'
p223
I1
sS'CONFIG_INTEL_IDLE'
p224
S'y'
sS'CONFIG_ASYNC_CORE'
p225
S'm'
sS'net.ipv4.udp_rmem_min'
p226
I4096
sS'CONFIG_FIRMWARE_IN_KERNEL'
p227
S'y'
sS'CONFIG_GPIO_TPS65910'
p228
S'y'
sS'CONFIG_CRC_CCITT'
p229
S'y'
sS'CONFIG_PERSISTENT_KEYRINGS'
p230
S'y'
sS'CONFIG_MOUSE_PS2_LIFEBOOK'
p231
S'y'
sS'CONFIG_ARCH_WANT_COMPAT_IPC_PARSE_VERSION'
p232
S'y'
sS'net.ipv6.conf.default.accept_ra_rt_info_max_plen'
p233
I0
sS'CONFIG_ACPI_CPPC_LIB'
p234
S'y'
sS'CONFIG_ASYNC_RAID6_RECOV'
p235
S'm'
sS'net.ipv6.conf.default.ignore_routes_with_linkdown'
p236
I0
sS'net.ipv6.conf.lo.accept_ra_from_local'
p237
I0
sS'CONFIG_EXPORTFS'
p238
S'y'
sS'CONFIG_CRYPTO_CRC32_PCLMUL'
p239
S'm'
sS'CONFIG_INPUT'
p240
S'y'
sS'CONFIG_THERMAL_DEFAULT_GOV_STEP_WISE'
p241
S'y'
sS'fs.suid_dumpable'
p242
I2
sS'CONFIG_CPU_FREQ_GOV_PERFORMANCE'
p243
S'y'
sS'CONFIG_SERIAL_8250_DMA'
p244
S'y'
sS'CONFIG_SCHED_AUTOGROUP'
p245
S'y'
sS'net.core.optmem_max'
p246
I20480
sS'user.max_inotify_watches'
p247
I8192
sS'vm.nr_overcommit_hugepages'
p248
I0
sS'net.ipv6.conf.default.accept_ra_defrtr'
p249
I1
sS'net.ipv6.conf.default.accept_ra_rt_info_min_plen'
p250
I0
sS'CONFIG_DEBUG_INFO_DWARF4'
p251
S'y'
sS'CONFIG_NET_EMATCH'
p252
S'y'
sS'CONFIG_CPU_SUP_CENTAUR'
p253
S'y'
sS'CONFIG_PCI_QUIRKS'
p254
S'y'
sS'CONFIG_SERIAL_NONSTANDARD'
p255
S'y'
sS'user.max_uts_namespaces'
p256
I257592
sS'net.ipv6.route.gc_interval'
p257
I30
sS'CONFIG_VIRT_DRIVERS'
p258
S'y'
sS'net.ipv6.bindv6only'
p259
I0
sS'CONFIG_CNIC'
p260
S'm'
sS'CONFIG_SUN_PARTITION'
p261
S'y'
sS'net.ipv4.conf.all.drop_gratuitous_arp'
p262
I0
sS'CONFIG_PINCTRL'
p263
S'y'
sS'CONFIG_THERMAL_GOV_FAIR_SHARE'
p264
S'y'
sS'CONFIG_BLK_DEV_SD'
p265
S'y'
sS'net.ipv6.route.gc_min_interval_ms'
p266
I500
sS'CONFIG_IRQ_FORCED_THREADING'
p267
S'y'
sS'CONFIG_MTRR_SANITIZER_SPARE_REG_NR_DEFAULT'
p268
I1
sS'CONFIG_BLK_MQ_PCI'
p269
S'y'
sS'CONFIG_DEBUG_BUGVERBOSE'
p270
S'y'
sS'CONFIG_LSM_MMAP_MIN_ADDR'
p271
I0
sS'CONFIG_FS_MBCACHE'
p272
S'y'
sS'CONFIG_KVM_INTEL'
p273
S'm'
sS'net.ipv6.neigh.ens3.proxy_qlen'
p274
I64
sS'net.ipv6.conf.lo.ndisc_notify'
p275
I0
sS'CONFIG_USB'
p276
S'y'
sS'CONFIG_SND_DYNAMIC_MINORS'
p277
S'y'
sS'CONFIG_MD_RAID1'
p278
S'm'
sS'CONFIG_HAVE_SETUP_PER_CPU_AREA'
p279
S'y'
sS'user.max_net_namespaces'
p280
I257592
sS'CONFIG_LOG_CPU_MAX_BUF_SHIFT'
p281
I12
sS'vm.laptop_mode'
p282
I0
sS'CONFIG_SIGNED_PE_FILE_VERIFICATION'
p283
S'y'
sS'CONFIG_NET_VENDOR_CAVIUM'
p284
S'y'
sS'CONFIG_IMA_NG_TEMPLATE'
p285
S'y'
sS'CONFIG_CRYPTO_GCM'
p286
S'y'
sS'CONFIG_KEXEC'
p287
S'y'
sS'CONFIG_CRYPTO_DEV_PADLOCK'
p288
S'y'
sS'net.ipv4.conf.all.secure_redirects'
p289
I1
sS'CONFIG_HAVE_REGS_AND_STACK_ACCESS_API'
p290
S'y'
sS'CONFIG_FRAME_POINTER'
p291
S'y'
sS'CONFIG_DEVFREQ_GOV_SIMPLE_ONDEMAND'
p292
S'y'
sS'net.ipv4.conf.lo.igmpv2_unsolicited_report_interval'
p293
I10000
sS'CONFIG_TOUCHSCREEN_ELAN'
p294
S'y'
sS'net.ipv6.conf.ens3.accept_ra_mtu'
p295
I1
sS'CONFIG_INPUT_MISC'
p296
S'y'
sS'CONFIG_PARPORT_1284'
p297
S'y'
sS'net.ipv4.conf.all.force_igmp_version'
p298
I0
sS'CONFIG_UTS_NS'
p299
S'y'
sS'CONFIG_BRIDGE_IGMP_SNOOPING'
p300
S'y'
sS'CONFIG_MFD_MAX14577'
p301
S'y'
sS'net.ipv6.neigh.lo.mcast_resolicit'
p302
I0
sS'CONFIG_PREEMPT_NOTIFIERS'
p303
S'y'
sS'CONFIG_IO_DELAY_0XED'
p304
S'y'
sS'CONFIG_AGP_AMD64'
p305
S'y'
sS'CONFIG_WATCHDOG'
p306
S'y'
sS'CONFIG_MTRR'
p307
S'y'
sS'kernel.overflowgid'
p308
I65534
sS'CONFIG_CRYPTO_RNG_DEFAULT'
p309
S'y'
sS'CONFIG_X86_MCE'
p310
S'y'
sS'CONFIG_KALLSYMS_BASE_RELATIVE'
p311
S'y'
sS'CONFIG_ISA_DMA_API'
p312
S'y'
sS'CONFIG_ASYMMETRIC_PUBLIC_KEY_SUBTYPE'
p313
S'y'
sS'CONFIG_ELF_CORE'
p314
S'y'
sS'net.ipv6.neigh.lo.proxy_delay'
p315
I80
sS'net.ipv6.conf.lo.router_solicitations'
p316
S'-1'
p317
sS'kernel.ftrace_dump_on_oops'
p318
I0
sS'net.ipv4.conf.default.arp_filter'
p319
I0
sS'kernel.sched_autogroup_enabled'
p320
I1
sS'net.ipv6.neigh.default.unres_qlen'
p321
I101
sS'CONFIG_X86_MPPARSE'
p322
S'y'
sS'net.ipv6.neigh.lo.anycast_delay'
p323
I100
sS'CONFIG_USB_DYNAMIC_MINORS'
p324
S'y'
sS'CONFIG_ARCH_HAS_FORTIFY_SOURCE'
p325
S'y'
sS'CONFIG_SUSPEND_FREEZER'
p326
S'y'
sS'net.ipv4.icmp_ratemask'
p327
I6168
sS'CONFIG_SERIAL_8250_EXAR'
p328
S'y'
sS'kernel.hung_task_warnings'
p329
I10
sS'CONFIG_SYSTEM_BLACKLIST_HASH_LIST'
p330
S'""'
p331
sS'CONFIG_ARCH_MMAP_RND_BITS_MIN'
p332
I28
sS'CONFIG_EXPERT'
p333
S'y'
sS'net.ipv4.tcp_abort_on_overflow'
p334
I0
sS'CONFIG_WLAN_VENDOR_ATMEL'
p335
S'y'
sS'CONFIG_HAVE_MIXED_BREAKPOINTS_REGS'
p336
S'y'
sS'CONFIG_ARCH_ENABLE_THP_MIGRATION'
p337
S'y'
sS'CONFIG_SWIOTLB'
p338
S'y'
sS'net.ipv4.conf.lo.bootp_relay'
p339
I0
sS'net.ipv6.neigh.default.app_solicit'
p340
I0
sS'CONFIG_SCSI_PROC_FS'
p341
S'y'
sS'CONFIG_RD_BZIP2'
p342
S'y'
sS'net.ipv6.conf.ens3.accept_ra_rt_info_min_plen'
p343
I0
sS'CONFIG_FDDI'
p344
S'y'
sS'CONFIG_XZ_DEC_SPARC'
p345
S'y'
sS'CONFIG_ACPI_SYSTEM_POWER_STATES_SUPPORT'
p346
S'y'
sS'CONFIG_MICROCODE_AMD'
p347
S'y'
sS'vm.nr_hugepages_mempolicy'
p348
I0
sS'CONFIG_CRYPTO_AEAD2'
p349
S'y'
sS'CONFIG_HPET_EMULATE_RTC'
p350
S'y'
sS'CONFIG_XOR_BLOCKS'
p351
S'm'
sS'CONFIG_REGULATOR'
p352
S'y'
sS'CONFIG_MAILBOX'
p353
S'y'
sS'CONFIG_CRYPTO_HW'
p354
S'y'
sS'CONFIG_DECOMPRESS_GZIP'
p355
S'y'
sS'CONFIG_OID_REGISTRY'
p356
S'y'
sS'net.ipv6.conf.lo.regen_max_retry'
p357
I3
sS'net.ipv6.conf.default.proxy_ndp'
p358
I0
sS'CONFIG_MEMTEST'
p359
S'y'
sS'net.ipv4.ip_unprivileged_port_start'
p360
I1024
sS'net.ipv6.neigh.lo.app_solicit'
p361
I0
sS'CONFIG_PCI_BUS_ADDR_T_64BIT'
p362
S'y'
sS'CONFIG_VGA_SWITCHEROO'
p363
S'y'
sS'CONFIG_XZ_DEC_IA64'
p364
S'y'
sS'CONFIG_WLAN_VENDOR_MARVELL'
p365
S'y'
sS'CONFIG_ARCH_USE_QUEUED_SPINLOCKS'
p366
S'y'
sS'CONFIG_IPV6_SUBTREES'
p367
S'y'
sS'CONFIG_NET_EMATCH_STACK'
p368
I32
sS'net.ipv4.tcp_rmem'
p369
S'4096\t87380\t6291456'
p370
sS'CONFIG_CRYPTO_GF128MUL'
p371
S'y'
sS'net.ipv6.conf.lo.enhanced_dad'
p372
I1
sS'CONFIG_GPIOLIB'
p373
S'y'
sS'CONFIG_NET_VENDOR_SIS'
p374
S'y'
sS'vm.panic_on_oom'
p375
I0
sS'CONFIG_USER_STACKTRACE_SUPPORT'
p376
S'y'
sS'net.ipv4.neigh.ens3.app_solicit'
p377
I0
sS'CONFIG_HAVE_KVM_IRQ_BYPASS'
p378
S'y'
sS'CONFIG_ARCH_DISCARD_MEMBLOCK'
p379
S'y'
sS'net.ipv6.conf.default.suppress_frag_ndisc'
p380
I1
sS'fs.inotify.max_user_instances'
p381
I1024
sS'CONFIG_SYSCTL'
p382
S'y'
sS'net.ipv4.icmp_ignore_bogus_error_responses'
p383
I1
sS'CONFIG_HAVE_FENTRY'
p384
S'y'
sS'CONFIG_KRETPROBES'
p385
S'y'
sS'fs.quota.syncs'
p386
I0
sS'CONFIG_SECURITY_SMACK_NETFILTER'
p387
S'y'
sS'net.ipv6.neigh.ens3.delay_first_probe_time'
p388
I5
sS'kernel.stack_tracer_enabled'
p389
I0
sS'net.ipv4.conf.lo.arp_notify'
p390
I0
sS'CONFIG_CRYPTO_DRBG_HMAC'
p391
S'y'
sS'CONFIG_MAC_PARTITION'
p392
S'y'
sS'CONFIG_MISC_FILESYSTEMS'
p393
S'y'
sS'abi.vsyscall32'
p394
I1
sS'net.ipv4.route.error_cost'
p395
I250
sS'CONFIG_CRYPTO_SKEIN'
p396
S'y'
sS'net.ipv6.conf.all.suppress_frag_ndisc'
p397
I1
sS'CONFIG_GENERIC_PCI_IOMAP'
p398
S'y'
sS'CONFIG_SND_HDA_INPUT_BEEP_MODE'
p399
I0
sS'CONFIG_DEBUG_KERNEL'
p400
S'y'
sS'net.ipv4.igmp_qrv'
p401
I2
sS'kernel.version'
p402
S'#3 SMP Tue Mar 13 14:28:42 EDT 2018'
p403
sS'CONFIG_MODULE_SIG_SHA512'
p404
S'y'
sS'CONFIG_CHELSIO_T3'
p405
S'm'
sS'CONFIG_SECTION_MISMATCH_WARN_ONLY'
p406
S'y'
sS'user.max_mnt_namespaces'
p407
I257592
sS'net.core.wmem_max'
p408
I212992
sS'vm.swappiness'
p409
I60
sS'vm.zone_reclaim_mode'
p410
I0
sS'net.ipv4.tcp_l3mdev_accept'
p411
I0
sS'CONFIG_SBITMAP'
p412
S'y'
sS'net.ipv4.cipso_cache_bucket_size'
p413
I10
sS'net.ipv4.ipfrag_low_thresh'
p414
I3145728
sS'net.ipv4.route.mtu_expires'
p415
I600
sS'CONFIG_KPROBE_EVENTS'
p416
S'y'
sS'net.ipv6.conf.default.drop_unicast_in_l2_multicast'
p417
I0
sS'CONFIG_USB_EHCI_TT_NEWSCHED'
p418
S'y'
sS'CONFIG_X86_16BIT'
p419
S'y'
sS'CONFIG_VIRTIO_BALLOON'
p420
S'y'
sS'net.iw_cm.default_backlog'
p421
I256
sS'CONFIG_CRYPTO_CTR'
p422
S'y'
sS'CONFIG_CRC32_SLICEBY8'
p423
S'y'
sS'net.ipv4.tcp_reordering'
p424
I3
sS'CONFIG_NET'
p425
S'y'
sS'CONFIG_BLK_MQ_RDMA'
p426
S'y'
sS'CONFIG_HAS_DMA'
p427
S'y'
sS'kernel.random.uuid'
p428
S'2feef858-5e0b-48d3-8985-091c5f2751d7'
p429
sS'CONFIG_SOUND_OSS_CORE'
p430
S'y'
sS'net.ipv4.conf.lo.secure_redirects'
p431
I1
sS'fs.overflowgid'
p432
I65534
sS'net.ipv4.tcp_dsack'
p433
I1
sS'CONFIG_CPU_SUP_INTEL'
p434
S'y'
sS'CONFIG_TRANSPARENT_HUGEPAGE'
p435
S'y'
sS'CONFIG_SCSI_ISCSI_ATTRS'
p436
S'm'
sS'CONFIG_MQ_IOSCHED_DEADLINE'
p437
S'y'
sS'CONFIG_CRYPTO_HMAC'
p438
S'y'
sS'CONFIG_EFI'
p439
S'y'
sS'CONFIG_VT_CONSOLE'
p440
S'y'
sS'kernel.acpi_video_flags'
p441
I0
sS'net.ipv6.conf.lo.router_solicitation_max_interval'
p442
I3600
sS'CONFIG_VGA_ARB_MAX_GPUS'
p443
I16
sS'CONFIG_BUILDTIME_EXTABLE_SORT'
p444
S'y'
sS'CONFIG_KEXEC_JUMP'
p445
S'y'
sS'net.ipv4.tcp_autocorking'
p446
I1
sS'CONFIG_GENERIC_SMP_IDLE_THREAD'
p447
S'y'
sS'dev.cdrom.lock'
p448
I1
sS'CONFIG_HAVE_HW_BREAKPOINT'
p449
S'y'
sS'CONFIG_MACINTOSH_DRIVERS'
p450
S'y'
sS'CONFIG_ISDN'
p451
S'y'
sS'CONFIG_MFD_CORE'
p452
S'y'
sS'CONFIG_ACPI_FAN'
p453
S'y'
sS'net.ipv4.conf.lo.src_valid_mark'
p454
I0
sS'CONFIG_AIX_PARTITION'
p455
S'y'
sS'CONFIG_MD_RAID456'
p456
S'm'
sS'net.ipv4.conf.ens3.arp_ignore'
p457
I0
sS'CONFIG_TICK_CPU_ACCOUNTING'
p458
S'y'
sS'CONFIG_MFD_TPS65090'
p459
S'y'
sS'CONFIG_SFI'
p460
S'y'
sS'fs.inode-nr'
p461
S'87180\t505'
p462
sS'CONFIG_NET_SCH_FIFO'
p463
S'y'
sS'net.core.netdev_rss_key'
p464
S'00:00:00:00:00:00:00:00:00:00:00:00:00:00:00:00:00:00:00:00:00:00:00:00:00:00:00:00:00:00:00:00:00:00:00:00:00:00:00:00:00:00:00:00:00:00:00:00:00:00:00:00'
p465
sS'net.ipv4.conf.default.igmpv2_unsolicited_report_interval'
p466
I10000
sS'CONFIG_SYSFS_SYSCALL'
p467
S'y'
sS'CONFIG_RWSEM_XCHGADD_ALGORITHM'
p468
S'y'
sS'CONFIG_SYN_COOKIES'
p469
S'y'
sS'CONFIG_GENERIC_CMOS_UPDATE'
p470
S'y'
sS'net.ipv4.tcp_max_tw_buckets'
p471
I262144
sS'CONFIG_SERIAL_8250_EXTENDED'
p472
S'y'
sS'CONFIG_NET_VENDOR_ADAPTEC'
p473
S'y'
sS'CONFIG_EPOLL'
p474
S'y'
sS'CONFIG_LEGACY_VSYSCALL_EMULATE'
p475
S'y'
sS'kernel.panic'
p476
I0
sS'CONFIG_FAT_DEFAULT_CODEPAGE'
p477
I437
sS'CONFIG_X86_SUPPORTS_MEMORY_FAILURE'
p478
S'y'
sS'CONFIG_CALGARY_IOMMU_ENABLED_BY_DEFAULT'
p479
S'y'
sS'CONFIG_BLK_DEV_SR'
p480
S'y'
sS'CONFIG_SECURITY_SELINUX_DISABLE'
p481
S'y'
sS'CONFIG_NET_VENDOR_REALTEK'
p482
S'y'
sS'CONFIG_FAT_DEFAULT_IOCHARSET'
p483
S'"iso8859-1"'
p484
sS'net.ipv6.route.min_adv_mss'
p485
I1220
sS'CONFIG_IP_ROUTE_VERBOSE'
p486
S'y'
sS'CONFIG_MOUSE_PS2_LOGIPS2PP'
p487
S'y'
sS'net.ipv4.conf.ens3.arp_filter'
p488
I0
sS'CONFIG_USB_OHCI_HCD'
p489
S'y'
sS'CONFIG_VIRTIO_CONSOLE'
p490
S'y'
sS'net.ipv6.ip6frag_low_thresh'
p491
I3145728
sS'CONFIG_BSD_DISKLABEL'
p492
S'y'
sS'net.core.flow_limit_cpu_bitmap'
p493
S'0000000,00000000,00000000,00000000'
p494
sS'CONFIG_SECURITY_WRITABLE_HOOKS'
p495
S'y'
sS'CONFIG_NVM'
p496
S'y'
sS'net.ipv6.conf.ens3.accept_dad'
p497
I1
sS'CONFIG_HAVE_HARDENED_USERCOPY_ALLOCATOR'
p498
S'y'
sS'fs.quota.allocated_dquots'
p499
I0
sS'CONFIG_X509_CERTIFICATE_PARSER'
p500
S'y'
sS'CONFIG_CGROUP_HUGETLB'
p501
S'y'
sS'net.ipv4.ip_forward_use_pmtu'
p502
I0
sS'net.ipv4.conf.lo.send_redirects'
p503
I1
sS'net.ipv6.conf.all.proxy_ndp'
p504
I0
sS'CONFIG_OPTPROBES'
p505
S'y'
sS'net.ipv4.tcp_pacing_ss_ratio'
p506
I200
sS'kernel.keys.persistent_keyring_expiry'
p507
I259200
sS'CONFIG_MD'
p508
S'y'
sS'CONFIG_DETECT_HUNG_TASK'
p509
S'y'
sS'CONFIG_DMI'
p510
S'y'
sS'CONFIG_INTEL_IOMMU_SVM'
p511
S'y'
sS'CONFIG_FB_CMDLINE'
p512
S'y'
sS'CONFIG_BQL'
p513
S'y'
sS'net.ipv4.tcp_ecn'
p514
I2
sS'CONFIG_RANDOMIZE_BASE'
p515
S'y'
sS'net.ipv6.neigh.default.gc_interval'
p516
I30
sS'CONFIG_DUMMY_CONSOLE_ROWS'
p517
I25
sS'CONFIG_HT_IRQ'
p518
S'y'
sS'CONFIG_NET_VENDOR_ATHEROS'
p519
S'y'
sS'net.ipv6.neigh.ens3.unres_qlen_bytes'
p520
I212992
sS'kernel.panic_on_io_nmi'
p521
I0
sS'CONFIG_SERIAL_8250_CONSOLE'
p522
S'y'
sS'CONFIG_HAVE_ARCH_MMAP_RND_COMPAT_BITS'
p523
S'y'
sS'CONFIG_NVDIMM_PFN'
p524
S'y'
sS'net.ipv4.neigh.default.anycast_delay'
p525
I100
sS'CONFIG_MMC'
p526
S'y'
sS'CONFIG_SERIAL_CORE'
p527
S'y'
sS'CONFIG_BRIDGE_EBT_T_FILTER'
p528
S'm'
sS'net.ipv6.idgen_delay'
p529
I1
sS'CONFIG_TRACING_EVENTS_GPIO'
p530
S'y'
sS'CONFIG_MMU'
p531
S'y'
sS'CONFIG_HAVE_KERNEL_XZ'
p532
S'y'
sS'CONFIG_MFD_DA9052_SPI'
p533
S'y'
sS'CONFIG_USE_PERCPU_NUMA_NODE_ID'
p534
S'y'
sS'CONFIG_NET_INGRESS'
p535
S'y'
sS'CONFIG_HAVE_ARCH_KASAN'
p536
S'y'
sS'net.ipv6.conf.ens3.disable_ipv6'
p537
I0
sS'kernel.msgmax'
p538
I8192
sS'CONFIG_ARCH_ENABLE_HUGEPAGE_MIGRATION'
p539
S'y'
sS'CONFIG_WIRELESS'
p540
S'y'
sS'CONFIG_CHARGER_MANAGER'
p541
S'y'
sS'CONFIG_ARCH_HAS_UBSAN_SANITIZE_ALL'
p542
S'y'
sS'net.ipv4.conf.ens3.medium_id'
p543
I0
sS'CONFIG_SYSVIPC'
p544
S'y'
sS'net.ipv6.neigh.ens3.ucast_solicit'
p545
I3
sS'CONFIG_PARPORT_PC_FIFO'
p546
S'y'
sS'CONFIG_RD_XZ'
p547
S'y'
sS'CONFIG_CONNECTOR'
p548
S'y'
sS'net.ipv4.conf.default.arp_accept'
p549
I0
sS'net.ipv4.udp_early_demux'
p550
I1
sS'CONFIG_MFD_88PM860X'
p551
S'y'
sS'kernel.numa_balancing_scan_period_max_ms'
p552
I60000
sS'CONFIG_MODVERSIONS'
p553
S'y'
sS'kernel.sched_migration_cost_ns'
p554
I500000
sS'CONFIG_HAVE_INTEL_TXT'
p555
S'y'
sS'net.ipv6.conf.lo.drop_unsolicited_na'
p556
I0
sS'CONFIG_OLD_SIGSUSPEND3'
p557
S'y'
sS'net.ipv6.neigh.default.gc_thresh1'
p558
I128
sS'dev.mac_hid.mouse_button2_keycode'
p559
I97
sS'CONFIG_DUMMY_CONSOLE_COLUMNS'
p560
I80
sS'CONFIG_ARCH_HAS_FAST_MULTIPLIER'
p561
S'y'
sS'net.ipv4.route.error_burst'
p562
I1250
sS'CONFIG_NET_VENDOR_ARC'
p563
S'y'
sS'net.ipv6.conf.all.keep_addr_on_down'
p564
I0
sS'CONFIG_BLK_CMDLINE_PARSER'
p565
S'y'
sS'CONFIG_EDAC_ATOMIC_SCRUB'
p566
S'y'
sS'CONFIG_TRUSTED_KEYS'
p567
S'y'
sS'CONFIG_PWM_SYSFS'
p568
S'y'
sS'CONFIG_AUDITSYSCALL'
p569
S'y'
sS'net.ipv6.conf.lo.proxy_ndp'
p570
I0
sS'CONFIG_HAVE_KVM_EVENTFD'
p571
S'y'
sS'CONFIG_HAVE_ARCH_KMEMCHECK'
p572
S'y'
sS'CONFIG_PM_DEVFREQ'
p573
S'y'
sS'CONFIG_UID16'
p574
S'y'
sS'CONFIG_ACPI_SLEEP'
p575
S'y'
sS'CONFIG_KSM'
p576
S'y'
sS'CONFIG_SND_SUPPORT_OLD_API'
p577
S'y'
sS'net.ipv4.conf.lo.accept_redirects'
p578
I1
sS'net.ipv6.conf.all.max_addresses'
p579
I16
sS'CONFIG_SCHED_MC_PRIO'
p580
S'y'
sS'net.ipv6.conf.all.accept_ra_from_local'
p581
I0
sS'CONFIG_RTC_HCTOSYS'
p582
S'y'
sS'kernel.softlockup_panic'
p583
I0
sS'CONFIG_RTC_I2C_AND_SPI'
p584
S'y'
sS'CONFIG_USB_EHCI_HCD'
p585
S'y'
sS'CONFIG_CHROME_PLATFORMS'
p586
S'y'
sS'CONFIG_HAVE_ARCH_KGDB'
p587
S'y'
sS'CONFIG_IO_DELAY_TYPE_0XED'
p588
I1
sS'net.ipv6.conf.ens3.drop_unicast_in_l2_multicast'
p589
I0
sS'net.ipv6.conf.default.force_mld_version'
p590
I0
sS'net.ipv4.ip_no_pmtu_disc'
p591
I0
sS'CONFIG_WLAN_VENDOR_MEDIATEK'
p592
S'y'
sS'vm.dirty_writeback_centisecs'
p593
I500
sS'net.ipv4.conf.all.send_redirects'
p594
I1
sS'CONFIG_SCSI_CXGB3_ISCSI'
p595
S'm'
sS'net.ipv6.conf.lo.accept_ra'
p596
I1
sS'CONFIG_ARCH_SUPPORTS_OPTIMIZED_INLINING'
p597
S'y'
sS'net.ipv4.conf.default.proxy_arp_pvlan'
p598
I0
sS'CONFIG_PM_STD_PARTITION'
p599
S'""'
p600
sS'net.ipv4.conf.ens3.secure_redirects'
p601
I1
sS'CONFIG_ULTRIX_PARTITION'
p602
S'y'
sS'CONFIG_HAVE_NMI'
p603
S'y'
sS'net.ipv6.conf.ens3.seg6_enabled'
p604
I0
sS'fs.mqueue.msgsize_max'
p605
I8192
sS'CONFIG_HAS_IOMEM'
p606
S'y'
sS'net.ipv4.conf.all.forwarding'
p607
I0
sS'CONFIG_USB_DEFAULT_PERSIST'
p608
S'y'
sS'CONFIG_NEW_LEDS'
p609
S'y'
sS'CONFIG_DMI_SCAN_MACHINE_NON_EFI_FALLBACK'
p610
S'y'
sS'kernel.perf_event_paranoid'
p611
I2
sS'net.ipv6.conf.all.mtu'
p612
I1280
sS'net.ipv6.neigh.default.base_reachable_time_ms'
p613
I30000
sS'kernel.perf_event_mlock_kb'
p614
I516
sS'vm.block_dump'
p615
I0
sS'net.ipv4.tcp_keepalive_intvl'
p616
I75
sS'net.ipv4.conf.all.igmpv3_unsolicited_report_interval'
p617
I1000
sS'net.ipv4.conf.default.send_redirects'
p618
I1
sS'net.ipv6.conf.default.disable_ipv6'
p619
I0
sS'CONFIG_MD_RAID0'
p620
S'm'
sS'CONFIG_DW_DMAC_PCI'
p621
S'y'
sS'net.ipv4.route.redirect_number'
p622
I9
sS'net.ipv6.conf.lo.hop_limit'
p623
I64
sS'net.ipv4.conf.all.arp_accept'
p624
I0
sS'CONFIG_BINARY_PRINTF'
p625
S'y'
sS'CONFIG_TRACER_MAX_TRACE'
p626
S'y'
sS'kernel.msgmnb'
p627
I16384
sS'CONFIG_IRQ_BYPASS_MANAGER'
p628
S'm'
sS'CONFIG_IP_PIMSM_V1'
p629
S'y'
sS'CONFIG_IP_PIMSM_V2'
p630
S'y'
sS'kernel.soft_watchdog'
p631
I1
sS'CONFIG_USB_LED_TRIG'
p632
S'y'
sS'CONFIG_QUEUED_SPINLOCKS'
p633
S'y'
sS'net.ipv4.conf.lo.rp_filter'
p634
I0
sS'CONFIG_X86_INTEL_MPX'
p635
S'y'
sS'CONFIG_X86_ACPI_CPUFREQ_CPB'
p636
S'y'
sS'net.ipv6.conf.default.mc_forwarding'
p637
I0
sS'kernel.threads-max'
p638
I515185
sS'kernel.overflowuid'
p639
I65534
sS'net.ipv4.conf.default.arp_announce'
p640
I0
sS'CONFIG_ACPI_DOCK'
p641
S'y'
sS'CONFIG_X86_INTEL_MEMORY_PROTECTION_KEYS'
p642
S'y'
sS'net.ipv4.neigh.ens3.base_reachable_time_ms'
p643
I30000
sS'CONFIG_SCHED_MC'
p644
S'y'
sS'CONFIG_ARCH_HAS_MEM_ENCRYPT'
p645
S'y'
sS'CONFIG_BOUNCE'
p646
S'y'
sS'CONFIG_VIRT_TO_BUS'
p647
S'y'
sS'kernel.keys.gc_delay'
p648
I300
sS'CONFIG_HAVE_ARCH_TRANSPARENT_HUGEPAGE_PUD'
p649
S'y'
sS'kernel.hung_task_timeout_secs'
p650
I120
sS'CONFIG_CRYPTO_KPP2'
p651
S'y'
sS'CONFIG_SQUASHFS_ZLIB'
p652
S'y'
sS'CONFIG_X86_PLATFORM_DEVICES'
p653
S'y'
sS'CONFIG_CONTEXT_SWITCH_TRACER'
p654
S'y'
sS'net.ipv4.conf.default.accept_source_route'
p655
I1
sS'kernel.core_pipe_limit'
p656
I0
sS'kernel.timer_migration'
p657
I1
sS'CONFIG_PERF_EVENTS_INTEL_RAPL'
p658
S'y'
sS'CONFIG_HAVE_PERF_USER_STACK_DUMP'
p659
S'y'
sS'CONFIG_SERIAL_SCCNXP'
p660
S'y'
sS'CONFIG_EFI_RUNTIME_MAP'
p661
S'y'
sS'CONFIG_ARCH_HAS_GCOV_PROFILE_ALL'
p662
S'y'
sS'CONFIG_NET_TULIP'
p663
S'y'
sS'CONFIG_MDIO_BUS'
p664
S'y'
sS'CONFIG_BPF_SYSCALL'
p665
S'y'
sS'net.ipv6.conf.default.accept_ra_pinfo'
p666
I1
sS'CONFIG_KVM_COMPAT'
p667
S'y'
sS'CONFIG_VIRTIO_PCI_LEGACY'
p668
S'y'
sS'CONFIG_SATA_ZPODD'
p669
S'y'
sS'CONFIG_WLAN_VENDOR_QUANTENNA'
p670
S'y'
sS'CONFIG_CRYPTO_DEV_CCP'
p671
S'y'
sS'CONFIG_HAVE_EFFICIENT_UNALIGNED_ACCESS'
p672
S'y'
sS'CONFIG_USB_ANNOUNCE_NEW_DEVICES'
p673
S'y'
sS'CONFIG_AUTOFS4_FS'
p674
S'm'
sS'CONFIG_STAGING'
p675
S'y'
sS'net.ipv6.conf.default.router_probe_interval'
p676
I60
sS'CONFIG_IPV6_MROUTE_MULTIPLE_TABLES'
p677
S'y'
sS'CONFIG_NET_VENDOR_STMICRO'
p678
S'y'
sS'CONFIG_NUMA_BALANCING_DEFAULT_ENABLED'
p679
S'y'
sS'CONFIG_RD_LZ4'
p680
S'y'
sS'net.ipv6.conf.all.accept_ra_rt_info_max_plen'
p681
I0
sS'CONFIG_X86_DEV_DMA_OPS'
p682
S'y'
sS'CONFIG_PCI_ATS'
p683
S'y'
sS'CONFIG_RD_LZO'
p684
S'y'
sS'net.ipv4.tcp_ecn_fallback'
p685
I1
sS'CONFIG_BLK_DEV'
p686
S'y'
sS'CONFIG_HARDLOCKUP_CHECK_TIMESTAMP'
p687
S'y'
sS'CONFIG_SQUASHFS_XZ'
p688
S'y'
sS'CONFIG_MDIO_DEVICE'
p689
S'y'
sS'CONFIG_GPIO_RC5T583'
p690
S'y'
sS'net.ipv4.tcp_moderate_rcvbuf'
p691
I1
sS'CONFIG_ACPI_CONTAINER'
p692
S'y'
sS'CONFIG_ATA_BMDMA'
p693
S'y'
sS'net.ipv4.tcp_min_rtt_wlen'
p694
I300
sS'net.ipv6.fwmark_reflect'
p695
I0
sS'CONFIG_MOUSE_PS2_VMMOUSE'
p696
S'y'
sS'CONFIG_RTC_CLASS'
p697
S'y'
sS'CONFIG_SECURITY_APPARMOR'
p698
S'y'
sS'CONFIG_WATCHDOG_CORE'
p699
S'y'
sS'CONFIG_SERIAL_KGDB_NMI'
p700
S'y'
sS'CONFIG_INSTRUCTION_DECODER'
p701
S'y'
sS'net.ipv6.neigh.ens3.proxy_delay'
p702
I80
sS'CONFIG_SOC_TI'
p703
S'y'
sS'CONFIG_MFD_TPS80031'
p704
S'y'
sS'net.ipv6.conf.lo.router_probe_interval'
p705
I60
sS'CONFIG_MEMCG'
p706
S'y'
sS'net.ipv6.conf.default.dad_transmits'
p707
I1
sS'CONFIG_SCSI_SCAN_ASYNC'
p708
S'y'
sS'net.core.busy_poll'
p709
I0
sS'CONFIG_IOSCHED_CFQ'
p710
S'y'
sS'CONFIG_MEMBARRIER'
p711
S'y'
sS'net.ipv6.conf.all.mldv1_unsolicited_report_interval'
p712
I10000
sS'CONFIG_BLK_DEV_DM'
p713
S'y'
sS'CONFIG_DEFAULT_HUNG_TASK_TIMEOUT'
p714
I120
sS'net.ipv6.conf.default.regen_max_retry'
p715
I3
sS'CONFIG_SND_PCI'
p716
S'y'
sS'CONFIG_GENERIC_CPU'
p717
S'y'
sS'net.ipv4.conf.default.accept_local'
p718
I0
sS'net.ipv6.conf.default.forwarding'
p719
I0
sS'net.core.dev_weight_rx_bias'
p720
I1
sS'CONFIG_CPU_SUP_AMD'
p721
S'y'
sS'CONFIG_GENERIC_FIND_FIRST_BIT'
p722
S'y'
sS'CONFIG_HAVE_USER_RETURN_NOTIFIER'
p723
S'y'
sS'kernel.core_pattern'
p724
S'|/usr/share/apport/apport %p %s %c %d %P'
p725
sS'kernel.perf_event_max_sample_rate'
p726
I100000
sS'CONFIG_SCSI'
p727
S'y'
sS'CONFIG_KPROBES'
p728
S'y'
sS'CONFIG_HAVE_GCC_PLUGINS'
p729
S'y'
sS'CONFIG_GENERIC_EARLY_IOREMAP'
p730
S'y'
sS'kernel.random.poolsize'
p731
I4096
sS'CONFIG_GLOB'
p732
S'y'
sS'CONFIG_ZBUD'
p733
S'y'
sS'CONFIG_ARCH_MMAP_RND_BITS_MAX'
p734
I32
sS'net.ipv6.conf.lo.force_mld_version'
p735
I0
sS'CONFIG_NUMA_BALANCING'
p736
S'y'
sS'net.ipv4.conf.ens3.accept_redirects'
p737
I1
sS'CONFIG_EDD_OFF'
p738
S'y'
sS'CONFIG_THERMAL'
p739
S'y'
sS'CONFIG_BPF'
p740
S'y'
sS'CONFIG_HUGETLBFS'
p741
S'y'
sS'net.ipv4.tcp_frto'
p742
I2
sS'CONFIG_ETHERNET'
p743
S'y'
sS'net.ipv4.tcp_probe_threshold'
p744
I8
sS'CONFIG_CPU_IDLE'
p745
S'y'
sS'net.ipv4.conf.default.forwarding'
p746
I0
sS'CONFIG_DECOMPRESS_BZIP2'
p747
S'y'
sS'net.ipv6.conf.default.accept_ra_rtr_pref'
p748
I1
sS'net.ipv4.neigh.lo.delay_first_probe_time'
p749
I5
sS'net.ipv6.conf.ens3.force_tllao'
p750
I0
sS'CONFIG_AB3100_CORE'
p751
S'y'
sS'CONFIG_PM'
p752
S'y'
sS'CONFIG_FAIR_GROUP_SCHED'
p753
S'y'
sS'CONFIG_HAVE_ARCH_HUGE_VMAP'
p754
S'y'
sS'net.ipv4.ip_forward'
p755
I0
sS'CONFIG_COMPAT_32'
p756
S'y'
sS'CONFIG_USB_OHCI_LITTLE_ENDIAN'
p757
S'y'
sS'CONFIG_SUSPEND'
p758
S'y'
sS'CONFIG_NETFILTER_ADVANCED'
p759
S'y'
sS'CONFIG_RANDOMIZE_MEMORY'
p760
S'y'
sS'net.ipv6.conf.default.accept_ra_from_local'
p761
I0
sS'CONFIG_WLAN_VENDOR_REALTEK'
p762
S'y'
sS'CONFIG_PCIE_PME'
p763
S'y'
sS'net.ipv6.conf.ens3.accept_ra_rt_info_max_plen'
p764
I0
sS'net.core.flow_limit_table_len'
p765
I4096
sS'CONFIG_MFD_TPS65912_I2C'
p766
S'y'
sS'CONFIG_MOUSE_PS2_SYNAPTICS_SMBUS'
p767
S'y'
sS'CONFIG_ZONE_DMA'
p768
S'y'
sS'net.core.max_skb_frags'
p769
I17
sS'CONFIG_DEFCONFIG_LIST'
p770
S'"/lib/modules/$UNAME_RELEASE/.config"'
p771
sS'CONFIG_HAVE_KVM_CPU_RELAX_INTERCEPT'
p772
S'y'
sS'CONFIG_VHOST'
p773
S'm'
sS'kernel.printk_devkmsg'
p774
S'ratelimit'
p775
sS'net.ipv6.neigh.ens3.gc_stale_time'
p776
I60
sS'CONFIG_HAVE_NET_DSA'
p777
S'y'
sS'CONFIG_PCI_LABEL'
p778
S'y'
sS'CONFIG_IOMMU_IOVA'
p779
S'y'
sS'net.ipv6.conf.default.accept_ra'
p780
I1
sS'CONFIG_ISCSI_IBFT_FIND'
p781
S'y'
sS'CONFIG_EVM'
p782
S'y'
sS'CONFIG_PKCS7_MESSAGE_PARSER'
p783
S'y'
sS'net.ipv4.tcp_workaround_signed_windows'
p784
I0
sS'CONFIG_PM_SLEEP'
p785
S'y'
sS'CONFIG_IP_MROUTE'
p786
S'y'
sS'net.ipv4.ipfrag_secret_interval'
p787
I0
sS'CONFIG_ZSTD_DECOMPRESS'
p788
S'm'
sS'net.ipv6.neigh.default.ucast_solicit'
p789
I3
sS'net.ipv6.neigh.default.locktime'
p790
I0
sS'CONFIG_AGP_VIA'
p791
S'y'
sS'net.ipv6.auto_flowlabels'
p792
I1
sS'fs.quota.reads'
p793
I0
sS'kernel.sched_child_runs_first'
p794
I0
sS'CONFIG_NODES_SHIFT'
p795
I6
sS'CONFIG_ELFCORE'
p796
S'y'
sS'CONFIG_BPF_EVENTS'
p797
S'y'
sS'net.ipv4.neigh.lo.mcast_solicit'
p798
I3
sS'CONFIG_BUILD_BIN2C'
p799
S'y'
sS'CONFIG_SND_HDA_GENERIC'
p800
S'm'
sS'net.core.bpf_jit_enable'
p801
I0
sS'CONFIG_SND_HDA'
p802
S'm'
sS'fs.quota.drops'
p803
I0
sS'kernel.acct'
p804
S'4\t2\t30'
p805
sS'fs.mqueue.msg_max'
p806
I10
sS'kernel.yama.ptrace_scope'
p807
I1
sS'net.ipv6.conf.default.max_desync_factor'
p808
I600
sS'CONFIG_MAC80211_STA_HASH_MAX_SIZE'
p809
I0
sS'dev.parport.default.timeslice'
p810
I200
sS'net.ipv4.inet_peer_threshold'
p811
I65664
sS'net.ipv6.conf.all.ignore_routes_with_linkdown'
p812
I0
sS'net.core.rps_sock_flow_entries'
p813
I0
sS'CONFIG_ARCH_SELECT_MEMORY_MODEL'
p814
S'y'
sS'CONFIG_FONT_8x8'
p815
S'y'
sS'net.ipv6.conf.default.disable_policy'
p816
I0
sS'CONFIG_EARLY_PRINTK_USB'
p817
S'y'
sS'net.ipv6.neigh.default.proxy_qlen'
p818
I64
sS'CONFIG_EDD'
p819
S'y'
sS'net.ipv6.route.max_size'
p820
I4096
sS'net.ipv4.tcp_fwmark_accept'
p821
I0
sS'CONFIG_FTRACE_SYSCALLS'
p822
S'y'
sS'net.ipv6.conf.lo.accept_ra_rt_info_min_plen'
p823
I0
sS'CONFIG_GENERIC_IRQ_MIGRATION'
p824
S'y'
sS'fs.inode-state'
p825
S'87180\t505\t0\t0\t0\t0\t0'
p826
sS'CONFIG_HTC_I2CPLD'
p827
S'y'
sS'CONFIG_LEDS_TRIGGERS'
p828
S'y'
sS'net.ipv4.ipfrag_max_dist'
p829
I64
sS'kernel.sched_rt_period_us'
p830
I1000000
sS'CONFIG_HAVE_CONTEXT_TRACKING'
p831
S'y'
sS'CONFIG_CRYPTO_DRBG'
p832
S'y'
sS'CONFIG_ADVISE_SYSCALLS'
p833
S'y'
sS'CONFIG_STRICT_MODULE_RWX'
p834
S'y'
sS'kernel.printk_delay'
p835
I0
sS'CONFIG_GENERIC_ISA_DMA'
p836
S'y'
sS'net.ipv4.neigh.default.retrans_time_ms'
p837
I1000
sS'net.core.wmem_default'
p838
I212992
sS'CONFIG_RATIONAL'
p839
S'y'
sS'CONFIG_ARCH_DMA_ADDR_T_64BIT'
p840
S'y'
sS'CONFIG_IP_NF_FILTER'
p841
S'm'
sS'CONFIG_CRASH_CORE'
p842
S'y'
sS'net.ipv4.conf.lo.proxy_arp'
p843
I0
sS'CONFIG_PMIC_DA903X'
p844
S'y'
sS'CONFIG_X86_POWERNOW_K8'
p845
S'y'
sS'CONFIG_ACPI_APEI_MEMORY_FAILURE'
p846
S'y'
sS'net.ipv4.ip_local_reserved_ports'
p847
S''
sS'CONFIG_NET_VENDOR_QLOGIC'
p848
S'y'
sS'CONFIG_PCSPKR_PLATFORM'
p849
S'y'
sS'CONFIG_X86_PCC_CPUFREQ'
p850
S'y'
sS'kernel.sysctl_writes_strict'
p851
I1
sS'vm.drop_caches'
p852
I0
sS'CONFIG_I2C_COMPAT'
p853
S'y'
sS'net.ipv6.conf.ens3.temp_valid_lft'
p854
I604800
sS'CONFIG_HAVE_FUNCTION_TRACER'
p855
S'y'
sS'CONFIG_TRACING_SUPPORT'
p856
S'y'
sS'kernel.watchdog_cpumask'
p857
S'0-121'
p858
sS'CONFIG_IMA_APPRAISE'
p859
S'y'
sS'dev.cdrom.info'
p860
S''
sS'CONFIG_NET_VENDOR_AQUANTIA'
p861
S'y'
sS'CONFIG_TRANSPARENT_HUGEPAGE_ALWAYS'
p862
S'y'
sg8
S'HostInfo.host-192.168.123.30'
p863
sS'CONFIG_X86_L1_CACHE_SHIFT'
p864
I6
sS'CONFIG_NET_VENDOR_HP'
p865
S'y'
sS'CONFIG_NET_VENDOR_MELLANOX'
p866
S'y'
sS'CONFIG_SHMEM'
p867
S'y'
sS'CONFIG_EFI_RUNTIME_WRAPPERS'
p868
S'y'
sS'net.core.netdev_max_backlog'
p869
I1000
sS'CONFIG_PINMUX'
p870
S'y'
sS'CONFIG_PM_TRACE_RTC'
p871
S'y'
sS'net.ipv6.neigh.ens3.unres_qlen'
p872
I101
sS'CONFIG_ARCH_HIBERNATION_POSSIBLE'
p873
S'y'
sS'kernel.hotplug'
p874
S''
sS'CONFIG_SERIAL_CORE_CONSOLE'
p875
S'y'
sS'kernel.ostype'
p876
S'Linux'
p877
sS'CONFIG_PNP'
p878
S'y'
sS'CONFIG_IPV6'
p879
S'y'
sS'CONFIG_GENERIC_CLOCKEVENTS'
p880
S'y'
sS'CONFIG_MICROCODE_INTEL'
p881
S'y'
sS'CONFIG_PM_CLK'
p882
S'y'
sS'CONFIG_SECURITY_TOMOYO_POLICY_LOADER'
p883
S'"/sbin/tomoyo-init"'
p884
sS'CONFIG_TCG_TPM'
p885
S'y'
sS'CONFIG_I2C_DESIGNWARE_PLATFORM'
p886
S'y'
sS'net.ipv6.conf.ens3.ignore_routes_with_linkdown'
p887
I0
sS'CONFIG_CHECKPOINT_RESTORE'
p888
S'y'
sS'vm.nr_pdflush_threads'
p889
I0
sS'CONFIG_RTC_NVMEM'
p890
S'y'
sS'CONFIG_SQUASHFS'
p891
S'y'
sS'CONFIG_WQ_POWER_EFFICIENT_DEFAULT'
p892
S'y'
sS'CONFIG_MFD_MAX77693'
p893
S'y'
sS'kernel.core_uses_pid'
p894
I0
sS'CONFIG_CGROUP_DEVICE'
p895
S'y'
sS'CONFIG_NET_VENDOR_ALTEON'
p896
S'y'
sS'CONFIG_BSD_PROCESS_ACCT_V3'
p897
S'y'
sS'net.ipv4.conf.ens3.tag'
p898
I0
sS'CONFIG_AMD_NB'
p899
S'y'
sS'net.ipv4.conf.default.tag'
p900
I0
sS'net.ipv4.tcp_max_syn_backlog'
p901
I2048
sS'CONFIG_DECOMPRESS_XZ'
p902
S'y'
sS'net.ipv6.conf.all.dad_transmits'
p903
I1
sS'CONFIG_BASE_SMALL'
p904
I0
sS'vm.dirty_expire_centisecs'
p905
I3000
sS'CONFIG_KERNFS'
p906
S'y'
sS'CONFIG_IP_MULTICAST'
p907
S'y'
sS'CONFIG_PM_WAKELOCKS_GC'
p908
S'y'
sS'CONFIG_X86_PMEM_LEGACY'
p909
S'y'
sS'CONFIG_GENERIC_IRQ_SHOW'
p910
S'y'
sS'CONFIG_MFD_WM8400'
p911
S'y'
sS'net.ipv6.conf.all.forwarding'
p912
I0
sS'net.ipv4.conf.default.medium_id'
p913
I0
sS'CONFIG_ARCH_HAS_GIGANTIC_PAGE'
p914
S'y'
sS'vm.oom_dump_tasks'
p915
I1
sS'net.ipv6.ip6frag_secret_interval'
p916
I0
sS'CONFIG_PMIC_ADP5520'
p917
S'y'
sS'CONFIG_USER_NS'
p918
S'y'
sS'net.ipv4.neigh.default.gc_stale_time'
p919
I60
sS'CONFIG_PARPORT'
p920
S'm'
sS'CONFIG_ARCH_WANTS_DYNAMIC_TASK_STRUCT'
p921
S'y'
sS'net.ipv4.conf.ens3.accept_source_route'
p922
I1
sS'CONFIG_SYSTEM_TRUSTED_KEYRING'
p923
S'y'
sS'net.ipv6.icmp.ratelimit'
p924
I1000
sS'net.ipv4.conf.lo.log_martians'
p925
I0
sS'dev.cdrom.check_media'
p926
I0
sS'CONFIG_INTEL_SOC_PMIC'
p927
S'y'
sS'net.ipv6.conf.ens3.keep_addr_on_down'
p928
I0
sS'net.ipv4.conf.default.mc_forwarding'
p929
I0
sS'net.core.dev_weight_tx_bias'
p930
I1
sS'CONFIG_MDIO'
p931
S'm'
sS'net.ipv6.neigh.default.retrans_time_ms'
p932
I1000
sS'net.ipv6.conf.ens3.drop_unsolicited_na'
p933
I0
sS'kernel.sem'
p934
S'32000\t1024000000\t500\t32000'
p935
sS'net.ipv4.tcp_window_scaling'
p936
I1
sS'net.ipv4.tcp_available_ulp'
p937
S''
sS'CONFIG_NEED_DMA_MAP_STATE'
p938
S'y'
sS'net.ipv6.conf.lo.temp_prefered_lft'
p939
I86400
sS'CONFIG_HAVE_ARCH_SECCOMP_FILTER'
p940
S'y'
sS'CONFIG_INPUT_MOUSEDEV_SCREEN_X'
p941
I1024
sS'CONFIG_INPUT_MOUSEDEV_SCREEN_Y'
p942
I768
sS'CONFIG_DMIID'
p943
S'y'
sS'net.ipv4.conf.default.arp_notify'
p944
I0
sS'net.ipv6.flowlabel_reflect'
p945
I0
sS'CONFIG_DAX'
p946
S'y'
sS'net.ipv4.neigh.ens3.proxy_delay'
p947
I80
sS'CONFIG_NETLABEL'
p948
S'y'
sS'CONFIG_ARCH_HAS_ACPI_TABLE_UPGRADE'
p949
S'y'
sS'CONFIG_IRQ_REMAP'
p950
S'y'
sS'CONFIG_GENERIC_TRACER'
p951
S'y'
sS'CONFIG_BE2ISCSI'
p952
S'm'
sS'CONFIG_NET_VENDOR_DEC'
p953
S'y'
sS'CONFIG_FUTEX'
p954
S'y'
sS'net.ipv6.neigh.ens3.app_solicit'
p955
I0
sS'net.ipv4.inet_peer_maxttl'
p956
I600
sS'CONFIG_SSB_POSSIBLE'
p957
S'y'
sS'net.ipv4.conf.default.arp_ignore'
p958
I0
sS'CONFIG_WLAN_VENDOR_ADMTEK'
p959
S'y'
sS'kernel.softlockup_all_cpu_backtrace'
p960
I0
sS'CONFIG_ZSTD_COMPRESS'
p961
S'm'
sS'CONFIG_HWMON'
p962
S'y'
sS'kernel.bootloader_type'
p963
I114
sS'CONFIG_MFD_DA9052_I2C'
p964
S'y'
sS'CONFIG_LOG_BUF_SHIFT'
p965
I18
sS'CONFIG_INTEL_IOMMU'
p966
S'y'
sS'CONFIG_IRQ_DOMAIN_HIERARCHY'
p967
S'y'
sS'CONFIG_NET_VENDOR_BROCADE'
p968
S'y'
sS'CONFIG_ACPI_CUSTOM_DSDT_FILE'
p969
S'""'
p970
sS'net.ipv6.neigh.default.gc_thresh2'
p971
I512
sS'net.ipv6.neigh.default.gc_thresh3'
p972
I1024
sS'net.ipv6.conf.ens3.use_tempaddr'
p973
I0
sS'vm.nr_hugepages'
p974
I0
sS'CONFIG_NO_HZ_IDLE'
p975
S'y'
sS'user.max_ipc_namespaces'
p976
I257592
sS'CONFIG_COMPAT'
p977
S'y'
sS'CONFIG_CRYPTO_SHA256'
p978
S'y'
sS'net.ipv4.neigh.ens3.unres_qlen_bytes'
p979
I212992
sS'vm.overcommit_memory'
p980
I0
sS'CONFIG_MODULE_UNLOAD'
p981
S'y'
sS'CONFIG_NLS_DEFAULT'
p982
S'"utf8"'
p983
sS'CONFIG_MFD_RC5T583'
p984
S'y'
sS'CONFIG_BTRFS_FS_POSIX_ACL'
p985
S'y'
sS'CONFIG_GENERIC_PHY'
p986
S'y'
sS'net.ipv6.conf.lo.accept_source_route'
p987
I0
sS'CONFIG_CHELSIO_LIB'
p988
S'm'
sS'net.ipv4.neigh.lo.retrans_time_ms'
p989
I1000
sS'CONFIG_X86_RESERVE_LOW'
p990
I64
sS'kernel.modules_disabled'
p991
I0
sS'CONFIG_X86_NUMACHIP'
p992
S'y'
sS'net.ipv6.ip_nonlocal_bind'
p993
I0
sS'CONFIG_TCP_CONG_CUBIC'
p994
S'y'
sS'CONFIG_INOTIFY_USER'
p995
S'y'
sS'net.ipv4.neigh.lo.ucast_solicit'
p996
I3
sS'CONFIG_UEFI_CPER'
p997
S'y'
sS'CONFIG_RTC_DRV_CMOS'
p998
S'y'
sS'CONFIG_TRANSPARENT_HUGE_PAGECACHE'
p999
S'y'
sS'net.ipv4.neigh.lo.base_reachable_time_ms'
p1000
I30000
sS'net.ipv4.tcp_tw_reuse'
p1001
I0
sS'CONFIG_MOUSE_PS2_SENTELIC'
p1002
S'y'
sS'CONFIG_LOCKUP_DETECTOR'
p1003
S'y'
sS'CONFIG_ASYNC_MEMCPY'
p1004
S'm'
sS'CONFIG_RAPIDIO'
p1005
S'y'
sS'CONFIG_STAGING_MEDIA'
p1006
S'y'
sS'vm.min_slab_ratio'
p1007
I5
sS'net.ipv4.ip_local_port_range'
p1008
S'32768\t60999'
p1009
sS'CONFIG_HUGETLB_PAGE'
p1010
S'y'
sS'CONFIG_PERF_EVENTS'
p1011
S'y'
sS'net.ipv4.neigh.lo.locktime'
p1012
I100
sS'CONFIG_SECURITY_TOMOYO_ACTIVATION_TRIGGER'
p1013
S'"/sbin/init"'
p1014
sS'CONFIG_UCS2_STRING'
p1015
S'y'
sS'CONFIG_ARCH_SPARSEMEM_DEFAULT'
p1016
S'y'
sS'CONFIG_IPV6_ROUTE_INFO'
p1017
S'y'
sS'CONFIG_CLKEVT_I8253'
p1018
S'y'
sS'CONFIG_SERIAL_8250_PCI'
p1019
S'y'
sS'CONFIG_PCIEASPM_DEFAULT'
p1020
S'y'
sS'CONFIG_HAVE_EXIT_THREAD'
p1021
S'y'
sS'CONFIG_SND_HDA_HWDEP'
p1022
S'y'
sS'CONFIG_SOFTLOCKUP_DETECTOR'
p1023
S'y'
sS'CONFIG_EARLY_PRINTK'
p1024
S'y'
sS'net.ipv6.conf.ens3.ndisc_notify'
p1025
I0
sS'net.ipv4.conf.all.proxy_arp_pvlan'
p1026
I0
sS'kernel'
p1027
S'4.14.0-rc8-stock'
p1028
sS'CONFIG_BACKLIGHT_LCD_SUPPORT'
p1029
S'y'
sS'CONFIG_MOUSE_PS2_ELANTECH'
p1030
S'y'
sS'CONFIG_PCI_MMCONFIG'
p1031
S'y'
sS'CONFIG_KVM_MMIO'
p1032
S'y'
sS'net.ipv4.neigh.default.unres_qlen_bytes'
p1033
I212992
sS'CONFIG_INPUT_UINPUT'
p1034
S'y'
sS'CONFIG_PINCTRL_BAYTRAIL'
p1035
S'y'
sS'net.ipv4.icmp_errors_use_inbound_ifaddr'
p1036
I0
sS'net.ipv6.conf.all.addr_gen_mode'
p1037
I0
sS'CONFIG_HAVE_ACPI_APEI_NMI'
p1038
S'y'
sS'vm.page-cluster'
p1039
I3
sS'CONFIG_MOUSE_PS2_CYPRESS'
p1040
S'y'
sS'kernel.sched_rt_runtime_us'
p1041
I950000
sS'CONFIG_USB_DWC2_PCI'
p1042
S'y'
sS'CONFIG_X86_CMOV'
p1043
S'y'
sS'net.ipv4.tcp_fastopen_blackhole_timeout_sec'
p1044
I3600
sS'CONFIG_SIGNATURE'
p1045
S'y'
sS'net.ipv4.conf.all.mc_forwarding'
p1046
I0
sS'CONFIG_PM_DEBUG'
p1047
S'y'
sS'net.ipv4.neigh.default.ucast_solicit'
p1048
I3
sS'kernel.pty.reserve'
p1049
I1024
sS'CONFIG_SOUND'
p1050
S'm'
sS'CONFIG_SERIO_I8042'
p1051
S'y'
sS'CONFIG_NET_VENDOR_NETRONOME'
p1052
S'y'
sS'CONFIG_BLK_DEV_LOOP'
p1053
S'y'
sS'vm.mmap_min_addr'
p1054
I65536
sS'CONFIG_CRYPTO_DRBG_CTR'
p1055
S'y'
sS'CONFIG_HAVE_CMPXCHG_LOCAL'
p1056
S'y'
sS'net.ipv6.route.mtu_expires'
p1057
I600
sS'CONFIG_SND_USB'
p1058
S'y'
sS'CONFIG_CMDLINE_PARTITION'
p1059
S'y'
sS'CONFIG_NETWORK_SECMARK'
p1060
S'y'
sS'CONFIG_SND_HDA_INTEL'
p1061
S'm'
sS'net.ipv4.ping_group_range'
p1062
S'1\t0'
p1063
sS'CONFIG_PERF_EVENTS_INTEL_CSTATE'
p1064
S'y'
sS'net.ipv4.icmp_msgs_burst'
p1065
I50
sS'CONFIG_PPP_MULTILINK'
p1066
S'y'
sS'CONFIG_BLK_DEV_FD'
p1067
S'm'
sS'CONFIG_SND_DRIVERS'
p1068
S'y'
sS'CONFIG_SCSI_CXGB4_ISCSI'
p1069
S'm'
sS'CONFIG_CRASH_DUMP'
p1070
S'y'
sS'vm.watermark_scale_factor'
p1071
I10
sS'CONFIG_HAVE_UID16'
p1072
S'y'
sS'CONFIG_NET_VENDOR_WIZNET'
p1073
S'y'
sS'CONFIG_IPV6_ROUTER_PREF'
p1074
S'y'
sS'dev.parport.default.spintime'
p1075
I500
sS'CONFIG_IOSF_MBI'
p1076
S'y'
sS'net.ipv4.fib_multipath_hash_policy'
p1077
I0
sS'CONFIG_BLK_DEV_BSG'
p1078
S'y'
sS'net.ipv4.neigh.default.app_solicit'
p1079
I0
sS'CONFIG_CPU_FREQ_GOV_CONSERVATIVE'
p1080
S'y'
sS'CONFIG_MEMORY_HOTPLUG_SPARSE'
p1081
S'y'
sS'CONFIG_ZSWAP'
p1082
S'y'
sS'CONFIG_KVM'
p1083
S'm'
sS'CONFIG_PCIEASPM_DEBUG'
p1084
S'y'
sS'CONFIG_PROC_PID_CPUSET'
p1085
S'y'
sS'CONFIG_MEMORY_BALLOON'
p1086
S'y'
sS'CONFIG_INFINIBAND'
p1087
S'm'
sS'CONFIG_NET_VENDOR_SILAN'
p1088
S'y'
sS'net.ipv4.conf.ens3.log_martians'
p1089
I0
sS'CONFIG_CC_STACKPROTECTOR_STRONG'
p1090
S'y'
sS'CONFIG_PROC_FS'
p1091
S'y'
sS'CONFIG_MOUSE_PS2_ALPS'
p1092
S'y'
sS'CONFIG_THERMAL_WRITABLE_TRIPS'
p1093
S'y'
sS'CONFIG_TOUCHSCREEN_PROPERTIES'
p1094
S'y'
sS'vm.lowmem_reserve_ratio'
p1095
S'256\t256\t32\t1'
p1096
sS'CONFIG_BLK_DEV_THROTTLING'
p1097
S'y'
sS'CONFIG_SWAP'
p1098
S'y'
sS'kernel.osrelease'
p1099
S'4.14.0-rc8-stock'
p1100
sS'CONFIG_NET_VENDOR_QUALCOMM'
p1101
S'y'
sS'CONFIG_AMD_IOMMU'
p1102
S'y'
sS'CONFIG_PAGE_COUNTER'
p1103
S'y'
sS'CONFIG_ARCH_MIGHT_HAVE_ACPI_PDC'
p1104
S'y'
sS'CONFIG_MFD_AS3711'
p1105
S'y'
sS'CONFIG_EFI_MIXED'
p1106
S'y'
sS'CONFIG_FILE_LOCKING'
p1107
S'y'
sS'CONFIG_MFD_WM831X_I2C'
p1108
S'y'
sS'CONFIG_ATA_ACPI'
p1109
S'y'
sS'net.ipv4.conf.lo.route_localnet'
p1110
I0
sS'net.ipv6.ip6frag_high_thresh'
p1111
I4194304
sS'CONFIG_ACPI_APEI'
p1112
S'y'
sS'net.ipv6.conf.ens3.mc_forwarding'
p1113
I0
sS'CONFIG_IRQ_DOMAIN'
p1114
S'y'
sS'net.ipv4.udp_wmem_min'
p1115
I4096
sS'net.ipv4.tcp_invalid_ratelimit'
p1116
I500
sS'net.ipv4.neigh.ens3.proxy_qlen'
p1117
I64
sS'CONFIG_NET_VENDOR_AMAZON'
p1118
S'y'
sS'CONFIG_VT'
p1119
S'y'
sS'net.ipv4.conf.lo.arp_announce'
p1120
I0
sS'kernel.msgmni'
p1121
I32000
sS'CONFIG_HAVE_IDE'
p1122
S'y'
sS'CONFIG_NET_VENDOR_8390'
p1123
S'y'
sS'CONFIG_SLUB'
p1124
S'y'
sS'fs.mqueue.queues_max'
p1125
I256
sS'net.ipv4.conf.ens3.rp_filter'
p1126
I0
sS'CONFIG_NET_NS'
p1127
S'y'
sS'CONFIG_HAVE_LIVEPATCH'
p1128
S'y'
sS'CONFIG_KGDB_LOW_LEVEL_TRAP'
p1129
S'y'
sS'CONFIG_HAVE_OPROFILE'
p1130
S'y'
sS'CONFIG_NVDIMM_DAX'
p1131
S'y'
sS'CONFIG_IMA_DEFAULT_HASH'
p1132
S'"sha1"'
p1133
sS'CONFIG_ACPI_THERMAL'
p1134
S'y'
sS'CONFIG_BLK_DEV_BSGLIB'
p1135
S'y'
sS'net.ipv4.neigh.default.locktime'
p1136
I100
sS'CONFIG_PINCTRL_CHERRYVIEW'
p1137
S'y'
sS'CONFIG_HPET_MMAP'
p1138
S'y'
sS'CONFIG_SERIAL_8250_RT288X'
p1139
S'y'
sS'CONFIG_CLOCKSOURCE_VALIDATE_LAST_CYCLE'
p1140
S'y'
sS'net.core.busy_read'
p1141
I0
sS'CONFIG_BTRFS_FS'
p1142
S'm'
sS'CONFIG_DCACHE_WORD_ACCESS'
p1143
S'y'
sS'net.ipv6.conf.default.mtu'
p1144
I1280
sS'CONFIG_SND_HWDEP'
p1145
S'm'
sS'CONFIG_SPARSEMEM_MANUAL'
p1146
S'y'
sS'net.ipv4.conf.default.drop_gratuitous_arp'
p1147
I0
sS'CONFIG_UPROBES'
p1148
S'y'
sS'CONFIG_NLS_CODEPAGE_437'
p1149
S'y'
sS'CONFIG_ARCH_ENABLE_MEMORY_HOTPLUG'
p1150
S'y'
sS'CONFIG_FIRMWARE_MEMMAP'
p1151
S'y'
sS'CONFIG_FIX_EARLYCON_MEM'
p1152
S'y'
sS'CONFIG_SCHED_DEBUG'
p1153
S'y'
sS'CONFIG_BOOT_PRINTK_DELAY'
p1154
S'y'
sS'CONFIG_TMPFS'
p1155
S'y'
sS'CONFIG_X86_MCE_INTEL'
p1156
S'y'
sS'CONFIG_RTC_INTF_PROC'
p1157
S'y'
sS'CONFIG_MD_AUTODETECT'
p1158
S'y'
sS'net.ipv6.conf.lo.max_desync_factor'
p1159
I600
sS'CONFIG_X86_ESPFIX64'
p1160
S'y'
sS'net.ipv4.neigh.lo.gc_stale_time'
p1161
I60
sS'kernel.traceoff_on_warning'
p1162
I0
sS'net.ipv4.conf.all.proxy_arp'
p1163
I0
sS'CONFIG_ARCH_USE_BUILTIN_BSWAP'
p1164
S'y'
sS'CONFIG_PROC_SYSCTL'
p1165
S'y'
sS'fs.file-max'
p1166
I6578986
sS'CONFIG_ACPI_APEI_GHES'
p1167
S'y'
sS'net.ipv4.tcp_limit_output_bytes'
p1168
I262144
sS'CONFIG_NET_VENDOR_NVIDIA'
p1169
S'y'
sS'net.ipv4.neigh.default.mcast_resolicit'
p1170
I0
sS'CONFIG_ACPI_HOTPLUG_CPU'
p1171
S'y'
sS'net.ipv4.conf.ens3.disable_xfrm'
p1172
I0
sS'CONFIG_FRAME_WARN'
p1173
I1024
sS'net.ipv6.conf.all.enhanced_dad'
p1174
I1
sS'CONFIG_FAT_FS'
p1175
S'y'
sS'CONFIG_IRQ_POLL'
p1176
S'y'
sS'net.ipv6.conf.all.hop_limit'
p1177
I64
sS'CONFIG_VT_CONSOLE_SLEEP'
p1178
S'y'
sS'kernel.random.entropy_avail'
p1179
I127
sS'net.ipv4.conf.default.force_igmp_version'
p1180
I0
sS'net.ipv4.ip_default_ttl'
p1181
I64
sS'CONFIG_CLEANCACHE'
p1182
S'y'
sS'CONFIG_PCI_PRI'
p1183
S'y'
sS'CONFIG_CRYPTO_ALGAPI'
p1184
S'y'
sS'kernel.random.boot_id'
p1185
S'5670d198-2342-4873-94b9-c2de56d0f438'
p1186
sS'net.ipv4.conf.lo.accept_local'
p1187
I0
sS'CONFIG_QUOTA'
p1188
S'y'
sS'CONFIG_X86_64'
p1189
S'y'
sS'CONFIG_CPUSETS'
p1190
S'y'
sS'CONFIG_THERMAL_GOV_BANG_BANG'
p1191
S'y'
sS'CONFIG_REGMAP_IRQ'
p1192
S'y'
sS'CONFIG_CMA'
p1193
S'y'
sS'CONFIG_TRACING'
p1194
S'y'
sS'CONFIG_KDB_KEYBOARD'
p1195
S'y'
sS'CONFIG_RADIX_TREE_MULTIORDER'
p1196
S'y'
sS'net.ipv4.conf.all.promote_secondaries'
p1197
I0
sS'CONFIG_LWTUNNEL'
p1198
S'y'
sS'CONFIG_ARCH_MIGHT_HAVE_PC_SERIO'
p1199
S'y'
sS'net.ipv4.neigh.lo.proxy_qlen'
p1200
I64
sS'net.ipv6.conf.lo.router_solicitation_delay'
p1201
I1
sS'CONFIG_FIB_RULES'
p1202
S'y'
sS'net.ipv6.conf.default.autoconf'
p1203
I1
sS'CONFIG_COMPAT_BINFMT_ELF'
p1204
S'y'
sS'CONFIG_HAVE_KPROBES'
p1205
S'y'
sS'net.ipv4.tcp_mem'
p1206
S'768591\t1024791\t1537182'
p1207
sS'CONFIG_VME_BUS'
p1208
S'y'
sS'CONFIG_FW_LOADER'
p1209
S'y'
sS'CONFIG_ATA_VERBOSE_ERROR'
p1210
S'y'
sS'CONFIG_IOSCHED_DEADLINE'
p1211
S'y'
sS'net.ipv6.conf.all.max_desync_factor'
p1212
I600
sS'CONFIG_ARCH_MMAP_RND_COMPAT_BITS_MAX'
p1213
I16
sS'CONFIG_FB_CFB_IMAGEBLIT'
p1214
S'y'
sS'CONFIG_EXT4_USE_FOR_EXT2'
p1215
S'y'
sS'CONFIG_INPUT_MOUSEDEV_PSAUX'
p1216
S'y'
sS'CONFIG_BLOCK_COMPAT'
p1217
S'y'
sS'CONFIG_ATH5K_PCI'
p1218
S'y'
sS'CONFIG_SCSI_LOGGING'
p1219
S'y'
sS'CONFIG_NET_CLS'
p1220
S'y'
sS'CONFIG_ACPI_LEGACY_TABLES_LOOKUP'
p1221
S'y'
sS'CONFIG_INPUT_TABLET'
p1222
S'y'
sS'CONFIG_ILLEGAL_POINTER_VALUE'
p1223
S'0xdead000000000000'
p1224
sS'CONFIG_THERMAL_GOV_STEP_WISE'
p1225
S'y'
sS'CONFIG_PRINTK'
p1226
S'y'
sS'net.ipv4.conf.default.promote_secondaries'
p1227
I0
sS'CONFIG_NET_L3_MASTER_DEV'
p1228
S'y'
sS'CONFIG_SND_MAX_CARDS'
p1229
I32
sS'CONFIG_FRAMEBUFFER_CONSOLE'
p1230
S'y'
sS'CONFIG_BRIDGE'
p1231
S'm'
sS'net.ipv6.conf.lo.accept_ra_pinfo'
p1232
I1
sS'CONFIG_ASYNC_XOR'
p1233
S'm'
sS'CONFIG_ACPI_HOTPLUG_IOAPIC'
p1234
S'y'
sS'CONFIG_TRACE_IRQFLAGS_SUPPORT'
p1235
S'y'
sS'CONFIG_KEYBOARD_ATKBD'
p1236
S'y'
sS'net.core.default_qdisc'
p1237
S'pfifo_fast'
p1238
sS'CONFIG_VIRTIO_MMIO'
p1239
S'y'
sS'CONFIG_SND_PCM'
p1240
S'm'
sS'CONFIG_SND_X86'
p1241
S'y'
sS'CONFIG_INPUT_KEYBOARD'
p1242
S'y'
sS'CONFIG_ARCH_SUPPORTS_DEFERRED_STRUCT_PAGE_INIT'
p1243
S'y'
sS'net.ipv6.conf.all.accept_ra_mtu'
p1244
I1
sS'net.ipv4.ipfrag_high_thresh'
p1245
I4194304
sS'CONFIG_NET_VENDOR_ROCKER'
p1246
S'y'
sS'CONFIG_I2C'
p1247
S'y'
sS'CONFIG_BUG'
p1248
S'y'
sS'CONFIG_CPU_FREQ_GOV_COMMON'
p1249
S'y'
sS'CONFIG_PHYSICAL_ALIGN'
p1250
S'0x1000000'
p1251
sS'kernel.dmesg_restrict'
p1252
I0
sS'CONFIG_HAVE_ARCH_VMAP_STACK'
p1253
S'y'
sS'CONFIG_PSTORE_ZLIB_COMPRESS'
p1254
S'y'
sS'CONFIG_GENERIC_IRQ_EFFECTIVE_AFF_MASK'
p1255
S'y'
sS'CONFIG_CHR_DEV_SG'
p1256
S'y'
sS'CONFIG_ARCH_HAS_PKEYS'
p1257
S'y'
sS'CONFIG_SIGNALFD'
p1258
S'y'
sS'CONFIG_IMA_LSM_RULES'
p1259
S'y'
sS'CONFIG_MD_MULTIPATH'
p1260
S'm'
sS'net.ipv4.neigh.default.mcast_solicit'
p1261
I3
sS'CONFIG_SYSTEM_DATA_VERIFICATION'
p1262
S'y'
sS'CONFIG_ACPI'
p1263
S'y'
sS'CONFIG_RTC_MC146818_LIB'
p1264
S'y'
sS'CONFIG_STACKTRACE_SUPPORT'
p1265
S'y'
sS'CONFIG_INTEL_GTT'
p1266
S'y'
sS'CONFIG_THERMAL_EMULATION'
p1267
S'y'
sS'CONFIG_HAVE_DMA_CONTIGUOUS'
p1268
S'y'
sS'net.netfilter.nf_log.5'
p1269
S'NONE'
p1270
sS'net.netfilter.nf_log.4'
p1271
S'NONE'
p1272
sS'net.netfilter.nf_log.7'
p1273
S'NONE'
p1274
sS'net.netfilter.nf_log.6'
p1275
S'NONE'
p1276
sS'net.netfilter.nf_log.1'
p1277
S'NONE'
p1278
sS'net.netfilter.nf_log.0'
p1279
S'NONE'
p1280
sS'net.netfilter.nf_log.3'
p1281
S'NONE'
p1282
sS'net.netfilter.nf_log.2'
p1283
S'NONE'
p1284
sS'CONFIG_INLINE_READ_UNLOCK'
p1285
S'y'
sS'net.netfilter.nf_log.9'
p1286
S'NONE'
p1287
sS'net.netfilter.nf_log.8'
p1288
S'NONE'
p1289
sS'net.ipv4.conf.ens3.arp_announce'
p1290
I0
sS'kernel.real-root-dev'
p1291
I0
sS'vm.user_reserve_kbytes'
p1292
I131072
sS'CONFIG_HAVE_KERNEL_LZO'
p1293
S'y'
sS'dev.raid.speed_limit_max'
p1294
I200000
sS'CONFIG_IP_FIB_TRIE_STATS'
p1295
S'y'
sS'CONFIG_DEVFREQ_GOV_PERFORMANCE'
p1296
S'y'
sS'net.ipv4.conf.all.disable_xfrm'
p1297
I0
sS'CONFIG_IPV6_MULTIPLE_TABLES'
p1298
S'y'
sS'fs.quota.lookups'
p1299
I0
sS'CONFIG_QUOTACTL'
p1300
S'y'
sS'CONFIG_TWL6040_CORE'
p1301
S'y'
sS'CONFIG_ARCH_WANT_BATCHED_UNMAP_TLB_FLUSH'
p1302
S'y'
sS'CONFIG_SCSI_QLA_ISCSI'
p1303
S'm'
sS'net.ipv6.conf.lo.temp_valid_lft'
p1304
I604800
sS'CONFIG_RTC_LIB'
p1305
S'y'
sS'kernel.pty.max'
p1306
I4096
sS'CONFIG_ISCSI_BOOT_SYSFS'
p1307
S'm'
sS'CONFIG_HAVE_KERNEL_LZ4'
p1308
S'y'
sS'CONFIG_GPIO_PALMAS'
p1309
S'y'
sS'CONFIG_SQUASHFS_XATTR'
p1310
S'y'
sS'CONFIG_NEED_MULTIPLE_NODES'
p1311
S'y'
sS'net.ipv6.conf.default.use_oif_addrs_only'
p1312
I0
sS'CONFIG_KERNEL_GZIP'
p1313
S'y'
sS'vm.extfrag_threshold'
p1314
I500
sS'net.ipv6.conf.lo.mldv2_unsolicited_report_interval'
p1315
I1000
sS'net.ipv6.neigh.lo.base_reachable_time_ms'
p1316
I30000
sS'CONFIG_MODULE_SIG_ALL'
p1317
S'y'
sS'CONFIG_CONSOLE_POLL'
p1318
S'y'
sS'CONFIG_VIRTIO_MMIO_CMDLINE_DEVICES'
p1319
S'y'
sS'net.ipv4.cipso_rbm_strictvalid'
p1320
I1
sS'CONFIG_HAVE_CLK_PREPARE'
p1321
S'y'
sS'net.ipv6.conf.ens3.router_solicitation_interval'
p1322
I4
sS'debug.kprobes-optimization'
p1323
I1
sS'CONFIG_HAVE_OPTPROBES'
p1324
S'y'
sS'CONFIG_POSIX_MQUEUE'
p1325
S'y'
sS'CONFIG_VFAT_FS'
p1326
S'y'
sS'CONFIG_KALLSYMS_ALL'
p1327
S'y'
sS'net.ipv4.conf.lo.igmpv3_unsolicited_report_interval'
p1328
I1000
sS'CONFIG_ANON_INODES'
p1329
S'y'
sS'kernel.shmmni'
p1330
I4096
sS'CONFIG_ATARI_PARTITION'
p1331
S'y'
sS'CONFIG_SECURITY_SELINUX_CHECKREQPROT_VALUE'
p1332
I1
sS'net.ipv4.conf.ens3.proxy_arp'
p1333
I0
sS'CONFIG_CRYPTO_CRCT10DIF'
p1334
S'y'
sS'CONFIG_ARCH_HAS_KCOV'
p1335
S'y'
sS'net.ipv6.conf.lo.accept_ra_rtr_pref'
p1336
I1
sS'CONFIG_RAPIDIO_DISC_TIMEOUT'
p1337
I30
sS'kernel.modprobe'
p1338
S'/sbin/modprobe'
p1339
sS'net.ipv6.conf.ens3.enhanced_dad'
p1340
I1
sS'net.ipv6.conf.all.router_probe_interval'
p1341
I60
sS'CONFIG_BSD_PROCESS_ACCT'
p1342
S'y'
sS'CONFIG_SPI_MASTER'
p1343
S'y'
sS'CONFIG_KALLSYMS_ABSOLUTE_PERCPU'
p1344
S'y'
sS'net.ipv6.conf.all.temp_valid_lft'
p1345
I604800
sS'CONFIG_LZ4_DECOMPRESS'
p1346
S'y'
sS'CONFIG_CRYPTO_MANAGER'
p1347
S'y'
sS'CONFIG_MESSAGE_LOGLEVEL_DEFAULT'
p1348
I4
sS'net.ipv4.conf.default.drop_unicast_in_l2_multicast'
p1349
I0
sS'CONFIG_SND_PROC_FS'
p1350
S'y'
sS'net.ipv6.conf.ens3.hop_limit'
p1351
I64
sS'CONFIG_VGA_CONSOLE'
p1352
S'y'
sS'CONFIG_RANDOMIZE_MEMORY_PHYSICAL_PADDING'
p1353
S'0xa'
p1354
sS'CONFIG_ECRYPT_FS'
p1355
S'y'
sS'CONFIG_QUOTACTL_COMPAT'
p1356
S'y'
sS'vm.oom_kill_allocating_task'
p1357
I0
sS'CONFIG_X86_MCE_THRESHOLD'
p1358
S'y'
sS'CONFIG_CGROUP_PIDS'
p1359
S'y'
sS'CONFIG_FB_TILEBLITTING'
p1360
S'y'
sS'net.ipv4.conf.ens3.accept_local'
p1361
I0
sS'CONFIG_NLS_ISO8859_1'
p1362
S'y'
sS'CONFIG_SND_TIMER'
p1363
S'm'
sS'CONFIG_SCHED_INFO'
p1364
S'y'
sS'CONFIG_CRYPTO_AES_X86_64'
p1365
S'm'
sS'net.ipv6.neigh.lo.gc_stale_time'
p1366
I60
sS'CONFIG_HID_PID'
p1367
S'y'
sS'CONFIG_SPLIT_PTLOCK_CPUS'
p1368
I4
sS'dev.cdrom.autoclose'
p1369
I1
sS'CONFIG_LIBCRC32C'
p1370
S'm'
sS'CONFIG_EDAC_SUPPORT'
p1371
S'y'
sS'CONFIG_HAVE_ARCH_COMPAT_MMAP_BASES'
p1372
S'y'
sS'CONFIG_TASK_DELAY_ACCT'
p1373
S'y'
sS'net.ipv6.conf.all.force_tllao'
p1374
I0
sS'net.ipv4.route.gc_interval'
p1375
I60
sS'CONFIG_ARCH_SUSPEND_POSSIBLE'
p1376
S'y'
sS'CONFIG_SPARSEMEM_EXTREME'
p1377
S'y'
sS'CONFIG_DMA_ACPI'
p1378
S'y'
sS'kernel.kptr_restrict'
p1379
I1
sS'CONFIG_INPUT_MOUSEDEV'
p1380
S'y'
sS'CONFIG_X86_DIRECT_GBPAGES'
p1381
S'y'
sS'CONFIG_NET_VENDOR_MICROCHIP'
p1382
S'y'
sS'net.ipv6.conf.ens3.accept_redirects'
p1383
I1
sS'vm.compact_unevictable_allowed'
p1384
I1
sS'CONFIG_ZLIB_DEFLATE'
p1385
S'y'
sS'CONFIG_ACPI_CPU_FREQ_PSS'
p1386
S'y'
sS'CONFIG_SYSVIPC_COMPAT'
p1387
S'y'
sS'CONFIG_X86_VSYSCALL_EMULATION'
p1388
S'y'
sS'net.ipv6.conf.all.use_tempaddr'
p1389
I2
sS'net.ipv6.conf.all.accept_ra_rtr_pref'
p1390
I1
sS'CONFIG_I2C_DESIGNWARE_BAYTRAIL'
p1391
S'y'
sS'CONFIG_HOTPLUG_PCI_CPCI'
p1392
S'y'
sS'net.ipv4.conf.ens3.force_igmp_version'
p1393
I0
sS'CONFIG_FTRACE'
p1394
S'y'
sS'CONFIG_GENERIC_IOMAP'
p1395
S'y'
sS'CONFIG_CGROUP_NET_CLASSID'
p1396
S'y'
sS'CONFIG_DEVFREQ_GOV_USERSPACE'
p1397
S'y'
sS'CONFIG_AUDIT_TREE'
p1398
S'y'
sS'CONFIG_MOUSE_PS2_BYD'
p1399
S'y'
sS'CONFIG_USB_OHCI_HCD_PCI'
p1400
S'y'
sS'net.ipv4.route.min_adv_mss'
p1401
I256
sS'CONFIG_ARCH_DEFCONFIG'
p1402
S'"arch/x86/configs/x86_64_defconfig"'
p1403
sS'CONFIG_WAN'
p1404
S'y'
sS'net.ipv4.tcp_thin_linear_timeouts'
p1405
I0
sS'CONFIG_CRYPTO_ALGAPI2'
p1406
S'y'
sS'CONFIG_INTEL_TXT'
p1407
S'y'
sS'CONFIG_MOUSE_PS2_TOUCHKIT'
p1408
S'y'
sS'CONFIG_LLC'
p1409
S'm'
sS'CONFIG_SND_SPI'
p1410
S'y'
sS'CONFIG_USB_UHCI_HCD'
p1411
S'y'
sS'net.ipv4.tcp_congestion_control'
p1412
S'cubic'
p1413
sS'CONFIG_ATA_SFF'
p1414
S'y'
sS'CONFIG_NVMEM'
p1415
S'y'
sS'CONFIG_SERIO_RAW'
p1416
S'm'
sS'CONFIG_HAVE_KVM_IRQ_ROUTING'
p1417
S'y'
sS'dev.mac_hid.mouse_button3_keycode'
p1418
I100
sS'CONFIG_GENERIC_BUG'
p1419
S'y'
sS'CONFIG_BLK_DEV_IO_TRACE'
p1420
S'y'
sS'net.ipv4.conf.ens3.drop_gratuitous_arp'
p1421
I0
sS'CONFIG_MUTEX_SPIN_ON_OWNER'
p1422
S'y'
sS'CONFIG_MEMORY_ISOLATION'
p1423
S'y'
sS'net.ipv6.conf.all.accept_ra_pinfo'
p1424
I1
sS'kernel.shm_next_id'
p1425
S'-1'
p1426
sS'net.ipv6.calipso_cache_bucket_size'
p1427
I10
sS'CONFIG_NET_VENDOR_AURORA'
p1428
S'y'
sS'CONFIG_LOCKDEP_SUPPORT'
p1429
S'y'
sS'net.ipv4.conf.ens3.ignore_routes_with_linkdown'
p1430
I0
sS'CONFIG_GENERIC_CLOCKEVENTS_BROADCAST'
p1431
S'y'
sS'net.ipv6.conf.ens3.accept_ra'
p1432
I1
sS'CONFIG_HAVE_ARCH_JUMP_LABEL'
p1433
S'y'
sS'net.ipv4.conf.all.bootp_relay'
p1434
I0
sS'net.ipv6.conf.default.mldv2_unsolicited_report_interval'
p1435
I1000
sS'CONFIG_ZONE_DEVICE'
p1436
S'y'
sS'CONFIG_VIRTUALIZATION'
p1437
S'y'
sS'fs.pipe-user-pages-hard'
p1438
I0
sS'net.ipv6.route.gc_min_interval'
p1439
I0
sS'CONFIG_HAVE_VIRT_CPU_ACCOUNTING_GEN'
p1440
S'y'
sS'CONFIG_HAVE_ARCH_TRANSPARENT_HUGEPAGE'
p1441
S'y'
sS'CONFIG_PROC_PAGE_MONITOR'
p1442
S'y'
sS'dev.hpet.max-user-freq'
p1443
I64
sS'net.ipv4.route.gc_thresh'
p1444
S'-1'
p1445
sS'CONFIG_THERMAL_GOV_POWER_ALLOCATOR'
p1446
S'y'
sS'CONFIG_HAVE_CLK'
p1447
S'y'
sS'CONFIG_GENERIC_STRNLEN_USER'
p1448
S'y'
sS'dev.mac_hid.mouse_button_emulation'
p1449
I0
sS'CONFIG_SND_DMA_SGBUF'
p1450
S'y'
sS'CONFIG_ATA_GENERIC'
p1451
S'y'
sS'CONFIG_MOUSE_PS2_TRACKPOINT'
p1452
S'y'
sS'CONFIG_BLK_MQ_VIRTIO'
p1453
S'y'
sS'CONFIG_UNIX98_PTYS'
p1454
S'y'
sS'CONFIG_STRICT_DEVMEM'
p1455
S'y'
sS'CONFIG_ARCH_ENABLE_MEMORY_HOTREMOVE'
p1456
S'y'
sS'net.ipv4.conf.all.medium_id'
p1457
I0
sS'net.ipv6.conf.lo.use_tempaddr'
p1458
S'-1'
p1459
sS'CONFIG_DMA_ENGINE'
p1460
S'y'
sS'net.ipv6.conf.all.mldv2_unsolicited_report_interval'
p1461
I1000
sS'CONFIG_OUTPUT_FORMAT'
p1462
S'"elf64-x86-64"'
p1463
sS'CONFIG_X86_X2APIC'
p1464
S'y'
sS'CONFIG_CGROUP_BPF'
p1465
S'y'
sS'CONFIG_ARCH_ENABLE_SPLIT_PMD_PTLOCK'
p1466
S'y'
sS'CONFIG_NET_CLS_ACT'
p1467
S'y'
sS'CONFIG_DECOMPRESS_LZO'
p1468
S'y'
sS'net.ipv4.conf.default.src_valid_mark'
p1469
I0
sS'CONFIG_NETFILTER_XTABLES'
p1470
S'm'
sS'net.ipv4.conf.lo.proxy_arp_pvlan'
p1471
I0
sS'CONFIG_SCSI_BNX2_ISCSI'
p1472
S'm'
sS'net.ipv4.conf.default.log_martians'
p1473
I0
sS'CONFIG_FREEZER'
p1474
S'y'
sS'CONFIG_QUOTA_NETLINK_INTERFACE'
p1475
S'y'
sS'CONFIG_FB'
p1476
S'y'
sS'CONFIG_MFD_WM831X'
p1477
S'y'
sS'CONFIG_SLUB_DEBUG'
p1478
S'y'
sS'CONFIG_MFD_DA9055'
p1479
S'y'
sS'CONFIG_CGROUP_NET_PRIO'
p1480
S'y'
sS'net.ipv6.neigh.default.mcast_solicit'
p1481
I3
sS'CONFIG_GPIO_LYNXPOINT'
p1482
S'y'
sS'CONFIG_IPC_NS'
p1483
S'y'
sS'CONFIG_PRINTK_TIME'
p1484
S'y'
sS'CONFIG_PCI_MSI_IRQ_DOMAIN'
p1485
S'y'
sS'CONFIG_HAVE_C_RECORDMCOUNT'
p1486
S'y'
sS'net.ipv6.neigh.default.anycast_delay'
p1487
I100
sS'CONFIG_MFD_TPS6586X'
p1488
S'y'
sS'net.ipv6.conf.lo.seg6_enabled'
p1489
I0
sS'net.ipv4.conf.ens3.disable_policy'
p1490
I0
sS'CONFIG_PCC'
p1491
S'y'
sS'CONFIG_REGMAP'
p1492
S'y'
sS'CONFIG_SCHEDSTATS'
p1493
S'y'
sS'CONFIG_CLOCKSOURCE_WATCHDOG'
p1494
S'y'
sS'net.core.message_burst'
p1495
I10
sS'CONFIG_NET_VENDOR_EXAR'
p1496
S'y'
sS'CONFIG_GENERIC_IRQ_PROBE'
p1497
S'y'
sS'CONFIG_BTT'
p1498
S'y'
sS'CONFIG_DECOMPRESS_LZ4'
p1499
S'y'
sS'net.ipv6.conf.lo.ignore_routes_with_linkdown'
p1500
I0
sS'CONFIG_HARDLOCKUP_DETECTOR'
p1501
S'y'
sS'CONFIG_RTC_SYSTOHC'
p1502
S'y'
sS'CONFIG_USB_XHCI_HCD'
p1503
S'y'
sS'CONFIG_SERIO_LIBPS2'
p1504
S'y'
sS'CONFIG_UNIX'
p1505
S'y'
sS'net.ipv4.tcp_fack'
p1506
I0
sS'net.ipv6.conf.ens3.mldv2_unsolicited_report_interval'
p1507
I1000
sS'net.ipv4.neigh.lo.mcast_resolicit'
p1508
I0
sS'uname'
p1509
S'Linux nestedvm 4.14.0-rc8-stock #3 SMP Tue Mar 13 14:28:42 EDT 2018 x86_64 x86_64 x86_64 GNU/Linux'
p1510
sS'CONFIG_DMADEVICES'
p1511
S'y'
sS'CONFIG_DEFAULT_HOSTNAME'
p1512
S'"(none)"'
p1513
sS'CONFIG_CRYPTO_LZO'
p1514
S'y'
sS'CONFIG_HAVE_STACK_VALIDATION'
p1515
S'y'
sS'CONFIG_INTEL_IOMMU_FLOPPY_WA'
p1516
S'y'
sS'CONFIG_HAVE_KVM'
p1517
S'y'
sS'CONFIG_USB_PCI'
p1518
S'y'
sS'CONFIG_ACPI_I2C_OPREGION'
p1519
S'y'
sS'CONFIG_SPARSEMEM_VMEMMAP'
p1520
S'y'
sS'net.core.netdev_budget_usecs'
p1521
I2000
sS'CONFIG_TCP_CONG_ADVANCED'
p1522
S'y'
sS'CONFIG_CPU_FREQ_DEFAULT_GOV_PERFORMANCE'
p1523
S'y'
sS'net.ipv6.conf.all.drop_unsolicited_na'
p1524
I0
sS'CONFIG_FSNOTIFY'
p1525
S'y'
sS'CONFIG_POWER_RESET'
p1526
S'y'
sS'CONFIG_VIRTIO_NET'
p1527
S'y'
sS'CONFIG_RFKILL'
p1528
S'y'
sS'CONFIG_BCMA_POSSIBLE'
p1529
S'y'
sS'CONFIG_OPTIMIZE_INLINING'
p1530
S'y'
sS'net.ipv4.ipfrag_time'
p1531
I30
sS'net.ipv4.conf.default.secure_redirects'
p1532
I1
sS'CONFIG_MOUSE_PS2_SMBUS'
p1533
S'y'
sS'CONFIG_RAS'
p1534
S'y'
sS'CONFIG_PPDEV'
p1535
S'm'
sS'CONFIG_BLK_DEV_INITRD'
p1536
S'y'
sS'net.ipv6.conf.ens3.accept_ra_rtr_pref'
p1537
I1
sS'CONFIG_DM_UEVENT'
p1538
S'y'
sS'CONFIG_LEGACY_PTYS'
p1539
S'y'
sS'CONFIG_FS_POSIX_ACL'
p1540
S'y'
sS'kernel.auto_msgmni'
p1541
I0
sS'fs.mqueue.msgsize_default'
p1542
I8192
sS'CONFIG_KEXEC_VERIFY_SIG'
p1543
S'y'
sS'fs.inotify.max_user_watches'
p1544
I8192
sS'CONFIG_HPET'
p1545
S'y'
sS'CONFIG_CRYPTO_WORKQUEUE'
p1546
S'y'
sS'CONFIG_INTEGRITY_SIGNATURE'
p1547
S'y'
sS'CONFIG_SPARSE_IRQ'
p1548
S'y'
sS'CONFIG_BLK_SCSI_REQUEST'
p1549
S'y'
sS'CONFIG_BITREVERSE'
p1550
S'y'
sS'CONFIG_HAVE_ARCH_MMAP_RND_BITS'
p1551
S'y'
sS'net.ipv6.conf.lo.accept_ra_rt_info_max_plen'
p1552
I0
sS'CONFIG_NET_VENDOR_MICREL'
p1553
S'y'
sS'CONFIG_MPLS'
p1554
S'y'
sS'CONFIG_DEBUG_INFO'
p1555
S'y'
sS'CONFIG_MAGIC_SYSRQ'
p1556
S'y'
sS'CONFIG_SERIAL_8250_PNP'
p1557
S'y'
sS'CONFIG_CLKDEV_LOOKUP'
p1558
S'y'
sS'kernel.keys.maxbytes'
p1559
I20000
sS'CONFIG_BRANCH_PROFILE_NONE'
p1560
S'y'
sS'CONFIG_NO_BOOTMEM'
p1561
S'y'
sS'CONFIG_XXHASH'
p1562
S'm'
sS'vm.dirty_ratio'
p1563
I20
sS'net.ipv6.idgen_retries'
p1564
I3
sS'CONFIG_MAGIC_SYSRQ_SERIAL'
p1565
S'y'
sS'CONFIG_CRYPTO_HASH2'
p1566
S'y'
sS'CONFIG_MEMCG_SWAP'
p1567
S'y'
sS'CONFIG_IOSCHED_NOOP'
p1568
S'y'
sS'CONFIG_USB_COMMON'
p1569
S'y'
sS'CONFIG_SND_VERBOSE_PROCFS'
p1570
S'y'
sS'net.ipv6.conf.ens3.temp_prefered_lft'
p1571
I86400
sS'CONFIG_BRIDGE_NF_EBTABLES'
p1572
S'm'
sS'CONFIG_CRYPTO_JITTERENTROPY'
p1573
S'y'
sS'CONFIG_CRYPTO_DRBG_MENU'
p1574
S'y'
sS'CONFIG_ARCH_USE_CMPXCHG_LOCKREF'
p1575
S'y'
sS'CONFIG_RD_GZIP'
p1576
S'y'
sS'user.max_pid_namespaces'
p1577
I257592
sS'CONFIG_PANIC_ON_OOPS_VALUE'
p1578
I0
sS'CONFIG_USB_EHCI_ROOT_HUB_TT'
p1579
S'y'
sS'kernel.sched_min_granularity_ns'
p1580
I750000
sS'CONFIG_X86_NEED_RELOCS'
p1581
S'y'
sS'CONFIG_XZ_DEC_ARM'
p1582
S'y'
sS'CONFIG_SCSI_DMA'
p1583
S'y'
sS'CONFIG_ARCH_HAS_ZONE_DEVICE'
p1584
S'y'
sS'CONFIG_HVC_DRIVER'
p1585
S'y'
sS'CONFIG_HAVE_RCU_TABLE_FREE'
p1586
S'y'
sS'CONFIG_ZSMALLOC'
p1587
S'y'
sS'CONFIG_HAVE_PERF_REGS'
p1588
S'y'
sS'CONFIG_IMA_APPRAISE_BOOTPARAM'
p1589
S'y'
sS'CONFIG_CRYPTO_HASH'
p1590
S'y'
sS'CONFIG_KEYS_COMPAT'
p1591
S'y'
sS'CONFIG_CRYPTO_NULL2'
p1592
S'y'
sS'CONFIG_RCU_STALL_COMMON'
p1593
S'y'
sS'net.ipv6.conf.lo.accept_ra_min_hop_limit'
p1594
I1
sS'net.ipv4.conf.default.proxy_arp'
p1595
I0
sS'kernel.sched_rr_timeslice_ms'
p1596
I100
sS'net.ipv6.conf.lo.disable_ipv6'
p1597
I0
sS'CONFIG_NEED_PER_CPU_PAGE_FIRST_CHUNK'
p1598
S'y'
sS'CONFIG_KGDB_KDB'
p1599
S'y'
sS'net.ipv4.conf.all.src_valid_mark'
p1600
I0
sS'fs.overflowuid'
p1601
I65534
sS'net.ipv4.conf.ens3.arp_accept'
p1602
I0
sS'CONFIG_FB_CFB_FILLRECT'
p1603
S'y'
sS'CONFIG_SECURITYFS'
p1604
S'y'
sS'CONFIG_OSF_PARTITION'
p1605
S'y'
sS'CONFIG_CRYPTO_AKCIPHER'
p1606
S'y'
sS'CONFIG_MAY_USE_DEVLINK'
p1607
S'y'
sS'net.ipv6.conf.default.accept_redirects'
p1608
I1
sS'CONFIG_BNX2'
p1609
S'm'
sS'CONFIG_CMA_AREAS'
p1610
I7
sS'CONFIG_ARM_GIC_MAX_NR'
p1611
I1
sS'net.ipv4.conf.all.accept_redirects'
p1612
I1
sS'vm.max_map_count'
p1613
I65530
sS'CONFIG_HAVE_KVM_IRQFD'
p1614
S'y'
sS'net.ipv6.conf.default.enhanced_dad'
p1615
I1
sS'net.ipv4.conf.lo.arp_ignore'
p1616
I0
sS'CONFIG_HAVE_KVM_IRQCHIP'
p1617
S'y'
sS'CONFIG_PM_SLEEP_SMP'
p1618
S'y'
sS'CONFIG_NET_VENDOR_I825XX'
p1619
S'y'
sS'net.ipv4.conf.ens3.proxy_arp_pvlan'
p1620
I0
sS'CONFIG_DYNAMIC_FTRACE_WITH_REGS'
p1621
S'y'
sS'net.ipv4.conf.ens3.promote_secondaries'
p1622
I0
sS'CONFIG_VT_HW_CONSOLE_BINDING'
p1623
S'y'
sS'CONFIG_MIGRATION'
p1624
S'y'
sS'CONFIG_SYSVIPC_SYSCTL'
p1625
S'y'
sS'CONFIG_HAMRADIO'
p1626
S'y'
sS'CONFIG_KGDB'
p1627
S'y'
sS'CONFIG_EFI_ESRT'
p1628
S'y'
sS'CONFIG_GENERIC_PINCONF'
p1629
S'y'
sS'CONFIG_HIGH_RES_TIMERS'
p1630
S'y'
sS'CONFIG_PPP'
p1631
S'y'
sS'CONFIG_HAVE_GENERIC_GUP'
p1632
S'y'
sS'CONFIG_NET_VENDOR_HUAWEI'
p1633
S'y'
sS'CONFIG_ZLIB_INFLATE'
p1634
S'y'
sS'CONFIG_CORE_DUMP_DEFAULT_ELF_HEADERS'
p1635
S'y'
sS'CONFIG_POWER_AVS'
p1636
S'y'
sS'CONFIG_MFD_AAT2870_CORE'
p1637
S'y'
sS'CONFIG_QED'
p1638
S'm'
sS'CONFIG_LEGACY_PTY_COUNT'
p1639
I0
sS'CONFIG_GENERIC_CALIBRATE_DELAY'
p1640
S'y'
sS'net.ipv6.conf.default.force_tllao'
p1641
I0
sS'CONFIG_AGP_INTEL'
p1642
S'y'
sS'CONFIG_CRYPTO_CRC32C'
p1643
S'y'
sS'CONFIG_LOCK_SPIN_ON_OWNER'
p1644
S'y'
sS'CONFIG_CRYPTO_GHASH'
p1645
S'y'
sS'net.ipv4.inet_peer_minttl'
p1646
I120
sS'net.core.netdev_budget'
p1647
I300
sS'kernel.shmall'
p1648
L18446744073692774399L
sS'CONFIG_ABX500_CORE'
p1649
S'y'
sS'CONFIG_ACPI_APEI_PCIEAER'
p1650
S'y'
sS'CONFIG_CRYPTO_MANAGER_DISABLE_TESTS'
p1651
S'y'
sS'CONFIG_GENERIC_BUG_RELATIVE_POINTERS'
p1652
S'y'
sS'CONFIG_TICK_ONESHOT'
p1653
S'y'
sS'CONFIG_WLAN_VENDOR_INTEL'
p1654
S'y'
sS'net.ipv6.conf.default.seg6_enabled'
p1655
I0
sS'net.ipv4.ip_nonlocal_bind'
p1656
I0
sS'CONFIG_EXT4_FS'
p1657
S'y'
sS'net.ipv4.neigh.default.base_reachable_time_ms'
p1658
I30000
sS'CONFIG_ASYNC_PQ'
p1659
S'm'
sS'CONFIG_USELIB'
p1660
S'y'
sS'net.ipv4.route.redirect_silence'
p1661
I5120
sS'net.ipv6.conf.default.hop_limit'
p1662
I64
sS'CONFIG_X86_64_SMP'
p1663
S'y'
sS'CONFIG_PM_OPP'
p1664
S'y'
sS'CONFIG_TCG_TIS_CORE'
p1665
S'y'
sS'net.ipv6.conf.all.accept_ra'
p1666
I1
sS'CONFIG_X86_64_ACPI_NUMA'
p1667
S'y'
sS'net.ipv4.conf.lo.arp_filter'
p1668
I0
sS'CONFIG_EFIVAR_FS'
p1669
S'y'
sS'CONFIG_SERIAL_8250_SHARE_IRQ'
p1670
S'y'
sS'net.ipv6.conf.all.router_solicitations'
p1671
S'-1'
p1672
sS'net.ipv4.udp_l3mdev_accept'
p1673
I0
sS'kernel.unprivileged_bpf_disabled'
p1674
I0
sS'CONFIG_FUSION_MAX_SGE'
p1675
I128
sS'CONFIG_HAS_IOPORT_MAP'
p1676
S'y'
sS'CONFIG_MFD_WM831X_SPI'
p1677
S'y'
sS'CONFIG_JUMP_LABEL'
p1678
S'y'
sS'CONFIG_INPUT_LEDS'
p1679
S'm'
sS'net.ipv4.tcp_app_win'
p1680
I31
sS'net.ipv4.cipso_cache_enable'
p1681
I1
sS'CONFIG_EVM_EXTRA_SMACK_XATTRS'
p1682
S'y'
sS'net.ipv6.conf.ens3.autoconf'
p1683
I1
sS'CONFIG_MEMORY'
p1684
S'y'
sS'kernel.numa_balancing_scan_delay_ms'
p1685
I1000
sS'CONFIG_KDB_DEFAULT_ENABLE'
p1686
S'0x1'
p1687
sS'fs.inotify.max_queued_events'
p1688
I16384
sS'CONFIG_SG_POOL'
p1689
S'y'
sS'CONFIG_CRYPTO_RSA'
p1690
S'y'
sS'net.ipv4.tcp_pacing_ca_ratio'
p1691
I120
sS'CONFIG_CPU_FREQ_GOV_POWERSAVE'
p1692
S'y'
sS'CONFIG_HAVE_BOOTMEM_INFO_NODE'
p1693
S'y'
sS'CONFIG_SPARSEMEM_ALLOC_MEM_MAP_TOGETHER'
p1694
S'y'
sS'CONFIG_ARCH_PHYS_ADDR_T_64BIT'
p1695
S'y'
sS'CONFIG_CPU_FREQ_GOV_USERSPACE'
p1696
S'y'
sS'CONFIG_HAVE_UNSTABLE_SCHED_CLOCK'
p1697
S'y'
sS'net.ipv4.igmp_link_local_mcast_reports'
p1698
I1
sS'CONFIG_MEM_SOFT_DIRTY'
p1699
S'y'
sS'CONFIG_MODULES_USE_ELF_RELA'
p1700
S'y'
sS'CONFIG_SECURITY_SMACK'
p1701
S'y'
sS'net.ipv6.anycast_src_echo_reply'
p1702
I0
sS'CONFIG_IO_DELAY_TYPE_UDELAY'
p1703
I2
sS'CONFIG_SGETMASK_SYSCALL'
p1704
S'y'
sS'CONFIG_BLK_DEV_DM_BUILTIN'
p1705
S'y'
sS'net.ipv4.conf.lo.tag'
p1706
I0
sS'CONFIG_SQUASHFS_FRAGMENT_CACHE_SIZE'
p1707
I3
sS'CONFIG_AUDIT'
p1708
S'y'
sS'CONFIG_UPROBE_EVENTS'
p1709
S'y'
sS'CONFIG_ARCH_SUPPORTS_DEBUG_PAGEALLOC'
p1710
S'y'
sS'CONFIG_X86_CMPXCHG64'
p1711
S'y'
sS'CONFIG_NET_FLOW_LIMIT'
p1712
S'y'
sS'CONFIG_ND_CLAIM'
p1713
S'y'
sS'CONFIG_PM_SLEEP_DEBUG'
p1714
S'y'
sS'CONFIG_CRYPTO_BLKCIPHER'
p1715
S'y'
sS'net.ipv6.conf.default.accept_ra_mtu'
p1716
I1
sS'fs.dir-notify-enable'
p1717
I1
sS'CONFIG_HAVE_HARDLOCKUP_DETECTOR_PERF'
p1718
S'y'
sS'net.ipv4.tcp_slow_start_after_idle'
p1719
I1
sS'kernel.nmi_watchdog'
p1720
I0
sS'net.ipv6.route.gc_thresh'
p1721
I1024
sS'CONFIG_ARCH_RANDOM'
p1722
S'y'
sS'net.ipv6.conf.ens3.router_probe_interval'
p1723
I60
sS'CONFIG_X86_EXTENDED_PLATFORM'
p1724
S'y'
sS'CONFIG_PM_TRACE'
p1725
S'y'
sS'CONFIG_SYSCTL_EXCEPTION_TRACE'
p1726
S'y'
sS'CONFIG_X86_INTERNODE_CACHE_SHIFT'
p1727
I6
sS'CONFIG_HAVE_SYSCALL_TRACEPOINTS'
p1728
S'y'
sS'CONFIG_ARCH_SUPPORTS_MEMORY_FAILURE'
p1729
S'y'
sS'CONFIG_CRC32'
p1730
S'y'
sS'CONFIG_FUSION'
p1731
S'y'
sS'net.ipv4.conf.lo.accept_source_route'
p1732
I1
sS'net.ipv6.conf.ens3.suppress_frag_ndisc'
p1733
I1
sS'CONFIG_SWPHY'
p1734
S'y'
sS'CONFIG_FUTEX_PI'
p1735
S'y'
sS'CONFIG_HAVE_IOREMAP_PROT'
p1736
S'y'
sS'net.ipv6.conf.all.mc_forwarding'
p1737
I0
sS'vm.admin_reserve_kbytes'
p1738
I8192
sS'CONFIG_ASYNC_TX_DMA'
p1739
S'y'
sS'CONFIG_DW_DMAC_CORE'
p1740
S'y'
sS'CONFIG_IMA_TRUSTED_KEYRING'
p1741
S'y'
sS'CONFIG_CRYPTO_BLKCIPHER2'
p1742
S'y'
sS'CONFIG_64BIT'
p1743
S'y'
sS'net.ipv4.tcp_early_demux'
p1744
I1
sS'CONFIG_EXT4_FS_SECURITY'
p1745
S'y'
sS'CONFIG_KEXEC_CORE'
p1746
S'y'
sS'net.ipv4.neigh.default.unres_qlen'
p1747
I101
sS'CONFIG_COMMON_CLK'
p1748
S'y'
sS'CONFIG_MFD_PALMAS'
p1749
S'y'
sS'CONFIG_AUXDISPLAY'
p1750
S'y'
sS'CONFIG_WLAN_VENDOR_ST'
p1751
S'y'
sS'kernel.printk_ratelimit'
p1752
I5
sS'net.ipv4.neigh.default.delay_first_probe_time'
p1753
I5
sS'CONFIG_SECURITY_SELINUX_BOOTPARAM_VALUE'
p1754
I0
sS'fs.lease-break-time'
p1755
I45
sS'CONFIG_SELECT_MEMORY_MODEL'
p1756
S'y'
sS'vm.dirty_bytes'
p1757
I0
sS'net.ipv6.conf.all.disable_policy'
p1758
I0
sS'CONFIG_KVM_GUEST'
p1759
S'y'
sS'net.ipv4.tcp_syn_retries'
p1760
I6
sS'kernel.shm_rmid_forced'
p1761
I0
sS'CONFIG_PERF_EVENTS_INTEL_UNCORE'
p1762
S'y'
sS'net.ipv4.conf.ens3.igmpv2_unsolicited_report_interval'
p1763
I10000
sS'CONFIG_X86_FAST_FEATURE_TESTS'
p1764
S'y'
sS'CONFIG_FB_NOTIFY'
p1765
S'y'
sS'CONFIG_UEVENT_HELPER_PATH'
p1766
S'""'
p1767
sS'CONFIG_CRYPTO_GHASH_CLMUL_NI_INTEL'
p1768
S'm'
sS'CONFIG_DEVFREQ_GOV_POWERSAVE'
p1769
S'y'
sS'net.ipv6.conf.ens3.accept_ra_from_local'
p1770
I0
sS'net.ipv6.conf.default.router_solicitation_interval'
p1771
I4
sS'net.ipv4.tcp_tso_win_divisor'
p1772
I3
sS'CONFIG_RELOCATABLE'
p1773
S'y'
sS'fs.pipe-max-size'
p1774
I1048576
sS'CONFIG_NO_HZ'
p1775
S'y'
sS'CONFIG_CHELSIO_T4_DCB'
p1776
S'y'
sS'CONFIG_RTC_SYSTOHC_DEVICE'
p1777
S'"rtc0"'
p1778
sS'CONFIG_DEFAULT_SECURITY_APPARMOR'
p1779
S'y'
sS'CONFIG_HAVE_KERNEL_BZIP2'
p1780
S'y'
sS'net.ipv6.conf.ens3.addr_gen_mode'
p1781
I0
sS'CONFIG_QED_SRIOV'
p1782
S'y'
sS'net.ipv4.route.gc_min_interval_ms'
p1783
I500
sS'CONFIG_IOMMU_HELPER'
p1784
S'y'
sS'CONFIG_WLAN_VENDOR_RSI'
p1785
S'y'
sS'CONFIG_VIRTIO_BLK'
p1786
S'y'
sS'CONFIG_HOTPLUG_PCI_PCIE'
p1787
S'y'
sS'net.ipv6.neigh.ens3.mcast_solicit'
p1788
I3
sS'CONFIG_GPIO_SX150X'
p1789
S'y'
sS'CONFIG_IP_MULTIPLE_TABLES'
p1790
S'y'
sS'CONFIG_THP_SWAP'
p1791
S'y'
sS'CONFIG_RFS_ACCEL'
p1792
S'y'
sS'fs.dentry-state'
p1793
S'116699\t99328\t45\t0\t0\t0'
p1794
sS'CONFIG_TRACEPOINTS'
p1795
S'y'
sS'CONFIG_IP6_NF_IPTABLES'
p1796
S'm'
sS'CONFIG_CRYPTO_AKCIPHER2'
p1797
S'y'
sS'CONFIG_ARCH_HAS_ADD_PAGES'
p1798
S'y'
sS'net.ipv6.conf.lo.dad_transmits'
p1799
I1
sS'CONFIG_SECURITY_APPARMOR_HASH_DEFAULT'
p1800
S'y'
sS'CONFIG_SMP'
p1801
S'y'
sS'CONFIG_NEED_PER_CPU_EMBED_FIRST_CHUNK'
p1802
S'y'
sS'CONFIG_PM_WAKELOCKS_LIMIT'
p1803
I100
sS'net.ipv6.conf.default.accept_dad'
p1804
I1
sS'CONFIG_IKCONFIG'
p1805
S'm'
sS'CONFIG_BLK_CGROUP'
p1806
S'y'
sS'CONFIG_PATA_ACPI'
p1807
S'm'
sS'CONFIG_FUNCTION_PROFILER'
p1808
S'y'
sS'CONFIG_ISCSI_TCP'
p1809
S'm'
sS'CONFIG_HAVE_DEBUG_STACKOVERFLOW'
p1810
S'y'
sS'net.ipv6.neigh.default.gc_stale_time'
p1811
I60
sS'CONFIG_TCP_MD5SIG'
p1812
S'y'
sS'net.ipv4.neigh.ens3.unres_qlen'
p1813
I101
sS'CONFIG_MICROCODE'
p1814
S'y'
sS'CONFIG_HAVE_DEBUG_KMEMLEAK'
p1815
S'y'
sS'CONFIG_TUN'
p1816
S'y'
sS'net.ipv6.conf.lo.autoconf'
p1817
I1
sS'net.ipv4.tcp_low_latency'
p1818
I0
sS'net.ipv6.flowlabel_state_ranges'
p1819
I0
sS'CONFIG_VIRTIO'
p1820
S'y'
sS'kernel.randomize_va_space'
p1821
I2
sS'vm.legacy_va_layout'
p1822
I0
sS'CONFIG_PARAVIRT'
p1823
S'y'
sS'CONFIG_XZ_DEC_BCJ'
p1824
S'y'
sS'net.ipv4.icmp_echo_ignore_all'
p1825
I0
sS'net.ipv4.ip_dynaddr'
p1826
I0
sS'CONFIG_SYSFS'
p1827
S'y'
sS'dev.cdrom.autoeject'
p1828
I0
sS'CONFIG_PROFILING'
p1829
S'y'
sS'CONFIG_PINCONF'
p1830
S'y'
sS'CONFIG_THREAD_INFO_IN_TASK'
p1831
S'y'
sS'CONFIG_NET_VENDOR_INTEL'
p1832
S'y'
sS'CONFIG_TASKSTATS'
p1833
S'y'
sS'vm.memory_failure_early_kill'
p1834
I0
sS'net.ipv6.conf.default.use_tempaddr'
p1835
I2
sS'CONFIG_DEVTMPFS'
p1836
S'y'
sS'CONFIG_CFS_BANDWIDTH'
p1837
S'y'
sS'CONFIG_INLINE_READ_UNLOCK_IRQ'
p1838
S'y'
sS'net.ipv6.route.gc_timeout'
p1839
I60
sS'CONFIG_HAVE_MOD_ARCH_SPECIFIC'
p1840
S'y'
sS'net.ipv6.neigh.ens3.base_reachable_time_ms'
p1841
I30000
sS'CONFIG_FB_MODE_HELPERS'
p1842
S'y'
sS'CONFIG_X86_MINIMUM_CPU_FAMILY'
p1843
I64
sS'net.ipv4.conf.default.ignore_routes_with_linkdown'
p1844
I0
sS'net.ipv6.flowlabel_consistency'
p1845
I1
sS'net.ipv4.icmp_echo_ignore_broadcasts'
p1846
I1
sS'CONFIG_IRQ_WORK'
p1847
S'y'
sS'CONFIG_TCG_TIS'
p1848
S'y'
sS'CONFIG_XZ_DEC_POWERPC'
p1849
S'y'
sS'CONFIG_HZ_250'
p1850
S'y'
sS'CONFIG_STACKTRACE'
p1851
S'y'
sS'CONFIG_ACPI_PROCESSOR'
p1852
S'y'
sS'kernel.pid_max'
p1853
I124928
sS'CONFIG_REGMAP_I2C'
p1854
S'y'
sS'net.ipv6.neigh.ens3.locktime'
p1855
I0
sS'net.ipv4.conf.all.arp_filter'
p1856
I0
sS'net.ipv4.route.redirect_load'
p1857
I5
sS'CONFIG_MFD_MAX8998'
p1858
S'y'
sS'CONFIG_MFD_MAX8997'
p1859
S'y'
sS'CONFIG_HAVE_ACPI_APEI'
p1860
S'y'
sS'CONFIG_DDR'
p1861
S'y'
sS'CONFIG_FONT_SUPPORT'
p1862
S'y'
sS'CONFIG_X86_PMEM_LEGACY_DEVICE'
p1863
S'y'
sS'CONFIG_MODULE_SIG_KEY'
p1864
S'"certs/signing_key.pem"'
p1865
sS'CONFIG_ASSOCIATIVE_ARRAY'
p1866
S'y'
sS'CONFIG_EZX_PCAP'
p1867
S'y'
sS'CONFIG_SCSI_MOD'
p1868
S'y'
sS'CONFIG_CRYPTO_HASH_INFO'
p1869
S'y'
sS'net.ipv4.conf.all.shared_media'
p1870
I1
sS'CONFIG_IOMMU_API'
p1871
S'y'
sS'CONFIG_INLINE_SPIN_UNLOCK_IRQ'
p1872
S'y'
sS'CONFIG_BLOCK'
p1873
S'y'
sS'CONFIG_MEMORY_FAILURE'
p1874
S'y'
sS'CONFIG_NET_VENDOR_EZCHIP'
p1875
S'y'
sS'CONFIG_CPU_RMAP'
p1876
S'y'
sS'net.netfilter.nf_log.11'
p1877
S'NONE'
p1878
sS'net.netfilter.nf_log.10'
p1879
S'NONE'
p1880
sS'net.netfilter.nf_log.12'
p1881
S'NONE'
p1882
sS'CONFIG_ARCH_HAS_PMEM_API'
p1883
S'y'
sS'net.ipv6.conf.all.drop_unicast_in_l2_multicast'
p1884
I0
sS'CONFIG_X86_INTEL_LPSS'
p1885
S'y'
sS'net.core.rmem_max'
p1886
I212992
sS'CONFIG_CRYPTO_DRBG_HASH'
p1887
S'y'
sS'CONFIG_SECURITY_PATH'
p1888
S'y'
sS'CONFIG_THERMAL_EMERGENCY_POWEROFF_DELAY_MS'
p1889
I0
sS'CONFIG_DEBUG_FS'
p1890
S'y'
sS'CONFIG_STACK_TRACER'
p1891
S'y'
sS'net.core.dev_weight'
p1892
I64
sS'CONFIG_HAVE_ALIGNED_STRUCT_PAGE'
p1893
S'y'
sS'CONFIG_NET_VENDOR_SYNOPSYS'
p1894
S'y'
sS'CONFIG_NET_FC'
p1895
S'y'
sS'CONFIG_NET_VENDOR_MARVELL'
p1896
S'y'
sS'CONFIG_BLK_DEV_LOOP_MIN_COUNT'
p1897
I8
sS'net.ipv6.conf.ens3.proxy_ndp'
p1898
I0
sS'CONFIG_DEFAULT_TCP_CONG'
p1899
S'"cubic"'
p1900
sS'CONFIG_CRYPTO_CBC'
p1901
S'y'
sS'CONFIG_PGTABLE_MAPPING'
p1902
S'y'
sS'CONFIG_NET_VENDOR_NATSEMI'
p1903
S'y'
sS'CONFIG_HAVE_EBPF_JIT'
p1904
S'y'
sS'kernel.shmmax'
p1905
L18446744073692774399L
sS'net.ipv6.conf.all.accept_ra_min_hop_limit'
p1906
I1
sS'CONFIG_PARAVIRT_SPINLOCKS'
p1907
S'y'
sS'CONFIG_FB_SIMPLE'
p1908
S'y'
sS'net.ipv6.neigh.default.proxy_delay'
p1909
I80
sS'CONFIG_QUEUED_RWLOCKS'
p1910
S'y'
sS'CONFIG_USB_DWC2'
p1911
S'y'
sS'CONFIG_RAPIDIO_DMA_ENGINE'
p1912
S'y'
sS'CONFIG_VHOST_NET'
p1913
S'm'
sS'net.ipv4.conf.ens3.forwarding'
p1914
I0
sS'CONFIG_MFD_SYSCON'
p1915
S'y'
sS'net.ipv4.neigh.lo.unres_qlen_bytes'
p1916
I212992
sS'fs.pipe-user-pages-soft'
p1917
I16384
sS'CONFIG_CRYPTO_SIMD'
p1918
S'm'
sS'CONFIG_SND_PCM_TIMER'
p1919
S'y'
sS'CONFIG_X86_INTEL_PSTATE'
p1920
S'y'
sS'net.ipv4.tcp_mtu_probing'
p1921
I0
sS'CONFIG_MFD_TWL4030_AUDIO'
p1922
S'y'
sS'CONFIG_CGROUP_PERF'
p1923
S'y'
sS'CONFIG_WATCHDOG_HANDLE_BOOT_ENABLED'
p1924
S'y'
sS'CONFIG_SOLARIS_X86_PARTITION'
p1925
S'y'
sS'CONFIG_MFD_SMSC'
p1926
S'y'
sS'CONFIG_NEED_SG_DMA_LENGTH'
p1927
S'y'
sS'vm.hugepages_treat_as_movable'
p1928
I0
sS'CONFIG_ARCH_HAS_DEVMEM_IS_ALLOWED'
p1929
S'y'
sS'CONFIG_SND'
p1930
S'm'
sS'CONFIG_LZO_DECOMPRESS'
p1931
S'y'
sS'kernel.ftrace_enabled'
p1932
I1
sS'CONFIG_CRYPTO_RNG'
p1933
S'y'
sS'CONFIG_MODULES_TREE_LOOKUP'
p1934
S'y'
sS'CONFIG_ECRYPT_FS_MESSAGING'
p1935
S'y'
sS'CONFIG_RTC_HCTOSYS_DEVICE'
p1936
S'"rtc0"'
p1937
sS'net.ipv4.conf.ens3.src_valid_mark'
p1938
I0
sS'CONFIG_EFI_VARS'
p1939
S'y'
sS'kernel.numa_balancing_scan_size_mb'
p1940
I256
sS'CONFIG_KEXEC_FILE'
p1941
S'y'
sS'CONFIG_I2C_BOARDINFO'
p1942
S'y'
sS'CONFIG_SECCOMP'
p1943
S'y'
sS'CONFIG_CRYPTO_RNG2'
p1944
S'y'
sS'CONFIG_ARCH_MMAP_RND_BITS'
p1945
I28
sS'CONFIG_PMIC_DA9052'
p1946
S'y'
sS'CONFIG_KGDB_SERIAL_CONSOLE'
p1947
S'y'
sS'CONFIG_CPU_FREQ_GOV_ATTR_SET'
p1948
S'y'
sS'CONFIG_IMA_DEFAULT_TEMPLATE'
p1949
S'"ima-ng"'
p1950
sS'CONFIG_BOOTPARAM_HUNG_TASK_PANIC_VALUE'
p1951
I0
sS'CONFIG_CRYPTO_SHA1'
p1952
S'y'
sS'CONFIG_MMIOTRACE'
p1953
S'y'
sS'CONFIG_HW_RANDOM'
p1954
S'y'
sS'CONFIG_ARCH_HAS_CPU_RELAX'
p1955
S'y'
sS'net.ipv6.conf.all.accept_source_route'
p1956
I0
sS'CONFIG_PARAVIRT_TIME_ACCOUNTING'
p1957
S'y'
sS'net.ipv4.neigh.ens3.delay_first_probe_time'
p1958
I5
sS'net.ipv4.neigh.ens3.retrans_time_ms'
p1959
I1000
sS'CONFIG_KALLSYMS'
p1960
S'y'
sS'CONFIG_RFKILL_INPUT'
p1961
S'y'
sS'net.ipv4.route.gc_timeout'
p1962
I300
sS'CONFIG_NET_VENDOR_SAMSUNG'
p1963
S'y'
sS'CONFIG_SPARSEMEM'
p1964
S'y'
sS'CONFIG_ARCH_HAS_ELF_RANDOMIZE'
p1965
S'y'
sS'CONFIG_HAVE_DMA_API_DEBUG'
p1966
S'y'
sS'CONFIG_ACPI_BUTTON'
p1967
S'y'
sS'CONFIG_TTY'
p1968
S'y'
sS'CONFIG_X86_BOOTPARAM_MEMORY_CORRUPTION_CHECK'
p1969
S'y'
sS'CONFIG_XZ_DEC'
p1970
S'y'
sS'CONFIG_X86_PM_TIMER'
p1971
S'y'
sS'net.ipv4.conf.ens3.arp_notify'
p1972
I0
sS'CONFIG_SERIAL_8250_LPSS'
p1973
S'y'
sS'net.ipv4.neigh.lo.anycast_delay'
p1974
I100
sS'CONFIG_RPS'
p1975
S'y'
sS'CONFIG_AUDIT_WATCH'
p1976
S'y'
sS'CONFIG_KVM_GENERIC_DIRTYLOG_READ_PROTECT'
p1977
S'y'
sS'CONFIG_DMAR_TABLE'
p1978
S'y'
sS'CONFIG_SYSTEM_EXTRA_CERTIFICATE_SIZE'
p1979
I4096
sS'net.ipv4.conf.ens3.send_redirects'
p1980
I1
sS'CONFIG_FB_VESA'
p1981
S'y'
sS'CONFIG_PREEMPT_VOLUNTARY'
p1982
S'y'
sS'CONFIG_DEVMEM'
p1983
S'y'
sS'CONFIG_FUSE_FS'
p1984
S'y'
sS'CONFIG_USER_RETURN_NOTIFIER'
p1985
S'y'
sS'net.ipv4.tcp_max_reordering'
p1986
I300
sS'net.ipv4.neigh.default.gc_interval'
p1987
I30
sS'kernel.sg-big-buff'
p1988
I32768
sS'net.ipv6.route.gc_elasticity'
p1989
I9
sS'CONFIG_ARCH_SPARSEMEM_ENABLE'
p1990
S'y'
sS'CONFIG_SCHED_TRACER'
p1991
S'y'
sS'CONFIG_SQUASHFS_DECOMP_SINGLE'
p1992
S'y'
sS'CONFIG_X86_IO_APIC'
p1993
S'y'
sS'net.ipv6.conf.default.temp_valid_lft'
p1994
I604800
sS'CONFIG_ZONE_DMA32'
p1995
S'y'
sS'CONFIG_SERIAL_8250_MANY_PORTS'
p1996
S'y'
sS'net.ipv4.tcp_timestamps'
p1997
I1
sS'CONFIG_EDAC'
p1998
S'y'
sS'CONFIG_GENERIC_CPU_AUTOPROBE'
p1999
S'y'
sS'CONFIG_NR_CPUS'
p2000
I512
sS'CONFIG_DOUBLEFAULT'
p2001
S'y'
sS'user.max_user_namespaces'
p2002
I257592
sS'CONFIG_BIG_KEYS'
p2003
S'y'
sS'kernel.keys.root_maxkeys'
p2004
I1000000
sS'CONFIG_POSIX_MQUEUE_SYSCTL'
p2005
S'y'
sS'net.ipv6.conf.ens3.disable_policy'
p2006
I0
sS'net.ipv6.neigh.lo.delay_first_probe_time'
p2007
I5
sS'CONFIG_AMD_NUMA'
p2008
S'y'
sS'net.core.somaxconn'
p2009
I128
sS'CONFIG_AMIGA_PARTITION'
p2010
S'y'
sS'CONFIG_CONSOLE_LOGLEVEL_DEFAULT'
p2011
I7
sS'CONFIG_SQUASHFS_LZ4'
p2012
S'y'
sS'net.ipv6.conf.ens3.accept_ra_pinfo'
p2013
I1
sS'CONFIG_SCSI_CONSTANTS'
p2014
S'y'
sS'CONFIG_FB_IMSTT'
p2015
S'y'
sS'CONFIG_CRYPTO_AES'
p2016
S'y'
sS'CONFIG_RTC_INTF_SYSFS'
p2017
S'y'
sS'CONFIG_SECURITY_SELINUX_DEVELOP'
p2018
S'y'
sS'net.ipv4.conf.lo.mc_forwarding'
p2019
I0
sS'net.ipv4.tcp_keepalive_probes'
p2020
I9
sS'CONFIG_TREE_RCU'
p2021
S'y'
sS'vm.hugetlb_shm_group'
p2022
I0
sS'CONFIG_X86_TSC'
p2023
S'y'
sS'CONFIG_SECURITY_SELINUX_BOOTPARAM'
p2024
S'y'
sS'CONFIG_ACPI_PCI_SLOT'
p2025
S'y'
sS'CONFIG_X86_MCE_AMD'
p2026
S'y'
sg3
(lp2027
S'HostInfo'
p2028
ag6
aS'object'
p2029
asS'kernel.random.urandom_min_reseed_secs'
p2030
I60
sS'CONFIG_LIBNVDIMM'
p2031
S'y'
sS'kernel.random.read_wakeup_threshold'
p2032
I64
sS'CONFIG_HAVE_COPY_THREAD_TLS'
p2033
S'y'
sS'CONFIG_RESET_CONTROLLER'
p2034
S'y'
sS'net.ipv4.tcp_no_metrics_save'
p2035
I0
sS'CONFIG_I2C_HELPER_AUTO'
p2036
S'y'
sS'CONFIG_JBD2'
p2037
S'y'
sS'CONFIG_PARTITION_ADVANCED'
p2038
S'y'
sS'CONFIG_EFI_STUB'
p2039
S'y'
sS'net.ipv6.neigh.ens3.mcast_resolicit'
p2040
I0
sS'net.ipv4.conf.all.arp_announce'
p2041
I0
sS'net.ipv4.conf.all.ignore_routes_with_linkdown'
p2042
I0
sS'CONFIG_RTC_INTF_DEV'
p2043
S'y'
sS'CONFIG_EXT4_FS_POSIX_ACL'
p2044
S'y'
sS'CONFIG_SRCU'
p2045
S'y'
sS'CONFIG_INPUT_EVDEV'
p2046
S'y'
sS'net.ipv4.conf.all.arp_ignore'
p2047
I0
sS'CONFIG_GPIO_TPS6586X'
p2048
S'y'
sS'CONFIG_SECCOMP_FILTER'
p2049
S'y'
sS'CONFIG_SERIO'
p2050
S'y'
sS'net.ipv6.conf.ens3.accept_ra_min_hop_limit'
p2051
I1
sS'CONFIG_ARCH_HAS_CACHE_LINE_SIZE'
p2052
S'y'
sS'CONFIG_SERIAL_8250_RUNTIME_UARTS'
p2053
I32
sS'CONFIG_MMU_NOTIFIER'
p2054
S'y'
sS'CONFIG_HW_CONSOLE'
p2055
S'y'
sS'CONFIG_SQUASHFS_LZO'
p2056
S'y'
sS'net.ipv4.tcp_stdurg'
p2057
I0
sS'CONFIG_SCSI_DH'
p2058
S'y'
sS'CONFIG_USB_ARCH_HAS_HCD'
p2059
S'y'
sS'net.ipv4.conf.lo.forwarding'
p2060
I0
sS'kernel.unknown_nmi_panic'
p2061
I0
sS'CONFIG_NO_HZ_COMMON'
p2062
S'y'
sS'net.ipv4.conf.all.route_localnet'
p2063
I0
sS'kernel.seccomp.actions_logged'
p2064
S'kill_process kill_thread trap errno trace log'
p2065
sS'net.ipv6.conf.all.force_mld_version'
p2066
I0
sS'CONFIG_MSDOS_PARTITION'
p2067
S'y'
sS'vm.overcommit_kbytes'
p2068
I0
sS'net.ipv4.conf.all.drop_unicast_in_l2_multicast'
p2069
I0
sS'CONFIG_POWER_SUPPLY'
p2070
S'y'
sS'CONFIG_HAVE_CC_STACKPROTECTOR'
p2071
S'y'
sS'CONFIG_DECOMPRESS_LZMA'
p2072
S'y'
sS'net.ipv6.conf.all.ndisc_notify'
p2073
I0
sS'CONFIG_CALGARY_IOMMU'
p2074
S'y'
sS'net.ipv4.neigh.lo.unres_qlen'
p2075
I101
sS'CONFIG_IO_DELAY_TYPE_0X80'
p2076
I0
sS'CONFIG_SND_JACK'
p2077
S'y'
sS'CONFIG_DYNAMIC_DEBUG'
p2078
S'y'
sS'kernel.printk_ratelimit_burst'
p2079
I10
sS'CONFIG_CRYPTO_SEQIV'
p2080
S'y'
sS'CONFIG_NET_VENDOR_OKI'
p2081
S'y'
sS'fs.nr_open'
p2082
I1048576
sS'net.ipv6.conf.lo.accept_ra_mtu'
p2083
I1
sS'CONFIG_RAID6_PQ'
p2084
S'm'
sS'CONFIG_CFQ_GROUP_IOSCHED'
p2085
S'y'
sS'CONFIG_PARAVIRT_CLOCK'
p2086
S'y'
sS'CONFIG_SND_VMASTER'
p2087
S'y'
sS'net.ipv4.conf.lo.shared_media'
p2088
I1
sS'CONFIG_NLS'
p2089
S'y'
sS'CONFIG_SECURITY_TOMOYO'
p2090
S'y'
sS'CONFIG_ARCH_HAS_STRICT_MODULE_RWX'
p2091
S'y'
sS'CONFIG_SND_OSSEMUL'
p2092
S'y'
sS'CONFIG_CGROUP_FREEZER'
p2093
S'y'
sS'CONFIG_NET_VENDOR_CHELSIO'
p2094
S'y'
sS'CONFIG_FRAMEBUFFER_CONSOLE_DETECT_PRIMARY'
p2095
S'y'
sS'CONFIG_ASN1'
p2096
S'y'
sS'CONFIG_CRC16'
p2097
S'y'
sS'CONFIG_PCIEASPM'
p2098
S'y'
sS'CONFIG_LDM_PARTITION'
p2099
S'y'
sS'CONFIG_CROSS_MEMORY_ATTACH'
p2100
S'y'
sS'CONFIG_COMPACTION'
p2101
S'y'
sS'kernel.io_delay_type'
p2102
I1
sS'CONFIG_HAVE_KRETPROBES'
p2103
S'y'
sS'CONFIG_CPU_IDLE_GOV_LADDER'
p2104
S'y'
sS'CONFIG_UNISYSSPAR'
p2105
S'y'
sS'net.ipv6.neigh.lo.locktime'
p2106
I0
sS'CONFIG_CPU_FREQ_GOV_ONDEMAND'
p2107
S'y'
sS'CONFIG_CROSS_COMPILE'
p2108
S'""'
p2109
sS'CONFIG_ARCH_HAS_SET_MEMORY'
p2110
S'y'
sS'CONFIG_SYSCTL_SYSCALL'
p2111
S'y'
sS'net.ipv4.neigh.ens3.mcast_solicit'
p2112
I3
sS'CONFIG_PRINTK_SAFE_LOG_BUF_SHIFT'
p2113
I13
sS'CONFIG_NET_RX_BUSY_POLL'
p2114
S'y'
sS'CONFIG_GENERIC_TIME_VSYSCALL'
p2115
S'y'
sS'CONFIG_HARDLOCKUP_DETECTOR_PERF'
p2116
S'y'
sS'CONFIG_USB_PHY'
p2117
S'y'
sS'CONFIG_FANOTIFY_ACCESS_PERMISSIONS'
p2118
S'y'
sS'CONFIG_RCU_NEED_SEGCBLIST'
p2119
S'y'
sS'CONFIG_MULTIUSER'
p2120
S'y'
sS'net.ipv4.tcp_wmem'
p2121
S'4096\t16384\t4194304'
p2122
sS'kernel.tainted'
p2123
I0
sS'CONFIG_VMAP_STACK'
p2124
S'y'
sS'kernel.sched_nr_migrate'
p2125
I32
sS'CONFIG_HAVE_KVM_MSI'
p2126
S'y'
sS'CONFIG_MFD_TPS65912_SPI'
p2127
S'y'
sS'kernel.keys.root_maxbytes'
p2128
I25000000
sS'CONFIG_NET_VENDOR_BROADCOM'
p2129
S'y'
sS'CONFIG_PCIEAER'
p2130
S'y'
sS'net.ipv4.conf.ens3.bootp_relay'
p2131
I0
sS'CONFIG_MICROCODE_OLD_INTERFACE'
p2132
S'y'
sS'kernel.cap_last_cap'
p2133
I37
sS'CONFIG_ARCH_USE_QUEUED_RWLOCKS'
p2134
S'y'
sS'CONFIG_ARCH_MIGHT_HAVE_PC_PARPORT'
p2135
S'y'
sS'net.ipv4.tcp_available_congestion_control'
p2136
S'cubic reno'
p2137
sS'CONFIG_CRYPTO_CRC32C_INTEL'
p2138
S'y'
sS'CONFIG_ACPI_BATTERY'
p2139
S'y'
sS'CONFIG_ACPI_PROCESSOR_IDLE'
p2140
S'y'
sS'net.ipv6.conf.lo.mc_forwarding'
p2141
I0
sS'kernel.printk'
p2142
S'4\t4\t1\t7'
p2143
sS'CONFIG_PID_NS'
p2144
S'y'
sS'CONFIG_NETFILTER'
p2145
S'y'
sS'user.max_inotify_instances'
p2146
I1024
sS'CONFIG_ACPI_AC'
p2147
S'y'
sS'CONFIG_VM_EVENT_COUNTERS'
p2148
S'y'
sS'CONFIG_BINFMT_SCRIPT'
p2149
S'y'
sS'CONFIG_TMPFS_POSIX_ACL'
p2150
S'y'
sS'CONFIG_NLATTR'
p2151
S'y'
sS'CONFIG_DEFAULT_DEADLINE'
p2152
S'y'
sS'CONFIG_MODULE_SIG'
p2153
S'y'
sS'net.ipv4.igmp_max_memberships'
p2154
I20
sS'CONFIG_X86_REROUTE_FOR_BROKEN_BOOT_IRQS'
p2155
S'y'
sS'net.ipv6.conf.lo.router_solicitation_interval'
p2156
I4
sS'CONFIG_MODULE_SIG_HASH'
p2157
S'"sha512"'
p2158
sS'net.ipv6.conf.lo.accept_ra_defrtr'
p2159
I1
sS'CONFIG_SOCK_CGROUP_DATA'
p2160
S'y'
sS'debug.exception-trace'
p2161
I1
sS'CONFIG_ACPI_NUMA'
p2162
S'y'
sS'CONFIG_SECURITY_SELINUX_AVC_STATS'
p2163
S'y'
sS'CONFIG_IMA_MEASURE_PCR_IDX'
p2164
I10
sS'CONFIG_X86'
p2165
S'y'
sS'CONFIG_CRC_T10DIF'
p2166
S'y'
sS'net.ipv6.conf.all.autoconf'
p2167
I1
sS'CONFIG_NET_VENDOR_DLINK'
p2168
S'y'
sS'net.ipv6.conf.all.router_solicitation_delay'
p2169
I1
sS'CONFIG_EARLY_PRINTK_DBGP'
p2170
S'y'
sS'CONFIG_CC_OPTIMIZE_FOR_PERFORMANCE'
p2171
S'y'
sS'CONFIG_TREE_SRCU'
p2172
S'y'
sS'CONFIG_PCI_IOV'
p2173
S'y'
sS'CONFIG_ATA_PIIX'
p2174
S'y'
sS'CONFIG_CRYPTO_MD5'
p2175
S'y'
sS'kernel.panic_on_warn'
p2176
I0
sS'CONFIG_SND_HDA_INPUT_BEEP'
p2177
S'y'
sS'fs.epoll.max_user_watches'
p2178
I13505269
sS'CONFIG_SERIAL_8250'
p2179
S'y'
sS'net.ipv6.conf.default.temp_prefered_lft'
p2180
I86400
sS'CONFIG_FB_EFI'
p2181
S'y'
sS'kernel.pty.nr'
p2182
I1
sS'net.ipv6.conf.lo.accept_dad'
p2183
S'-1'
p2184
sS'net.ipv6.conf.ens3.router_solicitation_delay'
p2185
I1
sS'net.ipv6.conf.lo.mldv1_unsolicited_report_interval'
p2186
I10000
sS'net.ipv6.conf.ens3.router_solicitation_max_interval'
p2187
I3600
sS'kernel.keys.maxkeys'
p2188
I200
sS'net.ipv4.tcp_base_mss'
p2189
I1024
sS'CONFIG_HAVE_PERF_EVENTS_NMI'
p2190
S'y'
sS'CONFIG_ASYMMETRIC_KEY_TYPE'
p2191
S'y'
sS'CONFIG_MFD_WM8350'
p2192
S'y'
sS'CONFIG_FS_DAX'
p2193
S'y'
sS'CONFIG_IP6_NF_FILTER'
p2194
S'm'
sS'CONFIG_MODULE_SRCVERSION_ALL'
p2195
S'y'
sS'CONFIG_COREDUMP'
p2196
S'y'
sS'CONFIG_MFD_TPS65912'
p2197
S'y'
sS'CONFIG_GENERIC_ALLOCATOR'
p2198
S'y'
sS'net.ipv6.neigh.lo.ucast_solicit'
p2199
I3
sS'CONFIG_MTRR_SANITIZER_ENABLE_DEFAULT'
p2200
I1
sS'net.ipv6.conf.lo.drop_unicast_in_l2_multicast'
p2201
I0
sS'net.ipv6.conf.default.router_solicitation_delay'
p2202
I1
sS'CONFIG_PCI_LOCKLESS_CONFIG'
p2203
S'y'
sS'net.ipv6.neigh.ens3.anycast_delay'
p2204
I100
sS'net.ipv4.conf.lo.drop_gratuitous_arp'
p2205
I0
sS'net.ipv6.conf.ens3.mldv1_unsolicited_report_interval'
p2206
I10000
sS'net.ipv4.conf.lo.ignore_routes_with_linkdown'
p2207
I0
sS'CONFIG_NET_CORE'
p2208
S'y'
sS'kernel.panic_on_unrecovered_nmi'
p2209
I0
sS'CONFIG_HAVE_MEMORY_PRESENT'
p2210
S'y'
sS'net.ipv6.conf.default.keep_addr_on_down'
p2211
I0
sS'CONFIG_X86_FEATURE_NAMES'
p2212
S'y'
sS'CONFIG_NOP_TRACER'
p2213
S'y'
sS'CONFIG_FUNCTION_TRACER'
p2214
S'y'
sS'CONFIG_CPU_FREQ_STAT'
p2215
S'y'
sS'net.ipv4.neigh.ens3.locktime'
p2216
I100
sS'net.ipv6.neigh.lo.unres_qlen_bytes'
p2217
I212992
sS'CONFIG_POSIX_TIMERS'
p2218
S'y'
sS'CONFIG_LWTUNNEL_BPF'
p2219
S'y'
sS'net.ipv4.conf.default.disable_xfrm'
p2220
I0
sS'CONFIG_PHYSICAL_START'
p2221
S'0x1000000'
p2222
sS'CONFIG_COMPAT_OLD_SIGACTION'
p2223
S'y'
sS'net.ipv4.tcp_keepalive_time'
p2224
I7200
sS'net.ipv6.conf.ens3.max_addresses'
p2225
I16
sS'CONFIG_EXTCON'
p2226
S'y'
sS'CONFIG_NET_VENDOR_AMD'
p2227
S'y'
sS'net.ipv4.conf.all.accept_source_route'
p2228
I0
sS'CONFIG_X86_PAT'
p2229
S'y'
sS'CONFIG_GENERIC_HWEIGHT'
p2230
S'y'
sS'CONFIG_X86_CHECK_BIOS_CORRUPTION'
p2231
S'y'
sS'CONFIG_ARCH_HAS_SG_CHAIN'
p2232
S'y'
sS'CONFIG_ARCH_SUPPORTS_ATOMIC_RMW'
p2233
S'y'
sS'net.ipv4.conf.ens3.shared_media'
p2234
I1
sS'CONFIG_RT_MUTEXES'
p2235
S'y'
sS'net.core.rmem_default'
p2236
I212992
sS'vm.min_unmapped_ratio'
p2237
I1
sS'CONFIG_RFKILL_LEDS'
p2238
S'y'
sS'CONFIG_ARCH_USES_HIGH_VMA_FLAGS'
p2239
S'y'
sS'net.ipv4.conf.lo.drop_unicast_in_l2_multicast'
p2240
I0
sS'CONFIG_THIN_ARCHIVES'
p2241
S'y'
sS'net.ipv6.conf.all.regen_max_retry'
p2242
I3
sS'net.ipv6.conf.all.accept_ra_defrtr'
p2243
I1
sS'net.ipv4.conf.all.arp_notify'
p2244
I0
sS'CONFIG_VIRTIO_PCI'
p2245
S'y'
sS'kernel.kexec_load_disabled'
p2246
I0
sS'CONFIG_CRYPTO_MANAGER2'
p2247
S'y'
sS'CONFIG_NUMA'
p2248
S'y'
sS'fs.file-nr'
p2249
S'729\t0\t6578986'
p2250
sS'CONFIG_OPROFILE_NMI_TIMER'
p2251
S'y'
sS'fs.quota.cache_hits'
p2252
I0
sS'CONFIG_X86_SMAP'
p2253
S'y'
sS'CONFIG_PANIC_TIMEOUT'
p2254
I0
sS'CONFIG_SLUB_CPU_PARTIAL'
p2255
S'y'
sS'CONFIG_HAVE_MEMBLOCK_NODE_MAP'
p2256
S'y'
sS'CONFIG_SND_HDA_RECONFIG'
p2257
S'y'
sS'CONFIG_REGMAP_SPI'
p2258
S'y'
sS'CONFIG_ARCH_MAY_HAVE_PC_FDC'
p2259
S'y'
sS'net.ipv6.neigh.default.mcast_resolicit'
p2260
I0
sS'CONFIG_REGULATOR_TPS65217'
p2261
S'y'
sS'CONFIG_HIBERNATE_CALLBACKS'
p2262
S'y'
sS'CONFIG_CLKBLD_I8253'
p2263
S'y'
sS'kernel.sched_latency_ns'
p2264
I6000000
sS'CONFIG_NAMESPACES'
p2265
S'y'
sS'CONFIG_BPF_JIT'
p2266
S'y'
sS'CONFIG_DEFAULT_CUBIC'
p2267
S'y'
sS'kernel.numa_balancing'
p2268
I1
sS'kernel.hardlockup_panic'
p2269
I0
sS'CONFIG_NET_VENDOR_VIA'
p2270
S'y'
sS'CONFIG_PROC_CHILDREN'
p2271
S'y'
sS'CONFIG_PHYS_ADDR_T_64BIT'
p2272
S'y'
sS'net.ipv6.conf.all.accept_ra_rt_info_min_plen'
p2273
I0
sS'CONFIG_GENERIC_PENDING_IRQ'
p2274
S'y'
sS'net.ipv4.neigh.ens3.ucast_solicit'
p2275
I3
sS'CONFIG_KDB_CONTINUE_CATASTROPHIC'
p2276
I0
sS'CONFIG_FB_BOOT_VESA_SUPPORT'
p2277
S'y'
sS'kernel.perf_event_max_contexts_per_stack'
p2278
I8
sS'CONFIG_DYNAMIC_FTRACE'
p2279
S'y'
sS'net.ipv6.conf.ens3.dad_transmits'
p2280
I1
sS'net.ipv6.conf.lo.mtu'
p2281
I65536
sS'net.ipv6.conf.all.disable_ipv6'
p2282
I0
sS'net.ipv6.conf.ens3.router_solicitations'
p2283
S'-1'
p2284
sS'net.ipv6.conf.lo.keep_addr_on_down'
p2285
I0
sS'CONFIG_USB_EHCI_PCI'
p2286
S'y'
sS'CONFIG_KVM_ASYNC_PF'
p2287
S'y'
sS'net.ipv6.ip6frag_time'
p2288
I60
sS'net.ipv4.conf.all.log_martians'
p2289
I0
sS'fs.aio-max-nr'
p2290
I65536
sS'CONFIG_ARCH_SUPPORTS_INT128'
p2291
S'y'
sS'CONFIG_SECURITY'
p2292
S'y'
sS'CONFIG_SPI'
p2293
S'y'
sS'net.ipv4.tcp_orphan_retries'
p2294
I0
sS'net.ipv4.tcp_fin_timeout'
p2295
I60
sS'CONFIG_IDLE_PAGE_TRACKING'
p2296
S'y'
sS'CONFIG_CRYPTO_CRYPTD'
p2297
S'm'
sS'CONFIG_DEVPORT'
p2298
S'y'
sS'CONFIG_ARCH_PROC_KCORE_TEXT'
p2299
S'y'
sS'CONFIG_SPARSEMEM_VMEMMAP_ENABLE'
p2300
S'y'
sS'net.ipv4.tcp_recovery'
p2301
I1
sS'CONFIG_NET_CADENCE'
p2302
S'y'
sS'CONFIG_CRYPTO_AES_NI_INTEL'
p2303
S'm'
sS'CONFIG_SERIAL_8250_NR_UARTS'
p2304
I48
sS'net.ipv6.conf.ens3.forwarding'
p2305
I0
sS'CONFIG_NET_VENDOR_MYRI'
p2306
S'y'
sS'CONFIG_ARCH_SUPPORTS_NUMA_BALANCING'
p2307
S'y'
sS'CONFIG_TMPFS_XATTR'
p2308
S'y'
sS'net.ipv4.neigh.ens3.anycast_delay'
p2309
I100
sS'net.ipv6.conf.default.mldv1_unsolicited_report_interval'
p2310
I10000
sS'CONFIG_ARCH_HAS_STRICT_KERNEL_RWX'
p2311
S'y'
sS'net.ipv4.tcp_sack'
p2312
I1
sS'CONFIG_BLK_DEV_MD'
p2313
S'y'
sS'kernel.panic_on_rcu_stall'
p2314
I0
sS'net.ipv6.conf.ens3.mtu'
p2315
I1500
sS'CONFIG_PCI_DIRECT'
p2316
S'y'
sS'kernel.ns_last_pid'
p2317
I48141
sS'CONFIG_HAVE_KERNEL_GZIP'
p2318
S'y'
sS'CONFIG_MEGARAID_NEWGEN'
p2319
S'y'
sS'vm.overcommit_ratio'
p2320
I50
sS'CONFIG_MFD_TPS65217'
p2321
S'y'
sS'net.ipv4.conf.default.route_localnet'
p2322
I0
sS'CONFIG_ENCRYPTED_KEYS'
p2323
S'y'
sS'net.ipv6.neigh.ens3.retrans_time_ms'
p2324
I1000
sS'CONFIG_ACPI_PROCESSOR_CSTATE'
p2325
S'y'
sS'CONFIG_BLK_DEBUG_FS'
p2326
S'y'
sS'CONFIG_IPV6_PIMSM_V2'
p2327
S'y'
sS'CONFIG_INITRAMFS_SOURCE'
p2328
S'""'
p2329
sS'CONFIG_NET_VENDOR_TI'
p2330
S'y'
sS'CONFIG_HPET_MMAP_DEFAULT'
p2331
S'y'
sS'CONFIG_PROCESSOR_SELECT'
p2332
S'y'
sS'CONFIG_MQ_IOSCHED_KYBER'
p2333
S'y'
sS'user.max_cgroup_namespaces'
p2334
I257592
sS'dev.scsi.logging_level'
p2335
I0
sS'CONFIG_SLHC'
p2336
S'y'
sS'CONFIG_PREVENT_FIRMWARE_BUILD'
p2337
S'y'
sS'net.ipv4.conf.default.accept_redirects'
p2338
I1
sS'CONFIG_PWM_CRC'
p2339
S'y'
sS'CONFIG_ARCH_MMAP_RND_COMPAT_BITS_MIN'
p2340
I8
sS'kernel.hung_task_panic'
p2341
I0
sS'net.ipv4.tcp_retrans_collapse'
p2342
I1
sS'CONFIG_HAVE_KPROBES_ON_FTRACE'
p2343
S'y'
sS'fs.quota.writes'
p2344
I0
sS'CONFIG_ARCH_WANT_HUGE_PMD_SHARE'
p2345
S'y'
sS'CONFIG_CC_STACKPROTECTOR'
p2346
S'y'
sS'CONFIG_PROC_VMCORE'
p2347
S'y'
sS'CONFIG_GDB_SCRIPTS'
p2348
S'y'
sS'CONFIG_HAVE_CMPXCHG_DOUBLE'
p2349
S'y'
sS'CONFIG_FB_CFB_COPYAREA'
p2350
S'y'
sS'CONFIG_GENERIC_NET_UTILS'
p2351
S'y'
sS'CONFIG_SLAB_MERGE_DEFAULT'
p2352
S'y'
sS'CONFIG_MODULES'
p2353
S'y'
sS'CONFIG_PCI_DOMAINS'
p2354
S'y'
sS'CONFIG_HAVE_MMIOTRACE_SUPPORT'
p2355
S'y'
sS'CONFIG_WLAN_VENDOR_TI'
p2356
S'y'
sS'CONFIG_ARCH_CLOCKSOURCE_DATA'
p2357
S'y'
sS'vm.dirty_background_bytes'
p2358
I0
sS'kernel.hardlockup_all_cpu_backtrace'
p2359
I0
sS'net.ipv6.conf.ens3.accept_source_route'
p2360
I0
sS'net.ipv6.conf.default.router_solicitation_max_interval'
p2361
I3600
sS'CONFIG_MFD_LP8788'
p2362
S'y'
sS'CONFIG_FRONTSWAP'
p2363
S'y'
sS'CONFIG_NET_VENDOR_EMULEX'
p2364
S'y'
sS'kernel.watchdog'
p2365
I1
sS'CONFIG_HYPERVISOR_GUEST'
p2366
S'y'
sS'CONFIG_GART_IOMMU'
p2367
S'y'
sS'CONFIG_NET_VENDOR_3COM'
p2368
S'y'
sS'CONFIG_PCI_MSI'
p2369
S'y'
sS'net.ipv6.conf.ens3.max_desync_factor'
p2370
I600
sS'net.ipv4.icmp_ratelimit'
p2371
I1000
sS'CONFIG_ALLOW_DEV_COREDUMP'
p2372
S'y'
sS'net.ipv4.neigh.lo.app_solicit'
p2373
I0
sS'CONFIG_ARCH_USES_PG_UNCACHED'
p2374
S'y'
sS'CONFIG_UEVENT_HELPER'
p2375
S'y'
sS'CONFIG_IMA_DEFAULT_HASH_SHA1'
p2376
S'y'
sS'net.ipv6.conf.all.use_oif_addrs_only'
p2377
I0
sS'kernel.sched_tunable_scaling'
p2378
I1
sS'CONFIG_RD_LZMA'
p2379
S'y'
sS'CONFIG_PCI_REALLOC_ENABLE_AUTO'
p2380
S'y'
sS'CONFIG_WLAN_VENDOR_ATH'
p2381
S'y'
sS'CONFIG_PM_ADVANCED_DEBUG'
p2382
S'y'
sS'kernel.bootloader_version'
p2383
I2
sS'CONFIG_ARCH_MMAP_RND_COMPAT_BITS'
p2384
I8
sS'CONFIG_THERMAL_GOV_USER_SPACE'
p2385
S'y'
sS'net.ipv4.neigh.ens3.gc_stale_time'
p2386
I60
sS'fs.mount-max'
p2387
I100000
sS'net.ipv4.cipso_rbm_optfmt'
p2388
I0
sS'CONFIG_USERFAULTFD'
p2389
S'y'
sS'CONFIG_CHELSIO_T4'
p2390
S'm'
sS'kernel.sched_schedstats'
p2391
I0
sS'CONFIG_ACPI_BGRT'
p2392
S'y'
sS'net.ipv4.neigh.default.gc_thresh1'
p2393
I128
sS'net.ipv4.neigh.default.gc_thresh2'
p2394
I512
sS'net.ipv4.neigh.default.gc_thresh3'
p2395
I1024
sS'CONFIG_LZO_COMPRESS'
p2396
S'y'
sS'CONFIG_MOUSE_PS2_FOCALTECH'
p2397
S'y'
sS'net.ipv4.fwmark_reflect'
p2398
I0
sS'CONFIG_IMA'
p2399
S'y'
sS'CONFIG_CPU_IDLE_GOV_MENU'
p2400
S'y'
sS'vm.dirty_background_ratio'
p2401
I10
sS'CONFIG_USB_EHCI_HCD_PLATFORM'
p2402
S'y'
sS'CONFIG_SCHED_OMIT_FRAME_POINTER'
p2403
S'y'
sS'kernel.hostname'
p2404
S'nestedvm'
p2405
sS'CONFIG_PINCTRL_AMD'
p2406
S'y'
sS'CONFIG_UIO'
p2407
S'm'
sS'net.ipv4.conf.ens3.drop_unicast_in_l2_multicast'
p2408
I0
sS'kernel.poweroff_cmd'
p2409
S'/sbin/poweroff'
p2410
sS'net.ipv4.conf.lo.promote_secondaries'
p2411
I0
sS'CONFIG_IA32_EMULATION'
p2412
S'y'
sS'CONFIG_SRAM'
p2413
S'y'
sS'CONFIG_ARCH_HAVE_NMI_SAFE_CMPXCHG'
p2414
S'y'
sS'vm.min_free_kbytes'
p2415
I225280
sS'CONFIG_RING_BUFFER'
p2416
S'y'
sS'net.ipv4.route.min_pmtu'
p2417
I552
sS'CONFIG_HAVE_ARCH_SOFT_DIRTY'
p2418
S'y'
sS'kernel.perf_cpu_time_max_percent'
p2419
I25
sS'CONFIG_MD_RAID10'
p2420
S'm'
sS'CONFIG_PROC_KCORE'
p2421
S'y'
sS'dev.raid.speed_limit_min'
p2422
I1000
sS'kernel.sched_time_avg_ms'
p2423
I1000
sS'CONFIG_SECURITY_TOMOYO_MAX_ACCEPT_ENTRY'
p2424
I2048
sS'net.ipv4.route.gc_min_interval'
p2425
I0
sS'CONFIG_MAGIC_SYSRQ_DEFAULT_ENABLE'
p2426
S'0x1'
p2427
sS'CONFIG_DEVTMPFS_MOUNT'
p2428
S'y'
sS'net.ipv6.calipso_cache_enable'
p2429
I1
sS'CONFIG_PHYLIB'
p2430
S'y'
sS'net.ipv4.fib_multipath_use_neigh'
p2431
I0
sS'net.ipv4.icmp_msgs_per_sec'
p2432
I1000
sS'net.ipv4.tcp_retries1'
p2433
I3
sS'net.ipv4.tcp_retries2'
p2434
I15
sS'CONFIG_SECURITY_APPARMOR_HASH'
p2435
S'y'
sS'CONFIG_PGTABLE_LEVELS'
p2436
I4
sS'CONFIG_NET_VENDOR_ALACRITECH'
p2437
S'y'
sS'CONFIG_KPROBES_ON_FTRACE'
p2438
S'y'
sS'CONFIG_DNOTIFY'
p2439
S'y'
sS'CONFIG_GPIO_ACPI'
p2440
S'y'
sS'CONFIG_ACPI_TABLE_UPGRADE'
p2441
S'y'
sS'CONFIG_RELAY'
p2442
S'y'
sS'kernel.domainname'
p2443
S'(none)'
p2444
sS'CONFIG_FB_ASILIANT'
p2445
S'y'
sS'CONFIG_SYSV68_PARTITION'
p2446
S'y'
sS'CONFIG_HAVE_FTRACE_MCOUNT_RECORD'
p2447
S'y'
sS'CONFIG_XZ_DEC_ARMTHUMB'
p2448
S'y'
sS'CONFIG_VGA_ARB'
p2449
S'y'
sS'CONFIG_INTEGRITY_TRUSTED_KEYRING'
p2450
S'y'
sS'net.ipv4.igmp_max_msf'
p2451
I10
sS'vm.percpu_pagelist_fraction'
p2452
I0
sS'CONFIG_INLINE_WRITE_UNLOCK_IRQ'
p2453
S'y'
sS'CONFIG_NET_VENDOR_RDC'
p2454
S'y'
sS'CONFIG_MFD_MAX8925'
p2455
S'y'
sS'CONFIG_XZ_DEC_X86'
p2456
S'y'
sS'CONFIG_X86_X32'
p2457
S'y'
sS'vm.vfs_cache_pressure'
p2458
I100
sS'kernel.msg_next_id'
p2459
S'-1'
p2460
sS'net.ipv4.tcp_allowed_congestion_control'
p2461
S'cubic reno'
p2462
sS'kernel.sched_wakeup_granularity_ns'
p2463
I1000000
sS'net.ipv4.neigh.ens3.mcast_resolicit'
p2464
I0
sS'net.ipv6.conf.lo.disable_policy'
p2465
I0
sS'net.ipv6.conf.lo.addr_gen_mode'
p2466
I0
sS'CONFIG_X86_SPEEDSTEP_CENTRINO'
p2467
S'y'
sS'net.ipv4.route.gc_elasticity'
p2468
I8
sS'CONFIG_HAVE_PCSPKR_PLATFORM'
p2469
S'y'
sS'CONFIG_NET_VENDOR_SEEQ'
p2470
S'y'
sS'net.ipv4.tcp_syncookies'
p2471
I1
sS'CONFIG_ARCH_WANTS_THP_SWAP'
p2472
S'y'
sS'net.ipv6.neigh.lo.mcast_solicit'
p2473
I3
sS'CONFIG_IO_DELAY_TYPE_NONE'
p2474
I3
sS'CONFIG_IP_NF_IPTABLES'
p2475
S'm'
sS'CONFIG_EARLY_PRINTK_EFI'
p2476
S'y'
sS'CONFIG_PROBE_EVENTS'
p2477
S'y'
sS'CONFIG_WLAN_VENDOR_CISCO'
p2478
S'y'
sS'CONFIG_USB_DWC2_HOST'
p2479
S'y'
sS'CONFIG_FRAMEBUFFER_CONSOLE_ROTATION'
p2480
S'y'
sS'CONFIG_PROC_EVENTS'
p2481
S'y'
sS'CONFIG_TIMERFD'
p2482
S'y'
sS'net.ipv4.conf.ens3.mc_forwarding'
p2483
I0
sS'net.core.tstamp_allow_data'
p2484
I1
sS'CONFIG_SECURITY_TOMOYO_MAX_AUDIT_LOG'
p2485
I1024
sS'CONFIG_LOCALVERSION'
p2486
S'""'
p2487
sS'CONFIG_PWM'
p2488
S'y'
sS'net.unix.max_dgram_qlen'
p2489
I512
sS'CONFIG_TTY_PRINTK'
p2490
S'y'
sS'kernel.ctrl-alt-del'
p2491
I0
sS'net.ipv4.conf.default.rp_filter'
p2492
I1
sS'CONFIG_HAVE_MEMBLOCK'
p2493
S'y'
sS'net.ipv4.conf.lo.force_igmp_version'
p2494
I0
sS'CONFIG_IOMMU_SUPPORT'
p2495
S'y'
sS'CONFIG_TRACE_CLOCK'
p2496
S'y'
sS'CONFIG_SERIAL_EARLYCON'
p2497
S'y'
sg10
g11
sS'CONFIG_NET_VENDOR_CISCO'
p2498
S'y'
sS'CONFIG_BASE_FULL'
p2499
S'y'
sS'CONFIG_STP'
p2500
S'm'
sS'net.ipv4.conf.all.rp_filter'
p2501
I1
sS'CONFIG_ATA'
p2502
S'y'
sS'CONFIG_EVM_ATTR_FSUUID'
p2503
S'y'
sS'CONFIG_CRYPTO_GLUE_HELPER_X86'
p2504
S'm'
sS'net.ipv4.ip_early_demux'
p2505
I1
sS'CONFIG_BOOTPARAM_HARDLOCKUP_PANIC_VALUE'
p2506
I0
sS'CONFIG_SYSTEM_EXTRA_CERTIFICATE'
p2507
S'y'
sS'CONFIG_SYSTEM_TRUSTED_KEYS'
p2508
S'""'
p2509
sS'kernel.tracepoint_printk'
p2510
I0
sS'CONFIG_HOTPLUG_PCI'
p2511
S'y'
sS'CONFIG_SERIAL_MAX310X'
p2512
S'y'
sS'CONFIG_PNPACPI'
p2513
S'y'
sS'CONFIG_I2C_CHARDEV'
p2514
S'y'
sS'CONFIG_INPUT_TOUCHSCREEN'
p2515
S'y'
sS'CONFIG_HAVE_ARCH_TRACEHOOK'
p2516
S'y'
sS'vm.numa_zonelist_order'
p2517
S'Node'
p2518
sS'CONFIG_FANOTIFY'
p2519
S'y'
sS'vm.memory_failure_recovery'
p2520
I1
sS'CONFIG_ACPI_HED'
p2521
S'y'
sS'net.ipv6.neigh.lo.unres_qlen'
p2522
I101
sS'CONFIG_X86_AMD_PLATFORM_DEVICE'
p2523
S'y'
sS'CONFIG_FONT_8x16'
p2524
S'y'
sS'net.ipv6.mld_max_msf'
p2525
I64
sS'net.ipv4.neigh.default.proxy_delay'
p2526
I80
sS'net.ipv4.conf.default.bootp_relay'
p2527
I0
sS'CONFIG_USB_XHCI_PCI'
p2528
S'y'
sS'kernel.numa_balancing_scan_period_min_ms'
p2529
I1000
sS'net.ipv4.tcp_early_retrans'
p2530
I3
sS'CONFIG_NET_VENDOR_SUN'
p2531
S'y'
sS'CONFIG_PSTORE'
p2532
S'y'
sS'net.ipv6.conf.default.ndisc_notify'
p2533
I0
sS'CONFIG_DEFAULT_SECURITY'
p2534
S'"apparmor"'
p2535
sS'net.ipv4.conf.ens3.route_localnet'
p2536
I0
sS'net.ipv4.conf.default.igmpv3_unsolicited_report_interval'
p2537
I1000
sS'CONFIG_CRYPTO_AEAD'
p2538
S'y'
sS'net.core.warnings'
p2539
I0
sS'CONFIG_HPET_TIMER'
p2540
S'y'
sS'net.ipv6.conf.default.accept_source_route'
p2541
I0
sS'CONFIG_NETFILTER_INGRESS'
p2542
S'y'
sS'kernel.sched_cfs_bandwidth_slice_us'
p2543
I5000
sS'net.ipv6.conf.default.drop_unsolicited_na'
p2544
I0
sS'CONFIG_SECURITY_NETWORK'
p2545
S'y'
sS'CONFIG_TRACER_SNAPSHOT'
p2546
S'y'
sS'net.core.message_cost'
p2547
I5
sS'net.ipv6.conf.all.router_solicitation_interval'
p2548
I4
sS'net.ipv6.neigh.lo.retrans_time_ms'
p2549
I1000
sS'vm.stat_interval'
p2550
I1
sS'CONFIG_CGROUP_CPUACCT'
p2551
S'y'
sS'CONFIG_INPUT_JOYSTICK'
p2552
S'y'
sS'net.ipv4.conf.all.igmpv2_unsolicited_report_interval'
p2553
I10000
sS'net.ipv4.conf.all.accept_local'
p2554
I0
sS'CONFIG_I8253_LOCK'
p2555
S'y'
sS'CONFIG_MAC_EMUMOUSEBTN'
p2556
S'm'
sS'CONFIG_HIBERNATION'
p2557
S'y'
sS'net.ipv4.udp_mem'
p2558
S'1537185\t2049582\t3074370'
p2559
sS'CONFIG_XPS'
p2560
S'y'
sS'CONFIG_WLAN_VENDOR_BROADCOM'
p2561
S'y'
sS'CONFIG_SND_JACK_INPUT_DEV'
p2562
S'y'
sS'CONFIG_INPUT_MOUSE'
p2563
S'y'
sS'CONFIG_MFD_WM8350_I2C'
p2564
S'y'
sS'net.ipv6.neigh.default.delay_first_probe_time'
p2565
I5
sS'CONFIG_SND_HDA_PREALLOC_SIZE'
p2566
I64
sS'CONFIG_USB_SUPPORT'
p2567
S'y'
sS'CONFIG_IOSF_MBI_DEBUG'
p2568
S'y'
sS'fs.leases-enable'
p2569
I1
sS'CONFIG_ARCH_MEMORY_PROBE'
p2570
S'y'
sS'net.ipv6.conf.all.temp_prefered_lft'
p2571
I86400
sS'CONFIG_GENERIC_IO'
p2572
S'y'
sS'CONFIG_HAVE_IRQ_TIME_ACCOUNTING'
p2573
S'y'
sS'CONFIG_AUDIT_ARCH'
p2574
S'y'
sS'fs.aio-nr'
p2575
I0
sS'CONFIG_THERMAL_HWMON'
p2576
S'y'
sS'net.ipv4.route.max_size'
p2577
I2147483647
sS'kernel.watchdog_thresh'
p2578
I10
sS'CONFIG_HZ'
p2579
I250
sS'CONFIG_X86_DEBUG_FPU'
p2580
S'y'
sS'CONFIG_MPILIB'
p2581
S'y'
sS'CONFIG_INTEGRITY_AUDIT'
p2582
S'y'
sS'CONFIG_GPIO_SYSFS'
p2583
S'y'
sS'CONFIG_NET_VENDOR_SMSC'
p2584
S'y'
sS'CONFIG_BALLOON_COMPACTION'
p2585
S'y'
sS'net.ipv6.conf.all.accept_redirects'
p2586
I1
sS'CONFIG_KEYS'
p2587
S'y'
sS'CONFIG_SGI_PARTITION'
p2588
S'y'
sS'CONFIG_KVM_VFIO'
p2589
S'y'
sS'net.ipv4.conf.lo.disable_policy'
p2590
I1
sS'kernel.seccomp.actions_avail'
p2591
S'kill_process kill_thread trap errno trace log allow'
p2592
sS'CONFIG_MEMORY_HOTREMOVE'
p2593
S'y'
sS'CONFIG_BINFMT_ELF'
p2594
S'y'
sS'net.ipv4.tcp_rfc1337'
p2595
I0
sS'kernel.sysrq'
p2596
I176
sS'CONFIG_TASK_IO_ACCOUNTING'
p2597
S'y'
sS'CONFIG_SATA_PMP'
p2598
S'y'
sa(dp2599
g10
g11
sS'fstype'
p2600
S'tmpfs-separate'
p2601
sg3
(lp2602
S'FileSystem'
p2603
ag6
ag14
aS'object'
p2604
asg8
S'FileSystem.host-192.168.123.30.fstype-tmpfs-separate'
p2605
sa(dp2606
S'topDir'
p2607
S'~/vm-scalability/bench/tmp/linux-3.18'
p2608
sS'excludes'
p2609
(lp2610
S'*/.git'
p2611
asg10
g11
sg3
(lp2612
S'PrefetchDir'
p2613
ag6
ag14
aS'object'
p2614
asg8
S'PrefetchDir.topDir-~/vm-scalability/bench/tmp/linux-3.18.host-192.168.123.30'
p2615
sa(dp2616
g8
S'SetCPUs.host-192.168.123.30'
p2617
sS'seq'
p2618
g2618
sg10
g11
sS'hotplug'
p2619
I01
sg3
(lp2620
S'SetCPUs'
p2621
ag6
ag14
aS'object'
p2622
asS'num'
p2623
I1
sa(dp2624
g10
g11
sg3
(lp2625
S'SystemMonitor'
p2626
ag6
ag14
aS'object'
p2627
asg8
S'SystemMonitor.host-192.168.123.30'
p2628
sa(dp2629
S'real'
p2630
F852.89099999999996
sS'time.iowait'
p2631
F0.02
sg8
S'GmakeLoad.trial-0.host-192.168.123.30'
p2632
sS'time.real'
p2633
F852.89099999999996
sS'time.idle'
p2634
F0.16137599999999999
sS'time.sys'
p2635
F92.909999999999997
sg3
(lp2636
S'GmakeLoad'
p2637
ag6
aS'ResultsProvider'
p2638
ag14
aS'object'
p2639
asS'objPath'
p2640
S'/tmp/mosbench/tmpfs-separate/0'
p2641
sS'units'
p2642
S'builds'
p2643
sg10
g11
sS'result'
p2644
F1
sS'srcPath'
p2645
g2608
sS'cores'
p2646
I1
sS'time.steal'
p2647
F0.14999999999999999
sS'time.irq'
p2648
F0
sS'time.softirq'
p2649
F0
sS'time.nice'
p2650
F0
sS'unit'
p2651
S'build'
p2652
sS'time.user'
p2653
F759.82000000000005
sa.