(lp1
(dp2
S'classNames'
p3
(lp4
S'ResultPath'
p5
aS'Task'
p6
aS'object'
p7
asS'name'
p8
g5
sa(dp9
S'host'
p10
S'192.168.123.30'
p11
sg3
(lp12
S'Host'
p13
ag6
aS'SourceFileProvider'
p14
aS'object'
p15
asg8
S'Host.host-192.168.123.30'
p16
sa(dp17
S'CONFIG_USB_OHCI_HCD_PLATFORM'
p18
S'y'
sS'CONFIG_DEFAULT_IO_DELAY_TYPE'
p19
I1
sS'CONFIG_DNS_RESOLVER'
p20
S'y'
sS'net.ipv6.conf.lo.suppress_frag_ndisc'
p21
I1
sS'CONFIG_SGI_PARTITION'
p22
S'y'
sS'CONFIG_GENERIC_STRNCPY_FROM_USER'
p23
S'y'
sS'net.netfilter.nf_log_all_netns'
p24
I0
sS'kernel.sched_domain.cpu1.domain1.forkexec_idx'
p25
I0
sS'CONFIG_KVM_SCHEDACT'
p26
S'y'
sS'CONFIG_WLAN_VENDOR_RALINK'
p27
S'y'
sS'CONFIG_HAVE_DYNAMIC_FTRACE_WITH_REGS'
p28
S'y'
sS'kernel.sched_domain.cpu5.domain0.newidle_idx'
p29
I0
sS'net.ipv4.conf.all.tag'
p30
I0
sS'CONFIG_TOUCHSCREEN_ELAN'
p31
S'y'
sS'kernel.sched_domain.cpu4.domain1.idle_idx'
p32
I2
sS'CONFIG_EVENT_TRACING'
p33
S'y'
sS'CONFIG_LIVEPATCH'
p34
S'y'
sS'CONFIG_LEDS_TRIGGER_CPU'
p35
S'y'
sS'CONFIG_PCIEPORTBUS'
p36
S'y'
sS'CONFIG_INIT_ENV_ARG_LIMIT'
p37
I32
sS'net.ipv6.conf.default.accept_ra_min_hop_limit'
p38
I1
sS'CONFIG_LEDS_CLASS'
p39
S'y'
sS'kernel.sched_domain.cpu2.domain0.newidle_idx'
p40
I0
sS'net.ipv4.neigh.default.proxy_qlen'
p41
I64
sS'CONFIG_PMC_ATOM'
p42
S'y'
sS'CONFIG_MANDATORY_FILE_LOCKING'
p43
S'y'
sS'CONFIG_NLS_CODEPAGE_437'
p44
S'y'
sS'fs.quota.free_dquots'
p45
I0
sS'CONFIG_PRINTK_NMI'
p46
S'y'
sS'CONFIG_NETDEVICES'
p47
S'y'
sS'CONFIG_HAVE_DYNAMIC_FTRACE'
p48
S'y'
sS'CONFIG_PINCTRL_SX150X'
p49
S'y'
sS'CONFIG_NET_SCHED'
p50
S'y'
sS'CONFIG_UNIXWARE_DISKLABEL'
p51
S'y'
sS'CONFIG_INLINE_WRITE_UNLOCK'
p52
S'y'
sS'CONFIG_ACPI_REV_OVERRIDE_POSSIBLE'
p53
S'y'
sS'CONFIG_HAVE_ARCH_AUDITSYSCALL'
p54
S'y'
sS'kernel.sched_domain.cpu11.domain0.flags'
p55
I4143
sS'CONFIG_NET_VENDOR_RENESAS'
p56
S'y'
sS'CONFIG_FIRMWARE_EDID'
p57
S'y'
sS'CONFIG_CGROUPS'
p58
S'y'
sS'net.ipv6.conf.ens3.regen_max_retry'
p59
I3
sS'net.ipv4.conf.lo.medium_id'
p60
I0
sS'CONFIG_DEFAULT_MMAP_MIN_ADDR'
p61
I65536
sS'kernel.sched_domain.cpu30.domain0.busy_factor'
p62
I32
sS'CONFIG_X86_DEBUGCTLMSR'
p63
S'y'
sS'CONFIG_ARCH_HIBERNATION_HEADER'
p64
S'y'
sS'net.ipv4.tcp_synack_retries'
p65
I5
sS'CONFIG_SECURITY_YAMA'
p66
S'y'
sS'kernel.sched_domain.cpu18.domain0.idle_idx'
p67
I1
sS'CONFIG_CRYPTO_ECB'
p68
S'y'
sS'CONFIG_ACPI_HOTPLUG_MEMORY'
p69
S'y'
sS'CONFIG_SELECT_MEMORY_MODEL'
p70
S'y'
sS'net.ipv4.tcp_notsent_lowat'
p71
I4294967295
sS'kernel.sched_domain.cpu17.domain0.name'
p72
S'DIE'
p73
sS'CONFIG_FS_DAX_PMD'
p74
S'y'
sS'CONFIG_X86_LOCAL_APIC'
p75
S'y'
sS'CONFIG_GENERIC_SMP_IDLE_THREAD'
p76
S'y'
sS'kernel.sched_domain.cpu18.domain0.imbalance_pct'
p77
I125
sS'CONFIG_GENERIC_CLOCKEVENTS_MIN_ADJUST'
p78
S'y'
sS'net.ipv6.conf.all.disable_policy'
p79
I0
sS'kernel.sched_domain.cpu27.domain1.forkexec_idx'
p80
I0
sS'kernel.sched_domain.cpu33.domain1.flags'
p81
I25647
sS'kernel.sched_domain.cpu29.domain1.busy_idx'
p82
I3
sS'CONFIG_TASK_XACCT'
p83
S'y'
sS'CONFIG_KEXEC_BZIMAGE_VERIFY_SIG'
p84
S'y'
sS'CONFIG_EVENTFD'
p85
S'y'
sS'CONFIG_FTRACE_MCOUNT_RECORD'
p86
S'y'
sS'CONFIG_HAVE_PERF_EVENTS'
p87
S'y'
sS'CONFIG_SND_HDA_CORE'
p88
S'm'
sS'CONFIG_CHECKPOINT_RESTORE'
p89
S'y'
sS'CONFIG_PACKET'
p90
S'y'
sS'kernel.sched_domain.cpu28.domain0.min_interval'
p91
I12
sS'net.ipv6.conf.ens3.use_oif_addrs_only'
p92
I0
sS'kernel.sched_domain.cpu10.domain0.name'
p93
S'DIE'
p94
sS'net.ipv6.conf.all.router_solicitation_max_interval'
p95
I3600
sS'net.ipv4.neigh.lo.proxy_delay'
p96
I80
sS'CONFIG_PARPORT_PC'
p97
S'm'
sS'CONFIG_NLATTR'
p98
S'y'
sS'CONFIG_AGP'
p99
S'y'
sS'kernel.sched_domain.cpu30.domain0.imbalance_pct'
p100
I125
sS'CONFIG_ARCH_HAS_GCOV_PROFILE_ALL'
p101
S'y'
sS'net.ipv6.conf.default.addr_gen_mode'
p102
I0
sS'kernel.hung_task_check_count'
p103
I4194304
sS'CONFIG_INFINIBAND_ADDR_TRANS'
p104
S'y'
sS'CONFIG_CRYPTO_SHA512'
p105
S'y'
sS'CONFIG_WLAN_VENDOR_INTERSIL'
p106
S'y'
sS'CONFIG_CRYPTO_NULL'
p107
S'y'
sS'net.ipv6.conf.ens3.force_mld_version'
p108
I0
sS'CONFIG_INTEGRITY_ASYMMETRIC_KEYS'
p109
S'y'
sS'CONFIG_BLK_MQ_RDMA'
p110
S'y'
sS'CONFIG_FRAME_POINTER_UNWINDER'
p111
S'y'
sS'CONFIG_HAVE_IRQ_EXIT_ON_IRQ_STACK'
p112
S'y'
sS'CONFIG_CRYPTO_AES_NI_INTEL'
p113
S'm'
sS'CONFIG_MOUSE_PS2'
p114
S'm'
sS'CONFIG_EFI_PARTITION'
p115
S'y'
sS'kernel.sched_domain.cpu13.domain1.busy_factor'
p116
I32
sS'CONFIG_NODES_SPAN_OTHER_NODES'
p117
S'y'
sS'CONFIG_FUNCTION_GRAPH_TRACER'
p118
S'y'
sS'net.ipv6.conf.all.seg6_enabled'
p119
I0
sS'CONFIG_IPV6_MROUTE'
p120
S'y'
sS'kernel.sched_domain.cpu2.domain0.busy_idx'
p121
I2
sS'net.ipv4.conf.default.disable_policy'
p122
I0
sS'CONFIG_FHANDLE'
p123
S'y'
sS'CONFIG_HAVE_FUNCTION_GRAPH_TRACER'
p124
S'y'
sS'CONFIG_FS_IOMAP'
p125
S'y'
sS'kernel.sched_domain.cpu17.domain0.flags'
p126
I4143
sS'CONFIG_CRYPTO_ACOMP2'
p127
S'y'
sS'CONFIG_HAVE_KERNEL_LZMA'
p128
S'y'
sS'CONFIG_ARCH_HAS_DEBUG_VIRTUAL'
p129
S'y'
sS'net.ipv6.neigh.default.unres_qlen_bytes'
p130
I212992
sS'kernel.sem_next_id'
p131
S'-1'
p132
sS'kernel.random.write_wakeup_threshold'
p133
I896
sS'net.ipv6.conf.lo.use_oif_addrs_only'
p134
I0
sS'net.ipv6.conf.ens3.accept_ra_defrtr'
p135
I1
sS'kernel.sched_domain.cpu3.domain0.max_newidle_lb_cost'
p136
I92050
sS'net.ipv4.neigh.ens3.proxy_delay'
p137
I80
sS'net.ipv4.tcp_fastopen'
p138
I1
sS'kernel.sched_domain.cpu24.domain0.idle_idx'
p139
I1
sS'CONFIG_DEFAULT_IOSCHED'
p140
S'"deadline"'
p141
sS'kernel.sched_domain.cpu22.domain0.flags'
p142
I4143
sS'CONFIG_FUSION_LOGGING'
p143
S'y'
sS'kernel.sched_domain.cpu17.domain1.idle_idx'
p144
I2
sS'kernel.sched_domain.cpu13.domain1.wake_idx'
p145
I0
sS'CONFIG_NET_PACKET_ENGINE'
p146
S'y'
sS'CONFIG_DQL'
p147
S'y'
sS'kernel.sched_domain.cpu22.domain0.min_interval'
p148
I24
sS'net.ipv6.conf.lo.force_tllao'
p149
I0
sS'kernel.sched_domain.cpu7.domain1.busy_idx'
p150
I3
sS'CONFIG_IP_ADVANCED_ROUTER'
p151
S'y'
sS'CONFIG_SERIAL_SCCNXP_CONSOLE'
p152
S'y'
sS'kernel.modprobe'
p153
S'/sbin/modprobe'
p154
sS'CONFIG_NOP_USB_XCEIV'
p155
S'y'
sS'kernel.sched_domain.cpu16.domain1.max_interval'
p156
I72
sS'kernel.print-fatal-signals'
p157
I0
sS'CONFIG_INET'
p158
S'y'
sS'net.ipv4.tcp_probe_interval'
p159
I600
sS'kernel.sched_domain.cpu10.domain0.max_newidle_lb_cost'
p160
I20667
sS'CONFIG_EXTRA_FIRMWARE'
p161
S'""'
p162
sS'CONFIG_I2C_DESIGNWARE_CORE'
p163
S'y'
sS'net.ipv4.conf.lo.arp_accept'
p164
I0
sS'CONFIG_REGMAP_MMIO'
p165
S'y'
sS'kernel.sched_domain.cpu3.domain1.flags'
p166
I25647
sS'CONFIG_SND_HDA_POWER_SAVE_DEFAULT'
p167
I0
sS'kernel.sched_domain.cpu19.domain1.wake_idx'
p168
I0
sS'kernel.sched_domain.cpu0.domain0.cache_nice_tries'
p169
I1
sS'net.ipv6.conf.lo.forwarding'
p170
I0
sS'CONFIG_NET_VENDOR_SOLARFLARE'
p171
S'y'
sS'CONFIG_FIXED_PHY'
p172
S'y'
sS'kernel.sched_domain.cpu35.domain1.forkexec_idx'
p173
I0
sS'net.ipv4.conf.default.shared_media'
p174
I1
sS'CONFIG_NET_VENDOR_TEHUTI'
p175
S'y'
sS'fs.inode-nr'
p176
S'100536\t517'
p177
sS'CONFIG_MFD_DA9063'
p178
S'y'
sS'CONFIG_CRYPTO'
p179
S'y'
sS'CONFIG_WLAN_VENDOR_ZYDAS'
p180
S'y'
sS'CONFIG_STRICT_KERNEL_RWX'
p181
S'y'
sS'net.ipv6.mld_qrv'
p182
I2
sS'CONFIG_SND_HDA_PATCH_LOADER'
p183
S'y'
sS'net.ipv4.conf.all.disable_policy'
p184
I0
sS'kernel.sched_domain.cpu3.domain1.cache_nice_tries'
p185
I2
sS'CONFIG_PPP_FILTER'
p186
S'y'
sS'CONFIG_CPU_FREQ'
p187
S'y'
sS'net.core.netdev_tstamp_prequeue'
p188
I1
sS'kernel.sched_domain.cpu18.domain0.forkexec_idx'
p189
I0
sS'net.ipv6.conf.all.accept_dad'
p190
I1
sS'kernel.sched_domain.cpu15.domain1.busy_idx'
p191
I3
sS'CONFIG_DCB'
p192
S'y'
sS'kernel.sched_domain.cpu4.domain1.max_newidle_lb_cost'
p193
I37808
sS'kernel.panic_on_oops'
p194
I0
sS'kernel.sched_domain.cpu10.domain0.imbalance_pct'
p195
I125
sS'kernel.sched_domain.cpu21.domain0.max_interval'
p196
I48
sS'CONFIG_MEMORY_HOTPLUG'
p197
S'y'
sS'dev.cdrom.debug'
p198
I0
sS'CONFIG_SUSPEND'
p199
S'y'
sS'kernel.sched_domain.cpu15.domain0.forkexec_idx'
p200
I0
sS'kernel.sched_domain.cpu18.domain1.wake_idx'
p201
I0
sS'kernel.sched_domain.cpu29.domain0.busy_idx'
p202
I2
sS'CONFIG_UNIX98_PTYS'
p203
S'y'
sS'CONFIG_MOUSE_PS2_SYNAPTICS'
p204
S'y'
sS'kernel.sched_domain.cpu23.domain0.wake_idx'
p205
I0
sS'CONFIG_SECURITY_SELINUX'
p206
S'y'
sS'kernel.sched_domain.cpu22.domain1.flags'
p207
I25647
sS'kernel.sched_domain.cpu11.domain0.max_interval'
p208
I48
sS'kernel.sched_domain.cpu30.domain1.busy_factor'
p209
I32
sS'CONFIG_SCSI_LOWLEVEL'
p210
S'y'
sS'CONFIG_GENERIC_MSI_IRQ'
p211
S'y'
sS'kernel.ngroups_max'
p212
I65536
sS'CONFIG_MTRR_SANITIZER'
p213
S'y'
sS'CONFIG_EXTCON'
p214
S'y'
sS'CONFIG_PM_DEVFREQ_EVENT'
p215
S'y'
sS'CONFIG_POWER_RESET_RESTART'
p216
S'y'
sS'kernel.sched_domain.cpu28.domain1.name'
p217
S'NUMA'
p218
sS'kernel.max_lock_depth'
p219
I1024
sS'kernel.sched_domain.cpu33.domain0.cache_nice_tries'
p220
I1
sS'kernel.sched_domain.cpu5.domain1.flags'
p221
I25647
sS'CONFIG_ZPOOL'
p222
S'y'
sS'CONFIG_PATA_SIS'
p223
S'y'
sS'CONFIG_GENERIC_ALLOCATOR'
p224
S'y'
sS'kernel.sched_domain.cpu18.domain1.forkexec_idx'
p225
I0
sS'kernel.sched_domain.cpu0.domain1.max_interval'
p226
I72
sS'CONFIG_MESSAGE_LOGLEVEL_DEFAULT'
p227
I4
sS'CONFIG_ARCH_HAS_UACCESS_FLUSHCACHE'
p228
S'y'
sS'CONFIG_SYN_COOKIES'
p229
S'y'
sS'net.ipv6.conf.default.max_addresses'
p230
I16
sS'net.ipv4.inet_peer_maxttl'
p231
I600
sS'CONFIG_CGROUP_WRITEBACK'
p232
S'y'
sS'CONFIG_X86_ACPI_CPUFREQ'
p233
S'y'
sS'CONFIG_DUMMY_CONSOLE'
p234
S'y'
sS'kernel.sched_domain.cpu7.domain1.max_newidle_lb_cost'
p235
I11678
sS'kernel.sched_domain.cpu23.domain0.name'
p236
S'DIE'
p237
sS'CONFIG_RWSEM_SPIN_ON_OWNER'
p238
S'y'
sS'CONFIG_SECURITY_APPARMOR_BOOTPARAM_VALUE'
p239
I1
sS'vm.dirtytime_expire_seconds'
p240
I43200
sS'net.ipv4.tcp_challenge_ack_limit'
p241
I1000
sS'CONFIG_HOTPLUG_PCI_ACPI'
p242
S'y'
sS'CONFIG_KARMA_PARTITION'
p243
S'y'
sS'CONFIG_INFINIBAND_ISER'
p244
S'm'
sS'kernel.sched_domain.cpu35.domain1.cache_nice_tries'
p245
I2
sS'vm.min_slab_ratio'
p246
I5
sS'CONFIG_CLZ_TAB'
p247
S'y'
sS'kernel.sched_domain.cpu21.domain1.min_interval'
p248
I36
sS'CONFIG_X86_THERMAL_VECTOR'
p249
S'y'
sS'CONFIG_RCU_CPU_STALL_TIMEOUT'
p250
I60
sS'kernel.sched_domain.cpu23.domain1.min_interval'
p251
I36
sS'CONFIG_BOOTPARAM_SOFTLOCKUP_PANIC_VALUE'
p252
I0
sS'CONFIG_PM_WAKELOCKS'
p253
S'y'
sS'CONFIG_GPIOLIB_IRQCHIP'
p254
S'y'
sS'kernel.sched_domain.cpu1.domain0.idle_idx'
p255
I1
sS'CONFIG_MTRR_SANITIZER_ENABLE_DEFAULT'
p256
I1
sS'CONFIG_BLK_DEV_INTEGRITY'
p257
S'y'
sS'kernel.sched_domain.cpu11.domain0.busy_idx'
p258
I2
sS'CONFIG_ARCH_HAS_HMM'
p259
S'y'
sS'CONFIG_SQUASHFS_FILE_DIRECT'
p260
S'y'
sS'CONFIG_MODULE_SIG_KEY'
p261
S'"certs/signing_key.pem"'
p262
sS'CONFIG_NETWORK_FILESYSTEMS'
p263
S'y'
sS'CONFIG_SERIAL_8250_RSA'
p264
S'y'
sS'net.ipv4.tcp_min_tso_segs'
p265
I2
sS'CONFIG_SCHED_STACK_END_CHECK'
p266
S'y'
sS'CONFIG_LEGACY_VSYSCALL_EMULATE'
p267
S'y'
sS'CONFIG_POWERCAP'
p268
S'y'
sS'CONFIG_UNUSED_SYMBOLS'
p269
S'y'
sS'CONFIG_PM_WAKELOCKS_LIMIT'
p270
I100
sS'CONFIG_FB_TILEBLITTING'
p271
S'y'
sS'kernel.sched_domain.cpu15.domain1.max_newidle_lb_cost'
p272
I18422
sS'CONFIG_INTEGRITY'
p273
S'y'
sS'kernel.sched_domain.cpu6.domain1.cache_nice_tries'
p274
I2
sS'kernel.sched_domain.cpu24.domain0.name'
p275
S'DIE'
p276
sS'kernel.sched_domain.cpu23.domain0.max_newidle_lb_cost'
p277
I52834
sS'fs.mqueue.msg_default'
p278
I10
sS'CONFIG_MD_LINEAR'
p279
S'm'
sS'net.ipv4.tcp_max_orphans'
p280
I262144
sS'kernel.sched_domain.cpu6.domain1.flags'
p281
I25647
sS'kernel.sched_domain.cpu15.domain1.cache_nice_tries'
p282
I2
sS'CONFIG_MFD_MAX77843'
p283
S'y'
sS'CONFIG_CONSOLE_TRANSLATIONS'
p284
S'y'
sS'CONFIG_SLABINFO'
p285
S'y'
sS'kernel.perf_event_max_stack'
p286
I127
sS'CONFIG_PCI'
p287
S'y'
sS'CONFIG_GENERIC_MSI_IRQ_DOMAIN'
p288
S'y'
sS'kernel.sched_domain.cpu4.domain0.name'
p289
S'DIE'
p290
sS'kernel.sched_domain.cpu33.domain0.busy_idx'
p291
I2
sS'CONFIG_SYSTEM_BLACKLIST_KEYRING'
p292
S'y'
sS'kernel.sched_domain.cpu6.domain0.wake_idx'
p293
I0
sS'CONFIG_IP_ROUTE_MULTIPATH'
p294
S'y'
sS'CONFIG_SCHED_SMT'
p295
S'y'
sS'kernel.sched_domain.cpu29.domain0.max_interval'
p296
I24
sS'net.ipv4.tcp_adv_win_scale'
p297
I1
sS'CONFIG_INTEL_IDLE'
p298
S'y'
sS'CONFIG_ASYNC_CORE'
p299
S'm'
sS'net.ipv4.udp_rmem_min'
p300
I4096
sS'CONFIG_FIRMWARE_IN_KERNEL'
p301
S'y'
sS'CONFIG_IP6_NF_FILTER'
p302
S'm'
sS'CONFIG_GPIO_TPS65910'
p303
S'y'
sS'CONFIG_CRC_CCITT'
p304
S'y'
sS'CONFIG_PERSISTENT_KEYRINGS'
p305
S'y'
sS'CONFIG_MOUSE_PS2_LIFEBOOK'
p306
S'y'
sS'CONFIG_ARCH_WANT_COMPAT_IPC_PARSE_VERSION'
p307
S'y'
sS'kernel.sched_domain.cpu29.domain0.name'
p308
S'DIE'
p309
sS'kernel.sched_domain.cpu11.domain1.imbalance_pct'
p310
I125
sS'kernel.sched_domain.cpu0.domain1.busy_factor'
p311
I32
sS'kernel.sched_domain.cpu7.domain1.min_interval'
p312
I36
sS'net.ipv6.conf.ens3.addr_gen_mode'
p313
I0
sS'CONFIG_ASYNC_RAID6_RECOV'
p314
S'm'
sS'net.ipv6.conf.default.ignore_routes_with_linkdown'
p315
I0
sS'kernel.sched_domain.cpu8.domain1.imbalance_pct'
p316
I125
sS'CONFIG_BLK_DEV_SR'
p317
S'y'
sS'kernel.sched_domain.cpu10.domain1.imbalance_pct'
p318
I125
sS'net.ipv6.conf.lo.accept_ra_from_local'
p319
I0
sS'CONFIG_EXPORTFS'
p320
S'y'
sS'CONFIG_CRYPTO_CRC32_PCLMUL'
p321
S'm'
sS'CONFIG_INPUT'
p322
S'y'
sS'CONFIG_THERMAL_DEFAULT_GOV_STEP_WISE'
p323
S'y'
sS'fs.suid_dumpable'
p324
I2
sS'CONFIG_AIO'
p325
S'y'
sS'kernel.sched_domain.cpu10.domain1.flags'
p326
I25647
sS'kernel.sched_domain.cpu33.domain1.name'
p327
S'NUMA'
p328
sS'CONFIG_SERIAL_8250_DMA'
p329
S'y'
sS'kernel.sched_domain.cpu8.domain0.busy_factor'
p330
I32
sS'CONFIG_SCHED_AUTOGROUP'
p331
S'y'
sS'kernel.sched_domain.cpu6.domain1.max_interval'
p332
I72
sS'net.core.optmem_max'
p333
I20480
sS'user.max_inotify_watches'
p334
I8192
sS'vm.nr_overcommit_hugepages'
p335
I0
sS'net.ipv6.conf.default.accept_ra_defrtr'
p336
I1
sS'net.ipv6.conf.default.accept_ra_rt_info_min_plen'
p337
I0
sS'kernel.sched_domain.cpu7.domain0.flags'
p338
I4143
sS'kernel.sched_domain.cpu29.domain1.max_newidle_lb_cost'
p339
I57705
sS'CONFIG_NET_EMATCH'
p340
S'y'
sS'kernel.sched_domain.cpu16.domain1.cache_nice_tries'
p341
I2
sS'CONFIG_CPU_SUP_CENTAUR'
p342
S'y'
sS'kernel.sched_domain.cpu3.domain0.cache_nice_tries'
p343
I1
sS'kernel.sched_domain.cpu20.domain1.imbalance_pct'
p344
I125
sS'net.core.message_burst'
p345
I10
sS'CONFIG_SERIAL_NONSTANDARD'
p346
S'y'
sS'kernel.sched_domain.cpu14.domain0.idle_idx'
p347
I1
sS'user.max_uts_namespaces'
p348
I257513
sS'net.ipv6.route.gc_interval'
p349
I30
sS'CONFIG_TRACER_MAX_TRACE'
p350
S'y'
sS'CONFIG_VIRT_DRIVERS'
p351
S'y'
sS'net.ipv6.bindv6only'
p352
I0
sS'kernel.sched_domain.cpu23.domain0.idle_idx'
p353
I1
sS'kernel.sched_domain.cpu31.domain0.cache_nice_tries'
p354
I1
sS'net.ipv6.conf.ens3.accept_ra_rtr_pref'
p355
I1
sS'CONFIG_SUN_PARTITION'
p356
S'y'
sS'kernel.sched_domain.cpu35.domain1.newidle_idx'
p357
I0
sS'kernel.sched_domain.cpu32.domain0.busy_factor'
p358
I32
sS'kernel.sched_domain.cpu30.domain0.busy_idx'
p359
I2
sS'net.ipv4.conf.all.drop_gratuitous_arp'
p360
I0
sS'kernel.sched_domain.cpu34.domain1.max_newidle_lb_cost'
p361
I24047
sS'CONFIG_PINCTRL'
p362
S'y'
sS'CONFIG_THERMAL_GOV_FAIR_SHARE'
p363
S'y'
sS'kernel.sched_domain.cpu21.domain1.newidle_idx'
p364
I0
sS'kernel.sched_domain.cpu5.domain1.forkexec_idx'
p365
I0
sS'CONFIG_MOUSE_PS2_LOGIPS2PP'
p366
S'y'
sS'net.ipv6.route.gc_min_interval_ms'
p367
I500
sS'CONFIG_IRQ_FORCED_THREADING'
p368
S'y'
sS'CONFIG_MTRR_SANITIZER_SPARE_REG_NR_DEFAULT'
p369
I1
sS'CONFIG_BLK_MQ_PCI'
p370
S'y'
sS'CONFIG_DEBUG_BUGVERBOSE'
p371
S'y'
sS'CONFIG_LSM_MMAP_MIN_ADDR'
p372
I0
sS'CONFIG_FS_MBCACHE'
p373
S'y'
sS'CONFIG_KVM_INTEL'
p374
S'm'
sS'net.ipv6.neigh.ens3.proxy_qlen'
p375
I64
sS'net.ipv6.conf.lo.ndisc_notify'
p376
I0
sS'kernel.sched_domain.cpu25.domain1.forkexec_idx'
p377
I0
sS'kernel.sched_domain.cpu31.domain1.imbalance_pct'
p378
I125
sS'kernel.sched_domain.cpu33.domain0.min_interval'
p379
I12
sS'kernel.sched_domain.cpu8.domain1.busy_idx'
p380
I3
sS'kernel.sched_domain.cpu32.domain1.max_interval'
p381
I72
sS'CONFIG_SND_DYNAMIC_MINORS'
p382
S'y'
sS'CONFIG_MD_RAID1'
p383
S'm'
sS'CONFIG_HAVE_SETUP_PER_CPU_AREA'
p384
S'y'
sS'user.max_net_namespaces'
p385
I257513
sS'kernel.sched_domain.cpu12.domain0.max_interval'
p386
I48
sS'vm.laptop_mode'
p387
I0
sS'CONFIG_SIGNED_PE_FILE_VERIFICATION'
p388
S'y'
sS'CONFIG_NET_VENDOR_CAVIUM'
p389
S'y'
sS'CONFIG_IMA_NG_TEMPLATE'
p390
S'y'
sS'kernel.sched_domain.cpu5.domain1.wake_idx'
p391
I0
sS'CONFIG_KEXEC'
p392
S'y'
sS'CONFIG_CRYPTO_DEV_PADLOCK'
p393
S'y'
sS'CONFIG_HAVE_ARCH_WITHIN_STACK_FRAMES'
p394
S'y'
sS'kernel.sched_domain.cpu2.domain0.wake_idx'
p395
I0
sS'net.ipv4.conf.all.secure_redirects'
p396
I1
sS'kernel.sched_domain.cpu5.domain0.cache_nice_tries'
p397
I1
sS'CONFIG_HAVE_REGS_AND_STACK_ACCESS_API'
p398
S'y'
sS'kernel.sched_domain.cpu21.domain0.wake_idx'
p399
I0
sS'kernel.sched_domain.cpu22.domain1.max_interval'
p400
I72
sS'CONFIG_DEVFREQ_GOV_SIMPLE_ONDEMAND'
p401
S'y'
sS'net.ipv4.conf.lo.igmpv2_unsolicited_report_interval'
p402
I10000
sS'kernel.sched_domain.cpu4.domain0.idle_idx'
p403
I1
sS'kernel.sched_domain.cpu29.domain0.wake_idx'
p404
I0
sS'CONFIG_INPUT_JOYDEV'
p405
S'm'
sS'net.ipv6.conf.ens3.accept_ra_mtu'
p406
I1
sS'kernel.sched_domain.cpu21.domain0.forkexec_idx'
p407
I0
sS'CONFIG_INPUT_MISC'
p408
S'y'
sS'CONFIG_PARPORT_1284'
p409
S'y'
sS'net.ipv4.conf.all.force_igmp_version'
p410
I0
sS'CONFIG_UTS_NS'
p411
S'y'
sS'kernel.sched_domain.cpu21.domain0.name'
p412
S'DIE'
p413
sS'kernel.sched_domain.cpu11.domain1.name'
p414
S'NUMA'
p415
sS'CONFIG_MFD_MAX14577'
p416
S'y'
sS'CONFIG_CPU_FREQ_GOV_PERFORMANCE'
p417
S'y'
sS'net.ipv6.neigh.lo.mcast_resolicit'
p418
I0
sS'CONFIG_PREEMPT_NOTIFIERS'
p419
S'y'
sS'CONFIG_IO_DELAY_0XED'
p420
S'y'
sS'kernel.sched_domain.cpu31.domain0.busy_factor'
p421
I32
sS'CONFIG_AGP_AMD64'
p422
S'y'
sS'kernel.sched_domain.cpu19.domain0.flags'
p423
I4143
sS'CONFIG_MTRR'
p424
S'y'
sS'kernel.sched_domain.cpu28.domain1.idle_idx'
p425
I2
sS'kernel.overflowgid'
p426
I65534
sS'CONFIG_CRYPTO_RNG_DEFAULT'
p427
S'y'
sS'kernel.sched_domain.cpu7.domain0.busy_idx'
p428
I2
sS'CONFIG_X86_MCE'
p429
S'y'
sS'CONFIG_KALLSYMS_BASE_RELATIVE'
p430
S'y'
sS'CONFIG_ISA_DMA_API'
p431
S'y'
sS'CONFIG_ASYMMETRIC_PUBLIC_KEY_SUBTYPE'
p432
S'y'
sS'kernel.sched_domain.cpu15.domain1.name'
p433
S'NUMA'
p434
sS'CONFIG_ELF_CORE'
p435
S'y'
sS'net.ipv6.conf.lo.router_solicitations'
p436
S'-1'
p437
sS'kernel.ftrace_dump_on_oops'
p438
I0
sS'net.ipv4.conf.default.arp_filter'
p439
I0
sS'kernel.sched_domain.cpu14.domain1.busy_idx'
p440
I3
sS'kernel.sched_autogroup_enabled'
p441
I1
sS'net.ipv6.neigh.default.unres_qlen'
p442
I101
sS'kernel.sched_domain.cpu14.domain0.cache_nice_tries'
p443
I1
sS'net.ipv6.neigh.lo.anycast_delay'
p444
I100
sS'CONFIG_USB_DYNAMIC_MINORS'
p445
S'y'
sS'CONFIG_ARCH_HAS_FORTIFY_SOURCE'
p446
S'y'
sS'kernel.sched_domain.cpu12.domain1.busy_factor'
p447
I32
sS'net.ipv4.icmp_ratemask'
p448
I6168
sS'CONFIG_SERIAL_8250_EXAR'
p449
S'y'
sS'kernel.hung_task_warnings'
p450
I10
sS'CONFIG_SYSTEM_BLACKLIST_HASH_LIST'
p451
S'""'
p452
sS'CONFIG_ARCH_MMAP_RND_BITS_MIN'
p453
I28
sS'CONFIG_EXPERT'
p454
S'y'
sS'net.ipv4.tcp_abort_on_overflow'
p455
I0
sS'CONFIG_WLAN_VENDOR_ATMEL'
p456
S'y'
sS'CONFIG_HAVE_MIXED_BREAKPOINTS_REGS'
p457
S'y'
sS'CONFIG_ARCH_ENABLE_THP_MIGRATION'
p458
S'y'
sS'CONFIG_SWIOTLB'
p459
S'y'
sS'kernel.sched_domain.cpu9.domain0.busy_factor'
p460
I32
sS'net.ipv4.conf.lo.bootp_relay'
p461
I0
sS'kernel.sched_domain.cpu28.domain0.name'
p462
S'DIE'
p463
sS'kernel.sched_domain.cpu18.domain0.busy_idx'
p464
I2
sS'CONFIG_SCSI_PROC_FS'
p465
S'y'
sS'CONFIG_RD_BZIP2'
p466
S'y'
sS'CONFIG_MFD_LP8788'
p467
S'y'
sS'CONFIG_CGROUP_HUGETLB'
p468
S'y'
sS'net.ipv6.conf.ens3.accept_ra_rt_info_min_plen'
p469
I0
sS'CONFIG_FDDI'
p470
S'y'
sS'kernel.sched_domain.cpu32.domain0.wake_idx'
p471
I0
sS'net.ipv6.neigh.lo.proxy_delay'
p472
I80
sS'CONFIG_MMC'
p473
S'y'
sS'kernel.sched_domain.cpu20.domain0.min_interval'
p474
I24
sS'net.ipv4.tcp_keepalive_time'
p475
I7200
sS'vm.nr_hugepages_mempolicy'
p476
I0
sS'net.ipv4.conf.all.ignore_routes_with_linkdown'
p477
I0
sS'kernel.sched_domain.cpu29.domain0.min_interval'
p478
I12
sS'kernel.sched_domain.cpu30.domain0.newidle_idx'
p479
I0
sS'CONFIG_XOR_BLOCKS'
p480
S'm'
sS'kernel.sched_domain.cpu1.domain0.name'
p481
S'DIE'
p482
sS'CONFIG_REGULATOR'
p483
S'y'
sS'CONFIG_MAILBOX'
p484
S'y'
sS'kernel.sched_domain.cpu5.domain1.min_interval'
p485
I36
sS'kernel.sched_domain.cpu26.domain0.min_interval'
p486
I12
sS'kernel.sched_domain.cpu5.domain0.wake_idx'
p487
I0
sS'kernel.sched_domain.cpu10.domain0.idle_idx'
p488
I1
sS'kernel.sched_domain.cpu23.domain0.min_interval'
p489
I24
sS'kernel.sched_domain.cpu35.domain1.idle_idx'
p490
I2
sS'net.ipv6.conf.default.proxy_ndp'
p491
I0
sS'CONFIG_MEMTEST'
p492
S'y'
sS'net.ipv4.ip_unprivileged_port_start'
p493
I1024
sS'net.ipv6.neigh.lo.app_solicit'
p494
I0
sS'kernel.sched_domain.cpu32.domain0.forkexec_idx'
p495
I0
sS'CONFIG_PCI_BUS_ADDR_T_64BIT'
p496
S'y'
sS'kernel.sched_domain.cpu25.domain0.cache_nice_tries'
p497
I1
sS'kernel.sched_domain.cpu27.domain1.min_interval'
p498
I36
sS'CONFIG_VGA_SWITCHEROO'
p499
S'y'
sS'CONFIG_XZ_DEC_IA64'
p500
S'y'
sS'kernel.sched_domain.cpu8.domain0.newidle_idx'
p501
I0
sS'CONFIG_CRYPTO_CRCT10DIF_PCLMUL'
p502
S'm'
sS'CONFIG_ARCH_USE_QUEUED_SPINLOCKS'
p503
S'y'
sS'kernel.sched_domain.cpu3.domain1.wake_idx'
p504
I0
sS'CONFIG_NET_EMATCH_STACK'
p505
I32
sS'kernel.sched_domain.cpu1.domain1.min_interval'
p506
I36
sS'kernel.panic_on_warn'
p507
I0
sS'net.ipv6.conf.lo.enhanced_dad'
p508
I1
sS'CONFIG_GPIOLIB'
p509
S'y'
sS'kernel.sched_domain.cpu31.domain1.cache_nice_tries'
p510
I2
sS'kernel.keys.maxkeys'
p511
I200
sS'kernel.sched_domain.cpu16.domain0.name'
p512
S'DIE'
p513
sS'CONFIG_HOTPLUG_PCI_CPCI'
p514
S'y'
sS'kernel.sched_domain.cpu20.domain0.newidle_idx'
p515
I0
sS'vm.panic_on_oom'
p516
I0
sS'CONFIG_NET_VENDOR_AMD'
p517
S'y'
sS'kernel.sched_domain.cpu16.domain1.newidle_idx'
p518
I0
sS'net.ipv4.neigh.ens3.app_solicit'
p519
I0
sS'CONFIG_HAVE_KVM_IRQ_BYPASS'
p520
S'y'
sS'CONFIG_CRASH_CORE'
p521
S'y'
sS'kernel.sched_domain.cpu29.domain1.idle_idx'
p522
I2
sS'kernel.sched_domain.cpu30.domain1.busy_idx'
p523
I3
sS'fs.inotify.max_user_instances'
p524
I1024
sS'CONFIG_SYSCTL'
p525
S'y'
sS'CONFIG_MD_RAID0'
p526
S'm'
sS'net.ipv4.icmp_ignore_bogus_error_responses'
p527
I1
sS'CONFIG_HAVE_FENTRY'
p528
S'y'
sS'kernel.sched_domain.cpu20.domain0.max_interval'
p529
I48
sS'CONFIG_KRETPROBES'
p530
S'y'
sS'fs.quota.syncs'
p531
I0
sS'CONFIG_SECURITY_SMACK_NETFILTER'
p532
S'y'
sS'kernel.sched_domain.cpu2.domain1.busy_idx'
p533
I3
sS'net.ipv6.neigh.ens3.delay_first_probe_time'
p534
I5
sS'kernel.stack_tracer_enabled'
p535
I0
sS'CONFIG_FB_CMDLINE'
p536
S'y'
sS'kernel.sched_domain.cpu0.domain0.flags'
p537
I4143
sS'CONFIG_CRYPTO_DRBG_HMAC'
p538
S'y'
sS'CONFIG_MAC_PARTITION'
p539
S'y'
sS'CONFIG_MISC_FILESYSTEMS'
p540
S'y'
sS'abi.vsyscall32'
p541
I1
sS'net.ipv4.route.error_cost'
p542
I250
sS'CONFIG_CGROUP_NET_CLASSID'
p543
S'y'
sS'CONFIG_CRYPTO_SKEIN'
p544
S'y'
sS'kernel.sched_domain.cpu32.domain1.busy_idx'
p545
I3
sS'CONFIG_GENERIC_PCI_IOMAP'
p546
S'y'
sS'CONFIG_SND_HDA_INPUT_BEEP_MODE'
p547
I0
sS'CONFIG_DEBUG_KERNEL'
p548
S'y'
sS'net.ipv4.igmp_qrv'
p549
I2
sS'CONFIG_RANDOMIZE_BASE'
p550
S'y'
sS'CONFIG_MODULE_SIG_SHA512'
p551
S'y'
sS'CONFIG_CHELSIO_T3'
p552
S'm'
sS'kernel.sched_domain.cpu23.domain0.flags'
p553
I4143
sS'user.max_mnt_namespaces'
p554
I257513
sS'net.core.wmem_max'
p555
I212992
sS'vm.swappiness'
p556
I60
sS'kernel.sched_domain.cpu9.domain1.forkexec_idx'
p557
I0
sS'kernel.sched_domain.cpu5.domain1.busy_factor'
p558
I32
sS'net.ipv4.conf.ens3.shared_media'
p559
I1
sS'CONFIG_SBITMAP'
p560
S'y'
sS'net.ipv4.cipso_cache_bucket_size'
p561
I10
sS'net.ipv4.ipfrag_low_thresh'
p562
I3145728
sS'kernel.sched_domain.cpu15.domain1.flags'
p563
I25647
sS'net.ipv4.route.mtu_expires'
p564
I600
sS'CONFIG_KPROBE_EVENTS'
p565
S'y'
sS'net.ipv6.conf.default.drop_unicast_in_l2_multicast'
p566
I0
sS'CONFIG_USB_EHCI_TT_NEWSCHED'
p567
S'y'
sS'CONFIG_X86_16BIT'
p568
S'y'
sS'CONFIG_VIRTIO_BALLOON'
p569
S'y'
sS'net.iw_cm.default_backlog'
p570
I256
sS'CONFIG_CRYPTO_CTR'
p571
S'y'
sS'kernel.sched_domain.cpu24.domain1.forkexec_idx'
p572
I0
sS'net.ipv4.tcp_reordering'
p573
I3
sS'CONFIG_NET'
p574
S'y'
sS'CONFIG_TWL4030_CORE'
p575
S'y'
sS'kernel.sched_domain.cpu18.domain1.name'
p576
S'NUMA'
p577
sS'CONFIG_HAS_DMA'
p578
S'y'
sS'kernel.random.uuid'
p579
S'aed3b2be-1a5d-4959-9453-3fd3d8632db5'
p580
sS'net.ipv6.conf.ens3.mc_forwarding'
p581
I0
sS'net.ipv4.conf.lo.secure_redirects'
p582
I1
sS'kernel.sched_domain.cpu10.domain0.forkexec_idx'
p583
I0
sS'fs.overflowgid'
p584
I65534
sS'net.ipv4.tcp_dsack'
p585
I1
sS'CONFIG_CPU_SUP_INTEL'
p586
S'y'
sS'CONFIG_TRANSPARENT_HUGEPAGE'
p587
S'y'
sS'CONFIG_SCSI_ISCSI_ATTRS'
p588
S'm'
sS'CONFIG_MQ_IOSCHED_DEADLINE'
p589
S'y'
sS'CONFIG_CRYPTO_HMAC'
p590
S'y'
sS'kernel.sched_domain.cpu12.domain0.imbalance_pct'
p591
I125
sS'CONFIG_VT_CONSOLE'
p592
S'y'
sS'kernel.acpi_video_flags'
p593
I0
sS'CONFIG_WAN'
p594
S'y'
sS'kernel.sched_domain.cpu9.domain1.imbalance_pct'
p595
I125
sS'CONFIG_VGA_ARB_MAX_GPUS'
p596
I16
sS'kernel.sched_domain.cpu33.domain0.newidle_idx'
p597
I0
sS'CONFIG_BUILDTIME_EXTABLE_SORT'
p598
S'y'
sS'kernel.sched_domain.cpu17.domain1.newidle_idx'
p599
I0
sS'net.ipv4.route.redirect_silence'
p600
I5120
sS'CONFIG_KEXEC_JUMP'
p601
S'y'
sS'net.ipv4.tcp_autocorking'
p602
I1
sS'kernel.sched_domain.cpu7.domain0.imbalance_pct'
p603
I125
sS'net.ipv4.conf.lo.forwarding'
p604
I0
sS'kernel.sched_domain.cpu17.domain0.forkexec_idx'
p605
I0
sS'kernel.sched_domain.cpu10.domain0.wake_idx'
p606
I0
sS'dev.cdrom.lock'
p607
I1
sS'CONFIG_HAVE_HW_BREAKPOINT'
p608
S'y'
sS'CONFIG_MACINTOSH_DRIVERS'
p609
S'y'
sS'CONFIG_HAVE_DEBUG_KMEMLEAK'
p610
S'y'
sS'CONFIG_ISDN'
p611
S'y'
sS'CONFIG_MFD_CORE'
p612
S'y'
sS'CONFIG_ACPI_FAN'
p613
S'y'
sS'kernel.sched_domain.cpu11.domain0.max_newidle_lb_cost'
p614
I116747
sS'net.ipv4.conf.lo.src_valid_mark'
p615
I0
sS'CONFIG_AIX_PARTITION'
p616
S'y'
sS'kernel.sched_domain.cpu16.domain0.cache_nice_tries'
p617
I1
sS'kernel.sched_domain.cpu1.domain0.cache_nice_tries'
p618
I1
sS'CONFIG_MD_RAID456'
p619
S'm'
sS'net.ipv4.conf.ens3.arp_ignore'
p620
I0
sS'CONFIG_TICK_CPU_ACCOUNTING'
p621
S'y'
sS'CONFIG_MFD_TPS65090'
p622
S'y'
sS'kernel.sched_domain.cpu31.domain1.flags'
p623
I25647
sS'CONFIG_SFI'
p624
S'y'
sS'net.ipv6.conf.default.router_solicitations'
p625
S'-1'
p626
sS'CONFIG_NET_SCH_FIFO'
p627
S'y'
sS'net.core.netdev_rss_key'
p628
S'00:00:00:00:00:00:00:00:00:00:00:00:00:00:00:00:00:00:00:00:00:00:00:00:00:00:00:00:00:00:00:00:00:00:00:00:00:00:00:00:00:00:00:00:00:00:00:00:00:00:00:00'
p629
sS'kernel.sched_domain.cpu18.domain1.max_newidle_lb_cost'
p630
I15433
sS'net.ipv4.conf.default.igmpv2_unsolicited_report_interval'
p631
I10000
sS'CONFIG_X86_64_ACPI_NUMA'
p632
S'y'
sS'CONFIG_SYSFS_SYSCALL'
p633
S'y'
sS'kernel.sched_domain.cpu12.domain0.busy_factor'
p634
I32
sS'CONFIG_ARCH_WANT_GENERAL_HUGETLB'
p635
S'y'
sS'CONFIG_XPS'
p636
S'y'
sS'CONFIG_GENERIC_CMOS_UPDATE'
p637
S'y'
sS'net.ipv4.tcp_max_tw_buckets'
p638
I262144
sS'CONFIG_SERIAL_8250_EXTENDED'
p639
S'y'
sS'kernel.sched_domain.cpu0.domain0.max_newidle_lb_cost'
p640
I25803
sS'CONFIG_NET_VENDOR_ADAPTEC'
p641
S'y'
sS'CONFIG_EPOLL'
p642
S'y'
sS'net.ipv4.conf.lo.disable_xfrm'
p643
I1
sS'net.ipv6.conf.lo.autoconf'
p644
I1
sS'kernel.sched_domain.cpu2.domain0.imbalance_pct'
p645
I125
sS'kernel.panic'
p646
I0
sS'CONFIG_FAT_DEFAULT_CODEPAGE'
p647
I437
sS'CONFIG_X86_SUPPORTS_MEMORY_FAILURE'
p648
S'y'
sS'CONFIG_CALGARY_IOMMU_ENABLED_BY_DEFAULT'
p649
S'y'
sS'kernel.sched_domain.cpu0.domain1.forkexec_idx'
p650
I0
sS'CONFIG_SCHED_HRTICK'
p651
S'y'
sS'CONFIG_SECURITY_SELINUX_DISABLE'
p652
S'y'
sS'kernel.sched_domain.cpu21.domain0.idle_idx'
p653
I1
sS'kernel.sched_domain.cpu9.domain0.idle_idx'
p654
I1
sS'CONFIG_NET_VENDOR_REALTEK'
p655
S'y'
sS'CONFIG_FAT_DEFAULT_IOCHARSET'
p656
S'"iso8859-1"'
p657
sS'net.ipv6.route.min_adv_mss'
p658
I1220
sS'CONFIG_IP_ROUTE_VERBOSE'
p659
S'y'
sS'CONFIG_BLK_DEV_SD'
p660
S'y'
sS'CONFIG_BRIDGE_EBT_T_FILTER'
p661
S'm'
sS'CONFIG_USB_OHCI_HCD'
p662
S'y'
sS'CONFIG_VIRTIO_CONSOLE'
p663
S'y'
sS'kernel.sched_domain.cpu31.domain0.newidle_idx'
p664
I0
sS'net.ipv6.ip6frag_low_thresh'
p665
I3145728
sS'CONFIG_USB_UHCI_HCD'
p666
S'y'
sS'CONFIG_BSD_DISKLABEL'
p667
S'y'
sS'kernel.sched_domain.cpu28.domain0.max_interval'
p668
I24
sS'kernel.sched_domain.cpu19.domain0.min_interval'
p669
I24
sS'net.core.flow_limit_cpu_bitmap'
p670
S'000000,00000000,00000000,00000000,00000000,00000000,00000000,00000000'
p671
sS'CONFIG_SECURITY_WRITABLE_HOOKS'
p672
S'y'
sS'CONFIG_NVM'
p673
S'y'
sS'net.ipv6.conf.ens3.accept_dad'
p674
I1
sS'kernel.sched_domain.cpu33.domain1.max_newidle_lb_cost'
p675
I19870
sS'CONFIG_TRACING_EVENTS_GPIO'
p676
S'y'
sS'fs.quota.allocated_dquots'
p677
I0
sS'CONFIG_X509_CERTIFICATE_PARSER'
p678
S'y'
sS'kernel.sched_domain.cpu11.domain1.idle_idx'
p679
I2
sS'vm.nr_hugepages'
p680
I0
sS'kernel.sched_domain.cpu23.domain1.wake_idx'
p681
I0
sS'CONFIG_WLAN_VENDOR_ADMTEK'
p682
S'y'
sS'net.ipv4.conf.lo.send_redirects'
p683
I1
sS'kernel.sched_domain.cpu30.domain0.flags'
p684
I4143
sS'kernel.sched_domain.cpu16.domain0.max_interval'
p685
I48
sS'net.ipv6.conf.all.proxy_ndp'
p686
I0
sS'CONFIG_OPTPROBES'
p687
S'y'
sS'net.ipv4.tcp_pacing_ss_ratio'
p688
I200
sS'kernel.keys.persistent_keyring_expiry'
p689
I259200
sS'CONFIG_MD'
p690
S'y'
sS'kernel.sched_domain.cpu7.domain0.forkexec_idx'
p691
I0
sS'kernel.sched_domain.cpu11.domain1.max_newidle_lb_cost'
p692
I24211
sS'CONFIG_DETECT_HUNG_TASK'
p693
S'y'
sS'CONFIG_DMI'
p694
S'y'
sS'kernel.sched_domain.cpu27.domain1.idle_idx'
p695
I2
sS'net.ipv4.conf.lo.arp_notify'
p696
I0
sS'CONFIG_BQL'
p697
S'y'
sS'kernel.softlockup_all_cpu_backtrace'
p698
I0
sS'kernel.sched_domain.cpu17.domain0.min_interval'
p699
I24
sS'kernel.version'
p700
S'#3 SMP Tue Mar 13 14:28:42 EDT 2018'
p701
sS'net.ipv6.neigh.default.gc_interval'
p702
I30
sS'kernel.sched_domain.cpu0.domain0.busy_idx'
p703
I2
sS'CONFIG_CGROUP_SCHED'
p704
S'y'
sS'CONFIG_HT_IRQ'
p705
S'y'
sS'CONFIG_NET_VENDOR_ATHEROS'
p706
S'y'
sS'net.ipv6.neigh.ens3.unres_qlen_bytes'
p707
I212992
sS'kernel.panic_on_io_nmi'
p708
I0
sS'CONFIG_SERIAL_8250_CONSOLE'
p709
S'y'
sS'CONFIG_HAVE_ARCH_MMAP_RND_COMPAT_BITS'
p710
S'y'
sS'kernel.sched_domain.cpu31.domain1.max_interval'
p711
I72
sS'CONFIG_NVDIMM_PFN'
p712
S'y'
sS'net.ipv4.neigh.default.anycast_delay'
p713
I100
sS'kernel.sched_domain.cpu11.domain0.newidle_idx'
p714
I0
sS'kernel.sched_domain.cpu7.domain0.newidle_idx'
p715
I0
sS'CONFIG_SERIAL_CORE'
p716
S'y'
sS'net.ipv4.conf.ens3.arp_filter'
p717
I0
sS'net.ipv6.idgen_delay'
p718
I1
sS'CONFIG_HAVE_HARDENED_USERCOPY_ALLOCATOR'
p719
S'y'
sS'net.ipv6.conf.ens3.disable_ipv6'
p720
I0
sS'CONFIG_MMU'
p721
S'y'
sS'CONFIG_HAVE_KERNEL_XZ'
p722
S'y'
sS'CONFIG_MFD_DA9052_SPI'
p723
S'y'
sS'CONFIG_USE_PERCPU_NUMA_NODE_ID'
p724
S'y'
sS'CONFIG_NET_INGRESS'
p725
S'y'
sS'kernel.sched_domain.cpu19.domain1.name'
p726
S'NUMA'
p727
sS'kernel.sched_domain.cpu28.domain1.max_interval'
p728
I72
sS'kernel.msgmax'
p729
I8192
sS'CONFIG_ARCH_ENABLE_HUGEPAGE_MIGRATION'
p730
S'y'
sS'kernel.sched_domain.cpu28.domain1.max_newidle_lb_cost'
p731
I86557
sS'kernel.sched_domain.cpu21.domain0.cache_nice_tries'
p732
I1
sS'kernel.sched_domain.cpu31.domain1.idle_idx'
p733
I2
sS'CONFIG_CHARGER_MANAGER'
p734
S'y'
sS'net.ipv6.conf.lo.drop_unsolicited_na'
p735
I0
sS'net.ipv4.conf.ens3.medium_id'
p736
I0
sS'kernel.sched_domain.cpu19.domain1.busy_idx'
p737
I3
sS'CONFIG_SYSVIPC'
p738
S'y'
sS'net.ipv6.neigh.ens3.ucast_solicit'
p739
I3
sS'CONFIG_PARPORT_PC_FIFO'
p740
S'y'
sS'CONFIG_WIRELESS'
p741
S'y'
sS'CONFIG_FANOTIFY_ACCESS_PERMISSIONS'
p742
S'y'
sS'CONFIG_DAX'
p743
S'y'
sS'CONFIG_RD_XZ'
p744
S'y'
sS'kernel.sched_domain.cpu17.domain0.busy_factor'
p745
I32
sS'kernel.sched_domain.cpu17.domain1.wake_idx'
p746
I0
sS'CONFIG_CONNECTOR'
p747
S'y'
sS'net.ipv4.conf.default.arp_accept'
p748
I0
sS'kernel.sched_domain.cpu34.domain1.busy_factor'
p749
I32
sS'net.ipv4.udp_early_demux'
p750
I1
sS'CONFIG_MFD_88PM860X'
p751
S'y'
sS'kernel.sched_domain.cpu6.domain0.min_interval'
p752
I24
sS'kernel.sched_domain.cpu15.domain0.imbalance_pct'
p753
I125
sS'CONFIG_MODVERSIONS'
p754
S'y'
sS'kernel.sched_migration_cost_ns'
p755
I500000
sS'CONFIG_HAVE_INTEL_TXT'
p756
S'y'
sS'CONFIG_ARCH_HAS_UBSAN_SANITIZE_ALL'
p757
S'y'
sS'kernel.sched_domain.cpu20.domain0.forkexec_idx'
p758
I0
sS'CONFIG_OLD_SIGSUSPEND3'
p759
S'y'
sS'net.ipv6.conf.ens3.use_tempaddr'
p760
I0
sS'dev.mac_hid.mouse_button2_keycode'
p761
I97
sS'net.ipv6.neigh.lo.proxy_qlen'
p762
I64
sS'kernel.sched_domain.cpu27.domain1.max_interval'
p763
I72
sS'net.ipv6.conf.default.router_probe_interval'
p764
I60
sS'kernel.sched_domain.cpu14.domain1.busy_factor'
p765
I32
sS'net.ipv4.route.error_burst'
p766
I1250
sS'CONFIG_NET_VENDOR_ARC'
p767
S'y'
sS'net.ipv6.conf.all.keep_addr_on_down'
p768
I0
sS'kernel.sched_domain.cpu16.domain1.forkexec_idx'
p769
I0
sS'CONFIG_EDAC_ATOMIC_SCRUB'
p770
S'y'
sS'CONFIG_TRUSTED_KEYS'
p771
S'y'
sS'CONFIG_PWM_SYSFS'
p772
S'y'
sS'CONFIG_AUDITSYSCALL'
p773
S'y'
sS'net.ipv6.conf.lo.proxy_ndp'
p774
I0
sS'CONFIG_HAVE_KVM_EVENTFD'
p775
S'y'
sS'CONFIG_HAVE_ARCH_KMEMCHECK'
p776
S'y'
sS'CONFIG_PM_DEVFREQ'
p777
S'y'
sS'CONFIG_UID16'
p778
S'y'
sS'net.ipv6.calipso_cache_bucket_size'
p779
I10
sS'CONFIG_ACPI_SLEEP'
p780
S'y'
sS'kernel.watchdog_cpumask'
p781
S'0-247'
p782
sS'CONFIG_SND_SUPPORT_OLD_API'
p783
S'y'
sS'net.ipv4.conf.lo.accept_redirects'
p784
I1
sS'net.ipv6.conf.all.max_addresses'
p785
I16
sS'kernel.sched_domain.cpu32.domain0.name'
p786
S'DIE'
p787
sS'kernel.sched_child_runs_first'
p788
I0
sS'net.ipv6.conf.all.accept_ra_from_local'
p789
I0
sS'CONFIG_PINCONF'
p790
S'y'
sS'CONFIG_RTC_HCTOSYS'
p791
S'y'
sS'CONFIG_CRYPTO_GCM'
p792
S'y'
sS'kernel.sched_domain.cpu31.domain0.forkexec_idx'
p793
I0
sS'kernel.softlockup_panic'
p794
I0
sS'kernel.sched_domain.cpu18.domain1.imbalance_pct'
p795
I125
sS'kernel.sched_domain.cpu25.domain0.max_interval'
p796
I24
sS'CONFIG_RTC_I2C_AND_SPI'
p797
S'y'
sS'CONFIG_USB_EHCI_HCD'
p798
S'y'
sS'CONFIG_CHROME_PLATFORMS'
p799
S'y'
sS'kernel.sched_domain.cpu7.domain1.max_interval'
p800
I72
sS'CONFIG_HAVE_ARCH_KGDB'
p801
S'y'
sS'CONFIG_IO_DELAY_TYPE_0XED'
p802
I1
sS'net.ipv6.conf.ens3.drop_unicast_in_l2_multicast'
p803
I0
sS'net.ipv6.conf.default.force_mld_version'
p804
I0
sS'kernel.sched_domain.cpu35.domain0.min_interval'
p805
I12
sS'net.ipv4.ip_no_pmtu_disc'
p806
I0
sS'CONFIG_GENERIC_CLOCKEVENTS_BROADCAST'
p807
S'y'
sS'CONFIG_WLAN_VENDOR_MEDIATEK'
p808
S'y'
sS'vm.dirty_writeback_centisecs'
p809
I500
sS'kernel.sched_domain.cpu14.domain1.idle_idx'
p810
I2
sS'CONFIG_SCSI_CXGB3_ISCSI'
p811
S'm'
sS'net.ipv6.conf.lo.accept_ra'
p812
I1
sS'kernel.sched_domain.cpu2.domain0.max_newidle_lb_cost'
p813
I41605
sS'CONFIG_ARCH_SUPPORTS_OPTIMIZED_INLINING'
p814
S'y'
sS'net.ipv4.conf.default.proxy_arp_pvlan'
p815
I0
sS'kernel.sched_domain.cpu27.domain0.max_newidle_lb_cost'
p816
I113757
sS'kernel.sched_domain.cpu33.domain1.idle_idx'
p817
I2
sS'CONFIG_PM_STD_PARTITION'
p818
S'""'
p819
sS'net.ipv4.conf.ens3.secure_redirects'
p820
I1
sS'kernel.sched_domain.cpu27.domain1.name'
p821
S'NUMA'
p822
sS'CONFIG_ULTRIX_PARTITION'
p823
S'y'
sS'CONFIG_HAVE_NMI'
p824
S'y'
sS'kernel.sched_domain.cpu19.domain1.busy_factor'
p825
I32
sS'CONFIG_NET_VENDOR_3COM'
p826
S'y'
sS'kernel.sched_domain.cpu16.domain1.name'
p827
S'NUMA'
p828
sS'net.ipv6.conf.ens3.seg6_enabled'
p829
I0
sS'kernel.sched_domain.cpu13.domain1.idle_idx'
p830
I2
sS'fs.mqueue.msgsize_max'
p831
I8192
sS'CONFIG_HAS_IOMEM'
p832
S'y'
sS'kernel.sched_domain.cpu13.domain0.name'
p833
S'DIE'
p834
sS'net.ipv4.conf.all.forwarding'
p835
I0
sS'CONFIG_USB_DEFAULT_PERSIST'
p836
S'y'
sS'CONFIG_NEW_LEDS'
p837
S'y'
sS'kernel.sched_domain.cpu28.domain0.flags'
p838
I4143
sS'kernel.perf_event_paranoid'
p839
I2
sS'net.ipv4.conf.all.bootp_relay'
p840
I0
sS'net.ipv6.neigh.default.base_reachable_time_ms'
p841
I30000
sS'kernel.sched_domain.cpu24.domain1.flags'
p842
I25647
sS'kernel.perf_event_mlock_kb'
p843
I516
sS'vm.block_dump'
p844
I0
sS'kernel.sched_domain.cpu16.domain0.busy_factor'
p845
I32
sS'CONFIG_PHYLIB'
p846
S'y'
sS'net.ipv4.tcp_keepalive_intvl'
p847
I75
sS'net.ipv4.conf.all.igmpv3_unsolicited_report_interval'
p848
I1000
sS'CONFIG_PCI_MSI'
p849
S'y'
sS'net.ipv4.conf.default.send_redirects'
p850
I1
sS'net.ipv6.conf.default.disable_ipv6'
p851
I0
sS'kernel.sched_domain.cpu26.domain1.min_interval'
p852
I36
sS'kernel.sched_domain.cpu20.domain1.newidle_idx'
p853
I0
sS'kernel.sched_domain.cpu35.domain0.idle_idx'
p854
I1
sS'fs.pipe-user-pages-hard'
p855
I0
sS'kernel.sched_domain.cpu0.domain0.imbalance_pct'
p856
I125
sS'net.ipv6.conf.lo.hop_limit'
p857
I64
sS'kernel.sched_domain.cpu7.domain1.newidle_idx'
p858
I0
sS'net.ipv4.conf.all.arp_accept'
p859
I0
sS'CONFIG_BINARY_PRINTF'
p860
S'y'
sS'kernel.numa_balancing_scan_period_max_ms'
p861
I60000
sS'kernel.msgmnb'
p862
I16384
sS'CONFIG_IRQ_BYPASS_MANAGER'
p863
S'm'
sS'kernel.sched_domain.cpu34.domain0.imbalance_pct'
p864
I125
sS'kernel.msgmni'
p865
I32000
sS'CONFIG_SLUB'
p866
S'y'
sS'kernel.soft_watchdog'
p867
I1
sS'CONFIG_USB_LED_TRIG'
p868
S'y'
sS'kernel.sched_time_avg_ms'
p869
I1000
sS'kernel.sched_domain.cpu21.domain0.busy_idx'
p870
I2
sS'kernel.sched_domain.cpu8.domain0.cache_nice_tries'
p871
I1
sS'CONFIG_X86_INTEL_MPX'
p872
S'y'
sS'CONFIG_X86_ACPI_CPUFREQ_CPB'
p873
S'y'
sS'net.ipv6.conf.default.mc_forwarding'
p874
I0
sS'kernel.threads-max'
p875
I515027
sS'kernel.sched_domain.cpu1.domain1.busy_factor'
p876
I32
sS'kernel.sched_domain.cpu18.domain1.busy_idx'
p877
I3
sS'kernel.overflowuid'
p878
I65534
sS'net.ipv4.conf.default.arp_announce'
p879
I0
sS'CONFIG_ACPI_DOCK'
p880
S'y'
sS'CONFIG_X86_INTEL_MEMORY_PROTECTION_KEYS'
p881
S'y'
sS'net.ipv4.neigh.ens3.base_reachable_time_ms'
p882
I30000
sS'CONFIG_SCHED_MC'
p883
S'y'
sS'CONFIG_ARCH_HAS_MEM_ENCRYPT'
p884
S'y'
sS'kernel.sched_domain.cpu35.domain1.min_interval'
p885
I36
sS'kernel.sched_domain.cpu8.domain1.max_interval'
p886
I72
sS'kernel.sched_domain.cpu17.domain1.min_interval'
p887
I36
sS'kernel.keys.gc_delay'
p888
I300
sS'CONFIG_HAVE_ARCH_TRANSPARENT_HUGEPAGE_PUD'
p889
S'y'
sS'kernel.hung_task_timeout_secs'
p890
I120
sS'CONFIG_X86_MINIMUM_CPU_FAMILY'
p891
I64
sS'CONFIG_CRYPTO_KPP2'
p892
S'y'
sS'CONFIG_SQUASHFS_ZLIB'
p893
S'y'
sS'CONFIG_X86_PLATFORM_DEVICES'
p894
S'y'
sS'CONFIG_CONTEXT_SWITCH_TRACER'
p895
S'y'
sS'net.ipv4.conf.default.accept_source_route'
p896
I1
sS'kernel.core_pipe_limit'
p897
I0
sS'kernel.sched_domain.cpu32.domain1.idle_idx'
p898
I2
sS'kernel.dmesg_restrict'
p899
I0
sS'kernel.sched_domain.cpu7.domain1.imbalance_pct'
p900
I125
sS'kernel.sched_domain.cpu27.domain1.flags'
p901
I25647
sS'kernel.sched_domain.cpu19.domain1.max_interval'
p902
I72
sS'CONFIG_PERF_EVENTS_INTEL_RAPL'
p903
S'y'
sS'CONFIG_HAVE_PERF_USER_STACK_DUMP'
p904
S'y'
sS'CONFIG_SERIAL_SCCNXP'
p905
S'y'
sS'kernel.sched_domain.cpu28.domain1.cache_nice_tries'
p906
I2
sS'CONFIG_EFI_RUNTIME_MAP'
p907
S'y'
sS'kernel.sched_domain.cpu18.domain1.flags'
p908
I25647
sS'net.ipv6.neigh.lo.base_reachable_time_ms'
p909
I30000
sS'kernel.sched_domain.cpu34.domain1.max_interval'
p910
I72
sS'debug.kprobes-optimization'
p911
I1
sS'kernel.sched_domain.cpu6.domain0.idle_idx'
p912
I1
sS'CONFIG_BPF_SYSCALL'
p913
S'y'
sS'net.ipv6.conf.default.accept_ra_pinfo'
p914
I1
sS'kernel.sched_domain.cpu19.domain0.name'
p915
S'DIE'
p916
sS'CONFIG_VIRTIO_PCI_LEGACY'
p917
S'y'
sS'net.ipv6.flowlabel_consistency'
p918
I1
sS'CONFIG_WLAN_VENDOR_QUANTENNA'
p919
S'y'
sS'kernel.sched_domain.cpu25.domain0.forkexec_idx'
p920
I0
sS'kernel.sched_domain.cpu4.domain1.max_interval'
p921
I72
sS'CONFIG_CRYPTO_DEV_CCP'
p922
S'y'
sS'CONFIG_HAVE_EFFICIENT_UNALIGNED_ACCESS'
p923
S'y'
sS'CONFIG_USB_ANNOUNCE_NEW_DEVICES'
p924
S'y'
sS'CONFIG_AUTOFS4_FS'
p925
S'm'
sS'CONFIG_ARCH_SUPPORTS_MEMORY_FAILURE'
p926
S'y'
sS'CONFIG_STAGING'
p927
S'y'
sS'CONFIG_ARCH_HAS_FAST_MULTIPLIER'
p928
S'y'
sS'CONFIG_IPV6_MROUTE_MULTIPLE_TABLES'
p929
S'y'
sS'CONFIG_NET_VENDOR_STMICRO'
p930
S'y'
sS'CONFIG_NUMA_BALANCING_DEFAULT_ENABLED'
p931
S'y'
sS'kernel.sched_domain.cpu12.domain0.flags'
p932
I4143
sS'kernel.sched_domain.cpu31.domain1.newidle_idx'
p933
I0
sS'kernel.sched_domain.cpu15.domain1.forkexec_idx'
p934
I0
sS'net.ipv6.conf.all.accept_ra_rt_info_max_plen'
p935
I0
sS'CONFIG_X86_DEV_DMA_OPS'
p936
S'y'
sS'CONFIG_PCI_ATS'
p937
S'y'
sS'CONFIG_RD_LZO'
p938
S'y'
sS'kernel.sched_domain.cpu7.domain1.cache_nice_tries'
p939
I2
sS'kernel.sched_domain.cpu32.domain0.max_newidle_lb_cost'
p940
I21228
sS'CONFIG_BLK_DEV'
p941
S'y'
sS'CONFIG_HARDLOCKUP_CHECK_TIMESTAMP'
p942
S'y'
sS'CONFIG_INLINE_READ_UNLOCK_IRQ'
p943
S'y'
sS'CONFIG_SQUASHFS_XZ'
p944
S'y'
sS'kernel.sched_domain.cpu10.domain0.busy_factor'
p945
I32
sS'CONFIG_MDIO_DEVICE'
p946
S'y'
sS'CONFIG_GPIO_RC5T583'
p947
S'y'
sS'net.ipv4.tcp_moderate_rcvbuf'
p948
I1
sS'CONFIG_ACPI_CONTAINER'
p949
S'y'
sS'CONFIG_STACKTRACE'
p950
S'y'
sS'CONFIG_ATA_BMDMA'
p951
S'y'
sS'kernel.sched_domain.cpu20.domain1.forkexec_idx'
p952
I0
sS'net.ipv4.tcp_min_rtt_wlen'
p953
I300
sS'net.ipv6.fwmark_reflect'
p954
I0
sS'CONFIG_MOUSE_PS2_VMMOUSE'
p955
S'y'
sS'kernel.sched_domain.cpu22.domain0.wake_idx'
p956
I0
sS'CONFIG_SECURITY_APPARMOR'
p957
S'y'
sS'CONFIG_WATCHDOG_CORE'
p958
S'y'
sS'CONFIG_SERIAL_KGDB_NMI'
p959
S'y'
sS'CONFIG_INSTRUCTION_DECODER'
p960
S'y'
sS'net.ipv6.neigh.ens3.proxy_delay'
p961
I80
sS'CONFIG_SOC_TI'
p962
S'y'
sS'CONFIG_MFD_TPS80031'
p963
S'y'
sS'kernel.sched_domain.cpu2.domain1.forkexec_idx'
p964
I0
sS'CONFIG_MEMCG'
p965
S'y'
sS'net.ipv6.conf.default.accept_redirects'
p966
I1
sS'kernel.sched_domain.cpu12.domain1.max_newidle_lb_cost'
p967
I15736
sS'net.ipv4.neigh.lo.ucast_solicit'
p968
I3
sS'kernel.sched_domain.cpu8.domain1.busy_factor'
p969
I32
sS'CONFIG_IOSCHED_CFQ'
p970
S'y'
sS'kernel.sched_domain.cpu34.domain0.min_interval'
p971
I12
sS'net.ipv6.conf.all.mldv1_unsolicited_report_interval'
p972
I10000
sS'kernel.sched_domain.cpu2.domain0.idle_idx'
p973
I1
sS'CONFIG_BLK_DEV_DM'
p974
S'y'
sS'CONFIG_DEFAULT_HUNG_TASK_TIMEOUT'
p975
I120
sS'net.ipv6.conf.default.regen_max_retry'
p976
I3
sS'CONFIG_SND_PCI'
p977
S'y'
sS'CONFIG_GENERIC_CPU'
p978
S'y'
sS'net.ipv4.conf.default.accept_local'
p979
I0
sS'net.ipv6.conf.default.forwarding'
p980
I0
sS'net.core.dev_weight_rx_bias'
p981
I1
sS'CONFIG_CPU_SUP_AMD'
p982
S'y'
sS'CONFIG_GENERIC_FIND_FIRST_BIT'
p983
S'y'
sS'CONFIG_HAVE_USER_RETURN_NOTIFIER'
p984
S'y'
sS'kernel.core_pattern'
p985
S'|/usr/share/apport/apport %p %s %c %d %P'
p986
sS'kernel.perf_event_max_sample_rate'
p987
I100000
sS'CONFIG_SCSI'
p988
S'y'
sS'kernel.sched_domain.cpu26.domain0.cache_nice_tries'
p989
I1
sS'CONFIG_HAVE_GCC_PLUGINS'
p990
S'y'
sS'CONFIG_GENERIC_EARLY_IOREMAP'
p991
S'y'
sS'kernel.random.poolsize'
p992
I4096
sS'CONFIG_GLOB'
p993
S'y'
sS'CONFIG_ZBUD'
p994
S'y'
sS'CONFIG_ARCH_MMAP_RND_BITS_MAX'
p995
I32
sS'net.ipv6.conf.lo.force_mld_version'
p996
I0
sS'CONFIG_NUMA_BALANCING'
p997
S'y'
sS'net.ipv4.conf.ens3.accept_redirects'
p998
I1
sS'kernel.sched_domain.cpu1.domain0.busy_factor'
p999
I32
sS'CONFIG_EDD_OFF'
p1000
S'y'
sS'CONFIG_THERMAL'
p1001
S'y'
sS'CONFIG_BPF'
p1002
S'y'
sS'CONFIG_HUGETLBFS'
p1003
S'y'
sS'net.ipv4.tcp_frto'
p1004
I2
sS'CONFIG_ETHERNET'
p1005
S'y'
sS'net.ipv4.tcp_probe_threshold'
p1006
I8
sS'kernel.sched_domain.cpu20.domain0.name'
p1007
S'DIE'
p1008
sS'kernel.sched_domain.cpu35.domain1.name'
p1009
S'NUMA'
p1010
sS'net.ipv4.conf.default.forwarding'
p1011
I0
sS'CONFIG_DECOMPRESS_BZIP2'
p1012
S'y'
sS'net.ipv6.conf.default.accept_ra_rtr_pref'
p1013
I1
sS'net.ipv4.neigh.lo.delay_first_probe_time'
p1014
I5
sS'net.ipv6.conf.ens3.force_tllao'
p1015
I0
sS'CONFIG_MFD_MAX8998'
p1016
S'y'
sS'CONFIG_AB3100_CORE'
p1017
S'y'
sS'CONFIG_PM'
p1018
S'y'
sS'CONFIG_FAIR_GROUP_SCHED'
p1019
S'y'
sS'CONFIG_HAVE_ARCH_HUGE_VMAP'
p1020
S'y'
sS'net.ipv4.ip_forward'
p1021
I0
sS'CONFIG_COMPAT_32'
p1022
S'y'
sS'kernel.sched_domain.cpu12.domain0.forkexec_idx'
p1023
I0
sS'kernel.sched_domain.cpu23.domain1.forkexec_idx'
p1024
I0
sS'kernel.sched_domain.cpu7.domain0.busy_factor'
p1025
I32
sS'kernel.sched_domain.cpu0.domain0.name'
p1026
S'DIE'
p1027
sS'kernel.sched_domain.cpu3.domain0.busy_idx'
p1028
I2
sS'kernel.sched_domain.cpu0.domain0.max_interval'
p1029
I48
sS'kernel.sched_domain.cpu4.domain0.busy_idx'
p1030
I2
sS'kernel.sched_domain.cpu21.domain1.idle_idx'
p1031
I2
sS'kernel.sched_domain.cpu12.domain1.flags'
p1032
I25647
sS'kernel.sched_domain.cpu18.domain0.name'
p1033
S'DIE'
p1034
sS'CONFIG_NETFILTER_ADVANCED'
p1035
S'y'
sS'CONFIG_RANDOMIZE_MEMORY'
p1036
S'y'
sS'CONFIG_ASYNC_MEMCPY'
p1037
S'm'
sS'net.ipv6.conf.default.accept_ra_from_local'
p1038
I0
sS'CONFIG_WLAN_VENDOR_REALTEK'
p1039
S'y'
sS'kernel.sched_domain.cpu32.domain1.name'
p1040
S'NUMA'
p1041
sS'kernel.sched_domain.cpu26.domain1.cache_nice_tries'
p1042
I2
sS'net.ipv6.conf.ens3.accept_ra_rt_info_max_plen'
p1043
I0
sS'net.core.flow_limit_table_len'
p1044
I4096
sS'kernel.sched_domain.cpu9.domain0.flags'
p1045
I4143
sS'kernel.sched_domain.cpu17.domain0.wake_idx'
p1046
I0
sS'CONFIG_MOUSE_PS2_SYNAPTICS_SMBUS'
p1047
S'y'
sS'CONFIG_ZONE_DMA'
p1048
S'y'
sS'net.core.max_skb_frags'
p1049
I17
sS'CONFIG_TCP_CONG_CUBIC'
p1050
S'y'
sS'CONFIG_COMPAT_FOR_U64_ALIGNMENT'
p1051
S'y'
sS'kernel.sched_domain.cpu23.domain1.busy_factor'
p1052
I32
sS'CONFIG_HAVE_KVM_CPU_RELAX_INTERCEPT'
p1053
S'y'
sS'CONFIG_VHOST'
p1054
S'm'
sS'kernel.sched_domain.cpu26.domain1.flags'
p1055
I25647
sS'net.ipv6.neigh.ens3.gc_stale_time'
p1056
I60
sS'kernel.sched_domain.cpu15.domain1.busy_factor'
p1057
I32
sS'CONFIG_HAVE_NET_DSA'
p1058
S'y'
sS'kernel.sched_domain.cpu34.domain1.forkexec_idx'
p1059
I0
sS'CONFIG_PCI_LABEL'
p1060
S'y'
sS'CONFIG_IOMMU_IOVA'
p1061
S'y'
sS'net.ipv6.conf.default.accept_ra'
p1062
I1
sS'kernel.sched_domain.cpu6.domain0.max_newidle_lb_cost'
p1063
I32152
sS'CONFIG_GENERIC_IOMAP'
p1064
S'y'
sS'CONFIG_ISCSI_IBFT_FIND'
p1065
S'y'
sS'kernel.sched_domain.cpu2.domain0.min_interval'
p1066
I24
sS'kernel.sched_domain.cpu5.domain1.max_interval'
p1067
I72
sS'CONFIG_EVM'
p1068
S'y'
sS'CONFIG_PKCS7_MESSAGE_PARSER'
p1069
S'y'
sS'CONFIG_IA32_EMULATION'
p1070
S'y'
sS'net.ipv4.tcp_workaround_signed_windows'
p1071
I0
sS'CONFIG_PM_SLEEP'
p1072
S'y'
sS'CONFIG_IP_MROUTE'
p1073
S'y'
sS'kernel.sched_domain.cpu22.domain0.name'
p1074
S'DIE'
p1075
sS'net.ipv4.ipfrag_secret_interval'
p1076
I0
sS'CONFIG_ZSTD_DECOMPRESS'
p1077
S'm'
sS'kernel.sched_domain.cpu29.domain1.cache_nice_tries'
p1078
I2
sS'net.ipv6.neigh.default.ucast_solicit'
p1079
I3
sS'net.ipv6.neigh.default.locktime'
p1080
I0
sS'CONFIG_AGP_VIA'
p1081
S'y'
sS'net.ipv6.auto_flowlabels'
p1082
I1
sS'kernel.sched_domain.cpu28.domain0.max_newidle_lb_cost'
p1083
I61069
sS'CONFIG_SCHED_MC_PRIO'
p1084
S'y'
sS'kernel.sched_domain.cpu19.domain0.cache_nice_tries'
p1085
I1
sS'kernel.sched_domain.cpu28.domain1.newidle_idx'
p1086
I0
sS'kernel.sched_domain.cpu14.domain0.flags'
p1087
I4143
sS'kernel.sched_domain.cpu31.domain1.max_newidle_lb_cost'
p1088
I19818
sS'CONFIG_ELFCORE'
p1089
S'y'
sS'CONFIG_BPF_EVENTS'
p1090
S'y'
sS'net.ipv4.neigh.lo.mcast_solicit'
p1091
I3
sS'CONFIG_BUILD_BIN2C'
p1092
S'y'
sS'kernel.sched_domain.cpu14.domain1.max_interval'
p1093
I72
sS'CONFIG_I2C_PIIX4'
p1094
S'm'
sS'CONFIG_SND_HDA_GENERIC'
p1095
S'm'
sS'net.core.bpf_jit_enable'
p1096
I0
sS'CONFIG_SND_HDA'
p1097
S'm'
sS'fs.quota.drops'
p1098
I0
sS'kernel.acct'
p1099
S'4\t2\t30'
p1100
sS'kernel.sched_domain.cpu8.domain0.name'
p1101
S'DIE'
p1102
sS'fs.mqueue.msg_max'
p1103
I10
sS'kernel.yama.ptrace_scope'
p1104
I1
sS'kernel.sched_domain.cpu19.domain0.idle_idx'
p1105
I1
sS'kernel.sched_domain.cpu35.domain1.flags'
p1106
I25647
sS'dev.parport.default.timeslice'
p1107
I200
sS'net.ipv4.inet_peer_threshold'
p1108
I65664
sS'kernel.sched_domain.cpu21.domain0.max_newidle_lb_cost'
p1109
I70971
sS'CONFIG_HAVE_ARCH_TRACEHOOK'
p1110
S'y'
sS'net.ipv6.conf.all.ignore_routes_with_linkdown'
p1111
I0
sS'net.core.rps_sock_flow_entries'
p1112
I0
sS'CONFIG_ARCH_SELECT_MEMORY_MODEL'
p1113
S'y'
sS'CONFIG_FONT_8x8'
p1114
S'y'
sS'kernel.sched_domain.cpu1.domain0.min_interval'
p1115
I24
sS'net.ipv6.conf.default.disable_policy'
p1116
I0
sS'CONFIG_EARLY_PRINTK_USB'
p1117
S'y'
sS'kernel.sched_domain.cpu26.domain1.max_interval'
p1118
I72
sS'CONFIG_EDD'
p1119
S'y'
sS'kernel.sched_domain.cpu26.domain1.name'
p1120
S'NUMA'
p1121
sS'net.ipv6.route.max_size'
p1122
I4096
sS'kernel.sched_domain.cpu26.domain1.forkexec_idx'
p1123
I0
sS'kernel.sched_domain.cpu5.domain0.imbalance_pct'
p1124
I125
sS'kernel.sched_domain.cpu13.domain1.name'
p1125
S'NUMA'
p1126
sS'CONFIG_FTRACE_SYSCALLS'
p1127
S'y'
sS'net.ipv6.conf.lo.accept_ra_rt_info_min_plen'
p1128
I0
sS'CONFIG_GENERIC_IRQ_MIGRATION'
p1129
S'y'
sS'kernel.sched_domain.cpu5.domain0.max_interval'
p1130
I48
sS'fs.inode-state'
p1131
S'100536\t517\t0\t0\t0\t0\t0'
p1132
sS'CONFIG_HTC_I2CPLD'
p1133
S'y'
sS'kernel.sched_domain.cpu27.domain0.newidle_idx'
p1134
I0
sS'kernel.sched_domain.cpu35.domain0.busy_factor'
p1135
I32
sS'kernel.sched_domain.cpu25.domain0.flags'
p1136
I4143
sS'net.ipv4.ipfrag_max_dist'
p1137
I64
sS'kernel.sched_rt_period_us'
p1138
I1000000
sS'CONFIG_HAVE_CONTEXT_TRACKING'
p1139
S'y'
sS'CONFIG_CRYPTO_DRBG'
p1140
S'y'
sS'CONFIG_ADVISE_SYSCALLS'
p1141
S'y'
sS'CONFIG_STRICT_MODULE_RWX'
p1142
S'y'
sS'kernel.sched_domain.cpu19.domain0.busy_idx'
p1143
I2
sS'kernel.printk_delay'
p1144
I0
sS'kernel.sched_domain.cpu8.domain0.forkexec_idx'
p1145
I0
sS'CONFIG_GENERIC_ISA_DMA'
p1146
S'y'
sS'net.ipv4.neigh.default.retrans_time_ms'
p1147
I1000
sS'net.core.wmem_default'
p1148
I212992
sS'CONFIG_RATIONAL'
p1149
S'y'
sS'kernel.sched_domain.cpu16.domain1.max_newidle_lb_cost'
p1150
I57020
sS'CONFIG_ARCH_DMA_ADDR_T_64BIT'
p1151
S'y'
sS'kernel.sched_domain.cpu22.domain0.busy_idx'
p1152
I2
sS'CONFIG_IP_NF_FILTER'
p1153
S'm'
sS'kernel.sched_domain.cpu20.domain1.min_interval'
p1154
I36
sS'net.ipv4.conf.default.route_localnet'
p1155
I0
sS'net.ipv4.conf.lo.proxy_arp'
p1156
I0
sS'CONFIG_PMIC_DA903X'
p1157
S'y'
sS'CONFIG_X86_POWERNOW_K8'
p1158
S'y'
sS'CONFIG_ACPI_APEI_MEMORY_FAILURE'
p1159
S'y'
sS'net.ipv4.ip_local_reserved_ports'
p1160
S''
sS'CONFIG_NET_VENDOR_QLOGIC'
p1161
S'y'
sS'CONFIG_PCSPKR_PLATFORM'
p1162
S'y'
sS'kernel.sched_domain.cpu17.domain0.max_interval'
p1163
I48
sS'net.ipv6.conf.lo.max_addresses'
p1164
I16
sS'kernel.sched_domain.cpu20.domain1.name'
p1165
S'NUMA'
p1166
sS'kernel.sched_domain.cpu7.domain0.min_interval'
p1167
I24
sS'kernel.sysctl_writes_strict'
p1168
I1
sS'vm.drop_caches'
p1169
I0
sS'kernel.sched_domain.cpu21.domain0.newidle_idx'
p1170
I0
sS'CONFIG_I2C_COMPAT'
p1171
S'y'
sS'net.ipv6.conf.ens3.temp_valid_lft'
p1172
I604800
sS'CONFIG_HAVE_FUNCTION_TRACER'
p1173
S'y'
sS'CONFIG_TRACING_SUPPORT'
p1174
S'y'
sS'kernel.sched_domain.cpu22.domain0.max_newidle_lb_cost'
p1175
I54036
sS'kernel.sched_domain.cpu35.domain0.busy_idx'
p1176
I2
sS'kernel.sched_domain.cpu2.domain1.flags'
p1177
I25647
sS'CONFIG_PCI_PASID'
p1178
S'y'
sS'dev.cdrom.info'
p1179
S''
sS'kernel.sched_domain.cpu21.domain1.name'
p1180
S'NUMA'
p1181
sS'CONFIG_NET_VENDOR_AQUANTIA'
p1182
S'y'
sS'kernel.sched_domain.cpu9.domain0.wake_idx'
p1183
I0
sS'CONFIG_TRANSPARENT_HUGEPAGE_ALWAYS'
p1184
S'y'
sg8
S'HostInfo.host-192.168.123.30'
p1185
sS'CONFIG_X86_L1_CACHE_SHIFT'
p1186
I6
sS'kernel.sched_domain.cpu12.domain0.wake_idx'
p1187
I0
sS'kernel.sched_domain.cpu13.domain0.busy_factor'
p1188
I32
sS'CONFIG_NET_VENDOR_HP'
p1189
S'y'
sS'CONFIG_NET_VENDOR_MELLANOX'
p1190
S'y'
sS'CONFIG_SHMEM'
p1191
S'y'
sS'CONFIG_EFI_RUNTIME_WRAPPERS'
p1192
S'y'
sS'net.core.netdev_max_backlog'
p1193
I1000
sS'kernel.sched_domain.cpu8.domain0.max_newidle_lb_cost'
p1194
I119217
sS'CONFIG_PM_TRACE_RTC'
p1195
S'y'
sS'kernel.sched_domain.cpu32.domain0.newidle_idx'
p1196
I0
sS'kernel.sched_domain.cpu31.domain0.idle_idx'
p1197
I1
sS'CONFIG_VIRTIO_BLK'
p1198
S'y'
sS'net.ipv6.neigh.ens3.unres_qlen'
p1199
I101
sS'CONFIG_ARCH_HIBERNATION_POSSIBLE'
p1200
S'y'
sS'kernel.hotplug'
p1201
S''
sS'CONFIG_SERIAL_CORE_CONSOLE'
p1202
S'y'
sS'kernel.sched_domain.cpu4.domain1.cache_nice_tries'
p1203
I2
sS'kernel.sched_domain.cpu9.domain0.busy_idx'
p1204
I2
sS'kernel.ostype'
p1205
S'Linux'
p1206
sS'CONFIG_PNP'
p1207
S'y'
sS'kernel.sched_domain.cpu9.domain0.imbalance_pct'
p1208
I125
sS'CONFIG_IPV6'
p1209
S'y'
sS'CONFIG_GENERIC_CLOCKEVENTS'
p1210
S'y'
sS'CONFIG_MICROCODE_INTEL'
p1211
S'y'
sS'kernel.sched_domain.cpu33.domain0.name'
p1212
S'DIE'
p1213
sS'CONFIG_PM_CLK'
p1214
S'y'
sS'kernel.sched_domain.cpu12.domain0.min_interval'
p1215
I24
sS'kernel.sched_domain.cpu11.domain1.newidle_idx'
p1216
I0
sS'CONFIG_KVM_COMPAT'
p1217
S'y'
sS'CONFIG_TCG_TPM'
p1218
S'y'
sS'CONFIG_I2C_DESIGNWARE_PLATFORM'
p1219
S'y'
sS'net.ipv6.conf.ens3.ignore_routes_with_linkdown'
p1220
I0
sS'kernel.sched_domain.cpu29.domain0.newidle_idx'
p1221
I0
sS'kernel.sched_domain.cpu29.domain1.flags'
p1222
I25647
sS'kernel.sched_domain.cpu27.domain0.flags'
p1223
I4143
sS'net.ipv4.conf.all.log_martians'
p1224
I0
sS'kernel.sched_domain.cpu6.domain0.busy_factor'
p1225
I32
sS'kernel.sched_domain.cpu4.domain0.imbalance_pct'
p1226
I125
sS'CONFIG_SQUASHFS'
p1227
S'y'
sS'CONFIG_WQ_POWER_EFFICIENT_DEFAULT'
p1228
S'y'
sS'CONFIG_MFD_MAX77693'
p1229
S'y'
sS'kernel.sched_domain.cpu23.domain0.newidle_idx'
p1230
I0
sS'kernel.sched_domain.cpu17.domain1.cache_nice_tries'
p1231
I2
sS'CONFIG_CGROUP_DEVICE'
p1232
S'y'
sS'CONFIG_NET_VENDOR_ALTEON'
p1233
S'y'
sS'CONFIG_BSD_PROCESS_ACCT_V3'
p1234
S'y'
sS'net.ipv4.conf.ens3.tag'
p1235
I0
sS'CONFIG_AMD_NB'
p1236
S'y'
sS'net.ipv4.conf.default.tag'
p1237
I0
sS'net.ipv4.tcp_max_syn_backlog'
p1238
I2048
sS'kernel.sched_domain.cpu10.domain1.idle_idx'
p1239
I2
sS'CONFIG_DECOMPRESS_XZ'
p1240
S'y'
sS'kernel.sched_domain.cpu23.domain1.cache_nice_tries'
p1241
I2
sS'kernel.sched_domain.cpu16.domain1.flags'
p1242
I25647
sS'net.ipv6.conf.all.dad_transmits'
p1243
I1
sS'net.ipv6.ip6frag_high_thresh'
p1244
I4194304
sS'kernel.sched_domain.cpu21.domain0.busy_factor'
p1245
I32
sS'CONFIG_HAVE_ARCH_JUMP_LABEL'
p1246
S'y'
sS'vm.dirty_expire_centisecs'
p1247
I3000
sS'kernel.sched_domain.cpu17.domain1.name'
p1248
S'NUMA'
p1249
sS'CONFIG_KERNFS'
p1250
S'y'
sS'CONFIG_TCG_TIS_CORE'
p1251
S'y'
sS'CONFIG_IP_MULTICAST'
p1252
S'y'
sS'CONFIG_PM_WAKELOCKS_GC'
p1253
S'y'
sS'kernel.sched_domain.cpu3.domain0.wake_idx'
p1254
I0
sS'kernel.sched_domain.cpu18.domain0.newidle_idx'
p1255
I0
sS'CONFIG_GENERIC_IRQ_SHOW'
p1256
S'y'
sS'CONFIG_MFD_WM8400'
p1257
S'y'
sS'net.ipv6.conf.all.forwarding'
p1258
I0
sS'CONFIG_SERIAL_8250_MANY_PORTS'
p1259
S'y'
sS'net.ipv4.conf.default.medium_id'
p1260
I0
sS'CONFIG_ARCH_HAS_GIGANTIC_PAGE'
p1261
S'y'
sS'vm.oom_dump_tasks'
p1262
I1
sS'net.ipv6.ip6frag_secret_interval'
p1263
I0
sS'CONFIG_PMIC_ADP5520'
p1264
S'y'
sS'CONFIG_USER_NS'
p1265
S'y'
sS'kernel.sched_domain.cpu24.domain0.newidle_idx'
p1266
I0
sS'net.ipv4.neigh.default.gc_stale_time'
p1267
I60
sS'kernel.sched_domain.cpu8.domain1.min_interval'
p1268
I36
sS'CONFIG_ARCH_WANTS_DYNAMIC_TASK_STRUCT'
p1269
S'y'
sS'net.ipv4.conf.ens3.accept_source_route'
p1270
I1
sS'CONFIG_SYSTEM_TRUSTED_KEYRING'
p1271
S'y'
sS'net.ipv6.icmp.ratelimit'
p1272
I1000
sS'net.ipv4.conf.lo.log_martians'
p1273
I0
sS'CONFIG_HAVE_ALIGNED_STRUCT_PAGE'
p1274
S'y'
sS'dev.cdrom.check_media'
p1275
I0
sS'CONFIG_INTEL_SOC_PMIC'
p1276
S'y'
sS'kernel.sched_domain.cpu9.domain0.min_interval'
p1277
I24
sS'net.ipv6.conf.ens3.keep_addr_on_down'
p1278
I0
sS'net.ipv4.conf.default.mc_forwarding'
p1279
I0
sS'net.core.dev_weight_tx_bias'
p1280
I1
sS'CONFIG_MDIO'
p1281
S'm'
sS'CONFIG_BLOCK_COMPAT'
p1282
S'y'
sS'net.ipv6.neigh.default.retrans_time_ms'
p1283
I1000
sS'kernel.sched_domain.cpu14.domain1.cache_nice_tries'
p1284
I2
sS'net.ipv6.conf.ens3.drop_unsolicited_na'
p1285
I0
sS'CONFIG_NLS_ISO8859_1'
p1286
S'y'
sS'kernel.sem'
p1287
S'32000\t1024000000\t500\t32000'
p1288
sS'kernel.sched_domain.cpu9.domain1.max_interval'
p1289
I72
sS'net.ipv4.tcp_window_scaling'
p1290
I1
sS'net.ipv4.tcp_available_ulp'
p1291
S''
sS'CONFIG_NEED_DMA_MAP_STATE'
p1292
S'y'
sS'net.ipv6.conf.lo.temp_prefered_lft'
p1293
I86400
sS'CONFIG_HAVE_ARCH_SECCOMP_FILTER'
p1294
S'y'
sS'kernel.sched_domain.cpu35.domain1.imbalance_pct'
p1295
I125
sS'CONFIG_INPUT_MOUSEDEV_SCREEN_X'
p1296
I1024
sS'CONFIG_INPUT_MOUSEDEV_SCREEN_Y'
p1297
I768
sS'CONFIG_DMIID'
p1298
S'y'
sS'CONFIG_SND_HDA_RECONFIG'
p1299
S'y'
sS'net.ipv4.conf.default.arp_notify'
p1300
I0
sS'CONFIG_INPUT_UINPUT'
p1301
S'y'
sS'net.ipv6.flowlabel_reflect'
p1302
I0
sS'CONFIG_NET_L3_MASTER_DEV'
p1303
S'y'
sS'CONFIG_SERIAL_EARLYCON'
p1304
S'y'
sS'kernel.sched_domain.cpu21.domain1.cache_nice_tries'
p1305
I2
sS'kernel.sched_domain.cpu23.domain1.idle_idx'
p1306
I2
sS'CONFIG_BTT'
p1307
S'y'
sS'CONFIG_ARCH_HAS_ACPI_TABLE_UPGRADE'
p1308
S'y'
sS'CONFIG_IRQ_REMAP'
p1309
S'y'
sS'CONFIG_GENERIC_TRACER'
p1310
S'y'
sS'kernel.sched_domain.cpu35.domain0.max_newidle_lb_cost'
p1311
I19963
sS'kernel.sched_domain.cpu15.domain0.busy_idx'
p1312
I2
sS'CONFIG_BE2ISCSI'
p1313
S'm'
sS'kernel.sched_domain.cpu14.domain1.forkexec_idx'
p1314
I0
sS'CONFIG_NET_VENDOR_DEC'
p1315
S'y'
sS'CONFIG_FUTEX'
p1316
S'y'
sS'net.ipv6.neigh.ens3.app_solicit'
p1317
I0
sS'CONFIG_ARCH_WANT_OLD_COMPAT_IPC'
p1318
S'y'
sS'CONFIG_SSB_POSSIBLE'
p1319
S'y'
sS'net.ipv4.conf.default.arp_ignore'
p1320
I0
sS'kernel.sched_domain.cpu19.domain1.flags'
p1321
I25647
sS'kernel.sched_domain.cpu26.domain1.busy_factor'
p1322
I32
sS'net.ipv4.tcp_ecn'
p1323
I2
sS'CONFIG_ZSTD_COMPRESS'
p1324
S'm'
sS'CONFIG_HWMON'
p1325
S'y'
sS'kernel.bootloader_type'
p1326
I114
sS'CONFIG_MFD_DA9052_I2C'
p1327
S'y'
sS'CONFIG_LOG_BUF_SHIFT'
p1328
I18
sS'CONFIG_INTEL_IOMMU'
p1329
S'y'
sS'CONFIG_IRQ_DOMAIN_HIERARCHY'
p1330
S'y'
sS'CONFIG_NET_VENDOR_BROCADE'
p1331
S'y'
sS'CONFIG_ACPI_CUSTOM_DSDT_FILE'
p1332
S'""'
p1333
sS'net.ipv6.neigh.default.gc_thresh2'
p1334
I512
sS'net.ipv6.neigh.default.gc_thresh3'
p1335
I1024
sS'kernel.sched_domain.cpu35.domain0.name'
p1336
S'DIE'
p1337
sS'net.ipv6.neigh.default.gc_thresh1'
p1338
I128
sS'CONFIG_NET_VENDOR_NATSEMI'
p1339
S'y'
sS'kernel.sched_domain.cpu1.domain1.imbalance_pct'
p1340
I125
sS'CONFIG_NO_HZ_IDLE'
p1341
S'y'
sS'user.max_ipc_namespaces'
p1342
I257513
sS'kernel.sched_domain.cpu15.domain0.flags'
p1343
I4143
sS'kernel.sched_domain.cpu25.domain0.busy_factor'
p1344
I32
sS'CONFIG_CRYPTO_SHA256'
p1345
S'y'
sS'net.ipv4.neigh.ens3.unres_qlen_bytes'
p1346
I212992
sS'vm.overcommit_memory'
p1347
I0
sS'CONFIG_MODULE_UNLOAD'
p1348
S'y'
sS'CONFIG_NLS_DEFAULT'
p1349
S'"utf8"'
p1350
sS'CONFIG_MFD_RC5T583'
p1351
S'y'
sS'CONFIG_BTRFS_FS_POSIX_ACL'
p1352
S'y'
sS'kernel.sched_domain.cpu28.domain1.forkexec_idx'
p1353
I0
sS'CONFIG_GENERIC_PHY'
p1354
S'y'
sS'net.ipv6.conf.lo.accept_source_route'
p1355
I0
sS'CONFIG_CHELSIO_LIB'
p1356
S'm'
sS'kernel.sched_domain.cpu18.domain0.cache_nice_tries'
p1357
I1
sS'CONFIG_FB_VESA'
p1358
S'y'
sS'net.ipv4.neigh.lo.retrans_time_ms'
p1359
I1000
sS'CONFIG_X86_RESERVE_LOW'
p1360
I64
sS'kernel.modules_disabled'
p1361
I0
sS'CONFIG_X86_NUMACHIP'
p1362
S'y'
sS'CONFIG_DMI_SCAN_MACHINE_NON_EFI_FALLBACK'
p1363
S'y'
sS'net.ipv6.ip_nonlocal_bind'
p1364
I0
sS'kernel.sched_domain.cpu23.domain0.forkexec_idx'
p1365
I0
sS'net.ipv6.neigh.default.proxy_delay'
p1366
I80
sS'kernel.sched_domain.cpu16.domain0.busy_idx'
p1367
I2
sS'kernel.sched_domain.cpu8.domain1.cache_nice_tries'
p1368
I2
sS'CONFIG_INOTIFY_USER'
p1369
S'y'
sS'net.core.busy_poll'
p1370
I0
sS'CONFIG_UEFI_CPER'
p1371
S'y'
sS'CONFIG_RTC_DRV_CMOS'
p1372
S'y'
sS'CONFIG_TRANSPARENT_HUGE_PAGECACHE'
p1373
S'y'
sS'net.ipv4.neigh.lo.base_reachable_time_ms'
p1374
I30000
sS'net.ipv4.tcp_tw_reuse'
p1375
I0
sS'CONFIG_MOUSE_PS2_SENTELIC'
p1376
S'y'
sS'CONFIG_LOCKUP_DETECTOR'
p1377
S'y'
sS'kernel.sched_domain.cpu12.domain1.name'
p1378
S'NUMA'
p1379
sS'CONFIG_RAPIDIO'
p1380
S'y'
sS'CONFIG_STAGING_MEDIA'
p1381
S'y'
sS'net.ipv4.conf.ens3.igmpv3_unsolicited_report_interval'
p1382
I1000
sS'CONFIG_DEFCONFIG_LIST'
p1383
S'"/lib/modules/$UNAME_RELEASE/.config"'
p1384
sS'net.ipv4.ip_local_port_range'
p1385
S'32768\t60999'
p1386
sS'kernel.sched_domain.cpu6.domain1.busy_idx'
p1387
I3
sS'CONFIG_HUGETLB_PAGE'
p1388
S'y'
sS'CONFIG_PERF_EVENTS'
p1389
S'y'
sS'kernel.sched_domain.cpu32.domain1.wake_idx'
p1390
I0
sS'net.ipv4.neigh.lo.locktime'
p1391
I100
sS'CONFIG_SECURITY_TOMOYO_ACTIVATION_TRIGGER'
p1392
S'"/sbin/init"'
p1393
sS'kernel.sched_domain.cpu13.domain1.min_interval'
p1394
I36
sS'CONFIG_MODIFY_LDT_SYSCALL'
p1395
S'y'
sS'CONFIG_UCS2_STRING'
p1396
S'y'
sS'kernel.sched_domain.cpu10.domain1.wake_idx'
p1397
I0
sS'kernel.sched_domain.cpu6.domain1.newidle_idx'
p1398
I0
sS'CONFIG_SOUND'
p1399
S'm'
sS'CONFIG_ARCH_SPARSEMEM_DEFAULT'
p1400
S'y'
sS'CONFIG_IPV6_ROUTE_INFO'
p1401
S'y'
sS'CONFIG_CLKEVT_I8253'
p1402
S'y'
sS'CONFIG_RAPIDIO_DMA_ENGINE'
p1403
S'y'
sS'CONFIG_MFD_SMSC'
p1404
S'y'
sS'kernel.sched_domain.cpu12.domain1.idle_idx'
p1405
I2
sS'CONFIG_SERIAL_8250_PCI'
p1406
S'y'
sS'CONFIG_PCIEASPM_DEFAULT'
p1407
S'y'
sS'kernel.sched_domain.cpu8.domain1.name'
p1408
S'NUMA'
p1409
sS'CONFIG_HAVE_EXIT_THREAD'
p1410
S'y'
sS'CONFIG_SND_HDA_HWDEP'
p1411
S'y'
sS'CONFIG_SOFTLOCKUP_DETECTOR'
p1412
S'y'
sS'kernel.sched_domain.cpu14.domain1.wake_idx'
p1413
I0
sS'CONFIG_EARLY_PRINTK'
p1414
S'y'
sS'net.ipv6.conf.ens3.ndisc_notify'
p1415
I0
sS'net.ipv4.conf.all.proxy_arp_pvlan'
p1416
I0
sS'kernel'
p1417
S'4.14.0-rc8-stock'
p1418
sS'kernel.sched_domain.cpu3.domain0.max_interval'
p1419
I48
sS'CONFIG_BACKLIGHT_LCD_SUPPORT'
p1420
S'y'
sS'CONFIG_DUMMY_CONSOLE_ROWS'
p1421
I25
sS'CONFIG_MOUSE_PS2_ELANTECH'
p1422
S'y'
sS'CONFIG_PCI_MMCONFIG'
p1423
S'y'
sS'CONFIG_KVM_MMIO'
p1424
S'y'
sS'net.ipv4.neigh.default.unres_qlen_bytes'
p1425
I212992
sS'kernel.sched_domain.cpu14.domain0.busy_factor'
p1426
I32
sS'CONFIG_PINCTRL_BAYTRAIL'
p1427
S'y'
sS'net.ipv4.icmp_errors_use_inbound_ifaddr'
p1428
I0
sS'net.ipv6.conf.all.addr_gen_mode'
p1429
I0
sS'kernel.sched_domain.cpu8.domain1.wake_idx'
p1430
I0
sS'CONFIG_HAVE_ACPI_APEI_NMI'
p1431
S'y'
sS'vm.page-cluster'
p1432
I3
sS'kernel.sched_domain.cpu9.domain1.newidle_idx'
p1433
I0
sS'CONFIG_BACKLIGHT_CLASS_DEVICE'
p1434
S'y'
sS'CONFIG_MOUSE_PS2_CYPRESS'
p1435
S'y'
sS'kernel.sched_rt_runtime_us'
p1436
I950000
sS'kernel.sched_domain.cpu29.domain0.busy_factor'
p1437
I32
sS'CONFIG_X86_CMOV'
p1438
S'y'
sS'CONFIG_ARCH_HAS_CACHE_LINE_SIZE'
p1439
S'y'
sS'net.ipv4.tcp_fastopen_blackhole_timeout_sec'
p1440
I3600
sS'CONFIG_SIGNATURE'
p1441
S'y'
sS'net.ipv4.conf.all.mc_forwarding'
p1442
I0
sS'CONFIG_PM_DEBUG'
p1443
S'y'
sS'net.ipv4.neigh.default.ucast_solicit'
p1444
I3
sS'kernel.pty.reserve'
p1445
I1024
sS'kernel.sched_domain.cpu33.domain1.wake_idx'
p1446
I0
sS'kernel.sched_domain.cpu6.domain0.flags'
p1447
I4143
sS'CONFIG_SERIO_I8042'
p1448
S'y'
sS'CONFIG_NET_VENDOR_NETRONOME'
p1449
S'y'
sS'CONFIG_BLK_DEV_LOOP'
p1450
S'y'
sS'vm.mmap_min_addr'
p1451
I65536
sS'CONFIG_CRYPTO_DRBG_CTR'
p1452
S'y'
sS'CONFIG_HAVE_CMPXCHG_LOCAL'
p1453
S'y'
sS'net.ipv6.route.mtu_expires'
p1454
I600
sS'CONFIG_SND_USB'
p1455
S'y'
sS'CONFIG_DNOTIFY'
p1456
S'y'
sS'CONFIG_CMDLINE_PARTITION'
p1457
S'y'
sS'CONFIG_NETWORK_SECMARK'
p1458
S'y'
sS'CONFIG_SND_HDA_INTEL'
p1459
S'm'
sS'net.ipv4.ping_group_range'
p1460
S'1\t0'
p1461
sS'CONFIG_PERF_EVENTS_INTEL_CSTATE'
p1462
S'y'
sS'kernel.sched_domain.cpu5.domain0.max_newidle_lb_cost'
p1463
I19888
sS'net.ipv4.icmp_msgs_burst'
p1464
I50
sS'CONFIG_PPP_MULTILINK'
p1465
S'y'
sS'CONFIG_BLK_DEV_FD'
p1466
S'm'
sS'kernel.sched_domain.cpu16.domain0.forkexec_idx'
p1467
I0
sS'CONFIG_SND_DRIVERS'
p1468
S'y'
sS'CONFIG_SCSI_CXGB4_ISCSI'
p1469
S'm'
sS'CONFIG_CRASH_DUMP'
p1470
S'y'
sS'vm.watermark_scale_factor'
p1471
I10
sS'CONFIG_HAVE_UID16'
p1472
S'y'
sS'CONFIG_NET_VENDOR_WIZNET'
p1473
S'y'
sS'kernel.sched_domain.cpu14.domain0.max_interval'
p1474
I48
sS'kernel.sched_domain.cpu0.domain1.cache_nice_tries'
p1475
I2
sS'dev.parport.default.spintime'
p1476
I500
sS'kernel.sched_domain.cpu24.domain0.wake_idx'
p1477
I0
sS'CONFIG_IOSF_MBI'
p1478
S'y'
sS'net.ipv4.fib_multipath_hash_policy'
p1479
I0
sS'CONFIG_BLK_DEV_BSG'
p1480
S'y'
sS'CONFIG_INPUT_KEYBOARD'
p1481
S'y'
sS'net.ipv4.neigh.default.app_solicit'
p1482
I0
sS'kernel.sched_domain.cpu19.domain0.newidle_idx'
p1483
I0
sS'CONFIG_CPU_FREQ_GOV_CONSERVATIVE'
p1484
S'y'
sS'CONFIG_MEMORY_HOTPLUG_SPARSE'
p1485
S'y'
sS'CONFIG_ZSWAP'
p1486
S'y'
sS'CONFIG_KVM'
p1487
S'm'
sS'CONFIG_CRYPTO_AEAD2'
p1488
S'y'
sS'kernel.sched_domain.cpu10.domain1.max_newidle_lb_cost'
p1489
I19884
sS'CONFIG_PCIEASPM_DEBUG'
p1490
S'y'
sS'CONFIG_PROC_PID_CPUSET'
p1491
S'y'
sS'CONFIG_MEMORY_BALLOON'
p1492
S'y'
sS'CONFIG_INFINIBAND'
p1493
S'm'
sS'CONFIG_NET_VENDOR_SILAN'
p1494
S'y'
sS'kernel.sched_domain.cpu27.domain1.cache_nice_tries'
p1495
I2
sS'net.ipv4.conf.ens3.log_martians'
p1496
I0
sS'CONFIG_CC_STACKPROTECTOR_STRONG'
p1497
S'y'
sS'CONFIG_HOTPLUG_CPU'
p1498
S'y'
sS'CONFIG_PROC_FS'
p1499
S'y'
sS'net.ipv4.route.redirect_number'
p1500
I9
sS'kernel.sched_domain.cpu27.domain0.busy_factor'
p1501
I32
sS'kernel.sched_domain.cpu22.domain1.busy_idx'
p1502
I3
sS'CONFIG_MOUSE_PS2_ALPS'
p1503
S'y'
sS'kernel.sched_domain.cpu3.domain0.min_interval'
p1504
I24
sS'kernel.sched_domain.cpu14.domain0.busy_idx'
p1505
I2
sS'CONFIG_THERMAL_WRITABLE_TRIPS'
p1506
S'y'
sS'CONFIG_TOUCHSCREEN_PROPERTIES'
p1507
S'y'
sS'vm.extfrag_threshold'
p1508
I500
sS'CONFIG_BLK_DEV_THROTTLING'
p1509
S'y'
sS'CONFIG_SWAP'
p1510
S'y'
sS'kernel.osrelease'
p1511
S'4.14.0-rc8-stock'
p1512
sS'kernel.sched_domain.cpu8.domain0.busy_idx'
p1513
I2
sS'CONFIG_AMD_IOMMU'
p1514
S'y'
sS'CONFIG_PAGE_COUNTER'
p1515
S'y'
sS'CONFIG_ARCH_MIGHT_HAVE_ACPI_PDC'
p1516
S'y'
sS'kernel.sched_domain.cpu33.domain0.max_newidle_lb_cost'
p1517
I19107
sS'kernel.sched_domain.cpu14.domain0.forkexec_idx'
p1518
I0
sS'CONFIG_MFD_AS3711'
p1519
S'y'
sS'kernel.sched_domain.cpu30.domain1.cache_nice_tries'
p1520
I2
sS'CONFIG_IO_DELAY_TYPE_UDELAY'
p1521
I2
sS'CONFIG_CPU_FREQ_DEFAULT_GOV_PERFORMANCE'
p1522
S'y'
sS'CONFIG_HAVE_CMPXCHG_DOUBLE'
p1523
S'y'
sS'kernel.sched_domain.cpu27.domain0.max_interval'
p1524
I24
sS'kernel.sched_domain.cpu30.domain0.max_newidle_lb_cost'
p1525
I20857
sS'CONFIG_ATA_ACPI'
p1526
S'y'
sS'net.ipv4.conf.lo.route_localnet'
p1527
I0
sS'kernel.sched_domain.cpu3.domain1.imbalance_pct'
p1528
I125
sS'CONFIG_ACPI_APEI'
p1529
S'y'
sS'kernel.sched_domain.cpu1.domain1.name'
p1530
S'NUMA'
p1531
sS'CONFIG_IRQ_DOMAIN'
p1532
S'y'
sS'net.ipv4.udp_wmem_min'
p1533
I4096
sS'net.ipv4.tcp_invalid_ratelimit'
p1534
I500
sS'net.ipv4.neigh.ens3.proxy_qlen'
p1535
I64
sS'CONFIG_NET_VENDOR_AMAZON'
p1536
S'y'
sS'kernel.sched_domain.cpu28.domain1.busy_idx'
p1537
I3
sS'kernel.sched_domain.cpu2.domain0.busy_factor'
p1538
I32
sS'CONFIG_VT'
p1539
S'y'
sS'net.ipv4.conf.lo.arp_announce'
p1540
I0
sS'kernel.sched_domain.cpu17.domain0.cache_nice_tries'
p1541
I1
sS'CONFIG_HAVE_IDE'
p1542
S'y'
sS'kernel.sched_domain.cpu6.domain0.forkexec_idx'
p1543
I0
sS'CONFIG_NET_VENDOR_8390'
p1544
S'y'
sS'kernel.sched_domain.cpu15.domain0.cache_nice_tries'
p1545
I1
sS'kernel.sched_domain.cpu3.domain1.max_interval'
p1546
I72
sS'fs.mqueue.queues_max'
p1547
I256
sS'net.ipv4.conf.ens3.rp_filter'
p1548
I0
sS'CONFIG_NET_NS'
p1549
S'y'
sS'CONFIG_IMA_TRUSTED_KEYRING'
p1550
S'y'
sS'CONFIG_HAVE_LIVEPATCH'
p1551
S'y'
sS'CONFIG_KGDB_LOW_LEVEL_TRAP'
p1552
S'y'
sS'CONFIG_HAVE_OPROFILE'
p1553
S'y'
sS'CONFIG_NVDIMM_DAX'
p1554
S'y'
sS'CONFIG_IMA_DEFAULT_HASH'
p1555
S'"sha1"'
p1556
sS'CONFIG_ACPI_THERMAL'
p1557
S'y'
sS'CONFIG_BLK_DEV_BSGLIB'
p1558
S'y'
sS'CONFIG_EFI_MIXED'
p1559
S'y'
sS'kernel.sched_domain.cpu2.domain1.wake_idx'
p1560
I0
sS'net.ipv4.neigh.default.locktime'
p1561
I100
sS'CONFIG_DUMMY_CONSOLE_COLUMNS'
p1562
I80
sS'CONFIG_HPET_MMAP'
p1563
S'y'
sS'CONFIG_SERIAL_8250_RT288X'
p1564
S'y'
sS'CONFIG_CLOCKSOURCE_VALIDATE_LAST_CYCLE'
p1565
S'y'
sS'kernel.sched_domain.cpu14.domain1.max_newidle_lb_cost'
p1566
I56887
sS'net.ipv4.conf.lo.rp_filter'
p1567
I0
sS'net.core.busy_read'
p1568
I0
sS'CONFIG_BTRFS_FS'
p1569
S'm'
sS'CONFIG_DCACHE_WORD_ACCESS'
p1570
S'y'
sS'net.ipv6.conf.default.mtu'
p1571
I1280
sS'kernel.sched_domain.cpu7.domain0.idle_idx'
p1572
I1
sS'kernel.sched_domain.cpu22.domain0.imbalance_pct'
p1573
I125
sS'net.ipv4.conf.default.drop_gratuitous_arp'
p1574
I0
sS'kernel.sched_domain.cpu31.domain0.flags'
p1575
I4143
sS'CONFIG_UPROBES'
p1576
S'y'
sS'kernel.sched_domain.cpu16.domain0.imbalance_pct'
p1577
I125
sS'CONFIG_ARCH_ENABLE_MEMORY_HOTPLUG'
p1578
S'y'
sS'kernel.sched_domain.cpu4.domain1.forkexec_idx'
p1579
I0
sS'CONFIG_FIRMWARE_MEMMAP'
p1580
S'y'
sS'kernel.sched_domain.cpu11.domain1.busy_factor'
p1581
I32
sS'CONFIG_IPV6_ROUTER_PREF'
p1582
S'y'
sS'kernel.sched_domain.cpu25.domain1.name'
p1583
S'NUMA'
p1584
sS'CONFIG_BOOT_PRINTK_DELAY'
p1585
S'y'
sS'CONFIG_TMPFS'
p1586
S'y'
sS'kernel.sched_domain.cpu32.domain1.flags'
p1587
I25647
sS'kernel.sched_domain.cpu14.domain1.name'
p1588
S'NUMA'
p1589
sS'kernel.sched_domain.cpu20.domain1.idle_idx'
p1590
I2
sS'CONFIG_X86_MCE_INTEL'
p1591
S'y'
sS'CONFIG_RTC_INTF_PROC'
p1592
S'y'
sS'kernel.sched_domain.cpu1.domain0.busy_idx'
p1593
I2
sS'CONFIG_MD_AUTODETECT'
p1594
S'y'
sS'net.ipv6.conf.lo.max_desync_factor'
p1595
I600
sS'kernel.sched_domain.cpu4.domain1.flags'
p1596
I25647
sS'kernel.sched_domain.cpu1.domain1.newidle_idx'
p1597
I0
sS'CONFIG_X86_ESPFIX64'
p1598
S'y'
sS'net.ipv4.neigh.lo.gc_stale_time'
p1599
I60
sS'kernel.traceoff_on_warning'
p1600
I0
sS'kernel.sched_domain.cpu2.domain1.busy_factor'
p1601
I32
sS'CONFIG_DW_DMAC_PCI'
p1602
S'y'
sS'net.ipv4.conf.all.proxy_arp'
p1603
I0
sS'kernel.sched_domain.cpu15.domain0.max_newidle_lb_cost'
p1604
I24151
sS'CONFIG_ARCH_USE_BUILTIN_BSWAP'
p1605
S'y'
sS'CONFIG_PROC_SYSCTL'
p1606
S'y'
sS'fs.file-max'
p1607
I6576659
sS'CONFIG_ACPI_APEI_GHES'
p1608
S'y'
sS'kernel.sched_domain.cpu11.domain0.busy_factor'
p1609
I32
sS'kernel.sched_domain.cpu19.domain0.wake_idx'
p1610
I0
sS'net.ipv4.tcp_limit_output_bytes'
p1611
I262144
sS'CONFIG_NET_VENDOR_NVIDIA'
p1612
S'y'
sS'net.ipv4.neigh.default.mcast_resolicit'
p1613
I0
sS'CONFIG_ACPI_HOTPLUG_CPU'
p1614
S'y'
sS'net.ipv4.conf.ens3.disable_xfrm'
p1615
I0
sS'CONFIG_FRAME_WARN'
p1616
I1024
sS'net.ipv6.conf.all.enhanced_dad'
p1617
I1
sS'CONFIG_FAT_FS'
p1618
S'y'
sS'CONFIG_IRQ_POLL'
p1619
S'y'
sS'net.ipv6.conf.all.hop_limit'
p1620
I64
sS'CONFIG_VT_CONSOLE_SLEEP'
p1621
S'y'
sS'kernel.random.entropy_avail'
p1622
I835
sS'net.ipv4.conf.default.force_igmp_version'
p1623
I0
sS'kernel.sched_domain.cpu29.domain1.name'
p1624
S'NUMA'
p1625
sS'net.ipv4.ip_default_ttl'
p1626
I64
sS'CONFIG_CLEANCACHE'
p1627
S'y'
sS'kernel.nmi_watchdog'
p1628
I0
sS'kernel.sched_domain.cpu27.domain1.busy_idx'
p1629
I3
sS'CONFIG_PCI_PRI'
p1630
S'y'
sS'kernel.sched_domain.cpu9.domain1.flags'
p1631
I25647
sS'CONFIG_CRYPTO_ALGAPI'
p1632
S'y'
sS'kernel.random.boot_id'
p1633
S'a97ed727-4789-4e94-ac9a-6034a0a169b8'
p1634
sS'net.ipv4.conf.lo.accept_local'
p1635
I0
sS'kernel.sched_domain.cpu2.domain0.max_interval'
p1636
I48
sS'CONFIG_QUOTA'
p1637
S'y'
sS'CONFIG_HAVE_IOREMAP_PROT'
p1638
S'y'
sS'kernel.sched_domain.cpu5.domain0.flags'
p1639
I4143
sS'kernel.sched_domain.cpu13.domain0.forkexec_idx'
p1640
I0
sS'CONFIG_CPUSETS'
p1641
S'y'
sS'kernel.sched_domain.cpu27.domain1.busy_factor'
p1642
I32
sS'kernel.sched_domain.cpu28.domain0.busy_factor'
p1643
I32
sS'CONFIG_CMA'
p1644
S'y'
sS'CONFIG_TRACING'
p1645
S'y'
sS'CONFIG_KDB_KEYBOARD'
p1646
S'y'
sS'CONFIG_RADIX_TREE_MULTIORDER'
p1647
S'y'
sS'net.ipv4.conf.all.promote_secondaries'
p1648
I0
sS'CONFIG_LWTUNNEL'
p1649
S'y'
sS'CONFIG_ARCH_MIGHT_HAVE_PC_SERIO'
p1650
S'y'
sS'kernel.sched_domain.cpu7.domain1.flags'
p1651
I25647
sS'net.ipv4.neigh.lo.proxy_qlen'
p1652
I64
sS'CONFIG_CC_STACKPROTECTOR'
p1653
S'y'
sS'kernel.sched_domain.cpu16.domain0.idle_idx'
p1654
I1
sS'CONFIG_PINCTRL_CHERRYVIEW'
p1655
S'y'
sS'CONFIG_FIB_RULES'
p1656
S'y'
sS'net.ipv6.conf.default.autoconf'
p1657
I1
sS'CONFIG_COMPAT_BINFMT_ELF'
p1658
S'y'
sS'kernel.sched_domain.cpu10.domain0.busy_idx'
p1659
I2
sS'CONFIG_HAVE_KPROBES'
p1660
S'y'
sS'kernel.sched_domain.cpu26.domain0.idle_idx'
p1661
I1
sS'CONFIG_VME_BUS'
p1662
S'y'
sS'CONFIG_FW_LOADER'
p1663
S'y'
sS'CONFIG_ATA_VERBOSE_ERROR'
p1664
S'y'
sS'CONFIG_IOSCHED_DEADLINE'
p1665
S'y'
sS'net.ipv6.conf.all.max_desync_factor'
p1666
I600
sS'CONFIG_ARCH_MMAP_RND_COMPAT_BITS_MAX'
p1667
I16
sS'kernel.sched_domain.cpu4.domain0.busy_factor'
p1668
I32
sS'CONFIG_FB_CFB_IMAGEBLIT'
p1669
S'y'
sS'CONFIG_EXT4_USE_FOR_EXT2'
p1670
S'y'
sS'kernel.sched_domain.cpu22.domain1.cache_nice_tries'
p1671
I2
sS'kernel.sched_domain.cpu25.domain1.max_newidle_lb_cost'
p1672
I45093
sS'CONFIG_INPUT_MOUSEDEV_PSAUX'
p1673
S'y'
sS'kernel.sched_domain.cpu30.domain0.idle_idx'
p1674
I1
sS'CONFIG_ATH5K_PCI'
p1675
S'y'
sS'kernel.sched_domain.cpu6.domain1.forkexec_idx'
p1676
I0
sS'kernel.sched_domain.cpu31.domain0.imbalance_pct'
p1677
I125
sS'kernel.sched_domain.cpu13.domain1.newidle_idx'
p1678
I0
sS'CONFIG_NET_CLS'
p1679
S'y'
sS'CONFIG_ACPI_LEGACY_TABLES_LOOKUP'
p1680
S'y'
sS'CONFIG_INPUT_TABLET'
p1681
S'y'
sS'CONFIG_ILLEGAL_POINTER_VALUE'
p1682
S'0xdead000000000000'
p1683
sS'CONFIG_THERMAL_GOV_STEP_WISE'
p1684
S'y'
sS'CONFIG_PRINTK'
p1685
S'y'
sS'net.ipv4.conf.default.promote_secondaries'
p1686
I0
sS'kernel.sched_domain.cpu20.domain0.busy_idx'
p1687
I2
sS'CONFIG_WLAN_VENDOR_MARVELL'
p1688
S'y'
sS'CONFIG_MINIX_SUBPARTITION'
p1689
S'y'
sS'kernel.sched_domain.cpu26.domain0.max_interval'
p1690
I24
sS'kernel.sched_domain.cpu20.domain1.cache_nice_tries'
p1691
I2
sS'kernel.sched_domain.cpu33.domain1.busy_idx'
p1692
I3
sS'kernel.sched_domain.cpu13.domain1.max_newidle_lb_cost'
p1693
I20176
sS'kernel.sched_domain.cpu21.domain1.imbalance_pct'
p1694
I125
sS'CONFIG_FRAMEBUFFER_CONSOLE'
p1695
S'y'
sS'CONFIG_BRIDGE'
p1696
S'm'
sS'net.ipv6.conf.lo.accept_ra_pinfo'
p1697
I1
sS'kernel.sched_domain.cpu19.domain1.forkexec_idx'
p1698
I0
sS'CONFIG_NET_VENDOR_AGERE'
p1699
S'y'
sS'CONFIG_ASYNC_XOR'
p1700
S'm'
sS'CONFIG_SND_HDA_PREALLOC_SIZE'
p1701
I64
sS'CONFIG_ACPI_HOTPLUG_IOAPIC'
p1702
S'y'
sS'kernel.sched_domain.cpu1.domain0.flags'
p1703
I4143
sS'CONFIG_TRACE_IRQFLAGS_SUPPORT'
p1704
S'y'
sS'CONFIG_KEYBOARD_ATKBD'
p1705
S'y'
sS'net.core.default_qdisc'
p1706
S'pfifo_fast'
p1707
sS'kernel.sched_domain.cpu14.domain0.min_interval'
p1708
I24
sS'CONFIG_VIRTIO_MMIO'
p1709
S'y'
sS'CONFIG_VIRT_TO_BUS'
p1710
S'y'
sS'kernel.sched_domain.cpu12.domain1.wake_idx'
p1711
I0
sS'kernel.sched_domain.cpu32.domain1.cache_nice_tries'
p1712
I2
sS'CONFIG_ARCH_SUPPORTS_DEFERRED_STRUCT_PAGE_INIT'
p1713
S'y'
sS'kernel.sched_domain.cpu2.domain0.name'
p1714
S'DIE'
p1715
sS'kernel.sched_domain.cpu21.domain1.max_newidle_lb_cost'
p1716
I21700
sS'kernel.sched_domain.cpu26.domain0.name'
p1717
S'DIE'
p1718
sS'kernel.sched_domain.cpu23.domain1.max_newidle_lb_cost'
p1719
I26101
sS'net.ipv4.ipfrag_high_thresh'
p1720
I4194304
sS'kernel.sched_domain.cpu5.domain0.idle_idx'
p1721
I1
sS'CONFIG_NET_VENDOR_ROCKER'
p1722
S'y'
sS'kernel.sched_domain.cpu23.domain1.flags'
p1723
I25647
sS'CONFIG_BUG'
p1724
S'y'
sS'CONFIG_CPU_FREQ_GOV_COMMON'
p1725
S'y'
sS'CONFIG_PHYSICAL_ALIGN'
p1726
S'0x1000000'
p1727
sS'kernel.sched_domain.cpu11.domain1.cache_nice_tries'
p1728
I2
sS'kernel.timer_migration'
p1729
I1
sS'CONFIG_HAVE_ARCH_VMAP_STACK'
p1730
S'y'
sS'kernel.sched_domain.cpu9.domain0.name'
p1731
S'DIE'
p1732
sS'kernel.sched_domain.cpu9.domain1.max_newidle_lb_cost'
p1733
I70108
sS'kernel.sched_domain.cpu35.domain0.wake_idx'
p1734
I0
sS'CONFIG_PSTORE_ZLIB_COMPRESS'
p1735
S'y'
sS'CONFIG_CRYPTO_BLKCIPHER2'
p1736
S'y'
sS'CONFIG_GENERIC_IRQ_EFFECTIVE_AFF_MASK'
p1737
S'y'
sS'CONFIG_CHR_DEV_SG'
p1738
S'y'
sS'kernel.sched_domain.cpu30.domain1.idle_idx'
p1739
I2
sS'CONFIG_ARCH_HAS_PKEYS'
p1740
S'y'
sS'CONFIG_SIGNALFD'
p1741
S'y'
sS'CONFIG_IMA_LSM_RULES'
p1742
S'y'
sS'CONFIG_MD_MULTIPATH'
p1743
S'm'
sS'net.ipv4.neigh.default.mcast_solicit'
p1744
I3
sS'kernel.sched_domain.cpu13.domain0.idle_idx'
p1745
I1
sS'CONFIG_SYSTEM_DATA_VERIFICATION'
p1746
S'y'
sS'CONFIG_ACPI'
p1747
S'y'
sS'CONFIG_RTC_MC146818_LIB'
p1748
S'y'
sS'kernel.sched_domain.cpu10.domain0.cache_nice_tries'
p1749
I1
sS'CONFIG_STACKTRACE_SUPPORT'
p1750
S'y'
sS'kernel.sched_domain.cpu8.domain0.flags'
p1751
I4143
sS'CONFIG_INTEL_GTT'
p1752
S'y'
sS'CONFIG_THERMAL_EMULATION'
p1753
S'y'
sS'CONFIG_HAVE_DMA_CONTIGUOUS'
p1754
S'y'
sS'kernel.sched_domain.cpu18.domain1.busy_factor'
p1755
I32
sS'net.netfilter.nf_log.5'
p1756
S'NONE'
p1757
sS'net.netfilter.nf_log.4'
p1758
S'NONE'
p1759
sS'net.netfilter.nf_log.7'
p1760
S'NONE'
p1761
sS'net.netfilter.nf_log.6'
p1762
S'NONE'
p1763
sS'net.netfilter.nf_log.1'
p1764
S'NONE'
p1765
sS'net.netfilter.nf_log.0'
p1766
S'NONE'
p1767
sS'net.netfilter.nf_log.3'
p1768
S'NONE'
p1769
sS'net.netfilter.nf_log.2'
p1770
S'NONE'
p1771
sS'kernel.sched_domain.cpu9.domain1.busy_idx'
p1772
I3
sS'net.netfilter.nf_log.9'
p1773
S'NONE'
p1774
sS'net.netfilter.nf_log.8'
p1775
S'NONE'
p1776
sS'net.ipv4.conf.ens3.arp_announce'
p1777
I0
sS'kernel.real-root-dev'
p1778
I0
sS'vm.user_reserve_kbytes'
p1779
I131072
sS'CONFIG_REGMAP_SPI'
p1780
S'y'
sS'CONFIG_HAVE_KERNEL_LZO'
p1781
S'y'
sS'kernel.sched_domain.cpu4.domain0.forkexec_idx'
p1782
I0
sS'kernel.sched_domain.cpu9.domain1.cache_nice_tries'
p1783
I2
sS'CONFIG_IP_FIB_TRIE_STATS'
p1784
S'y'
sS'CONFIG_DEVFREQ_GOV_PERFORMANCE'
p1785
S'y'
sS'kernel.sched_domain.cpu20.domain0.busy_factor'
p1786
I32
sS'CONFIG_IPV6_MULTIPLE_TABLES'
p1787
S'y'
sS'CONFIG_MFD_SYSCON'
p1788
S'y'
sS'kernel.sched_domain.cpu22.domain1.name'
p1789
S'NUMA'
p1790
sS'kernel.sched_domain.cpu3.domain0.newidle_idx'
p1791
I0
sS'kernel.sched_domain.cpu16.domain1.min_interval'
p1792
I36
sS'fs.quota.lookups'
p1793
I0
sS'CONFIG_QUOTACTL'
p1794
S'y'
sS'kernel.sched_domain.cpu23.domain0.busy_idx'
p1795
I2
sS'kernel.sched_domain.cpu33.domain1.forkexec_idx'
p1796
I0
sS'CONFIG_ARCH_WANT_BATCHED_UNMAP_TLB_FLUSH'
p1797
S'y'
sS'CONFIG_SCSI_QLA_ISCSI'
p1798
S'm'
sS'net.ipv6.conf.lo.temp_valid_lft'
p1799
I604800
sS'CONFIG_RTC_LIB'
p1800
S'y'
sS'kernel.pty.max'
p1801
I4096
sS'CONFIG_ISCSI_BOOT_SYSFS'
p1802
S'm'
sS'CONFIG_HAVE_KERNEL_LZ4'
p1803
S'y'
sS'CONFIG_GPIO_PALMAS'
p1804
S'y'
sS'CONFIG_SQUASHFS_XATTR'
p1805
S'y'
sS'CONFIG_NEED_MULTIPLE_NODES'
p1806
S'y'
sS'net.ipv6.conf.default.use_oif_addrs_only'
p1807
I0
sS'kernel.sched_domain.cpu4.domain1.busy_factor'
p1808
I32
sS'vm.lowmem_reserve_ratio'
p1809
S'256\t256\t32\t1'
p1810
sS'kernel.sched_domain.cpu0.domain0.newidle_idx'
p1811
I0
sS'kernel.sched_domain.cpu27.domain0.name'
p1812
S'DIE'
p1813
sS'kernel.sched_domain.cpu20.domain1.max_interval'
p1814
I72
sS'CONFIG_MODULE_SIG_ALL'
p1815
S'y'
sS'CONFIG_CONSOLE_POLL'
p1816
S'y'
sS'CONFIG_VIRTIO_MMIO_CMDLINE_DEVICES'
p1817
S'y'
sS'kernel.sched_domain.cpu0.domain1.name'
p1818
S'NUMA'
p1819
sS'net.ipv4.cipso_rbm_strictvalid'
p1820
I1
sS'CONFIG_HAVE_CLK_PREPARE'
p1821
S'y'
sS'kernel.sched_domain.cpu8.domain1.newidle_idx'
p1822
I0
sS'net.ipv6.conf.ens3.router_solicitation_interval'
p1823
I4
sS'CONFIG_NET_TULIP'
p1824
S'y'
sS'kernel.sched_domain.cpu22.domain0.forkexec_idx'
p1825
I0
sS'kernel.sched_domain.cpu33.domain1.cache_nice_tries'
p1826
I2
sS'kernel.sched_domain.cpu15.domain0.min_interval'
p1827
I24
sS'CONFIG_POSIX_MQUEUE'
p1828
S'y'
sS'CONFIG_MDIO_BUS'
p1829
S'y'
sS'CONFIG_KALLSYMS_ALL'
p1830
S'y'
sS'net.ipv4.conf.lo.igmpv3_unsolicited_report_interval'
p1831
I1000
sS'CONFIG_ANON_INODES'
p1832
S'y'
sS'kernel.sched_domain.cpu5.domain1.max_newidle_lb_cost'
p1833
I12987
sS'kernel.shmmni'
p1834
I4096
sS'CONFIG_ATARI_PARTITION'
p1835
S'y'
sS'kernel.sched_domain.cpu8.domain0.min_interval'
p1836
I24
sS'CONFIG_SECURITY_SELINUX_CHECKREQPROT_VALUE'
p1837
I1
sS'net.ipv4.conf.ens3.proxy_arp'
p1838
I0
sS'CONFIG_NETLABEL'
p1839
S'y'
sS'CONFIG_CPU_FREQ_GOV_ATTR_SET'
p1840
S'y'
sS'CONFIG_CRYPTO_CRCT10DIF'
p1841
S'y'
sS'kernel.sched_domain.cpu10.domain1.max_interval'
p1842
I72
sS'kernel.sched_domain.cpu19.domain1.min_interval'
p1843
I36
sS'kernel.sched_domain.cpu20.domain0.imbalance_pct'
p1844
I125
sS'CONFIG_VM_EVENT_COUNTERS'
p1845
S'y'
sS'CONFIG_ARCH_HAS_KCOV'
p1846
S'y'
sS'net.ipv6.conf.lo.accept_ra_rtr_pref'
p1847
I1
sS'CONFIG_RAPIDIO_DISC_TIMEOUT'
p1848
I30
sS'kernel.sched_domain.cpu17.domain0.imbalance_pct'
p1849
I125
sS'net.ipv6.conf.ens3.enhanced_dad'
p1850
I1
sS'net.ipv6.conf.all.router_probe_interval'
p1851
I60
sS'CONFIG_BSD_PROCESS_ACCT'
p1852
S'y'
sS'kernel.sched_domain.cpu33.domain1.busy_factor'
p1853
I32
sS'CONFIG_SPI_MASTER'
p1854
S'y'
sS'kernel.sched_domain.cpu17.domain1.busy_factor'
p1855
I32
sS'kernel.sched_domain.cpu22.domain0.idle_idx'
p1856
I1
sS'kernel.sched_domain.cpu2.domain1.idle_idx'
p1857
I2
sS'CONFIG_KALLSYMS_ABSOLUTE_PERCPU'
p1858
S'y'
sS'kernel.sched_domain.cpu6.domain0.name'
p1859
S'DIE'
p1860
sS'CONFIG_INTEL_IOMMU_FLOPPY_WA'
p1861
S'y'
sS'net.ipv6.conf.all.temp_valid_lft'
p1862
I604800
sS'CONFIG_LZ4_DECOMPRESS'
p1863
S'y'
sS'CONFIG_CRYPTO_MANAGER'
p1864
S'y'
sS'kernel.sched_domain.cpu12.domain1.forkexec_idx'
p1865
I0
sS'net.ipv4.conf.default.drop_unicast_in_l2_multicast'
p1866
I0
sS'CONFIG_SND_PROC_FS'
p1867
S'y'
sS'net.ipv6.conf.ens3.hop_limit'
p1868
I64
sS'CONFIG_VGA_CONSOLE'
p1869
S'y'
sS'CONFIG_RANDOMIZE_MEMORY_PHYSICAL_PADDING'
p1870
S'0xa'
p1871
sS'CONFIG_ECRYPT_FS'
p1872
S'y'
sS'CONFIG_QUOTACTL_COMPAT'
p1873
S'y'
sS'vm.oom_kill_allocating_task'
p1874
I0
sS'kernel.sched_domain.cpu8.domain0.idle_idx'
p1875
I1
sS'CONFIG_X86_MCE_THRESHOLD'
p1876
S'y'
sS'CONFIG_CGROUP_PIDS'
p1877
S'y'
sS'kernel.sched_domain.cpu33.domain0.idle_idx'
p1878
I1
sS'net.ipv4.conf.ens3.accept_local'
p1879
I0
sS'net.ipv4.neigh.ens3.gc_stale_time'
p1880
I60
sS'CONFIG_SND_TIMER'
p1881
S'm'
sS'CONFIG_SCHED_INFO'
p1882
S'y'
sS'CONFIG_CRYPTO_AES_X86_64'
p1883
S'm'
sS'net.ipv6.neigh.lo.gc_stale_time'
p1884
I60
sS'CONFIG_HID_PID'
p1885
S'y'
sS'CONFIG_SPLIT_PTLOCK_CPUS'
p1886
I4
sS'dev.cdrom.autoclose'
p1887
I1
sS'CONFIG_LIBCRC32C'
p1888
S'm'
sS'kernel.sched_domain.cpu26.domain0.imbalance_pct'
p1889
I125
sS'kernel.sched_domain.cpu33.domain1.newidle_idx'
p1890
I0
sS'CONFIG_WLAN_VENDOR_BROADCOM'
p1891
S'y'
sS'CONFIG_EDAC_SUPPORT'
p1892
S'y'
sS'CONFIG_HAVE_ARCH_COMPAT_MMAP_BASES'
p1893
S'y'
sS'CONFIG_TASK_DELAY_ACCT'
p1894
S'y'
sS'net.ipv4.cipso_rbm_optfmt'
p1895
I0
sS'net.ipv4.route.gc_interval'
p1896
I60
sS'kernel.sched_domain.cpu26.domain0.flags'
p1897
I4143
sS'kernel.sched_domain.cpu34.domain1.imbalance_pct'
p1898
I125
sS'kernel.sched_domain.cpu20.domain0.flags'
p1899
I4143
sS'CONFIG_SPARSEMEM_EXTREME'
p1900
S'y'
sS'CONFIG_DMA_ACPI'
p1901
S'y'
sS'kernel.kptr_restrict'
p1902
I1
sS'CONFIG_INPUT_MOUSEDEV'
p1903
S'y'
sS'CONFIG_X86_DIRECT_GBPAGES'
p1904
S'y'
sS'CONFIG_NET_VENDOR_MICROCHIP'
p1905
S'y'
sS'net.ipv6.conf.ens3.accept_redirects'
p1906
I1
sS'vm.compact_unevictable_allowed'
p1907
I1
sS'CONFIG_ZLIB_DEFLATE'
p1908
S'y'
sS'kernel.sched_domain.cpu18.domain0.busy_factor'
p1909
I32
sS'CONFIG_ACPI_CPU_FREQ_PSS'
p1910
S'y'
sS'CONFIG_SYSVIPC_COMPAT'
p1911
S'y'
sS'CONFIG_X86_VSYSCALL_EMULATION'
p1912
S'y'
sS'net.ipv6.conf.all.use_tempaddr'
p1913
I2
sS'net.ipv4.neigh.lo.anycast_delay'
p1914
I100
sS'CONFIG_I2C_DESIGNWARE_BAYTRAIL'
p1915
S'y'
sS'kernel.sched_domain.cpu31.domain0.busy_idx'
p1916
I2
sS'CONFIG_FILE_LOCKING'
p1917
S'y'
sS'net.ipv4.conf.ens3.force_igmp_version'
p1918
I0
sS'CONFIG_FTRACE'
p1919
S'y'
sS'CONFIG_MFD_WM831X_I2C'
p1920
S'y'
sS'kernel.sched_domain.cpu28.domain1.min_interval'
p1921
I36
sS'CONFIG_DEVFREQ_GOV_USERSPACE'
p1922
S'y'
sS'CONFIG_AUDIT_TREE'
p1923
S'y'
sS'CONFIG_MOUSE_PS2_BYD'
p1924
S'y'
sS'CONFIG_USB_OHCI_HCD_PCI'
p1925
S'y'
sS'net.ipv4.route.min_adv_mss'
p1926
I256
sS'CONFIG_HAVE_KVM_IRQFD'
p1927
S'y'
sS'CONFIG_ARCH_DEFCONFIG'
p1928
S'"arch/x86/configs/x86_64_defconfig"'
p1929
sS'kernel.sched_domain.cpu3.domain1.forkexec_idx'
p1930
I0
sS'net.ipv4.tcp_thin_linear_timeouts'
p1931
I0
sS'CONFIG_CRYPTO_ALGAPI2'
p1932
S'y'
sS'CONFIG_NUMA'
p1933
S'y'
sS'kernel.sched_domain.cpu30.domain1.max_interval'
p1934
I72
sS'kernel.sched_domain.cpu16.domain1.wake_idx'
p1935
I0
sS'CONFIG_LZO_COMPRESS'
p1936
S'y'
sS'CONFIG_INTEL_TXT'
p1937
S'y'
sS'CONFIG_MOUSE_PS2_TOUCHKIT'
p1938
S'y'
sS'CONFIG_LLC'
p1939
S'm'
sS'kernel.sched_domain.cpu26.domain1.newidle_idx'
p1940
I0
sS'kernel.sched_domain.cpu12.domain0.cache_nice_tries'
p1941
I1
sS'CONFIG_QUEUED_SPINLOCKS'
p1942
S'y'
sS'kernel.sched_domain.cpu11.domain0.min_interval'
p1943
I24
sS'net.ipv4.tcp_congestion_control'
p1944
S'cubic'
p1945
sS'CONFIG_ATA_SFF'
p1946
S'y'
sS'CONFIG_NVMEM'
p1947
S'y'
sS'CONFIG_SERIO_RAW'
p1948
S'm'
sS'CONFIG_HAVE_KVM_IRQ_ROUTING'
p1949
S'y'
sS'dev.mac_hid.mouse_button3_keycode'
p1950
I100
sS'CONFIG_GENERIC_BUG'
p1951
S'y'
sS'CONFIG_BLK_DEV_IO_TRACE'
p1952
S'y'
sS'net.ipv4.conf.ens3.drop_gratuitous_arp'
p1953
I0
sS'CONFIG_MUTEX_SPIN_ON_OWNER'
p1954
S'y'
sS'CONFIG_MEMORY_ISOLATION'
p1955
S'y'
sS'net.ipv6.conf.all.accept_ra_pinfo'
p1956
I1
sS'kernel.shm_next_id'
p1957
S'-1'
p1958
sS'kernel.sched_domain.cpu22.domain1.imbalance_pct'
p1959
I125
sS'CONFIG_NET_VENDOR_AURORA'
p1960
S'y'
sS'CONFIG_LOCKDEP_SUPPORT'
p1961
S'y'
sS'net.ipv4.conf.ens3.ignore_routes_with_linkdown'
p1962
I0
sS'kernel.sched_domain.cpu34.domain0.flags'
p1963
I4143
sS'net.ipv6.conf.ens3.accept_ra'
p1964
I1
sS'kernel.sched_domain.cpu1.domain1.max_newidle_lb_cost'
p1965
I84261
sS'kernel.sched_domain.cpu25.domain0.newidle_idx'
p1966
I0
sS'net.ipv6.conf.all.mtu'
p1967
I1280
sS'kernel.sched_domain.cpu5.domain0.busy_factor'
p1968
I32
sS'net.ipv6.conf.default.mldv2_unsolicited_report_interval'
p1969
I1000
sS'CONFIG_ZONE_DEVICE'
p1970
S'y'
sS'CONFIG_VIRTUALIZATION'
p1971
S'y'
sS'kernel.sched_domain.cpu32.domain0.imbalance_pct'
p1972
I125
sS'net.ipv6.route.gc_min_interval'
p1973
I0
sS'kernel.sched_domain.cpu7.domain0.cache_nice_tries'
p1974
I1
sS'kernel.sched_domain.cpu20.domain1.max_newidle_lb_cost'
p1975
I62287
sS'CONFIG_HAVE_VIRT_CPU_ACCOUNTING_GEN'
p1976
S'y'
sS'CONFIG_HAVE_ARCH_TRANSPARENT_HUGEPAGE'
p1977
S'y'
sS'CONFIG_PROC_PAGE_MONITOR'
p1978
S'y'
sS'dev.hpet.max-user-freq'
p1979
I64
sS'kernel.sched_domain.cpu33.domain0.busy_factor'
p1980
I32
sS'net.ipv4.route.gc_thresh'
p1981
S'-1'
p1982
sS'CONFIG_THERMAL_GOV_POWER_ALLOCATOR'
p1983
S'y'
sS'CONFIG_HAVE_CLK'
p1984
S'y'
sS'CONFIG_GENERIC_STRNLEN_USER'
p1985
S'y'
sS'dev.mac_hid.mouse_button_emulation'
p1986
I0
sS'CONFIG_SND_DMA_SGBUF'
p1987
S'y'
sS'CONFIG_ATA_GENERIC'
p1988
S'y'
sS'CONFIG_MOUSE_PS2_TRACKPOINT'
p1989
S'y'
sS'CONFIG_BLK_MQ_VIRTIO'
p1990
S'y'
sS'CONFIG_RD_LZ4'
p1991
S'y'
sS'CONFIG_STRICT_DEVMEM'
p1992
S'y'
sS'CONFIG_ARCH_ENABLE_MEMORY_HOTREMOVE'
p1993
S'y'
sS'kernel.sched_domain.cpu29.domain1.imbalance_pct'
p1994
I125
sS'net.ipv4.conf.all.medium_id'
p1995
I0
sS'net.ipv6.conf.lo.use_tempaddr'
p1996
S'-1'
p1997
sS'kernel.sched_domain.cpu7.domain1.idle_idx'
p1998
I2
sS'kernel.sched_domain.cpu9.domain0.cache_nice_tries'
p1999
I1
sS'kernel.sched_domain.cpu5.domain1.cache_nice_tries'
p2000
I2
sS'CONFIG_DMA_ENGINE'
p2001
S'y'
sS'kernel.sched_domain.cpu22.domain1.min_interval'
p2002
I36
sS'kernel.sched_domain.cpu3.domain1.busy_factor'
p2003
I32
sS'net.ipv6.conf.all.mldv2_unsolicited_report_interval'
p2004
I1000
sS'CONFIG_OUTPUT_FORMAT'
p2005
S'"elf64-x86-64"'
p2006
sS'CONFIG_X86_X2APIC'
p2007
S'y'
sS'CONFIG_CGROUP_BPF'
p2008
S'y'
sS'CONFIG_ARCH_ENABLE_SPLIT_PMD_PTLOCK'
p2009
S'y'
sS'CONFIG_NET_CLS_ACT'
p2010
S'y'
sS'CONFIG_DECOMPRESS_LZO'
p2011
S'y'
sS'net.ipv4.conf.default.src_valid_mark'
p2012
I0
sS'kernel.sched_domain.cpu16.domain0.newidle_idx'
p2013
I0
sS'CONFIG_NETFILTER_XTABLES'
p2014
S'm'
sS'CONFIG_DEBUG_INFO_DWARF4'
p2015
S'y'
sS'kernel.poweroff_cmd'
p2016
S'/sbin/poweroff'
p2017
sS'CONFIG_SCSI_BNX2_ISCSI'
p2018
S'm'
sS'net.ipv4.conf.default.log_martians'
p2019
I0
sS'CONFIG_FREEZER'
p2020
S'y'
sS'CONFIG_QUOTA_NETLINK_INTERFACE'
p2021
S'y'
sS'net.ipv4.tcp_ecn_fallback'
p2022
I1
sS'CONFIG_NET_VENDOR_VIA'
p2023
S'y'
sS'CONFIG_FB'
p2024
S'y'
sS'kernel.sched_domain.cpu25.domain1.busy_idx'
p2025
I3
sS'CONFIG_MFD_WM831X'
p2026
S'y'
sS'kernel.sched_domain.cpu24.domain1.max_newidle_lb_cost'
p2027
I19625
sS'CONFIG_SLUB_DEBUG'
p2028
S'y'
sS'CONFIG_MFD_DA9055'
p2029
S'y'
sS'CONFIG_CGROUP_NET_PRIO'
p2030
S'y'
sS'net.ipv6.neigh.default.mcast_solicit'
p2031
I3
sS'CONFIG_GPIO_LYNXPOINT'
p2032
S'y'
sS'CONFIG_IPC_NS'
p2033
S'y'
sS'CONFIG_PRINTK_TIME'
p2034
S'y'
sS'CONFIG_PCI_MSI_IRQ_DOMAIN'
p2035
S'y'
sS'CONFIG_HAVE_C_RECORDMCOUNT'
p2036
S'y'
sS'net.ipv6.neigh.default.anycast_delay'
p2037
I100
sS'CONFIG_MFD_TPS6586X'
p2038
S'y'
sS'net.ipv6.conf.lo.seg6_enabled'
p2039
I0
sS'kernel.sched_domain.cpu11.domain1.max_interval'
p2040
I72
sS'net.ipv4.conf.ens3.disable_policy'
p2041
I0
sS'CONFIG_PCC'
p2042
S'y'
sS'CONFIG_REGMAP'
p2043
S'y'
sS'CONFIG_SCHEDSTATS'
p2044
S'y'
sS'CONFIG_CLOCKSOURCE_WATCHDOG'
p2045
S'y'
sS'CONFIG_PCI_QUIRKS'
p2046
S'y'
sS'CONFIG_USB_DWC2_PCI'
p2047
S'y'
sS'CONFIG_WLAN'
p2048
S'y'
sS'CONFIG_NET_VENDOR_EXAR'
p2049
S'y'
sS'CONFIG_GENERIC_IRQ_PROBE'
p2050
S'y'
sS'kernel.sched_domain.cpu28.domain0.newidle_idx'
p2051
I0
sS'kernel.sched_domain.cpu33.domain0.max_interval'
p2052
I24
sS'kernel.sched_domain.cpu31.domain1.busy_factor'
p2053
I32
sS'CONFIG_DECOMPRESS_LZ4'
p2054
S'y'
sS'net.ipv6.conf.lo.ignore_routes_with_linkdown'
p2055
I0
sS'CONFIG_HARDLOCKUP_DETECTOR'
p2056
S'y'
sS'kernel.sched_domain.cpu14.domain0.imbalance_pct'
p2057
I125
sS'CONFIG_RTC_SYSTOHC'
p2058
S'y'
sS'CONFIG_USB_XHCI_HCD'
p2059
S'y'
sS'CONFIG_SERIO_LIBPS2'
p2060
S'y'
sS'CONFIG_UNIX'
p2061
S'y'
sS'CONFIG_BASE_SMALL'
p2062
I0
sS'net.ipv4.tcp_fack'
p2063
I0
sS'net.ipv6.conf.ens3.mldv2_unsolicited_report_interval'
p2064
I1000
sS'kernel.sched_domain.cpu22.domain1.idle_idx'
p2065
I2
sS'net.ipv4.neigh.lo.mcast_resolicit'
p2066
I0
sS'uname'
p2067
S'Linux nestedvm 4.14.0-rc8-stock #3 SMP Tue Mar 13 14:28:42 EDT 2018 x86_64 x86_64 x86_64 GNU/Linux'
p2068
sS'CONFIG_DMADEVICES'
p2069
S'y'
sS'kernel.sched_domain.cpu23.domain0.busy_factor'
p2070
I32
sS'CONFIG_DEFAULT_HOSTNAME'
p2071
S'"(none)"'
p2072
sS'kernel.sched_domain.cpu35.domain0.imbalance_pct'
p2073
I125
sS'CONFIG_X86_IO_APIC'
p2074
S'y'
sS'CONFIG_CRYPTO_LZO'
p2075
S'y'
sS'CONFIG_HAVE_STACK_VALIDATION'
p2076
S'y'
sS'kernel.sched_domain.cpu11.domain1.flags'
p2077
I25647
sS'CONFIG_VFAT_FS'
p2078
S'y'
sS'kernel.sched_domain.cpu20.domain0.idle_idx'
p2079
I1
sS'CONFIG_HAVE_KVM'
p2080
S'y'
sS'CONFIG_USB_PCI'
p2081
S'y'
sS'CONFIG_ACPI_I2C_OPREGION'
p2082
S'y'
sS'CONFIG_SATA_ZPODD'
p2083
S'y'
sS'CONFIG_SPARSEMEM_VMEMMAP'
p2084
S'y'
sS'CONFIG_NET_VENDOR_SIS'
p2085
S'y'
sS'net.core.netdev_budget_usecs'
p2086
I2000
sS'CONFIG_TCP_CONG_ADVANCED'
p2087
S'y'
sS'CONFIG_USB_EHCI_HCD_PLATFORM'
p2088
S'y'
sS'kernel.sched_domain.cpu34.domain0.name'
p2089
S'DIE'
p2090
sS'net.ipv6.conf.all.drop_unsolicited_na'
p2091
I0
sS'CONFIG_FSNOTIFY'
p2092
S'y'
sS'kernel.sched_domain.cpu24.domain1.newidle_idx'
p2093
I0
sS'CONFIG_POWER_RESET'
p2094
S'y'
sS'CONFIG_VIRTIO_NET'
p2095
S'y'
sS'CONFIG_RFKILL'
p2096
S'y'
sS'CONFIG_ARCH_HAS_ZONE_DEVICE'
p2097
S'y'
sS'CONFIG_BCMA_POSSIBLE'
p2098
S'y'
sS'CONFIG_OPTIMIZE_INLINING'
p2099
S'y'
sS'net.ipv4.ipfrag_time'
p2100
I30
sS'net.ipv4.conf.default.secure_redirects'
p2101
I1
sS'kernel.sched_domain.cpu23.domain0.imbalance_pct'
p2102
I125
sS'CONFIG_MOUSE_PS2_SMBUS'
p2103
S'y'
sS'CONFIG_MD_RAID10'
p2104
S'm'
sS'kernel.sched_domain.cpu26.domain1.busy_idx'
p2105
I3
sS'CONFIG_PPDEV'
p2106
S'm'
sS'CONFIG_BLK_DEV_INITRD'
p2107
S'y'
sS'CONFIG_CNIC'
p2108
S'm'
sS'CONFIG_DM_UEVENT'
p2109
S'y'
sS'kernel.sched_domain.cpu29.domain1.wake_idx'
p2110
I0
sS'kernel.sched_domain.cpu28.domain0.imbalance_pct'
p2111
I125
sS'CONFIG_LEGACY_PTYS'
p2112
S'y'
sS'CONFIG_FS_POSIX_ACL'
p2113
S'y'
sS'kernel.auto_msgmni'
p2114
I0
sS'kernel.sched_domain.cpu28.domain0.idle_idx'
p2115
I1
sS'fs.mqueue.msgsize_default'
p2116
I8192
sS'CONFIG_KEXEC_VERIFY_SIG'
p2117
S'y'
sS'fs.inotify.max_user_watches'
p2118
I8192
sS'CONFIG_IMA_APPRAISE_BOOTPARAM'
p2119
S'y'
sS'CONFIG_HPET'
p2120
S'y'
sS'CONFIG_CRYPTO_WORKQUEUE'
p2121
S'y'
sS'kernel.sched_domain.cpu28.domain1.flags'
p2122
I25647
sS'CONFIG_INTEGRITY_SIGNATURE'
p2123
S'y'
sS'kernel.sched_domain.cpu12.domain1.busy_idx'
p2124
I3
sS'CONFIG_SPARSE_IRQ'
p2125
S'y'
sS'kernel.sched_domain.cpu25.domain1.idle_idx'
p2126
I2
sS'CONFIG_BLK_SCSI_REQUEST'
p2127
S'y'
sS'kernel.sched_domain.cpu12.domain0.name'
p2128
S'DIE'
p2129
sS'kernel.sched_domain.cpu35.domain0.flags'
p2130
I4143
sS'kernel.sched_domain.cpu27.domain1.newidle_idx'
p2131
I0
sS'net.ipv6.conf.lo.accept_ra_rt_info_max_plen'
p2132
I0
sS'CONFIG_NET_VENDOR_MICREL'
p2133
S'y'
sS'kernel.sched_domain.cpu17.domain0.newidle_idx'
p2134
I0
sS'CONFIG_DEBUG_INFO'
p2135
S'y'
sS'kernel.sched_domain.cpu18.domain1.idle_idx'
p2136
I2
sS'CONFIG_MAGIC_SYSRQ'
p2137
S'y'
sS'CONFIG_SERIAL_8250_PNP'
p2138
S'y'
sS'CONFIG_CLKDEV_LOOKUP'
p2139
S'y'
sS'kernel.sched_domain.cpu11.domain0.forkexec_idx'
p2140
I0
sS'kernel.keys.maxbytes'
p2141
I20000
sS'CONFIG_BRANCH_PROFILE_NONE'
p2142
S'y'
sS'CONFIG_NO_BOOTMEM'
p2143
S'y'
sS'CONFIG_XXHASH'
p2144
S'm'
sS'CONFIG_PCI_DIRECT'
p2145
S'y'
sS'vm.dirty_ratio'
p2146
I20
sS'net.ipv6.idgen_retries'
p2147
I3
sS'CONFIG_MAGIC_SYSRQ_SERIAL'
p2148
S'y'
sS'CONFIG_CRYPTO_HASH2'
p2149
S'y'
sS'CONFIG_HAVE_ARCH_KASAN'
p2150
S'y'
sS'CONFIG_MEMCG_SWAP'
p2151
S'y'
sS'CONFIG_IOSCHED_NOOP'
p2152
S'y'
sS'CONFIG_USB_COMMON'
p2153
S'y'
sS'kernel.sched_domain.cpu0.domain0.wake_idx'
p2154
I0
sS'CONFIG_SND_VERBOSE_PROCFS'
p2155
S'y'
sS'net.ipv6.conf.ens3.temp_prefered_lft'
p2156
I86400
sS'CONFIG_BRIDGE_NF_EBTABLES'
p2157
S'm'
sS'CONFIG_CRYPTO_JITTERENTROPY'
p2158
S'y'
sS'CONFIG_CRYPTO_DRBG_MENU'
p2159
S'y'
sS'CONFIG_ARCH_USE_CMPXCHG_LOCKREF'
p2160
S'y'
sS'CONFIG_RD_GZIP'
p2161
S'y'
sS'user.max_pid_namespaces'
p2162
I257513
sS'kernel.sched_domain.cpu24.domain1.min_interval'
p2163
I36
sS'kernel.sched_domain.cpu0.domain1.min_interval'
p2164
I36
sS'CONFIG_PANIC_ON_OOPS_VALUE'
p2165
I0
sS'CONFIG_USB_EHCI_ROOT_HUB_TT'
p2166
S'y'
sS'kernel.sched_min_granularity_ns'
p2167
I3000000
sS'kernel.sched_domain.cpu24.domain1.busy_factor'
p2168
I32
sS'CONFIG_X86_NEED_RELOCS'
p2169
S'y'
sS'kernel.sched_domain.cpu26.domain0.busy_idx'
p2170
I2
sS'kernel.sched_domain.cpu4.domain1.busy_idx'
p2171
I3
sS'CONFIG_XZ_DEC_ARM'
p2172
S'y'
sS'CONFIG_SCSI_DMA'
p2173
S'y'
sS'kernel.sched_domain.cpu4.domain0.max_interval'
p2174
I48
sS'kernel.sched_domain.cpu21.domain0.imbalance_pct'
p2175
I125
sS'CONFIG_HVC_DRIVER'
p2176
S'y'
sS'CONFIG_HAVE_RCU_TABLE_FREE'
p2177
S'y'
sS'CONFIG_ZSMALLOC'
p2178
S'y'
sS'CONFIG_HAVE_PERF_REGS'
p2179
S'y'
sS'CONFIG_SND_HWDEP'
p2180
S'm'
sS'CONFIG_CRYPTO_HASH'
p2181
S'y'
sS'kernel.sched_domain.cpu9.domain0.newidle_idx'
p2182
I0
sS'CONFIG_SPARSEMEM_MANUAL'
p2183
S'y'
sS'CONFIG_KEYS_COMPAT'
p2184
S'y'
sS'kernel.sched_domain.cpu15.domain0.max_interval'
p2185
I48
sS'kernel.sched_domain.cpu3.domain1.newidle_idx'
p2186
I0
sS'CONFIG_CRYPTO_NULL2'
p2187
S'y'
sS'CONFIG_RCU_STALL_COMMON'
p2188
S'y'
sS'net.ipv6.conf.lo.accept_ra_min_hop_limit'
p2189
I1
sS'kernel.sched_domain.cpu22.domain1.forkexec_idx'
p2190
I0
sS'net.ipv4.conf.default.proxy_arp'
p2191
I0
sS'kernel.sched_rr_timeslice_ms'
p2192
I100
sS'net.ipv6.conf.lo.disable_ipv6'
p2193
I0
sS'kernel.sched_domain.cpu16.domain0.min_interval'
p2194
I24
sS'CONFIG_NEED_PER_CPU_PAGE_FIRST_CHUNK'
p2195
S'y'
sS'CONFIG_KGDB_KDB'
p2196
S'y'
sS'kernel.sched_domain.cpu19.domain0.busy_factor'
p2197
I32
sS'net.ipv4.conf.all.src_valid_mark'
p2198
I0
sS'fs.overflowuid'
p2199
I65534
sS'kernel.sched_domain.cpu14.domain1.newidle_idx'
p2200
I0
sS'net.ipv4.conf.ens3.arp_accept'
p2201
I0
sS'CONFIG_FB_CFB_FILLRECT'
p2202
S'y'
sS'CONFIG_SECURITYFS'
p2203
S'y'
sS'CONFIG_OSF_PARTITION'
p2204
S'y'
sS'CONFIG_CRYPTO_AKCIPHER'
p2205
S'y'
sS'kernel.sched_domain.cpu31.domain0.name'
p2206
S'DIE'
p2207
sS'CONFIG_MAY_USE_DEVLINK'
p2208
S'y'
sS'kernel.sched_domain.cpu17.domain1.imbalance_pct'
p2209
I125
sS'net.ipv6.conf.default.dad_transmits'
p2210
I1
sS'CONFIG_BNX2'
p2211
S'm'
sS'CONFIG_I2C_CHARDEV'
p2212
S'y'
sS'CONFIG_CMA_AREAS'
p2213
I7
sS'CONFIG_ARM_GIC_MAX_NR'
p2214
I1
sS'net.ipv4.conf.all.accept_redirects'
p2215
I1
sS'kernel.sched_domain.cpu28.domain0.busy_idx'
p2216
I2
sS'kernel.sched_domain.cpu2.domain1.imbalance_pct'
p2217
I125
sS'vm.max_map_count'
p2218
I65530
sS'CONFIG_SCSI_SCAN_ASYNC'
p2219
S'y'
sS'net.ipv6.conf.default.enhanced_dad'
p2220
I1
sS'net.ipv4.conf.lo.arp_ignore'
p2221
I0
sS'kernel.sched_domain.cpu13.domain1.forkexec_idx'
p2222
I0
sS'CONFIG_HAVE_KVM_IRQCHIP'
p2223
S'y'
sS'CONFIG_INLINE_READ_UNLOCK'
p2224
S'y'
sS'CONFIG_PM_SLEEP_SMP'
p2225
S'y'
sS'kernel.sched_domain.cpu32.domain0.cache_nice_tries'
p2226
I1
sS'net.ipv4.conf.ens3.proxy_arp_pvlan'
p2227
I0
sS'CONFIG_FIX_EARLYCON_MEM'
p2228
S'y'
sS'kernel.sched_domain.cpu3.domain0.forkexec_idx'
p2229
I0
sS'net.netfilter.nf_log.11'
p2230
S'NONE'
p2231
sS'CONFIG_SCHED_DEBUG'
p2232
S'y'
sS'net.ipv4.conf.ens3.promote_secondaries'
p2233
I0
sS'CONFIG_VT_HW_CONSOLE_BINDING'
p2234
S'y'
sS'CONFIG_MIGRATION'
p2235
S'y'
sS'CONFIG_SYSVIPC_SYSCTL'
p2236
S'y'
sS'CONFIG_HAMRADIO'
p2237
S'y'
sS'kernel.sched_domain.cpu25.domain0.name'
p2238
S'DIE'
p2239
sS'CONFIG_KGDB'
p2240
S'y'
sS'kernel.sched_domain.cpu22.domain0.busy_factor'
p2241
I32
sS'CONFIG_EFI_ESRT'
p2242
S'y'
sS'CONFIG_RAS'
p2243
S'y'
sS'CONFIG_GENERIC_PINCONF'
p2244
S'y'
sS'CONFIG_MEMBARRIER'
p2245
S'y'
sS'CONFIG_USB'
p2246
S'y'
sS'kernel.sched_domain.cpu23.domain1.newidle_idx'
p2247
I0
sS'kernel.sched_domain.cpu8.domain0.max_interval'
p2248
I48
sS'CONFIG_HIGH_RES_TIMERS'
p2249
S'y'
sS'CONFIG_PPP'
p2250
S'y'
sS'CONFIG_HAVE_GENERIC_GUP'
p2251
S'y'
sS'kernel.sched_domain.cpu33.domain1.max_interval'
p2252
I72
sS'CONFIG_NET_VENDOR_HUAWEI'
p2253
S'y'
sS'CONFIG_ZLIB_INFLATE'
p2254
S'y'
sS'CONFIG_CORE_DUMP_DEFAULT_ELF_HEADERS'
p2255
S'y'
sS'CONFIG_POWER_AVS'
p2256
S'y'
sS'CONFIG_MFD_AAT2870_CORE'
p2257
S'y'
sS'CONFIG_QED'
p2258
S'm'
sS'CONFIG_NET_VENDOR_I825XX'
p2259
S'y'
sS'CONFIG_LEGACY_PTY_COUNT'
p2260
I0
sS'CONFIG_COMPAT'
p2261
S'y'
sS'net.ipv6.conf.default.force_tllao'
p2262
I0
sS'CONFIG_AGP_INTEL'
p2263
S'y'
sS'CONFIG_CRYPTO_CRC32C'
p2264
S'y'
sS'kernel.sched_domain.cpu3.domain1.min_interval'
p2265
I36
sS'kernel.sched_domain.cpu30.domain1.wake_idx'
p2266
I0
sS'CONFIG_LOCK_SPIN_ON_OWNER'
p2267
S'y'
sS'CONFIG_CRYPTO_GHASH'
p2268
S'y'
sS'kernel.sched_domain.cpu27.domain0.wake_idx'
p2269
I0
sS'kernel.sched_domain.cpu25.domain1.wake_idx'
p2270
I0
sS'CONFIG_ACPI_TABLE_UPGRADE'
p2271
S'y'
sS'CONFIG_BLK_CMDLINE_PARSER'
p2272
S'y'
sS'net.ipv4.tcp_max_reordering'
p2273
I300
sS'net.core.netdev_budget'
p2274
I300
sS'kernel.shmall'
p2275
L18446744073692774399L
sS'CONFIG_ABX500_CORE'
p2276
S'y'
sS'kernel.sched_domain.cpu32.domain0.idle_idx'
p2277
I1
sS'CONFIG_CRYPTO_MANAGER_DISABLE_TESTS'
p2278
S'y'
sS'kernel.sched_domain.cpu12.domain0.busy_idx'
p2279
I2
sS'CONFIG_GENERIC_BUG_RELATIVE_POINTERS'
p2280
S'y'
sS'CONFIG_TICK_ONESHOT'
p2281
S'y'
sS'CONFIG_LOG_CPU_MAX_BUF_SHIFT'
p2282
I12
sS'CONFIG_WLAN_VENDOR_INTEL'
p2283
S'y'
sS'net.ipv6.conf.default.seg6_enabled'
p2284
I0
sS'net.ipv4.ip_nonlocal_bind'
p2285
I0
sS'CONFIG_EXT4_FS'
p2286
S'y'
sS'CONFIG_BOOTPARAM_HUNG_TASK_PANIC_VALUE'
p2287
I0
sS'kernel.sched_domain.cpu1.domain0.newidle_idx'
p2288
I0
sS'net.ipv4.neigh.default.base_reachable_time_ms'
p2289
I30000
sS'CONFIG_BALLOON_COMPACTION'
p2290
S'y'
sS'CONFIG_ASYNC_PQ'
p2291
S'm'
sS'CONFIG_USELIB'
p2292
S'y'
sS'kernel.sched_domain.cpu24.domain0.busy_idx'
p2293
I2
sS'net.ipv6.conf.default.hop_limit'
p2294
I64
sS'CONFIG_FB_IMSTT'
p2295
S'y'
sS'kernel.sched_domain.cpu0.domain0.forkexec_idx'
p2296
I0
sS'CONFIG_PM_OPP'
p2297
S'y'
sS'kernel.sched_domain.cpu5.domain0.min_interval'
p2298
I24
sS'kernel.sched_domain.cpu21.domain1.busy_factor'
p2299
I32
sS'CONFIG_KSM'
p2300
S'y'
sS'CONFIG_RTC_INTF_SYSFS'
p2301
S'y'
sS'kernel.sched_domain.cpu14.domain0.name'
p2302
S'DIE'
p2303
sS'net.ipv6.conf.all.accept_ra'
p2304
I1
sS'CONFIG_MFD_TPS65912_I2C'
p2305
S'y'
sS'net.ipv4.conf.lo.arp_filter'
p2306
I0
sS'kernel.sched_domain.cpu26.domain1.max_newidle_lb_cost'
p2307
I16148
sS'CONFIG_SERIAL_8250_SHARE_IRQ'
p2308
S'y'
sS'kernel.sched_domain.cpu2.domain0.forkexec_idx'
p2309
I0
sS'net.ipv6.conf.all.router_solicitations'
p2310
S'-1'
p2311
sS'net.ipv4.udp_l3mdev_accept'
p2312
I0
sS'kernel.unprivileged_bpf_disabled'
p2313
I0
sS'CONFIG_FUSION_MAX_SGE'
p2314
I128
sS'CONFIG_HAS_IOPORT_MAP'
p2315
S'y'
sS'CONFIG_MFD_WM831X_SPI'
p2316
S'y'
sS'kernel.sched_domain.cpu9.domain1.name'
p2317
S'NUMA'
p2318
sS'CONFIG_JUMP_LABEL'
p2319
S'y'
sS'kernel.sched_domain.cpu27.domain0.min_interval'
p2320
I12
sS'kernel.sched_domain.cpu34.domain1.flags'
p2321
I25647
sS'CONFIG_INPUT_LEDS'
p2322
S'm'
sS'net.ipv4.tcp_app_win'
p2323
I31
sS'net.ipv4.cipso_cache_enable'
p2324
I1
sS'CONFIG_EVM_EXTRA_SMACK_XATTRS'
p2325
S'y'
sS'net.ipv6.conf.ens3.autoconf'
p2326
I1
sS'kernel.sched_domain.cpu24.domain0.cache_nice_tries'
p2327
I1
sS'CONFIG_IKCONFIG'
p2328
S'm'
sS'kernel.sched_domain.cpu19.domain0.max_interval'
p2329
I48
sS'CONFIG_MEMORY'
p2330
S'y'
sS'kernel.sched_domain.cpu16.domain1.imbalance_pct'
p2331
I125
sS'CONFIG_KDB_DEFAULT_ENABLE'
p2332
S'0x1'
p2333
sS'fs.inotify.max_queued_events'
p2334
I16384
sS'CONFIG_SG_POOL'
p2335
S'y'
sS'CONFIG_CRYPTO_RSA'
p2336
S'y'
sS'net.ipv4.tcp_pacing_ca_ratio'
p2337
I120
sS'CONFIG_CPU_FREQ_GOV_POWERSAVE'
p2338
S'y'
sS'CONFIG_HAVE_BOOTMEM_INFO_NODE'
p2339
S'y'
sS'kernel.sched_domain.cpu17.domain1.forkexec_idx'
p2340
I0
sS'CONFIG_SPARSEMEM_ALLOC_MEM_MAP_TOGETHER'
p2341
S'y'
sS'CONFIG_ACPI_PROCESSOR'
p2342
S'y'
sS'CONFIG_ARCH_PHYS_ADDR_T_64BIT'
p2343
S'y'
sS'kernel.sched_domain.cpu8.domain0.wake_idx'
p2344
I0
sS'CONFIG_ACPI_PCI_SLOT'
p2345
S'y'
sS'CONFIG_CPU_FREQ_GOV_USERSPACE'
p2346
S'y'
sS'kernel.sched_domain.cpu19.domain1.idle_idx'
p2347
I2
sS'kernel.sched_domain.cpu22.domain1.max_newidle_lb_cost'
p2348
I11344
sS'CONFIG_HAVE_UNSTABLE_SCHED_CLOCK'
p2349
S'y'
sS'kernel.sched_domain.cpu8.domain1.forkexec_idx'
p2350
I0
sS'net.ipv4.igmp_link_local_mcast_reports'
p2351
I1
sS'CONFIG_MAC80211_STA_HASH_MAX_SIZE'
p2352
I0
sS'CONFIG_BITREVERSE'
p2353
S'y'
sS'CONFIG_MEM_SOFT_DIRTY'
p2354
S'y'
sS'CONFIG_MODULES_USE_ELF_RELA'
p2355
S'y'
sS'CONFIG_SECURITY_SMACK'
p2356
S'y'
sS'net.ipv6.anycast_src_echo_reply'
p2357
I0
sS'CONFIG_KPROBES'
p2358
S'y'
sS'CONFIG_FRAME_POINTER'
p2359
S'y'
sS'CONFIG_SGETMASK_SYSCALL'
p2360
S'y'
sS'CONFIG_BLK_DEV_DM_BUILTIN'
p2361
S'y'
sS'net.ipv4.conf.lo.tag'
p2362
I0
sS'kernel.sched_domain.cpu30.domain1.forkexec_idx'
p2363
I0
sS'CONFIG_SQUASHFS_FRAGMENT_CACHE_SIZE'
p2364
I3
sS'kernel.sched_domain.cpu30.domain1.newidle_idx'
p2365
I0
sS'kernel.sched_domain.cpu3.domain0.idle_idx'
p2366
I1
sS'CONFIG_AUDIT'
p2367
S'y'
sS'kernel.sched_domain.cpu32.domain1.max_newidle_lb_cost'
p2368
I26969
sS'CONFIG_ARCH_SUPPORTS_DEBUG_PAGEALLOC'
p2369
S'y'
sS'kernel.random.urandom_min_reseed_secs'
p2370
I60
sS'CONFIG_X86_CMPXCHG64'
p2371
S'y'
sS'CONFIG_NET_FLOW_LIMIT'
p2372
S'y'
sS'CONFIG_ND_CLAIM'
p2373
S'y'
sS'kernel.sched_domain.cpu21.domain1.wake_idx'
p2374
I0
sS'kernel.sched_domain.cpu4.domain0.newidle_idx'
p2375
I0
sS'kernel.sched_domain.cpu34.domain1.name'
p2376
S'NUMA'
p2377
sS'net.ipv6.conf.default.accept_ra_mtu'
p2378
I1
sS'fs.dir-notify-enable'
p2379
I1
sS'CONFIG_HAVE_HARDLOCKUP_DETECTOR_PERF'
p2380
S'y'
sS'kernel.sched_domain.cpu25.domain1.max_interval'
p2381
I72
sS'kernel.sched_domain.cpu0.domain0.busy_factor'
p2382
I32
sS'kernel.sched_domain.cpu17.domain1.max_newidle_lb_cost'
p2383
I10371
sS'kernel.sched_domain.cpu26.domain1.idle_idx'
p2384
I2
sS'kernel.sched_domain.cpu12.domain1.imbalance_pct'
p2385
I125
sS'CONFIG_HAVE_COPY_THREAD_TLS'
p2386
S'y'
sS'net.ipv6.route.gc_thresh'
p2387
I1024
sS'CONFIG_ARCH_RANDOM'
p2388
S'y'
sS'net.ipv6.conf.ens3.router_probe_interval'
p2389
I60
sS'CONFIG_X86_EXTENDED_PLATFORM'
p2390
S'y'
sS'CONFIG_PM_TRACE'
p2391
S'y'
sS'CONFIG_SYSCTL_EXCEPTION_TRACE'
p2392
S'y'
sS'CONFIG_X86_INTERNODE_CACHE_SHIFT'
p2393
I6
sS'CONFIG_HAVE_SYSCALL_TRACEPOINTS'
p2394
S'y'
sS'kernel.sched_domain.cpu13.domain1.max_interval'
p2395
I72
sS'CONFIG_CRC32'
p2396
S'y'
sS'CONFIG_FUSION'
p2397
S'y'
sS'net.ipv4.conf.lo.accept_source_route'
p2398
I1
sS'net.ipv6.conf.ens3.suppress_frag_ndisc'
p2399
I1
sS'CONFIG_SWPHY'
p2400
S'y'
sS'kernel.sched_domain.cpu33.domain1.min_interval'
p2401
I36
sS'kernel.sched_domain.cpu6.domain1.wake_idx'
p2402
I0
sS'kernel.sched_cfs_bandwidth_slice_us'
p2403
I5000
sS'vm.admin_reserve_kbytes'
p2404
I8192
sS'CONFIG_ASYNC_TX_DMA'
p2405
S'y'
sS'kernel.sched_domain.cpu33.domain0.wake_idx'
p2406
I0
sS'CONFIG_RTC_NVMEM'
p2407
S'y'
sS'kernel.sched_domain.cpu6.domain0.newidle_idx'
p2408
I0
sS'kernel.sched_domain.cpu5.domain0.name'
p2409
S'DIE'
p2410
sS'net.ipv4.tcp_early_demux'
p2411
I1
sS'CONFIG_EXT4_FS_SECURITY'
p2412
S'y'
sS'kernel.sched_domain.cpu34.domain0.idle_idx'
p2413
I1
sS'kernel.sched_domain.cpu19.domain1.max_newidle_lb_cost'
p2414
I15948
sS'net.ipv4.neigh.default.unres_qlen'
p2415
I101
sS'kernel.sched_domain.cpu34.domain1.min_interval'
p2416
I36
sS'CONFIG_COMMON_CLK'
p2417
S'y'
sS'CONFIG_MFD_PALMAS'
p2418
S'y'
sS'CONFIG_AUXDISPLAY'
p2419
S'y'
sS'CONFIG_WLAN_VENDOR_ST'
p2420
S'y'
sS'kernel.printk_ratelimit'
p2421
I5
sS'net.ipv4.neigh.default.delay_first_probe_time'
p2422
I5
sS'CONFIG_SECURITY_SELINUX_BOOTPARAM_VALUE'
p2423
I0
sS'fs.lease-break-time'
p2424
I45
sS'kernel.sched_domain.cpu26.domain0.busy_factor'
p2425
I32
sS'vm.dirty_bytes'
p2426
I0
sS'net.ipv6.conf.lo.accept_redirects'
p2427
I1
sS'CONFIG_KVM_GUEST'
p2428
S'y'
sS'net.ipv4.tcp_syn_retries'
p2429
I6
sS'kernel.shm_rmid_forced'
p2430
I0
sS'CONFIG_PERF_EVENTS_INTEL_UNCORE'
p2431
S'y'
sS'net.ipv4.conf.ens3.igmpv2_unsolicited_report_interval'
p2432
I10000
sS'kernel.sched_domain.cpu17.domain1.max_interval'
p2433
I72
sS'kernel.sched_domain.cpu13.domain0.cache_nice_tries'
p2434
I1
sS'kernel.sched_domain.cpu11.domain1.forkexec_idx'
p2435
I0
sS'kernel.sched_domain.cpu7.domain0.max_newidle_lb_cost'
p2436
I73061
sS'CONFIG_X86_FAST_FEATURE_TESTS'
p2437
S'y'
sS'CONFIG_BRIDGE_IGMP_SNOOPING'
p2438
S'y'
sS'CONFIG_UEVENT_HELPER_PATH'
p2439
S'""'
p2440
sS'kernel.sched_domain.cpu20.domain1.busy_factor'
p2441
I32
sS'CONFIG_CRYPTO_GHASH_CLMUL_NI_INTEL'
p2442
S'm'
sS'CONFIG_DEVFREQ_GOV_POWERSAVE'
p2443
S'y'
sS'kernel.sched_domain.cpu11.domain1.min_interval'
p2444
I36
sS'net.ipv6.conf.ens3.accept_ra_from_local'
p2445
I0
sS'kernel.sched_domain.cpu34.domain1.busy_idx'
p2446
I3
sS'net.ipv6.conf.default.router_solicitation_interval'
p2447
I4
sS'kernel.sched_domain.cpu26.domain0.wake_idx'
p2448
I0
sS'net.ipv4.tcp_tso_win_divisor'
p2449
I3
sS'CONFIG_RELOCATABLE'
p2450
S'y'
sS'kernel.sched_domain.cpu24.domain0.max_interval'
p2451
I24
sS'fs.pipe-max-size'
p2452
I1048576
sS'CONFIG_NO_HZ'
p2453
S'y'
sS'CONFIG_DYNAMIC_FTRACE_WITH_REGS'
p2454
S'y'
sS'CONFIG_CHELSIO_T4_DCB'
p2455
S'y'
sS'kernel.sched_domain.cpu26.domain0.forkexec_idx'
p2456
I0
sS'CONFIG_RTC_SYSTOHC_DEVICE'
p2457
S'"rtc0"'
p2458
sS'CONFIG_DEFAULT_SECURITY_APPARMOR'
p2459
S'y'
sS'kernel.sched_domain.cpu18.domain0.min_interval'
p2460
I24
sS'CONFIG_HAVE_KERNEL_BZIP2'
p2461
S'y'
sS'kernel.sched_domain.cpu35.domain0.max_interval'
p2462
I24
sS'CONFIG_QED_SRIOV'
p2463
S'y'
sS'net.ipv4.route.gc_min_interval_ms'
p2464
I500
sS'kernel.sched_domain.cpu23.domain0.cache_nice_tries'
p2465
I1
sS'CONFIG_WLAN_VENDOR_RSI'
p2466
S'y'
sS'CONFIG_CPU_IDLE'
p2467
S'y'
sS'kernel.sched_domain.cpu2.domain1.name'
p2468
S'NUMA'
p2469
sS'CONFIG_HOTPLUG_PCI_PCIE'
p2470
S'y'
sS'net.ipv6.neigh.ens3.mcast_solicit'
p2471
I3
sS'CONFIG_GPIO_SX150X'
p2472
S'y'
sS'kernel.sched_domain.cpu31.domain0.wake_idx'
p2473
I0
sS'CONFIG_IP_MULTIPLE_TABLES'
p2474
S'y'
sS'CONFIG_THP_SWAP'
p2475
S'y'
sS'CONFIG_RFS_ACCEL'
p2476
S'y'
sS'fs.dentry-state'
p2477
S'128482\t95773\t45\t0\t0\t0'
p2478
sS'CONFIG_TRACEPOINTS'
p2479
S'y'
sS'CONFIG_IP6_NF_IPTABLES'
p2480
S'm'
sS'CONFIG_CRYPTO_AKCIPHER2'
p2481
S'y'
sS'CONFIG_ARCH_HAS_ADD_PAGES'
p2482
S'y'
sS'net.ipv6.conf.lo.dad_transmits'
p2483
I1
sS'CONFIG_SECURITY_APPARMOR_HASH_DEFAULT'
p2484
S'y'
sS'CONFIG_SMP'
p2485
S'y'
sS'CONFIG_NEED_PER_CPU_EMBED_FIRST_CHUNK'
p2486
S'y'
sS'kernel.sched_domain.cpu28.domain0.cache_nice_tries'
p2487
I1
sS'net.ipv6.conf.default.accept_dad'
p2488
I1
sS'kernel.sched_domain.cpu10.domain1.newidle_idx'
p2489
I0
sS'kernel.sched_domain.cpu35.domain0.newidle_idx'
p2490
I0
sS'CONFIG_TMPFS_XATTR'
p2491
S'y'
sS'CONFIG_BLK_CGROUP'
p2492
S'y'
sS'CONFIG_PATA_ACPI'
p2493
S'm'
sS'kernel.sched_domain.cpu27.domain1.max_newidle_lb_cost'
p2494
I49508
sS'CONFIG_WATCHDOG'
p2495
S'y'
sS'CONFIG_RTC_CLASS'
p2496
S'y'
sS'CONFIG_ISCSI_TCP'
p2497
S'm'
sS'CONFIG_HAVE_DEBUG_STACKOVERFLOW'
p2498
S'y'
sS'net.ipv6.neigh.default.gc_stale_time'
p2499
I60
sS'CONFIG_TCP_MD5SIG'
p2500
S'y'
sS'net.ipv4.neigh.ens3.unres_qlen'
p2501
I101
sS'kernel.sched_domain.cpu11.domain1.busy_idx'
p2502
I3
sS'CONFIG_IP_PIMSM_V1'
p2503
S'y'
sS'CONFIG_MICROCODE'
p2504
S'y'
sS'kernel.sched_domain.cpu27.domain0.forkexec_idx'
p2505
I0
sS'kernel.sched_domain.cpu3.domain1.max_newidle_lb_cost'
p2506
I15140
sS'CONFIG_TUN'
p2507
S'y'
sS'kernel.sched_domain.cpu20.domain0.cache_nice_tries'
p2508
I1
sS'CONFIG_NET_VENDOR_SEEQ'
p2509
S'y'
sS'CONFIG_IP_PIMSM_V2'
p2510
S'y'
sS'net.ipv4.tcp_low_latency'
p2511
I0
sS'kernel.sched_domain.cpu18.domain1.newidle_idx'
p2512
I0
sS'net.ipv4.ip_forward_use_pmtu'
p2513
I0
sS'CONFIG_VIRTIO'
p2514
S'y'
sS'kernel.randomize_va_space'
p2515
I2
sS'vm.legacy_va_layout'
p2516
I0
sS'CONFIG_PARAVIRT'
p2517
S'y'
sS'CONFIG_HAVE_OPTPROBES'
p2518
S'y'
sS'CONFIG_XZ_DEC_BCJ'
p2519
S'y'
sS'net.ipv4.icmp_echo_ignore_all'
p2520
I0
sS'net.ipv4.ip_dynaddr'
p2521
I0
sS'CONFIG_SYSFS'
p2522
S'y'
sS'dev.cdrom.autoeject'
p2523
I0
sS'CONFIG_PROFILING'
p2524
S'y'
sS'kernel.sched_domain.cpu19.domain0.max_newidle_lb_cost'
p2525
I20429
sS'kernel.sched_domain.cpu6.domain1.name'
p2526
S'NUMA'
p2527
sS'net.ipv4.route.max_size'
p2528
I2147483647
sS'CONFIG_NET_VENDOR_INTEL'
p2529
S'y'
sS'CONFIG_TASKSTATS'
p2530
S'y'
sS'vm.memory_failure_early_kill'
p2531
I0
sS'kernel.sched_domain.cpu6.domain1.busy_factor'
p2532
I32
sS'net.ipv6.conf.default.use_tempaddr'
p2533
I2
sS'CONFIG_DEVTMPFS'
p2534
S'y'
sS'CONFIG_CFS_BANDWIDTH'
p2535
S'y'
sS'kernel.sched_domain.cpu12.domain0.idle_idx'
p2536
I1
sS'net.ipv6.route.gc_timeout'
p2537
I60
sS'CONFIG_HAVE_MOD_ARCH_SPECIFIC'
p2538
S'y'
sS'net.ipv6.neigh.ens3.base_reachable_time_ms'
p2539
I30000
sS'CONFIG_FB_MODE_HELPERS'
p2540
S'y'
sS'CONFIG_USB_OHCI_LITTLE_ENDIAN'
p2541
S'y'
sS'kernel.sched_domain.cpu35.domain1.wake_idx'
p2542
I0
sS'net.ipv4.conf.default.ignore_routes_with_linkdown'
p2543
I0
sS'kernel.sched_domain.cpu2.domain1.max_interval'
p2544
I72
sS'net.ipv4.icmp_echo_ignore_broadcasts'
p2545
I1
sS'CONFIG_IRQ_WORK'
p2546
S'y'
sS'CONFIG_TCG_TIS'
p2547
S'y'
sS'CONFIG_XZ_DEC_POWERPC'
p2548
S'y'
sS'CONFIG_HZ_250'
p2549
S'y'
sS'kernel.sched_domain.cpu0.domain1.flags'
p2550
I25647
sS'kernel.sched_domain.cpu30.domain0.min_interval'
p2551
I12
sS'kernel.sched_domain.cpu31.domain1.min_interval'
p2552
I36
sS'kernel.sched_domain.cpu14.domain1.min_interval'
p2553
I36
sS'CONFIG_REGMAP_I2C'
p2554
S'y'
sS'net.ipv6.neigh.ens3.locktime'
p2555
I0
sS'kernel.sched_domain.cpu20.domain0.max_newidle_lb_cost'
p2556
I25336
sS'kernel.sched_domain.cpu24.domain0.forkexec_idx'
p2557
I0
sS'net.ipv4.conf.all.arp_filter'
p2558
I0
sS'net.ipv4.route.redirect_load'
p2559
I5
sS'CONFIG_THERMAL_GOV_BANG_BANG'
p2560
S'y'
sS'CONFIG_MFD_MAX8997'
p2561
S'y'
sS'CONFIG_HAVE_ACPI_APEI'
p2562
S'y'
sS'kernel.sched_domain.cpu13.domain1.imbalance_pct'
p2563
I125
sS'CONFIG_FONT_SUPPORT'
p2564
S'y'
sS'kernel.sched_domain.cpu6.domain0.imbalance_pct'
p2565
I125
sS'CONFIG_X86_PMEM_LEGACY_DEVICE'
p2566
S'y'
sS'kernel.sched_domain.cpu1.domain1.wake_idx'
p2567
I0
sS'CONFIG_REGMAP_IRQ'
p2568
S'y'
sS'CONFIG_ASSOCIATIVE_ARRAY'
p2569
S'y'
sS'CONFIG_EZX_PCAP'
p2570
S'y'
sS'CONFIG_SCSI_MOD'
p2571
S'y'
sS'CONFIG_CRYPTO_HASH_INFO'
p2572
S'y'
sS'kernel.sched_domain.cpu24.domain0.imbalance_pct'
p2573
I125
sS'net.ipv4.conf.all.shared_media'
p2574
I1
sS'CONFIG_IOMMU_API'
p2575
S'y'
sS'CONFIG_INLINE_SPIN_UNLOCK_IRQ'
p2576
S'y'
sS'CONFIG_BLOCK'
p2577
S'y'
sS'CONFIG_MEMORY_FAILURE'
p2578
S'y'
sS'CONFIG_FB_NOTIFY'
p2579
S'y'
sS'CONFIG_NET_VENDOR_EZCHIP'
p2580
S'y'
sS'CONFIG_TIMERFD'
p2581
S'y'
sS'kernel.sched_domain.cpu1.domain0.max_interval'
p2582
I48
sS'net.ipv4.conf.ens3.mc_forwarding'
p2583
I0
sS'CONFIG_CPU_RMAP'
p2584
S'y'
sS'kernel.sched_domain.cpu15.domain0.newidle_idx'
p2585
I0
sS'net.netfilter.nf_log.10'
p2586
S'NONE'
p2587
sS'net.netfilter.nf_log.12'
p2588
S'NONE'
p2589
sS'CONFIG_ARCH_HAS_PMEM_API'
p2590
S'y'
sS'net.ipv6.conf.all.drop_unicast_in_l2_multicast'
p2591
I0
sS'kernel.sched_domain.cpu31.domain0.max_interval'
p2592
I24
sS'CONFIG_X86_INTEL_LPSS'
p2593
S'y'
sS'net.core.rmem_max'
p2594
I212992
sS'CONFIG_CRYPTO_DRBG_HASH'
p2595
S'y'
sS'CONFIG_SECURITY_PATH'
p2596
S'y'
sS'CONFIG_THERMAL_EMERGENCY_POWEROFF_DELAY_MS'
p2597
I0
sS'CONFIG_DEBUG_FS'
p2598
S'y'
sS'kernel.sched_domain.cpu24.domain0.max_newidle_lb_cost'
p2599
I15356
sS'kernel.sched_domain.cpu30.domain1.flags'
p2600
I25647
sS'kernel.sched_domain.cpu32.domain0.flags'
p2601
I4143
sS'CONFIG_STACK_TRACER'
p2602
S'y'
sS'net.core.dev_weight'
p2603
I64
sS'CONFIG_THREAD_INFO_IN_TASK'
p2604
S'y'
sS'kernel.sched_domain.cpu22.domain0.cache_nice_tries'
p2605
I1
sS'CONFIG_X86_MPPARSE'
p2606
S'y'
sS'CONFIG_NET_VENDOR_SYNOPSYS'
p2607
S'y'
sS'CONFIG_SECURITY_TOMOYO_MAX_AUDIT_LOG'
p2608
I1024
sS'CONFIG_PCIE_PME'
p2609
S'y'
sS'kernel.sched_domain.cpu6.domain1.max_newidle_lb_cost'
p2610
I32526
sS'CONFIG_HAVE_CC_STACKPROTECTOR'
p2611
S'y'
sS'CONFIG_NET_VENDOR_MARVELL'
p2612
S'y'
sS'kernel.sched_domain.cpu15.domain1.idle_idx'
p2613
I2
sS'CONFIG_BLK_DEV_LOOP_MIN_COUNT'
p2614
I8
sS'kernel.sched_domain.cpu32.domain0.max_interval'
p2615
I24
sS'net.ipv6.conf.ens3.proxy_ndp'
p2616
I0
sS'CONFIG_DEFAULT_TCP_CONG'
p2617
S'"cubic"'
p2618
sS'CONFIG_CRYPTO_CBC'
p2619
S'y'
sS'CONFIG_PGTABLE_MAPPING'
p2620
S'y'
sS'kernel.sched_domain.cpu34.domain0.busy_factor'
p2621
I32
sS'CONFIG_HAVE_EBPF_JIT'
p2622
S'y'
sS'kernel.shmmax'
p2623
L18446744073692774399L
sS'net.ipv6.conf.all.accept_ra_min_hop_limit'
p2624
I1
sS'kernel.sched_domain.cpu19.domain1.newidle_idx'
p2625
I0
sS'CONFIG_PARAVIRT_SPINLOCKS'
p2626
S'y'
sS'CONFIG_FB_SIMPLE'
p2627
S'y'
sS'kernel.sched_domain.cpu0.domain1.imbalance_pct'
p2628
I125
sS'CONFIG_QUEUED_RWLOCKS'
p2629
S'y'
sS'CONFIG_SUSPEND_FREEZER'
p2630
S'y'
sS'kernel.sched_domain.cpu9.domain1.min_interval'
p2631
I36
sS'CONFIG_VHOST_NET'
p2632
S'm'
sS'net.ipv4.conf.ens3.forwarding'
p2633
I0
sS'kernel.sched_domain.cpu2.domain1.cache_nice_tries'
p2634
I2
sS'kernel.sched_domain.cpu6.domain0.cache_nice_tries'
p2635
I1
sS'net.ipv4.neigh.lo.unres_qlen_bytes'
p2636
I212992
sS'fs.pipe-user-pages-soft'
p2637
I16384
sS'CONFIG_CRYPTO_SIMD'
p2638
S'm'
sS'CONFIG_SND_PCM_TIMER'
p2639
S'y'
sS'CONFIG_X86_INTEL_PSTATE'
p2640
S'y'
sS'net.ipv4.tcp_mtu_probing'
p2641
I0
sS'kernel.sched_domain.cpu20.domain0.wake_idx'
p2642
I0
sS'CONFIG_MFD_TWL4030_AUDIO'
p2643
S'y'
sS'CONFIG_CGROUP_PERF'
p2644
S'y'
sS'CONFIG_WATCHDOG_HANDLE_BOOT_ENABLED'
p2645
S'y'
sS'CONFIG_SOLARIS_X86_PARTITION'
p2646
S'y'
sS'kernel.sched_domain.cpu12.domain1.newidle_idx'
p2647
I0
sS'kernel.sched_domain.cpu11.domain0.idle_idx'
p2648
I1
sS'kernel.sched_domain.cpu5.domain1.name'
p2649
S'NUMA'
p2650
sS'CONFIG_NEED_SG_DMA_LENGTH'
p2651
S'y'
sS'vm.hugepages_treat_as_movable'
p2652
I0
sS'CONFIG_GENERIC_CALIBRATE_DELAY'
p2653
S'y'
sS'CONFIG_ARCH_HAS_DEVMEM_IS_ALLOWED'
p2654
S'y'
sS'CONFIG_SND'
p2655
S'm'
sS'CONFIG_LZO_DECOMPRESS'
p2656
S'y'
sS'kernel.ftrace_enabled'
p2657
I1
sS'kernel.sched_domain.cpu32.domain1.imbalance_pct'
p2658
I125
sS'CONFIG_CRYPTO_RNG'
p2659
S'y'
sS'CONFIG_MODULES_TREE_LOOKUP'
p2660
S'y'
sS'CONFIG_ECRYPT_FS_MESSAGING'
p2661
S'y'
sS'CONFIG_RTC_HCTOSYS_DEVICE'
p2662
S'"rtc0"'
p2663
sS'net.ipv4.conf.ens3.src_valid_mark'
p2664
I0
sS'CONFIG_EFI_VARS'
p2665
S'y'
sS'kernel.sched_domain.cpu30.domain1.imbalance_pct'
p2666
I125
sS'CONFIG_KEXEC_FILE'
p2667
S'y'
sS'CONFIG_I2C_BOARDINFO'
p2668
S'y'
sS'net.ipv4.tcp_mem'
p2669
S'768357\t1024476\t1536714'
p2670
sS'CONFIG_SECCOMP'
p2671
S'y'
sS'CONFIG_CRYPTO_RNG2'
p2672
S'y'
sS'kernel.sched_domain.cpu10.domain0.newidle_idx'
p2673
I0
sS'CONFIG_ARCH_MMAP_RND_BITS'
p2674
I28
sS'kernel.sched_domain.cpu22.domain1.newidle_idx'
p2675
I0
sS'CONFIG_PMIC_DA9052'
p2676
S'y'
sS'CONFIG_KGDB_SERIAL_CONSOLE'
p2677
S'y'
sS'kernel.sched_domain.cpu25.domain0.wake_idx'
p2678
I0
sS'CONFIG_IMA_DEFAULT_TEMPLATE'
p2679
S'"ima-ng"'
p2680
sS'kernel.printk_devkmsg'
p2681
S'ratelimit'
p2682
sS'kernel.sched_domain.cpu6.domain0.busy_idx'
p2683
I2
sS'CONFIG_CRYPTO_SHA1'
p2684
S'y'
sS'CONFIG_MMIOTRACE'
p2685
S'y'
sS'kernel.sched_domain.cpu10.domain1.busy_factor'
p2686
I32
sS'CONFIG_HW_RANDOM'
p2687
S'y'
sS'CONFIG_ARCH_HAS_CPU_RELAX'
p2688
S'y'
sS'kernel.sched_domain.cpu11.domain1.wake_idx'
p2689
I0
sS'net.ipv6.conf.all.accept_source_route'
p2690
I0
sS'CONFIG_PARAVIRT_TIME_ACCOUNTING'
p2691
S'y'
sS'kernel.sched_domain.cpu7.domain0.name'
p2692
S'DIE'
p2693
sS'net.ipv4.neigh.ens3.delay_first_probe_time'
p2694
I5
sS'net.ipv4.neigh.ens3.retrans_time_ms'
p2695
I1000
sS'CONFIG_KALLSYMS'
p2696
S'y'
sS'CONFIG_SND_SPI'
p2697
S'y'
sS'CONFIG_RFKILL_INPUT'
p2698
S'y'
sS'net.ipv4.route.gc_timeout'
p2699
I300
sS'CONFIG_NET_VENDOR_SAMSUNG'
p2700
S'y'
sS'CONFIG_SPARSEMEM'
p2701
S'y'
sS'CONFIG_ARCH_HAS_ELF_RANDOMIZE'
p2702
S'y'
sS'kernel.sched_domain.cpu17.domain0.idle_idx'
p2703
I1
sS'CONFIG_HAVE_DMA_API_DEBUG'
p2704
S'y'
sS'CONFIG_ACPI_BUTTON'
p2705
S'y'
sS'CONFIG_TTY'
p2706
S'y'
sS'CONFIG_X86_BOOTPARAM_MEMORY_CORRUPTION_CHECK'
p2707
S'y'
sS'CONFIG_XZ_DEC'
p2708
S'y'
sS'kernel.sched_domain.cpu34.domain0.cache_nice_tries'
p2709
I1
sS'CONFIG_BOUNCE'
p2710
S'y'
sS'CONFIG_X86_PM_TIMER'
p2711
S'y'
sS'net.ipv4.conf.ens3.arp_notify'
p2712
I0
sS'CONFIG_SERIAL_8250_LPSS'
p2713
S'y'
sS'net.ipv6.conf.all.accept_ra_rtr_pref'
p2714
I1
sS'CONFIG_RPS'
p2715
S'y'
sS'CONFIG_AUDIT_WATCH'
p2716
S'y'
sS'CONFIG_KVM_GENERIC_DIRTYLOG_READ_PROTECT'
p2717
S'y'
sS'CONFIG_DMAR_TABLE'
p2718
S'y'
sS'CONFIG_SYSTEM_EXTRA_CERTIFICATE_SIZE'
p2719
I4096
sS'net.ipv4.conf.ens3.send_redirects'
p2720
I1
sS'kernel.sched_domain.cpu23.domain1.imbalance_pct'
p2721
I125
sS'CONFIG_PREEMPT_VOLUNTARY'
p2722
S'y'
sS'CONFIG_DEVMEM'
p2723
S'y'
sS'CONFIG_FUSE_FS'
p2724
S'y'
sS'CONFIG_USER_RETURN_NOTIFIER'
p2725
S'y'
sS'kernel.sched_domain.cpu11.domain0.imbalance_pct'
p2726
I125
sS'net.ipv4.inet_peer_minttl'
p2727
I120
sS'net.ipv4.neigh.default.gc_interval'
p2728
I30
sS'kernel.sched_domain.cpu20.domain1.busy_idx'
p2729
I3
sS'kernel.sg-big-buff'
p2730
I32768
sS'net.ipv6.route.gc_elasticity'
p2731
I9
sS'CONFIG_ARCH_SPARSEMEM_ENABLE'
p2732
S'y'
sS'CONFIG_NETFILTER_INGRESS'
p2733
S'y'
sS'CONFIG_HAVE_MEMBLOCK'
p2734
S'y'
sS'CONFIG_SCHED_TRACER'
p2735
S'y'
sS'CONFIG_SQUASHFS_DECOMP_SINGLE'
p2736
S'y'
sS'kernel.sched_domain.cpu30.domain1.max_newidle_lb_cost'
p2737
I27610
sS'net.ipv6.conf.default.temp_valid_lft'
p2738
I604800
sS'kernel.sched_domain.cpu0.domain1.newidle_idx'
p2739
I0
sS'kernel.sched_domain.cpu3.domain1.idle_idx'
p2740
I2
sS'CONFIG_ZONE_DMA32'
p2741
S'y'
sS'net.ipv6.neigh.default.app_solicit'
p2742
I0
sS'net.ipv4.tcp_timestamps'
p2743
I1
sS'kernel.sched_domain.cpu5.domain0.busy_idx'
p2744
I2
sS'kernel.sched_domain.cpu16.domain1.busy_factor'
p2745
I32
sS'kernel.sched_domain.cpu15.domain1.wake_idx'
p2746
I0
sS'CONFIG_GENERIC_CPU_AUTOPROBE'
p2747
S'y'
sS'CONFIG_SCSI_LOGGING'
p2748
S'y'
sS'CONFIG_NR_CPUS'
p2749
I512
sS'CONFIG_ACPI_APEI_PCIEAER'
p2750
S'y'
sS'user.max_user_namespaces'
p2751
I257513
sS'CONFIG_BIG_KEYS'
p2752
S'y'
sS'kernel.sched_domain.cpu4.domain0.flags'
p2753
I4143
sS'kernel.keys.root_maxkeys'
p2754
I1000000
sS'kernel.sched_domain.cpu25.domain0.busy_idx'
p2755
I2
sS'CONFIG_POSIX_MQUEUE_SYSCTL'
p2756
S'y'
sS'kernel.sched_domain.cpu35.domain1.busy_idx'
p2757
I3
sS'kernel.sched_domain.cpu4.domain0.min_interval'
p2758
I24
sS'net.ipv6.conf.ens3.disable_policy'
p2759
I0
sS'CONFIG_IOMMU_SUPPORT'
p2760
S'y'
sS'kernel.sched_domain.cpu10.domain1.busy_idx'
p2761
I3
sS'net.ipv6.neigh.lo.delay_first_probe_time'
p2762
I5
sS'CONFIG_AMD_NUMA'
p2763
S'y'
sS'net.core.somaxconn'
p2764
I128
sS'CONFIG_AMIGA_PARTITION'
p2765
S'y'
sS'CONFIG_CONSOLE_LOGLEVEL_DEFAULT'
p2766
I7
sS'CONFIG_SQUASHFS_LZ4'
p2767
S'y'
sS'net.ipv6.conf.ens3.accept_ra_pinfo'
p2768
I1
sS'CONFIG_SCSI_CONSTANTS'
p2769
S'y'
sS'kernel.sched_domain.cpu16.domain0.max_newidle_lb_cost'
p2770
I23670
sS'kernel.sched_domain.cpu17.domain0.max_newidle_lb_cost'
p2771
I18410
sS'CONFIG_CRYPTO_AES'
p2772
S'y'
sS'kernel.sched_domain.cpu19.domain0.imbalance_pct'
p2773
I125
sS'CONFIG_XZ_DEC_SPARC'
p2774
S'y'
sS'CONFIG_SECURITY_SELINUX_DEVELOP'
p2775
S'y'
sS'kernel.sched_domain.cpu28.domain1.wake_idx'
p2776
I0
sS'net.ipv4.conf.lo.mc_forwarding'
p2777
I0
sS'net.ipv4.tcp_keepalive_probes'
p2778
I9
sS'CONFIG_TREE_RCU'
p2779
S'y'
sS'vm.hugetlb_shm_group'
p2780
I0
sS'CONFIG_X86_TSC'
p2781
S'y'
sS'CONFIG_SECURITY_SELINUX_BOOTPARAM'
p2782
S'y'
sS'net.ipv6.flowlabel_state_ranges'
p2783
I0
sS'kernel.sched_domain.cpu15.domain1.newidle_idx'
p2784
I0
sS'CONFIG_X86_MCE_AMD'
p2785
S'y'
sS'CONFIG_PARAVIRT_CLOCK'
p2786
S'y'
sg3
(lp2787
S'HostInfo'
p2788
ag6
aS'object'
p2789
asS'CONFIG_MICROCODE_AMD'
p2790
S'y'
sS'kernel.sched_domain.cpu25.domain0.idle_idx'
p2791
I1
sS'CONFIG_LIBNVDIMM'
p2792
S'y'
sS'kernel.random.read_wakeup_threshold'
p2793
I64
sS'kernel.sched_domain.cpu1.domain0.wake_idx'
p2794
I0
sS'kernel.sched_domain.cpu27.domain0.busy_idx'
p2795
I2
sS'CONFIG_RESET_CONTROLLER'
p2796
S'y'
sS'net.ipv4.tcp_no_metrics_save'
p2797
I0
sS'CONFIG_I2C_HELPER_AUTO'
p2798
S'y'
sS'CONFIG_JBD2'
p2799
S'y'
sS'kernel.sched_domain.cpu1.domain0.forkexec_idx'
p2800
I0
sS'kernel.sched_domain.cpu15.domain0.busy_factor'
p2801
I32
sS'CONFIG_PARTITION_ADVANCED'
p2802
S'y'
sS'CONFIG_EFI_STUB'
p2803
S'y'
sS'net.ipv6.neigh.ens3.mcast_resolicit'
p2804
I0
sS'kernel.sched_domain.cpu35.domain1.busy_factor'
p2805
I32
sS'net.ipv4.conf.all.arp_announce'
p2806
I0
sS'kernel.sched_domain.cpu29.domain1.busy_factor'
p2807
I32
sS'kernel.sched_domain.cpu24.domain1.idle_idx'
p2808
I2
sS'CONFIG_RTC_INTF_DEV'
p2809
S'y'
sS'CONFIG_EXT4_FS_POSIX_ACL'
p2810
S'y'
sS'CONFIG_SRCU'
p2811
S'y'
sS'CONFIG_SND_VMASTER'
p2812
S'y'
sS'CONFIG_INPUT_EVDEV'
p2813
S'y'
sS'net.ipv4.conf.all.arp_ignore'
p2814
I0
sS'kernel.sched_domain.cpu13.domain0.busy_idx'
p2815
I2
sS'CONFIG_GPIO_TPS6586X'
p2816
S'y'
sS'kernel.sched_domain.cpu33.domain0.forkexec_idx'
p2817
I0
sS'CONFIG_SECCOMP_FILTER'
p2818
S'y'
sS'kernel.sched_domain.cpu25.domain1.imbalance_pct'
p2819
I125
sS'kernel.sched_domain.cpu3.domain0.flags'
p2820
I4143
sS'kernel.sched_domain.cpu12.domain1.max_interval'
p2821
I72
sS'CONFIG_SERIO'
p2822
S'y'
sS'net.ipv6.conf.ens3.accept_ra_min_hop_limit'
p2823
I1
sS'CONFIG_HPET_EMULATE_RTC'
p2824
S'y'
sS'kernel.sched_domain.cpu31.domain1.name'
p2825
S'NUMA'
p2826
sS'CONFIG_SERIAL_8250_RUNTIME_UARTS'
p2827
I32
sS'CONFIG_FB_EFI'
p2828
S'y'
sS'CONFIG_MMU_NOTIFIER'
p2829
S'y'
sS'kernel.sched_domain.cpu29.domain0.max_newidle_lb_cost'
p2830
I21789
sS'CONFIG_ACPI_SYSTEM_POWER_STATES_SUPPORT'
p2831
S'y'
sS'CONFIG_SQUASHFS_LZO'
p2832
S'y'
sS'net.ipv4.tcp_stdurg'
p2833
I0
sS'CONFIG_SCSI_DH'
p2834
S'y'
sS'kernel.sched_domain.cpu19.domain0.forkexec_idx'
p2835
I0
sS'kernel.sched_domain.cpu4.domain1.name'
p2836
S'NUMA'
p2837
sS'kernel.unknown_nmi_panic'
p2838
I0
sS'CONFIG_NO_HZ_COMMON'
p2839
S'y'
sS'net.ipv4.conf.all.route_localnet'
p2840
I0
sS'kernel.seccomp.actions_logged'
p2841
S'kill_process kill_thread trap errno trace log'
p2842
sS'kernel.sched_domain.cpu32.domain1.forkexec_idx'
p2843
I0
sS'net.ipv6.conf.all.force_mld_version'
p2844
I0
sS'CONFIG_SECURITY_TOMOYO'
p2845
S'y'
sS'CONFIG_MSDOS_PARTITION'
p2846
S'y'
sS'kernel.sched_domain.cpu15.domain1.imbalance_pct'
p2847
I125
sS'CONFIG_SND_MAX_CARDS'
p2848
I32
sS'vm.overcommit_kbytes'
p2849
I0
sS'net.ipv4.conf.all.drop_unicast_in_l2_multicast'
p2850
I0
sS'CONFIG_POWER_SUPPLY'
p2851
S'y'
sS'kernel.sched_domain.cpu2.domain0.cache_nice_tries'
p2852
I1
sS'CONFIG_DECOMPRESS_LZMA'
p2853
S'y'
sS'net.ipv6.conf.all.ndisc_notify'
p2854
I0
sS'kernel.sched_domain.cpu7.domain0.max_interval'
p2855
I48
sS'CONFIG_CALGARY_IOMMU'
p2856
S'y'
sS'net.ipv4.neigh.lo.unres_qlen'
p2857
I101
sS'CONFIG_IO_DELAY_TYPE_0X80'
p2858
I0
sS'CONFIG_SND_JACK'
p2859
S'y'
sS'CONFIG_DYNAMIC_DEBUG'
p2860
S'y'
sS'CONFIG_CRYPTO_HW'
p2861
S'y'
sS'kernel.printk_ratelimit_burst'
p2862
I10
sS'CONFIG_CRYPTO_SEQIV'
p2863
S'y'
sS'CONFIG_NET_VENDOR_OKI'
p2864
S'y'
sS'kernel.sched_domain.cpu3.domain0.busy_factor'
p2865
I32
sS'fs.nr_open'
p2866
I1048576
sS'CONFIG_DECOMPRESS_GZIP'
p2867
S'y'
sS'net.ipv6.conf.lo.accept_ra_mtu'
p2868
I1
sS'kernel.sched_domain.cpu16.domain0.flags'
p2869
I4143
sS'CONFIG_RAID6_PQ'
p2870
S'm'
sS'CONFIG_CFQ_GROUP_IOSCHED'
p2871
S'y'
sS'CONFIG_HAVE_ARCH_MMAP_RND_BITS'
p2872
S'y'
sS'fs.quota.reads'
p2873
I0
sS'kernel.sched_domain.cpu5.domain1.newidle_idx'
p2874
I0
sS'kernel.numa_balancing_scan_size_mb'
p2875
I256
sS'CONFIG_OID_REGISTRY'
p2876
S'y'
sS'net.ipv4.conf.lo.shared_media'
p2877
I1
sS'CONFIG_NLS'
p2878
S'y'
sS'kernel.sched_domain.cpu22.domain0.max_interval'
p2879
I48
sS'kernel.sched_domain.cpu1.domain1.flags'
p2880
I25647
sS'CONFIG_NODES_SHIFT'
p2881
I6
sS'CONFIG_ARCH_HAS_STRICT_MODULE_RWX'
p2882
S'y'
sS'net.ipv6.conf.lo.regen_max_retry'
p2883
I3
sS'CONFIG_SND_OSSEMUL'
p2884
S'y'
sS'CONFIG_CGROUP_FREEZER'
p2885
S'y'
sS'CONFIG_NET_VENDOR_CHELSIO'
p2886
S'y'
sS'CONFIG_FRAMEBUFFER_CONSOLE_DETECT_PRIMARY'
p2887
S'y'
sS'CONFIG_ASN1'
p2888
S'y'
sS'kernel.sched_domain.cpu24.domain1.max_interval'
p2889
I72
sS'CONFIG_PCIEASPM'
p2890
S'y'
sS'CONFIG_PARPORT'
p2891
S'm'
sS'CONFIG_CROSS_MEMORY_ATTACH'
p2892
S'y'
sS'CONFIG_COMPACTION'
p2893
S'y'
sS'kernel.io_delay_type'
p2894
I1
sS'CONFIG_HAVE_KRETPROBES'
p2895
S'y'
sS'CONFIG_MPLS'
p2896
S'y'
sS'kernel.sched_domain.cpu30.domain0.max_interval'
p2897
I24
sS'CONFIG_CPU_IDLE_GOV_LADDER'
p2898
S'y'
sS'CONFIG_UNISYSSPAR'
p2899
S'y'
sS'CONFIG_X86_64_SMP'
p2900
S'y'
sS'net.ipv6.conf.all.autoconf'
p2901
I1
sS'CONFIG_CRC16'
p2902
S'y'
sS'CONFIG_CPU_FREQ_GOV_ONDEMAND'
p2903
S'y'
sS'CONFIG_CROSS_COMPILE'
p2904
S'""'
p2905
sS'CONFIG_ARCH_HAS_SET_MEMORY'
p2906
S'y'
sS'CONFIG_SYSCTL_SYSCALL'
p2907
S'y'
sS'net.ipv4.neigh.ens3.mcast_solicit'
p2908
I3
sS'CONFIG_PRINTK_SAFE_LOG_BUF_SHIFT'
p2909
I13
sS'CONFIG_NET_RX_BUSY_POLL'
p2910
S'y'
sS'CONFIG_GENERIC_TIME_VSYSCALL'
p2911
S'y'
sS'CONFIG_HARDLOCKUP_DETECTOR_PERF'
p2912
S'y'
sS'CONFIG_USB_PHY'
p2913
S'y'
sS'CONFIG_LDM_PARTITION'
p2914
S'y'
sS'CONFIG_FUNCTION_PROFILER'
p2915
S'y'
sS'kernel.sched_domain.cpu14.domain0.max_newidle_lb_cost'
p2916
I20163
sS'CONFIG_RCU_NEED_SEGCBLIST'
p2917
S'y'
sS'kernel.sched_domain.cpu3.domain1.name'
p2918
S'NUMA'
p2919
sS'CONFIG_MULTIUSER'
p2920
S'y'
sS'net.ipv4.tcp_wmem'
p2921
S'4096\t16384\t4194304'
p2922
sS'kernel.sched_domain.cpu9.domain1.idle_idx'
p2923
I2
sS'CONFIG_VMAP_STACK'
p2924
S'y'
sS'kernel.sched_nr_migrate'
p2925
I32
sS'CONFIG_HAVE_KVM_MSI'
p2926
S'y'
sS'CONFIG_X86_PMEM_LEGACY'
p2927
S'y'
sS'kernel.sched_domain.cpu13.domain0.wake_idx'
p2928
I0
sS'kernel.sched_domain.cpu1.domain1.busy_idx'
p2929
I3
sS'kernel.keys.root_maxbytes'
p2930
I25000000
sS'kernel.sched_domain.cpu25.domain0.max_newidle_lb_cost'
p2931
I24372
sS'CONFIG_NET_VENDOR_BROADCOM'
p2932
S'y'
sS'kernel.sched_domain.cpu24.domain0.min_interval'
p2933
I12
sS'kernel.pid_max'
p2934
I253952
sS'net.ipv4.conf.ens3.bootp_relay'
p2935
I0
sS'CONFIG_MICROCODE_OLD_INTERFACE'
p2936
S'y'
sS'kernel.cap_last_cap'
p2937
I37
sS'kernel.sched_domain.cpu17.domain1.flags'
p2938
I25647
sS'CONFIG_ARCH_USE_QUEUED_RWLOCKS'
p2939
S'y'
sS'vm.nr_pdflush_threads'
p2940
I0
sS'net.ipv4.tcp_available_congestion_control'
p2941
S'cubic reno'
p2942
sS'kernel.sched_domain.cpu18.domain1.min_interval'
p2943
I36
sS'kernel.sched_domain.cpu13.domain1.cache_nice_tries'
p2944
I2
sS'kernel.sched_domain.cpu18.domain0.max_newidle_lb_cost'
p2945
I77360
sS'CONFIG_CRYPTO_CRC32C_INTEL'
p2946
S'y'
sS'CONFIG_ACPI_BATTERY'
p2947
S'y'
sS'kernel.sched_domain.cpu20.domain1.wake_idx'
p2948
I0
sS'CONFIG_ACPI_PROCESSOR_IDLE'
p2949
S'y'
sS'kernel.sched_domain.cpu13.domain0.flags'
p2950
I4143
sS'kernel.printk'
p2951
S'4\t4\t1\t7'
p2952
sS'CONFIG_PID_NS'
p2953
S'y'
sS'CONFIG_NETFILTER'
p2954
S'y'
sS'user.max_inotify_instances'
p2955
I1024
sS'CONFIG_ACPI_CPPC_LIB'
p2956
S'y'
sS'CONFIG_ACPI_AC'
p2957
S'y'
sS'kernel.sched_domain.cpu34.domain1.wake_idx'
p2958
I0
sS'CONFIG_BINFMT_SCRIPT'
p2959
S'y'
sS'CONFIG_TMPFS_POSIX_ACL'
p2960
S'y'
sS'net.ipv6.conf.default.max_desync_factor'
p2961
I600
sS'CONFIG_DEFAULT_DEADLINE'
p2962
S'y'
sS'CONFIG_MFD_SEC_CORE'
p2963
S'y'
sS'kernel.sched_domain.cpu10.domain1.min_interval'
p2964
I36
sS'CONFIG_NET_VENDOR_QUALCOMM'
p2965
S'y'
sS'net.ipv4.igmp_max_memberships'
p2966
I20
sS'CONFIG_X86_REROUTE_FOR_BROKEN_BOOT_IRQS'
p2967
S'y'
sS'kernel.sched_domain.cpu18.domain1.max_interval'
p2968
I72
sS'net.ipv6.conf.lo.router_solicitation_interval'
p2969
I4
sS'CONFIG_MODULE_SIG_HASH'
p2970
S'"sha512"'
p2971
sS'net.ipv6.conf.lo.accept_ra_defrtr'
p2972
I1
sS'CONFIG_SOCK_CGROUP_DATA'
p2973
S'y'
sS'debug.exception-trace'
p2974
I1
sS'CONFIG_ACPI_NUMA'
p2975
S'y'
sS'CONFIG_SECURITY_SELINUX_AVC_STATS'
p2976
S'y'
sS'CONFIG_IMA_MEASURE_PCR_IDX'
p2977
I10
sS'CONFIG_MODULE_SRCVERSION_ALL'
p2978
S'y'
sS'CONFIG_X86'
p2979
S'y'
sS'CONFIG_CRC_T10DIF'
p2980
S'y'
sS'kernel.sched_domain.cpu4.domain1.min_interval'
p2981
I36
sS'net.ipv6.neigh.lo.locktime'
p2982
I0
sS'kernel.sched_domain.cpu27.domain1.imbalance_pct'
p2983
I125
sS'kernel.sched_domain.cpu21.domain1.flags'
p2984
I25647
sS'CONFIG_NET_VENDOR_DLINK'
p2985
S'y'
sS'net.ipv6.conf.all.router_solicitation_delay'
p2986
I1
sS'CONFIG_EARLY_PRINTK_DBGP'
p2987
S'y'
sS'kernel.sched_domain.cpu35.domain1.max_interval'
p2988
I72
sS'kernel.sched_domain.cpu18.domain0.max_interval'
p2989
I48
sS'CONFIG_TREE_SRCU'
p2990
S'y'
sS'net.ipv4.tcp_rmem'
p2991
S'4096\t87380\t6291456'
p2992
sS'CONFIG_PCI_IOV'
p2993
S'y'
sS'CONFIG_ATA_PIIX'
p2994
S'y'
sS'kernel.sched_domain.cpu20.domain1.flags'
p2995
I25647
sS'CONFIG_CRYPTO_GF128MUL'
p2996
S'y'
sS'kernel.sched_domain.cpu1.domain0.max_newidle_lb_cost'
p2997
I52138
sS'kernel.sched_domain.cpu10.domain1.cache_nice_tries'
p2998
I2
sS'kernel.sched_domain.cpu31.domain1.busy_idx'
p2999
I3
sS'CONFIG_SND_HDA_INPUT_BEEP'
p3000
S'y'
sS'fs.epoll.max_user_watches'
p3001
I13501132
sS'CONFIG_SERIAL_8250'
p3002
S'y'
sS'CONFIG_CRYPTO_BLKCIPHER'
p3003
S'y'
sS'net.ipv6.conf.default.temp_prefered_lft'
p3004
I86400
sS'kernel.sched_domain.cpu32.domain0.min_interval'
p3005
I12
sS'CONFIG_IP_NF_IPTABLES'
p3006
S'm'
sS'kernel.sched_domain.cpu8.domain1.flags'
p3007
I25647
sS'kernel.sched_domain.cpu1.domain1.cache_nice_tries'
p3008
I2
sS'kernel.sched_domain.cpu17.domain1.busy_idx'
p3009
I3
sS'kernel.sched_domain.cpu28.domain1.busy_factor'
p3010
I32
sS'CONFIG_SND_X86'
p3011
S'y'
sS'kernel.sched_domain.cpu23.domain1.max_interval'
p3012
I72
sS'kernel.sched_domain.cpu29.domain0.flags'
p3013
I4143
sS'kernel.pty.nr'
p3014
I0
sS'kernel.sched_domain.cpu29.domain1.newidle_idx'
p3015
I0
sS'net.ipv6.conf.lo.accept_dad'
p3016
S'-1'
p3017
sS'net.ipv6.conf.ens3.router_solicitation_delay'
p3018
I1
sS'net.ipv6.conf.lo.mldv1_unsolicited_report_interval'
p3019
I10000
sS'kernel.sched_domain.cpu32.domain0.busy_idx'
p3020
I2
sS'net.ipv6.conf.ens3.router_solicitation_max_interval'
p3021
I3600
sS'kernel.sched_domain.cpu8.domain0.imbalance_pct'
p3022
I125
sS'net.ipv4.tcp_base_mss'
p3023
I1024
sS'CONFIG_HAVE_PERF_EVENTS_NMI'
p3024
S'y'
sS'CONFIG_ASYMMETRIC_KEY_TYPE'
p3025
S'y'
sS'CONFIG_MFD_WM8350'
p3026
S'y'
sS'net.ipv6.conf.all.accept_ra_mtu'
p3027
I1
sS'kernel.sched_domain.cpu10.domain1.name'
p3028
S'NUMA'
p3029
sS'kernel.sched_domain.cpu9.domain0.max_interval'
p3030
I48
sS'CONFIG_FS_DAX'
p3031
S'y'
sS'net.ipv4.conf.default.bootp_relay'
p3032
I0
sS'kernel.sched_domain.cpu21.domain0.min_interval'
p3033
I24
sS'CONFIG_COREDUMP'
p3034
S'y'
sS'CONFIG_MFD_TPS65912'
p3035
S'y'
sS'kernel.sched_domain.cpu13.domain0.newidle_idx'
p3036
I0
sS'net.ipv6.neigh.lo.ucast_solicit'
p3037
I3
sS'kernel.sched_domain.cpu16.domain1.idle_idx'
p3038
I2
sS'kernel.core_uses_pid'
p3039
I0
sS'net.ipv6.conf.lo.drop_unicast_in_l2_multicast'
p3040
I0
sS'CONFIG_NET_FC'
p3041
S'y'
sS'net.ipv6.conf.default.router_solicitation_delay'
p3042
I1
sS'kernel.sched_domain.cpu24.domain1.imbalance_pct'
p3043
I125
sS'CONFIG_PCI_LOCKLESS_CONFIG'
p3044
S'y'
sS'net.ipv6.neigh.ens3.anycast_delay'
p3045
I100
sS'net.ipv6.neigh.default.proxy_qlen'
p3046
I64
sS'net.ipv4.conf.lo.drop_gratuitous_arp'
p3047
I0
sS'kernel.sched_domain.cpu4.domain1.newidle_idx'
p3048
I0
sS'net.ipv6.conf.ens3.mldv1_unsolicited_report_interval'
p3049
I10000
sS'net.ipv4.conf.lo.ignore_routes_with_linkdown'
p3050
I0
sS'CONFIG_NET_CORE'
p3051
S'y'
sS'kernel.panic_on_unrecovered_nmi'
p3052
I0
sS'CONFIG_HAVE_MEMORY_PRESENT'
p3053
S'y'
sS'net.ipv6.conf.default.keep_addr_on_down'
p3054
I0
sS'kernel.sched_domain.cpu4.domain0.max_newidle_lb_cost'
p3055
I65381
sS'CONFIG_X86_FEATURE_NAMES'
p3056
S'y'
sS'kernel.sched_domain.cpu35.domain0.forkexec_idx'
p3057
I0
sS'CONFIG_NOP_TRACER'
p3058
S'y'
sS'CONFIG_FUNCTION_TRACER'
p3059
S'y'
sS'CONFIG_CPU_FREQ_STAT'
p3060
S'y'
sS'net.ipv4.neigh.ens3.locktime'
p3061
I100
sS'kernel.sched_domain.cpu14.domain0.wake_idx'
p3062
I0
sS'net.ipv4.tcp_fwmark_accept'
p3063
I0
sS'net.ipv6.neigh.lo.unres_qlen_bytes'
p3064
I212992
sS'CONFIG_POSIX_TIMERS'
p3065
S'y'
sS'CONFIG_LWTUNNEL_BPF'
p3066
S'y'
sS'kernel.sched_domain.cpu12.domain1.cache_nice_tries'
p3067
I2
sS'net.ipv4.conf.default.disable_xfrm'
p3068
I0
sS'kernel.sched_domain.cpu13.domain0.imbalance_pct'
p3069
I125
sS'CONFIG_PHYSICAL_START'
p3070
S'0x1000000'
p3071
sS'CONFIG_COMPAT_OLD_SIGACTION'
p3072
S'y'
sS'net.ipv6.conf.lo.router_probe_interval'
p3073
I60
sS'kernel.sched_domain.cpu33.domain0.flags'
p3074
I4143
sS'kernel.sched_domain.cpu23.domain1.busy_idx'
p3075
I3
sS'net.ipv6.conf.ens3.max_addresses'
p3076
I16
sS'CONFIG_PSTORE'
p3077
S'y'
sS'CONFIG_USER_STACKTRACE_SUPPORT'
p3078
S'y'
sS'net.ipv4.conf.all.accept_source_route'
p3079
I0
sS'CONFIG_I2C'
p3080
S'y'
sS'CONFIG_X86_PAT'
p3081
S'y'
sS'CONFIG_GENERIC_HWEIGHT'
p3082
S'y'
sS'kernel.sched_domain.cpu6.domain0.max_interval'
p3083
I48
sS'CONFIG_X86_CHECK_BIOS_CORRUPTION'
p3084
S'y'
sS'kernel.sched_domain.cpu24.domain1.wake_idx'
p3085
I0
sS'CONFIG_ARCH_HAS_SG_CHAIN'
p3086
S'y'
sS'CONFIG_ARCH_SUPPORTS_ATOMIC_RMW'
p3087
S'y'
sS'kernel.sched_domain.cpu26.domain0.max_newidle_lb_cost'
p3088
I15795
sS'net.ipv4.tcp_l3mdev_accept'
p3089
I0
sS'CONFIG_RT_MUTEXES'
p3090
S'y'
sS'net.core.rmem_default'
p3091
I212992
sS'vm.min_unmapped_ratio'
p3092
I1
sS'CONFIG_RFKILL_LEDS'
p3093
S'y'
sS'CONFIG_ARCH_USES_HIGH_VMA_FLAGS'
p3094
S'y'
sS'kernel.sched_domain.cpu30.domain0.name'
p3095
S'DIE'
p3096
sS'net.ipv4.conf.lo.drop_unicast_in_l2_multicast'
p3097
I0
sS'CONFIG_THIN_ARCHIVES'
p3098
S'y'
sS'kernel.sched_domain.cpu24.domain1.name'
p3099
S'NUMA'
p3100
sS'net.ipv6.conf.all.regen_max_retry'
p3101
I3
sS'net.ipv6.conf.all.accept_ra_defrtr'
p3102
I1
sS'kernel.numa_balancing_scan_delay_ms'
p3103
I1000
sS'net.ipv4.conf.all.arp_notify'
p3104
I0
sS'CONFIG_ARCH_DISCARD_MEMBLOCK'
p3105
S'y'
sS'CONFIG_VIRTIO_PCI'
p3106
S'y'
sS'kernel.kexec_load_disabled'
p3107
I0
sS'kernel.sched_domain.cpu0.domain1.busy_idx'
p3108
I3
sS'CONFIG_LEDS_TRIGGERS'
p3109
S'y'
sS'CONFIG_X86_64'
p3110
S'y'
sS'net.ipv6.conf.default.suppress_frag_ndisc'
p3111
I1
sS'CONFIG_CRYPTO_MANAGER2'
p3112
S'y'
sS'CONFIG_USB_ARCH_HAS_HCD'
p3113
S'y'
sS'fs.file-nr'
p3114
S'1635\t0\t6576659'
p3115
sS'CONFIG_OPROFILE_NMI_TIMER'
p3116
S'y'
sS'fs.quota.cache_hits'
p3117
I0
sS'CONFIG_X86_SMAP'
p3118
S'y'
sS'CONFIG_PANIC_TIMEOUT'
p3119
I0
sS'CONFIG_SLUB_CPU_PARTIAL'
p3120
S'y'
sS'kernel.sched_domain.cpu10.domain0.max_interval'
p3121
I48
sS'CONFIG_HAVE_MEMBLOCK_NODE_MAP'
p3122
S'y'
sS'kernel.sched_domain.cpu27.domain1.wake_idx'
p3123
I0
sS'CONFIG_CRYPTO_AEAD'
p3124
S'y'
sS'kernel.sched_domain.cpu34.domain1.idle_idx'
p3125
I2
sS'kernel.sched_domain.cpu12.domain0.newidle_idx'
p3126
I0
sS'CONFIG_ARCH_MAY_HAVE_PC_FDC'
p3127
S'y'
sS'kernel.sched_domain.cpu23.domain1.name'
p3128
S'NUMA'
p3129
sS'net.ipv6.neigh.default.mcast_resolicit'
p3130
I0
sS'kernel.tainted'
p3131
I0
sS'kernel.sched_domain.cpu22.domain0.newidle_idx'
p3132
I0
sS'CONFIG_REGULATOR_TPS65217'
p3133
S'y'
sS'CONFIG_HIBERNATE_CALLBACKS'
p3134
S'y'
sS'CONFIG_CLKBLD_I8253'
p3135
S'y'
sS'CONFIG_IPV6_SUBTREES'
p3136
S'y'
sS'kernel.sched_domain.cpu4.domain0.wake_idx'
p3137
I0
sS'kernel.sched_latency_ns'
p3138
I24000000
sS'kernel.sched_domain.cpu13.domain0.min_interval'
p3139
I24
sS'CONFIG_NAMESPACES'
p3140
S'y'
sS'CONFIG_BPF_JIT'
p3141
S'y'
sS'CONFIG_DEFAULT_CUBIC'
p3142
S'y'
sS'kernel.sched_domain.cpu29.domain1.max_interval'
p3143
I72
sS'kernel.numa_balancing'
p3144
I1
sS'kernel.hardlockup_panic'
p3145
I0
sS'CONFIG_MFD_TPS65912_SPI'
p3146
S'y'
sS'CONFIG_PROC_CHILDREN'
p3147
S'y'
sS'CONFIG_PHYS_ADDR_T_64BIT'
p3148
S'y'
sS'CONFIG_HPET_TIMER'
p3149
S'y'
sS'net.ipv6.conf.all.accept_ra_rt_info_min_plen'
p3150
I0
sS'CONFIG_GENERIC_PENDING_IRQ'
p3151
S'y'
sS'net.ipv4.neigh.ens3.ucast_solicit'
p3152
I3
sS'CONFIG_KDB_CONTINUE_CATASTROPHIC'
p3153
I0
sS'kernel.sched_domain.cpu34.domain1.newidle_idx'
p3154
I0
sS'CONFIG_FB_BOOT_VESA_SUPPORT'
p3155
S'y'
sS'kernel.perf_event_max_contexts_per_stack'
p3156
I8
sS'CONFIG_DYNAMIC_FTRACE'
p3157
S'y'
sS'net.ipv6.conf.ens3.dad_transmits'
p3158
I1
sS'kernel.sched_domain.cpu10.domain0.flags'
p3159
I4143
sS'net.ipv6.conf.lo.mtu'
p3160
I65536
sS'net.ipv6.conf.all.disable_ipv6'
p3161
I0
sS'net.ipv6.conf.ens3.router_solicitations'
p3162
S'-1'
p3163
sS'kernel.sched_domain.cpu29.domain1.forkexec_idx'
p3164
I0
sS'net.ipv6.conf.lo.keep_addr_on_down'
p3165
I0
sS'CONFIG_USB_EHCI_PCI'
p3166
S'y'
sS'CONFIG_KVM_ASYNC_PF'
p3167
S'y'
sS'net.ipv6.ip6frag_time'
p3168
I60
sS'CONFIG_EFIVAR_FS'
p3169
S'y'
sS'fs.aio-max-nr'
p3170
I65536
sS'CONFIG_ARCH_SUPPORTS_INT128'
p3171
S'y'
sS'kernel.sched_domain.cpu33.domain0.imbalance_pct'
p3172
I125
sS'kernel.sched_domain.cpu7.domain1.name'
p3173
S'NUMA'
p3174
sS'CONFIG_SECURITY'
p3175
S'y'
sS'CONFIG_SPI'
p3176
S'y'
sS'net.ipv4.tcp_orphan_retries'
p3177
I0
sS'net.ipv4.tcp_fin_timeout'
p3178
I60
sS'CONFIG_IDLE_PAGE_TRACKING'
p3179
S'y'
sS'CONFIG_CRYPTO_CRYPTD'
p3180
S'm'
sS'CONFIG_DEVPORT'
p3181
S'y'
sS'kernel.sched_domain.cpu21.domain1.busy_idx'
p3182
I3
sS'CONFIG_MODULE_SIG'
p3183
S'y'
sS'kernel.sched_domain.cpu28.domain1.imbalance_pct'
p3184
I125
sS'CONFIG_ARCH_PROC_KCORE_TEXT'
p3185
S'y'
sS'CONFIG_SPARSEMEM_VMEMMAP_ENABLE'
p3186
S'y'
sS'net.ipv4.tcp_recovery'
p3187
I1
sS'kernel.sched_domain.cpu24.domain0.busy_factor'
p3188
I32
sS'CONFIG_NET_CADENCE'
p3189
S'y'
sS'CONFIG_PCIEAER'
p3190
S'y'
sS'kernel.sched_domain.cpu9.domain1.busy_factor'
p3191
I32
sS'kernel.sched_domain.cpu25.domain1.min_interval'
p3192
I36
sS'kernel.sched_domain.cpu12.domain0.max_newidle_lb_cost'
p3193
I60837
sS'CONFIG_SERIAL_8250_NR_UARTS'
p3194
I48
sS'net.ipv6.conf.ens3.forwarding'
p3195
I0
sS'CONFIG_NET_VENDOR_MYRI'
p3196
S'y'
sS'CONFIG_ARCH_SUPPORTS_NUMA_BALANCING'
p3197
S'y'
sS'kernel.sched_domain.cpu24.domain0.flags'
p3198
I4143
sS'net.ipv4.neigh.ens3.anycast_delay'
p3199
I100
sS'CONFIG_SND_PCM'
p3200
S'm'
sS'net.ipv6.conf.default.mldv1_unsolicited_report_interval'
p3201
I10000
sS'kernel.sched_domain.cpu29.domain0.idle_idx'
p3202
I1
sS'CONFIG_ARCH_HAS_STRICT_KERNEL_RWX'
p3203
S'y'
sS'CONFIG_TWL6040_CORE'
p3204
S'y'
sS'net.ipv4.tcp_sack'
p3205
I1
sS'CONFIG_BLK_DEV_MD'
p3206
S'y'
sS'kernel.panic_on_rcu_stall'
p3207
I0
sS'net.ipv6.conf.ens3.mtu'
p3208
I1500
sS'CONFIG_IOMMU_HELPER'
p3209
S'y'
sS'kernel.ns_last_pid'
p3210
I183487
sS'kernel.sched_domain.cpu29.domain0.forkexec_idx'
p3211
I0
sS'kernel.sched_domain.cpu31.domain1.wake_idx'
p3212
I0
sS'CONFIG_RWSEM_XCHGADD_ALGORITHM'
p3213
S'y'
sS'CONFIG_HAVE_KERNEL_GZIP'
p3214
S'y'
sS'CONFIG_MEGARAID_NEWGEN'
p3215
S'y'
sS'vm.overcommit_ratio'
p3216
I50
sS'CONFIG_MFD_TPS65217'
p3217
S'y'
sS'kernel.sched_domain.cpu8.domain1.idle_idx'
p3218
I2
sS'kernel.sched_domain.cpu16.domain0.wake_idx'
p3219
I0
sS'CONFIG_ENCRYPTED_KEYS'
p3220
S'y'
sS'kernel.sched_domain.cpu11.domain0.name'
p3221
S'DIE'
p3222
sS'kernel.sched_domain.cpu34.domain0.max_interval'
p3223
I24
sS'net.ipv6.neigh.ens3.retrans_time_ms'
p3224
I1000
sS'CONFIG_ACPI_PROCESSOR_CSTATE'
p3225
S'y'
sS'CONFIG_BLK_DEBUG_FS'
p3226
S'y'
sS'CONFIG_IPV6_PIMSM_V2'
p3227
S'y'
sS'CONFIG_INITRAMFS_SOURCE'
p3228
S'""'
p3229
sS'kernel.sched_domain.cpu5.domain0.forkexec_idx'
p3230
I0
sS'CONFIG_NET_VENDOR_TI'
p3231
S'y'
sS'CONFIG_HPET_MMAP_DEFAULT'
p3232
S'y'
sS'CONFIG_PROCESSOR_SELECT'
p3233
S'y'
sS'CONFIG_MQ_IOSCHED_KYBER'
p3234
S'y'
sS'user.max_cgroup_namespaces'
p3235
I257513
sS'dev.scsi.logging_level'
p3236
I0
sS'CONFIG_SLHC'
p3237
S'y'
sS'CONFIG_PREVENT_FIRMWARE_BUILD'
p3238
S'y'
sS'net.ipv4.conf.default.accept_redirects'
p3239
I1
sS'CONFIG_PWM_CRC'
p3240
S'y'
sS'CONFIG_ARCH_MMAP_RND_COMPAT_BITS_MIN'
p3241
I8
sS'kernel.hung_task_panic'
p3242
I0
sS'net.ipv4.tcp_retrans_collapse'
p3243
I1
sS'CONFIG_HAVE_KPROBES_ON_FTRACE'
p3244
S'y'
sS'fs.quota.writes'
p3245
I0
sS'CONFIG_ARCH_WANT_HUGE_PMD_SHARE'
p3246
S'y'
sS'kernel.sched_domain.cpu2.domain0.flags'
p3247
I4143
sS'CONFIG_PROC_VMCORE'
p3248
S'y'
sS'CONFIG_ARCH_MIGHT_HAVE_PC_PARPORT'
p3249
S'y'
sS'kernel.sched_domain.cpu7.domain0.wake_idx'
p3250
I0
sS'net.ipv6.conf.default.accept_ra_rt_info_max_plen'
p3251
I0
sS'CONFIG_ARCH_SUPPORTS_UPROBES'
p3252
S'y'
sS'CONFIG_FB_CFB_COPYAREA'
p3253
S'y'
sS'CONFIG_GENERIC_NET_UTILS'
p3254
S'y'
sS'CONFIG_SLAB_MERGE_DEFAULT'
p3255
S'y'
sS'kernel.sched_domain.cpu5.domain1.imbalance_pct'
p3256
I125
sS'CONFIG_MODULES'
p3257
S'y'
sS'CONFIG_PCI_DOMAINS'
p3258
S'y'
sS'CONFIG_HAVE_MMIOTRACE_SUPPORT'
p3259
S'y'
sS'CONFIG_WLAN_VENDOR_TI'
p3260
S'y'
sS'CONFIG_ARCH_CLOCKSOURCE_DATA'
p3261
S'y'
sS'kernel.sched_domain.cpu9.domain0.max_newidle_lb_cost'
p3262
I27617
sS'vm.dirty_background_bytes'
p3263
I0
sS'CONFIG_ARCH_SUSPEND_POSSIBLE'
p3264
S'y'
sS'kernel.hardlockup_all_cpu_backtrace'
p3265
I0
sS'kernel.sched_domain.cpu34.domain0.newidle_idx'
p3266
I0
sS'net.ipv6.conf.ens3.accept_source_route'
p3267
I0
sS'net.ipv6.conf.default.router_solicitation_max_interval'
p3268
I3600
sS'kernel.sched_domain.cpu31.domain1.forkexec_idx'
p3269
I0
sS'CONFIG_FRONTSWAP'
p3270
S'y'
sS'CONFIG_NET_VENDOR_EMULEX'
p3271
S'y'
sS'kernel.watchdog'
p3272
I1
sS'kernel.sched_domain.cpu19.domain1.cache_nice_tries'
p3273
I2
sS'CONFIG_HYPERVISOR_GUEST'
p3274
S'y'
sS'CONFIG_GART_IOMMU'
p3275
S'y'
sS'net.ipv6.conf.all.suppress_frag_ndisc'
p3276
I1
sS'kernel.sched_domain.cpu2.domain1.newidle_idx'
p3277
I0
sS'kernel.sched_domain.cpu19.domain1.imbalance_pct'
p3278
I125
sS'net.ipv6.conf.ens3.max_desync_factor'
p3279
I600
sS'net.ipv4.icmp_ratelimit'
p3280
I1000
sS'CONFIG_ALLOW_DEV_COREDUMP'
p3281
S'y'
sS'CONFIG_X86_PCC_CPUFREQ'
p3282
S'y'
sS'net.ipv4.neigh.lo.app_solicit'
p3283
I0
sS'CONFIG_ARCH_USES_PG_UNCACHED'
p3284
S'y'
sS'CONFIG_UEVENT_HELPER'
p3285
S'y'
sS'CONFIG_IMA_DEFAULT_HASH_SHA1'
p3286
S'y'
sS'kernel.sched_domain.cpu26.domain1.wake_idx'
p3287
I0
sS'net.ipv6.conf.all.use_oif_addrs_only'
p3288
I0
sS'kernel.sched_tunable_scaling'
p3289
I1
sS'CONFIG_RD_LZMA'
p3290
S'y'
sS'kernel.sched_domain.cpu11.domain0.wake_idx'
p3291
I0
sS'CONFIG_PCI_REALLOC_ENABLE_AUTO'
p3292
S'y'
sS'net.ipv6.conf.lo.mc_forwarding'
p3293
I0
sS'CONFIG_WLAN_VENDOR_ATH'
p3294
S'y'
sS'kernel.sched_domain.cpu32.domain1.busy_factor'
p3295
I32
sS'CONFIG_PM_ADVANCED_DEBUG'
p3296
S'y'
sS'kernel.bootloader_version'
p3297
I2
sS'kernel.sched_domain.cpu13.domain0.max_interval'
p3298
I48
sS'CONFIG_ARCH_MMAP_RND_COMPAT_BITS'
p3299
I8
sS'CONFIG_THERMAL_GOV_USER_SPACE'
p3300
S'y'
sS'kernel.sched_domain.cpu26.domain0.newidle_idx'
p3301
I0
sS'net.ipv6.calipso_cache_enable'
p3302
I1
sS'fs.mount-max'
p3303
I100000
sS'net.ipv6.conf.all.force_tllao'
p3304
I0
sS'CONFIG_USERFAULTFD'
p3305
S'y'
sS'CONFIG_CHELSIO_T4'
p3306
S'm'
sS'kernel.sched_schedstats'
p3307
I0
sS'CONFIG_ACPI_BGRT'
p3308
S'y'
sS'net.ipv4.neigh.default.gc_thresh1'
p3309
I128
sS'net.ipv4.neigh.default.gc_thresh2'
p3310
I512
sS'net.ipv4.neigh.default.gc_thresh3'
p3311
I1024
sS'kernel.sched_domain.cpu31.domain0.min_interval'
p3312
I12
sS'kernel.sched_domain.cpu30.domain1.name'
p3313
S'NUMA'
p3314
sS'CONFIG_MOUSE_PS2_FOCALTECH'
p3315
S'y'
sS'net.ipv4.fwmark_reflect'
p3316
I0
sS'CONFIG_IMA'
p3317
S'y'
sS'CONFIG_CPU_IDLE_GOV_MENU'
p3318
S'y'
sS'vm.dirty_background_ratio'
p3319
I10
sS'kernel.sched_domain.cpu27.domain0.imbalance_pct'
p3320
I125
sS'CONFIG_SCHED_OMIT_FRAME_POINTER'
p3321
S'y'
sS'kernel.hostname'
p3322
S'nestedvm'
p3323
sS'CONFIG_PINCTRL_AMD'
p3324
S'y'
sS'CONFIG_PROC_EVENTS'
p3325
S'y'
sS'CONFIG_UIO'
p3326
S'm'
sS'net.ipv4.conf.ens3.drop_unicast_in_l2_multicast'
p3327
I0
sS'net.ipv4.conf.lo.proxy_arp_pvlan'
p3328
I0
sS'CONFIG_DDR'
p3329
S'y'
sS'net.ipv4.conf.lo.promote_secondaries'
p3330
I0
sS'CONFIG_SECTION_MISMATCH_WARN_ONLY'
p3331
S'y'
sS'CONFIG_SRAM'
p3332
S'y'
sS'CONFIG_ARCH_HAVE_NMI_SAFE_CMPXCHG'
p3333
S'y'
sS'vm.min_free_kbytes'
p3334
I225280
sS'kernel.sched_domain.cpu25.domain1.newidle_idx'
p3335
I0
sS'CONFIG_RING_BUFFER'
p3336
S'y'
sS'kernel.sched_domain.cpu21.domain1.max_interval'
p3337
I72
sS'net.ipv4.route.min_pmtu'
p3338
I552
sS'CONFIG_HAVE_ARCH_SOFT_DIRTY'
p3339
S'y'
sS'kernel.perf_cpu_time_max_percent'
p3340
I25
sS'kernel.sched_domain.cpu25.domain1.flags'
p3341
I25647
sS'CONFIG_UPROBE_EVENTS'
p3342
S'y'
sS'kernel.sched_domain.cpu10.domain0.min_interval'
p3343
I24
sS'CONFIG_PROC_KCORE'
p3344
S'y'
sS'vm.zone_reclaim_mode'
p3345
I0
sS'dev.raid.speed_limit_min'
p3346
I1000
sS'kernel.sched_domain.cpu8.domain1.max_newidle_lb_cost'
p3347
I15417
sS'CONFIG_SECURITY_TOMOYO_MAX_ACCEPT_ENTRY'
p3348
I2048
sS'net.ipv4.route.gc_min_interval'
p3349
I0
sS'CONFIG_MAGIC_SYSRQ_DEFAULT_ENABLE'
p3350
S'0x1'
p3351
sS'CONFIG_DEVTMPFS_MOUNT'
p3352
S'y'
sS'kernel.sched_domain.cpu16.domain1.busy_idx'
p3353
I3
sS'kernel.sched_domain.cpu4.domain1.wake_idx'
p3354
I0
sS'CONFIG_USB_DWC2'
p3355
S'y'
sS'kernel.sched_domain.cpu15.domain0.name'
p3356
S'DIE'
p3357
sS'kernel.sched_domain.cpu18.domain1.cache_nice_tries'
p3358
I2
sS'net.ipv4.fib_multipath_use_neigh'
p3359
I0
sS'net.ipv4.icmp_msgs_per_sec'
p3360
I1000
sS'kernel.sched_domain.cpu15.domain0.idle_idx'
p3361
I1
sS'net.ipv4.tcp_retries1'
p3362
I3
sS'net.ipv4.tcp_retries2'
p3363
I15
sS'CONFIG_SECURITY_APPARMOR_HASH'
p3364
S'y'
sS'CONFIG_PGTABLE_LEVELS'
p3365
I4
sS'kernel.sched_domain.cpu26.domain1.imbalance_pct'
p3366
I125
sS'CONFIG_NET_VENDOR_ALACRITECH'
p3367
S'y'
sS'CONFIG_KPROBES_ON_FTRACE'
p3368
S'y'
sS'kernel.sched_domain.cpu5.domain1.idle_idx'
p3369
I2
sS'CONFIG_ARCH_MEMORY_PROBE'
p3370
S'y'
sS'CONFIG_GPIO_ACPI'
p3371
S'y'
sS'kernel.sched_domain.cpu34.domain0.busy_idx'
p3372
I2
sS'kernel.sched_domain.cpu25.domain0.imbalance_pct'
p3373
I125
sS'CONFIG_RELAY'
p3374
S'y'
sS'kernel.sched_domain.cpu29.domain1.min_interval'
p3375
I36
sS'kernel.sched_domain.cpu7.domain1.forkexec_idx'
p3376
I0
sS'kernel.sched_domain.cpu1.domain1.max_interval'
p3377
I72
sS'kernel.domainname'
p3378
S'(none)'
p3379
sS'dev.raid.speed_limit_max'
p3380
I200000
sS'CONFIG_FB_ASILIANT'
p3381
S'y'
sS'CONFIG_SYSV68_PARTITION'
p3382
S'y'
sS'CONFIG_HAVE_FTRACE_MCOUNT_RECORD'
p3383
S'y'
sS'CONFIG_XZ_DEC_ARMTHUMB'
p3384
S'y'
sS'CONFIG_VGA_ARB'
p3385
S'y'
sS'CONFIG_INTEGRITY_TRUSTED_KEYRING'
p3386
S'y'
sS'CONFIG_HW_CONSOLE'
p3387
S'y'
sS'CONFIG_MFD_TPS65910'
p3388
S'y'
sS'net.ipv4.igmp_max_msf'
p3389
I10
sS'vm.percpu_pagelist_fraction'
p3390
I0
sS'net.ipv4.conf.all.disable_xfrm'
p3391
I0
sS'kernel.sched_domain.cpu29.domain0.imbalance_pct'
p3392
I125
sS'CONFIG_PM_SLEEP_DEBUG'
p3393
S'y'
sS'CONFIG_INLINE_WRITE_UNLOCK_IRQ'
p3394
S'y'
sS'CONFIG_NET_VENDOR_RDC'
p3395
S'y'
sS'CONFIG_MFD_MAX8925'
p3396
S'y'
sS'CONFIG_XZ_DEC_X86'
p3397
S'y'
sS'kernel.sched_domain.cpu30.domain0.wake_idx'
p3398
I0
sS'CONFIG_X86_X32'
p3399
S'y'
sS'vm.vfs_cache_pressure'
p3400
I100
sS'kernel.msg_next_id'
p3401
S'-1'
p3402
sS'net.ipv4.tcp_allowed_congestion_control'
p3403
S'cubic reno'
p3404
sS'kernel.sched_wakeup_granularity_ns'
p3405
I4000000
sS'net.ipv4.neigh.ens3.mcast_resolicit'
p3406
I0
sS'net.ipv6.conf.lo.disable_policy'
p3407
I0
sS'net.ipv6.conf.lo.addr_gen_mode'
p3408
I0
sS'CONFIG_X86_SPEEDSTEP_CENTRINO'
p3409
S'y'
sS'net.ipv4.route.gc_elasticity'
p3410
I8
sS'kernel.sched_domain.cpu28.domain0.wake_idx'
p3411
I0
sS'CONFIG_HAVE_PCSPKR_PLATFORM'
p3412
S'y'
sS'kernel.sched_domain.cpu23.domain0.max_interval'
p3413
I48
sS'net.ipv4.tcp_syncookies'
p3414
I1
sS'CONFIG_ARCH_WANTS_THP_SWAP'
p3415
S'y'
sS'kernel.sched_domain.cpu24.domain1.cache_nice_tries'
p3416
I2
sS'net.ipv6.neigh.lo.mcast_solicit'
p3417
I3
sS'CONFIG_IO_DELAY_TYPE_NONE'
p3418
I3
sS'net.ipv4.tcp_slow_start_after_idle'
p3419
I1
sS'kernel.sched_domain.cpu25.domain0.min_interval'
p3420
I12
sS'CONFIG_EARLY_PRINTK_EFI'
p3421
S'y'
sS'CONFIG_PROBE_EVENTS'
p3422
S'y'
sS'CONFIG_WLAN_VENDOR_CISCO'
p3423
S'y'
sS'CONFIG_USB_DWC2_HOST'
p3424
S'y'
sS'kernel.sched_domain.cpu27.domain0.idle_idx'
p3425
I1
sS'kernel.sched_domain.cpu30.domain0.forkexec_idx'
p3426
I0
sS'CONFIG_FRAMEBUFFER_CONSOLE_ROTATION'
p3427
S'y'
sS'kernel.sched_domain.cpu34.domain0.forkexec_idx'
p3428
I0
sS'kernel.sched_domain.cpu1.domain1.idle_idx'
p3429
I2
sS'kernel.sched_domain.cpu14.domain0.newidle_idx'
p3430
I0
sS'net.core.tstamp_allow_data'
p3431
I1
sS'kernel.sched_domain.cpu18.domain0.wake_idx'
p3432
I0
sS'kernel.sched_domain.cpu0.domain1.wake_idx'
p3433
I0
sS'CONFIG_LOCALVERSION'
p3434
S'""'
p3435
sS'CONFIG_PWM'
p3436
S'y'
sS'net.unix.max_dgram_qlen'
p3437
I512
sS'kernel.sched_domain.cpu10.domain1.forkexec_idx'
p3438
I0
sS'CONFIG_TTY_PRINTK'
p3439
S'y'
sS'kernel.ctrl-alt-del'
p3440
I0
sS'kernel.sched_domain.cpu2.domain1.max_newidle_lb_cost'
p3441
I14351
sS'net.ipv4.conf.default.rp_filter'
p3442
I1
sS'kernel.sched_domain.cpu3.domain0.imbalance_pct'
p3443
I125
sS'kernel.sched_domain.cpu15.domain1.max_interval'
p3444
I72
sS'CONFIG_CRC32_SLICEBY8'
p3445
S'y'
sS'kernel.sched_domain.cpu31.domain0.max_newidle_lb_cost'
p3446
I13398
sS'CONFIG_PINMUX'
p3447
S'y'
sS'net.ipv4.conf.lo.force_igmp_version'
p3448
I0
sS'CONFIG_INTEL_IOMMU_SVM'
p3449
S'y'
sS'kernel.sched_domain.cpu13.domain1.busy_idx'
p3450
I3
sS'CONFIG_TRACE_CLOCK'
p3451
S'y'
sS'kernel.sched_domain.cpu21.domain1.forkexec_idx'
p3452
I0
sS'net.ipv4.conf.all.send_redirects'
p3453
I1
sg10
g11
sS'kernel.sched_domain.cpu15.domain1.min_interval'
p3454
I36
sS'CONFIG_NET_VENDOR_CISCO'
p3455
S'y'
sS'CONFIG_BASE_FULL'
p3456
S'y'
sS'kernel.sched_domain.cpu32.domain1.newidle_idx'
p3457
I0
sS'CONFIG_STP'
p3458
S'm'
sS'net.ipv4.conf.all.rp_filter'
p3459
I1
sS'kernel.sched_domain.cpu4.domain1.imbalance_pct'
p3460
I125
sS'CONFIG_ATA'
p3461
S'y'
sS'CONFIG_EVM_ATTR_FSUUID'
p3462
S'y'
sS'CONFIG_CRYPTO_GLUE_HELPER_X86'
p3463
S'm'
sS'net.ipv4.ip_early_demux'
p3464
I1
sS'CONFIG_BOOTPARAM_HARDLOCKUP_PANIC_VALUE'
p3465
I0
sS'CONFIG_SYSTEM_EXTRA_CERTIFICATE'
p3466
S'y'
sS'kernel.sched_domain.cpu34.domain0.max_newidle_lb_cost'
p3467
I78310
sS'kernel.sched_domain.cpu5.domain1.busy_idx'
p3468
I3
sS'CONFIG_SYSTEM_TRUSTED_KEYS'
p3469
S'""'
p3470
sS'kernel.tracepoint_printk'
p3471
I0
sS'net.ipv6.conf.lo.router_solicitation_delay'
p3472
I1
sS'CONFIG_HOTPLUG_PCI'
p3473
S'y'
sS'kernel.sched_domain.cpu0.domain0.min_interval'
p3474
I24
sS'CONFIG_SERIAL_MAX310X'
p3475
S'y'
sS'kernel.sched_domain.cpu0.domain0.idle_idx'
p3476
I1
sS'CONFIG_PNPACPI'
p3477
S'y'
sS'CONFIG_EDAC'
p3478
S'y'
sS'CONFIG_INPUT_TOUCHSCREEN'
p3479
S'y'
sS'kernel.sched_domain.cpu35.domain1.max_newidle_lb_cost'
p3480
I13845
sS'vm.numa_zonelist_order'
p3481
S'Node'
p3482
sS'kernel.sched_domain.cpu11.domain0.cache_nice_tries'
p3483
I1
sS'CONFIG_FANOTIFY'
p3484
S'y'
sS'kernel.sched_domain.cpu12.domain1.min_interval'
p3485
I36
sS'vm.memory_failure_recovery'
p3486
I1
sS'CONFIG_ACPI_HED'
p3487
S'y'
sS'kernel.sched_domain.cpu25.domain1.busy_factor'
p3488
I32
sS'net.ipv6.neigh.lo.unres_qlen'
p3489
I101
sS'CONFIG_X86_AMD_PLATFORM_DEVICE'
p3490
S'y'
sS'kernel.sched_domain.cpu27.domain0.cache_nice_tries'
p3491
I1
sS'CONFIG_FONT_8x16'
p3492
S'y'
sS'net.ipv6.mld_max_msf'
p3493
I64
sS'net.ipv4.neigh.default.proxy_delay'
p3494
I80
sS'kernel.sched_domain.cpu14.domain1.imbalance_pct'
p3495
I125
sS'kernel.seccomp.actions_avail'
p3496
S'kill_process kill_thread trap errno trace log allow'
p3497
sS'CONFIG_USB_XHCI_PCI'
p3498
S'y'
sS'CONFIG_FUTEX_PI'
p3499
S'y'
sS'kernel.sched_domain.cpu34.domain1.cache_nice_tries'
p3500
I2
sS'kernel.numa_balancing_scan_period_min_ms'
p3501
I1000
sS'kernel.sched_domain.cpu18.domain0.flags'
p3502
I4143
sS'net.ipv4.tcp_early_retrans'
p3503
I3
sS'kernel.sched_domain.cpu17.domain0.busy_idx'
p3504
I2
sS'CONFIG_NET_VENDOR_SUN'
p3505
S'y'
sS'CONFIG_KERNEL_GZIP'
p3506
S'y'
sS'kernel.sched_domain.cpu13.domain0.max_newidle_lb_cost'
p3507
I19032
sS'net.ipv6.conf.default.ndisc_notify'
p3508
I0
sS'CONFIG_SOUND_OSS_CORE'
p3509
S'y'
sS'CONFIG_DEFAULT_SECURITY'
p3510
S'"apparmor"'
p3511
sS'kernel.sched_domain.cpu3.domain1.busy_idx'
p3512
I3
sS'net.ipv4.conf.ens3.route_localnet'
p3513
I0
sS'kernel.sched_domain.cpu25.domain1.cache_nice_tries'
p3514
I2
sS'net.ipv4.conf.default.igmpv3_unsolicited_report_interval'
p3515
I1000
sS'kernel.sched_domain.cpu9.domain1.wake_idx'
p3516
I0
sS'kernel.sched_domain.cpu33.domain1.imbalance_pct'
p3517
I125
sS'CONFIG_GDB_SCRIPTS'
p3518
S'y'
sS'net.core.warnings'
p3519
I0
sS'CONFIG_CC_OPTIMIZE_FOR_PERFORMANCE'
p3520
S'y'
sS'net.ipv6.conf.default.accept_source_route'
p3521
I0
sS'kernel.sched_domain.cpu7.domain1.busy_factor'
p3522
I32
sS'kernel.sched_domain.cpu15.domain0.wake_idx'
p3523
I0
sS'kernel.sched_domain.cpu13.domain1.flags'
p3524
I25647
sS'net.ipv6.conf.all.mc_forwarding'
p3525
I0
sS'net.ipv6.conf.lo.mldv2_unsolicited_report_interval'
p3526
I1000
sS'kernel.sched_domain.cpu30.domain0.cache_nice_tries'
p3527
I1
sS'net.ipv6.conf.default.drop_unsolicited_na'
p3528
I0
sS'kernel.sched_domain.cpu29.domain0.cache_nice_tries'
p3529
I1
sS'CONFIG_SECURITY_NETWORK'
p3530
S'y'
sS'kernel.sched_domain.cpu21.domain0.flags'
p3531
I4143
sS'CONFIG_TRACER_SNAPSHOT'
p3532
S'y'
sS'net.core.message_cost'
p3533
I5
sS'net.ipv6.conf.all.router_solicitation_interval'
p3534
I4
sS'net.ipv6.neigh.lo.retrans_time_ms'
p3535
I1000
sS'vm.stat_interval'
p3536
I1
sS'CONFIG_CGROUP_CPUACCT'
p3537
S'y'
sS'CONFIG_INPUT_JOYSTICK'
p3538
S'y'
sS'kernel.sched_domain.cpu35.domain0.cache_nice_tries'
p3539
I1
sS'net.ipv4.conf.all.igmpv2_unsolicited_report_interval'
p3540
I10000
sS'net.ipv4.conf.all.accept_local'
p3541
I0
sS'CONFIG_I8253_LOCK'
p3542
S'y'
sS'CONFIG_MAC_EMUMOUSEBTN'
p3543
S'm'
sS'CONFIG_DW_DMAC_CORE'
p3544
S'y'
sS'CONFIG_HIBERNATION'
p3545
S'y'
sS'net.ipv4.udp_mem'
p3546
S'1536714\t2048952\t3073428'
p3547
sS'CONFIG_IMA_APPRAISE'
p3548
S'y'
sS'kernel.sched_domain.cpu6.domain1.idle_idx'
p3549
I2
sS'CONFIG_SND_JACK_INPUT_DEV'
p3550
S'y'
sS'CONFIG_INPUT_MOUSE'
p3551
S'y'
sS'kernel.sched_domain.cpu30.domain1.min_interval'
p3552
I36
sS'kernel.sched_domain.cpu7.domain1.wake_idx'
p3553
I0
sS'kernel.sched_domain.cpu32.domain1.min_interval'
p3554
I36
sS'CONFIG_MFD_WM8350_I2C'
p3555
S'y'
sS'net.ipv6.neigh.default.delay_first_probe_time'
p3556
I5
sS'CONFIG_CRYPTO_MD5'
p3557
S'y'
sS'kernel.sched_domain.cpu3.domain0.name'
p3558
S'DIE'
p3559
sS'kernel.sched_domain.cpu14.domain1.flags'
p3560
I25647
sS'kernel.sched_domain.cpu24.domain1.busy_idx'
p3561
I3
sS'CONFIG_USB_SUPPORT'
p3562
S'y'
sS'CONFIG_IOSF_MBI_DEBUG'
p3563
S'y'
sS'fs.leases-enable'
p3564
I1
sS'kernel.sched_domain.cpu28.domain0.forkexec_idx'
p3565
I0
sS'net.ipv6.conf.all.temp_prefered_lft'
p3566
I86400
sS'CONFIG_GENERIC_IO'
p3567
S'y'
sS'kernel.sched_domain.cpu22.domain1.busy_factor'
p3568
I32
sS'CONFIG_64BIT'
p3569
S'y'
sS'CONFIG_HAVE_IRQ_TIME_ACCOUNTING'
p3570
S'y'
sS'kernel.sched_domain.cpu4.domain0.cache_nice_tries'
p3571
I1
sS'CONFIG_AUDIT_ARCH'
p3572
S'y'
sS'fs.aio-nr'
p3573
I0
sS'CONFIG_THERMAL_HWMON'
p3574
S'y'
sS'kernel.sched_domain.cpu0.domain1.max_newidle_lb_cost'
p3575
I12879
sS'kernel.watchdog_thresh'
p3576
I10
sS'CONFIG_HZ'
p3577
I250
sS'CONFIG_X86_DEBUG_FPU'
p3578
S'y'
sS'CONFIG_MPILIB'
p3579
S'y'
sS'CONFIG_INTEGRITY_AUDIT'
p3580
S'y'
sS'CONFIG_GPIO_SYSFS'
p3581
S'y'
sS'CONFIG_KEXEC_CORE'
p3582
S'y'
sS'kernel.sched_domain.cpu9.domain0.forkexec_idx'
p3583
I0
sS'kernel.sched_domain.cpu6.domain1.imbalance_pct'
p3584
I125
sS'CONFIG_EFI'
p3585
S'y'
sS'kernel.sched_domain.cpu22.domain1.wake_idx'
p3586
I0
sS'CONFIG_NET_VENDOR_SMSC'
p3587
S'y'
sS'kernel.sched_domain.cpu0.domain1.idle_idx'
p3588
I2
sS'net.ipv6.conf.all.accept_redirects'
p3589
I1
sS'CONFIG_KEYS'
p3590
S'y'
sS'kernel.sched_domain.cpu6.domain1.min_interval'
p3591
I36
sS'kernel.sched_domain.cpu2.domain1.min_interval'
p3592
I36
sS'CONFIG_KVM_VFIO'
p3593
S'y'
sS'net.ipv4.conf.lo.disable_policy'
p3594
I1
sS'kernel.sched_domain.cpu1.domain0.imbalance_pct'
p3595
I125
sS'CONFIG_MEMORY_HOTREMOVE'
p3596
S'y'
sS'kernel.sched_domain.cpu34.domain0.wake_idx'
p3597
I0
sS'CONFIG_SECURITY_TOMOYO_POLICY_LOADER'
p3598
S'"/sbin/tomoyo-init"'
p3599
sS'CONFIG_BINFMT_ELF'
p3600
S'y'
sS'net.ipv4.tcp_rfc1337'
p3601
I0
sS'kernel.sysrq'
p3602
I176
sS'CONFIG_TASK_IO_ACCOUNTING'
p3603
S'y'
sS'CONFIG_SATA_PMP'
p3604
S'y'
sS'CONFIG_DOUBLEFAULT'
p3605
S'y'
sS'net.ipv6.conf.lo.router_solicitation_max_interval'
p3606
I3600
sa(dp3607
g10
g11
sS'fstype'
p3608
S'tmpfs-separate'
p3609
sg3
(lp3610
S'FileSystem'
p3611
ag6
ag14
aS'object'
p3612
asg8
S'FileSystem.host-192.168.123.30.fstype-tmpfs-separate'
p3613
sa(dp3614
S'topDir'
p3615
S'~/vm-scalability/bench/tmp/linux-3.18'
p3616
sS'excludes'
p3617
(lp3618
S'*/.git'
p3619
asg10
g11
sg3
(lp3620
S'PrefetchDir'
p3621
ag6
ag14
aS'object'
p3622
asg8
S'PrefetchDir.topDir-~/vm-scalability/bench/tmp/linux-3.18.host-192.168.123.30'
p3623
sa(dp3624
g8
S'SetCPUs.host-192.168.123.30'
p3625
sS'seq'
p3626
g3626
sg10
g11
sS'hotplug'
p3627
I01
sg3
(lp3628
S'SetCPUs'
p3629
ag6
ag14
aS'object'
p3630
asS'num'
p3631
I36
sa(dp3632
g10
g11
sg3
(lp3633
S'SystemMonitor'
p3634
ag6
ag14
aS'object'
p3635
asg8
S'SystemMonitor.host-192.168.123.30'
p3636
sa(dp3637
S'real'
p3638
F30.498699999999999
sS'time.iowait'
p3639
F0.02
sg8
S'GmakeLoad.trial-0.host-192.168.123.30'
p3640
sS'time.real'
p3641
F30.498699999999999
sS'time.idle'
p3642
F245.64400000000001
sS'time.sys'
p3643
F134.88999999999999
sg3
(lp3644
S'GmakeLoad'
p3645
ag6
aS'ResultsProvider'
p3646
ag14
aS'object'
p3647
asS'objPath'
p3648
S'/tmp/mosbench/tmpfs-separate/0'
p3649
sS'units'
p3650
S'builds'
p3651
sg10
g11
sS'result'
p3652
F1
sS'srcPath'
p3653
g3616
sS'cores'
p3654
I36
sS'time.steal'
p3655
F0.25
sS'time.irq'
p3656
F0
sS'time.softirq'
p3657
F0.070000000000000007
sS'time.nice'
p3658
F0
sS'unit'
p3659
S'build'
p3660
sS'time.user'
p3661
F717.41999999999996
sa.